BL51 BANKED LINKER/LOCATER V6.22                                                        08/07/2018  15:51:13  PAGE 1


BL51 BANKED LINKER/LOCATER V6.22, INVOKED BY:
C:\KEIL_V5\C51\BIN\BL51.EXE .\Obj\main.obj, .\Obj\PCF85063BTL.obj, .\Obj\UART1.obj, .\Obj\LCd_Driver_SPLC780D.obj, .\Obj
>> \KeyPad.obj, .\Obj\VCNL4035.obj, .\Obj\BipolarMotor.obj, .\Obj\ADC.obj, .\Obj\STARTUP.obj TO .\Obj\GPIO_RTC_Test PRIN
>> T (.\Lis\GPIO_RTC_Test.m51) RAMSIZE (256)


MEMORY MODEL: LARGE WITH FLOATING POINT ARITHMETIC


INPUT MODULES INCLUDED:
  .\Obj\main.obj (MAIN)
  .\Obj\PCF85063BTL.obj (PCF85063BTL)
  .\Obj\UART1.obj (UART1)
  .\Obj\LCd_Driver_SPLC780D.obj (LCD_DRIVER_SPLC780D)
  .\Obj\KeyPad.obj (KEYPAD)
  .\Obj\VCNL4035.obj (VCNL4035)
  .\Obj\BipolarMotor.obj (BIPOLARMOTOR)
  .\Obj\ADC.obj (ADC)
  .\Obj\STARTUP.obj (?C_STARTUP)
  C:\KEIL_V5\C51\LIB\C51FPL.LIB (?C?FPADD)
  C:\KEIL_V5\C51\LIB\C51FPL.LIB (?C?FPMUL)
  C:\KEIL_V5\C51\LIB\C51FPL.LIB (?C?FPDIV)
  C:\KEIL_V5\C51\LIB\C51FPL.LIB (?C?FPCMP)
  C:\KEIL_V5\C51\LIB\C51FPL.LIB (?C?FPNEG)
  C:\KEIL_V5\C51\LIB\C51FPL.LIB (?C?FCAST)
  C:\KEIL_V5\C51\LIB\C51FPL.LIB (?C?CASTF)
  C:\KEIL_V5\C51\LIB\C51FPL.LIB (POW)
  C:\KEIL_V5\C51\LIB\C51FPL.LIB (?C?FPGETOPN)
  C:\KEIL_V5\C51\LIB\C51FPL.LIB (?C?CHKFLOAT)
  C:\KEIL_V5\C51\LIB\C51FPL.LIB (EXP)
  C:\KEIL_V5\C51\LIB\C51FPL.LIB (LOG)
  C:\KEIL_V5\C51\LIB\C51FPL.LIB (?C?FPSERIES)
  C:\KEIL_V5\C51\LIB\C51L.LIB (?C_INIT)
  C:\KEIL_V5\C51\LIB\C51L.LIB (?C?CLDPTR)
  C:\KEIL_V5\C51\LIB\C51L.LIB (?C?CSTPTR)
  C:\KEIL_V5\C51\LIB\C51L.LIB (?C?IMUL)
  C:\KEIL_V5\C51\LIB\C51L.LIB (?C?UIDIV)
  C:\KEIL_V5\C51\LIB\C51L.LIB (?C?SIDIV)
  C:\KEIL_V5\C51\LIB\C51L.LIB (?C?ILDIX)
  C:\KEIL_V5\C51\LIB\C51L.LIB (?C?LNEG)
  C:\KEIL_V5\C51\LIB\C51L.LIB (?C?LLDPTR)
  C:\KEIL_V5\C51\LIB\C51L.LIB (?C?LSTPTR)
  C:\KEIL_V5\C51\LIB\C51L.LIB (?C?LLDCODE)
  C:\KEIL_V5\C51\LIB\C51L.LIB (?C?LLDXDATA0)
  C:\KEIL_V5\C51\LIB\C51L.LIB (?C?LLDCODE0)
  C:\KEIL_V5\C51\LIB\C51L.LIB (?C?LLDPTR0)
  C:\KEIL_V5\C51\LIB\C51L.LIB (?C?LSTXDATA)
  C:\KEIL_V5\C51\LIB\C51L.LIB (?C?LSTKXDATA)
  C:\KEIL_V5\C51\LIB\C51L.LIB (?C?OFFXADD)
  C:\KEIL_V5\C51\LIB\C51L.LIB (ABS)
  C:\KEIL_V5\C51\LIB\C51L.LIB (ATOI)
  C:\KEIL_V5\C51\LIB\C51L.LIB (?C?IILDX)
  C:\KEIL_V5\C51\LIB\C51L.LIB (?C?LLDIDATA)
  C:\KEIL_V5\C51\LIB\C51L.LIB (?C?LLDXDATA)
  C:\KEIL_V5\C51\LIB\C51L.LIB (?C?LLDPDATA)
  C:\KEIL_V5\C51\LIB\C51L.LIB (?C?LLDIDATA0)
  C:\KEIL_V5\C51\LIB\C51L.LIB (?C?LLDPDATA0)
  C:\KEIL_V5\C51\LIB\C51L.LIB (?C?LSTIDATA)
BL51 BANKED LINKER/LOCATER V6.22                                                      08/07/2018  15:51:13  PAGE 2


  C:\KEIL_V5\C51\LIB\C51L.LIB (?C?LSTPDATA)
  C:\KEIL_V5\C51\LIB\C51L.LIB (ISDIGIT)
  C:\KEIL_V5\C51\LIB\C51L.LIB (ISSPACE)


LINK MAP OF MODULE:  .\Obj\GPIO_RTC_Test (MAIN)


            TYPE    BASE      LENGTH    RELOCATION   SEGMENT NAME
            -----------------------------------------------------

            * * * * * * *   D A T A   M E M O R Y   * * * * * * *
            REG     0000H     0008H     ABSOLUTE     "REG BANK 0"
            REG     0008H     0008H     ABSOLUTE     "REG BANK 1"
                    0010H     0010H                  *** GAP ***
            BIT     0020H.0   0000H.3   UNIT         ?BI?KEYPAD
            BIT     0020H.3   0000H.3   UNIT         _BIT_GROUP_
            BIT     0020H.6   0000H.1   UNIT         ?BI?MAIN
                    0020H.7   0000H.1                *** GAP ***
            IDATA   0021H     0001H     UNIT         ?STACK

            * * * * * * *  X D A T A   M E M O R Y  * * * * * * *
            XDATA   0000H     007CH     UNIT         ?XD?BIPOLARMOTOR
            XDATA   007CH     004AH     UNIT         _XDATA_GROUP_
            XDATA   00C6H     001CH     UNIT         ?XD?MAIN
            XDATA   00E2H     0009H     UNIT         ?XD?KEYPAD
            XDATA   00EBH     0008H     UNIT         ?XD?_READ_VCNL4035?VCNL4035
            XDATA   00F3H     0004H     UNIT         ?XD?_DISPLAY_PROX?MAIN
            XDATA   00F7H     0003H     UNIT         ?XD?_SENDSTRING?UART1
            XDATA   00FAH     0001H     UNIT         ?XD?UC_ACK?VCNL4035
            XDATA   00FBH     0001H     UNIT         ?XD?UC_NACK?VCNL4035
            XDATA   00FCH     0001H     UNIT         ?XD?_DISPLAYLCD_VCNL4035?VCNL4035

            * * * * * * *   C O D E   M E M O R Y   * * * * * * *
            CODE    0000H     0003H     ABSOLUTE     
            CODE    0003H     0007H     UNIT         ?PR?KEYPAD_IO_INIT?KEYPAD
            CODE    000AH     0001H     UNIT         ?PR?TM0_ISR?MAIN
            CODE    000BH     0003H     ABSOLUTE     
            CODE    000EH     0015H     UNIT         ?PR?_DISPLAY_LINE?LCD_DRIVER_SPLC780D
            CODE    0023H     0003H     ABSOLUTE     
            CODE    0026H     0005H     UNIT         ?PR?_UNIT?UART1
            CODE    002BH     0003H     ABSOLUTE     
            CODE    002EH     0675H     UNIT         ?C?LIB_CODE
            CODE    06A3H     0284H     UNIT         ?PR?MAIN?MAIN
            CODE    0927H     0279H     UNIT         ?PR?KEY_PROCESS?KEYPAD
            CODE    0BA0H     022FH     UNIT         ?PR?_UPDATE_POSITION?BIPOLARMOTOR
            CODE    0DCFH     01F5H     UNIT         ?PR?_TREND_LINE_30_31?BIPOLARMOTOR
            CODE    0FC4H     01B5H     UNIT         ?PR?_DISPLAY_POS?MAIN
            CODE    1179H     0194H     UNIT         ?PR?KEY_SCAN?KEYPAD
            CODE    130DH     0166H     UNIT         ?PR?_POW?POW
            CODE    1473H     0129H     UNIT         ?PR?LOG?LOG
            CODE    159CH     00DBH     UNIT         ?PR?_ATOI?ATOI
            CODE    1677H     00C5H     UNIT         ?C_INITSEG
            CODE    173CH     009BH     UNIT         ?PR?UART?MAIN
            CODE    17D7H     009AH     UNIT         ?PR?_READ_VCNL4035?VCNL4035
            CODE    1871H     009AH     UNIT         ?PR?EXP?EXP
            CODE    190BH     0095H     UNIT         ?PR?_DISPLAY_PROX?MAIN
BL51 BANKED LINKER/LOCATER V6.22                                                      08/07/2018  15:51:13  PAGE 3


            CODE    19A0H     008CH     UNIT         ?C_C51STARTUP
            CODE    1A2CH     0084H     UNIT         ?PR?_DAY_OF_YEAR?PCF85063BTL
            CODE    1AB0H     0075H     UNIT         ?PR?_WRITEDATA?LCD_DRIVER_SPLC780D
            CODE    1B25H     006FH     UNIT         ?PR?_READ_TIME?PCF85063BTL
            CODE    1B94H     0059H     UNIT         ?PR?_STEP_MOVE?BIPOLARMOTOR
            CODE    1BEDH     0054H     UNIT         ?PR?LCD_INIT?LCD_DRIVER_SPLC780D
            CODE    1C41H     0049H     UNIT         ?PR?_WRITE_VCNL4035X?VCNL4035
            CODE    1C8AH     0040H     UNIT         ?PR?_COMMAND?LCD_DRIVER_SPLC780D
            CODE    1CCAH     003FH     UNIT         ?PR?ADC_ISR?ADC
            CODE    1D09H     0034H     UNIT         ?PR?_MOVE?BIPOLARMOTOR
            CODE    1D3DH     0033H     UNIT         ?PR?_SENDSTRING?UART1
            CODE    1D70H     002CH     UNIT         ?PR?I2C_RECEIVEBYTE?VCNL4035
            CODE    1D9CH     002BH     UNIT         ?PR?_WAIT_MS_I2C?VCNL4035
            CODE    1DC7H     0024H     UNIT         ?PR?_WAIT_MS?LCD_DRIVER_SPLC780D
            CODE    1DEBH     0024H     UNIT         ?PR?_BCDTODEC1?BIPOLARMOTOR
            CODE    1E0FH     0022H     UNIT         ?PR?_I2C_SENDBYTE?VCNL4035
            CODE    1E31H     0020H     UNIT         ?PR?_SPI_SENDBYTE?PCF85063BTL
            CODE    1E51H     0020H     UNIT         ?PR?SPI_RECEIVEBYTE?PCF85063BTL
            CODE    1E71H     001EH     UNIT         ?PR?_DELAY_MS?KEYPAD
            CODE    1E8FH     001EH     UNIT         ?PR?_WAIT_MS_IIC?VCNL4035
            CODE    1EADH     001DH     UNIT         ?PR?_DISPLAYLCD?LCD_DRIVER_SPLC780D
            CODE    1ECAH     001BH     UNIT         ?PR?I2C_ACK?VCNL4035
            CODE    1EE5H     0018H     UNIT         ?PR?_SPI_WRITETIME?PCF85063BTL
            CODE    1EFDH     0017H     UNIT         ?PR?_ASCIITOBCD?UART1
            CODE    1F14H     0017H     UNIT         ?PR?I2C_INIT?VCNL4035
            CODE    1F2BH     0015H     UNIT         ?PR?I2C_STOP?VCNL4035
            CODE    1F40H     0014H     UNIT         ?PR?_PCF85063BTL_DELAY?PCF85063BTL
            CODE    1F54H     0014H     UNIT         ?PR?_ISSPACE?ISSPACE
            CODE    1F68H     0013H     UNIT         ?PR?I2C_START?VCNL4035
            CODE    1F7BH     0011H     UNIT         ?PR?_SPI_READTIME?PCF85063BTL
            CODE    1F8CH     0011H     UNIT         ?PR?_BCDTODEC?PCF85063BTL
            CODE    1F9DH     0011H     UNIT         ?PR?INITUART1?UART1
            CODE    1FAEH     0011H     UNIT         ?PR?INITADC?ADC
            CODE    1FBFH     000FH     UNIT         ?PR?UC_NACK?VCNL4035
            CODE    1FCEH     000FH     UNIT         ?PR?_ISDIGIT?ISDIGIT
            CODE    1FDDH     000DH     UNIT         ?PR?SPI_INIT?PCF85063BTL
            CODE    1FEAH     000CH     UNIT         ?PR?_ABS?ABS
            CODE    1FF6H     000AH     UNIT         ?PR?LCD_RETURN_HOME?LCD_DRIVER_SPLC780D
            CODE    2000H     000AH     UNIT         ?PR?LCD_CLEAR?LCD_DRIVER_SPLC780D
            CODE    200AH     0009H     UNIT         ?PR?_SENDUART1?MAIN
            CODE    2013H     0006H     UNIT         ?PR?_TEN?UART1
            CODE    2019H     0006H     UNIT         ?PR?UC_ACK?VCNL4035
            CODE    201FH     0006H     UNIT         ?PR?_DISPLAYLCD_VCNL4035?VCNL4035
            CODE    2025H     0005H     UNIT         ?PR?_ASCII_LETTER?UART1
            CODE    202AH     0001H     UNIT         ?PR?_DECTOBCD?UART1
            CODE    202BH     0001H     UNIT         ?PR?NOP?VCNL4035



OVERLAY MAP OF MODULE:   .\Obj\GPIO_RTC_Test (MAIN)


SEGMENT                                            BIT_GROUP          XDATA_GROUP
  +--> CALLED SEGMENT                           START    LENGTH     START    LENGTH
-----------------------------------------------------------------------------------
?PR?UART?MAIN                                   -----    -----      -----    -----
  +--> ?PR?_ASCIITOBCD?UART1
BL51 BANKED LINKER/LOCATER V6.22                                                      08/07/2018  15:51:13  PAGE 4



?PR?_ASCIITOBCD?UART1                           -----    -----      -----    -----
  +--> ?PR?_ATOI?ATOI

?PR?_ATOI?ATOI                                  0020H.3  0000H.1    007CH    0005H
  +--> ?PR?_ISSPACE?ISSPACE
  +--> ?PR?_ISDIGIT?ISDIGIT

*** NEW ROOT ***************************************************

?C_C51STARTUP                                   -----    -----      -----    -----
  +--> ?PR?MAIN?MAIN
  +--> ?C_INITSEG

?PR?MAIN?MAIN                                   -----    -----      0081H    0017H
  +--> ?PR?LCD_INIT?LCD_DRIVER_SPLC780D
  +--> ?PR?SPI_INIT?PCF85063BTL
  +--> ?PR?KEYPAD_IO_INIT?KEYPAD
  +--> ?PR?INITUART1?UART1
  +--> ?PR?I2C_INIT?VCNL4035
  +--> ?PR?_SPI_WRITETIME?PCF85063BTL
  +--> ?PR?_DELAY_MS?KEYPAD
  +--> ?PR?_DISPLAY_LINE?LCD_DRIVER_SPLC780D
  +--> ?PR?_WRITEDATA?LCD_DRIVER_SPLC780D
  +--> ?PR?KEY_PROCESS?KEYPAD
  +--> ?PR?_COMMAND?LCD_DRIVER_SPLC780D
  +--> ?PR?_DISPLAY_POS?MAIN
  +--> ?PR?_DISPLAYLCD?LCD_DRIVER_SPLC780D
  +--> ?PR?_STEP_MOVE?BIPOLARMOTOR
  +--> ?PR?LCD_RETURN_HOME?LCD_DRIVER_SPLC780D
  +--> ?PR?_READ_TIME?PCF85063BTL
  +--> ?PR?_UPDATE_POSITION?BIPOLARMOTOR
  +--> ?PR?_SENDUART1?MAIN

?PR?LCD_INIT?LCD_DRIVER_SPLC780D                -----    -----      -----    -----
  +--> ?PR?_WAIT_MS?LCD_DRIVER_SPLC780D
  +--> ?PR?_COMMAND?LCD_DRIVER_SPLC780D

?PR?_COMMAND?LCD_DRIVER_SPLC780D                -----    -----      -----    -----
  +--> ?PR?_WAIT_MS?LCD_DRIVER_SPLC780D

?PR?I2C_INIT?VCNL4035                           -----    -----      -----    -----
  +--> ?PR?_WRITE_VCNL4035X?VCNL4035

?PR?_WRITE_VCNL4035X?VCNL4035                   -----    -----      0098H    0003H
  +--> ?PR?I2C_START?VCNL4035
  +--> ?PR?_WAIT_MS_I2C?VCNL4035
  +--> ?PR?I2C_ACK?VCNL4035
  +--> ?PR?_I2C_SENDBYTE?VCNL4035
  +--> ?PR?I2C_STOP?VCNL4035

?PR?I2C_START?VCNL4035                          -----    -----      -----    -----
  +--> ?PR?_WAIT_MS_IIC?VCNL4035
  +--> ?PR?_WAIT_MS_I2C?VCNL4035

?PR?I2C_ACK?VCNL4035                            -----    -----      009BH    0001H
  +--> ?PR?_I2C_SENDBYTE?VCNL4035
BL51 BANKED LINKER/LOCATER V6.22                                                      08/07/2018  15:51:13  PAGE 5


  +--> ?PR?_WAIT_MS_I2C?VCNL4035

?PR?_I2C_SENDBYTE?VCNL4035                      -----    -----      -----    -----
  +--> ?PR?_WAIT_MS_I2C?VCNL4035

?PR?I2C_STOP?VCNL4035                           -----    -----      -----    -----
  +--> ?PR?_WAIT_MS_I2C?VCNL4035

?PR?_SPI_WRITETIME?PCF85063BTL                  -----    -----      -----    -----
  +--> ?PR?_SPI_SENDBYTE?PCF85063BTL

?PR?_SPI_SENDBYTE?PCF85063BTL                   -----    -----      -----    -----
  +--> ?PR?_PCF85063BTL_DELAY?PCF85063BTL

?PR?_DISPLAY_LINE?LCD_DRIVER_SPLC780D           -----    -----      -----    -----
  +--> ?PR?_COMMAND?LCD_DRIVER_SPLC780D

?PR?_WRITEDATA?LCD_DRIVER_SPLC780D              -----    -----      00A2H    0001H
  +--> ?PR?_WAIT_MS?LCD_DRIVER_SPLC780D

?PR?KEY_PROCESS?KEYPAD                          -----    -----      0098H    0006H
  +--> ?PR?KEY_SCAN?KEYPAD
  +--> ?PR?_SPI_WRITETIME?PCF85063BTL
  +--> ?PR?LCD_CLEAR?LCD_DRIVER_SPLC780D
  +--> ?PR?_COMMAND?LCD_DRIVER_SPLC780D
  +--> ?PR?_WRITEDATA?LCD_DRIVER_SPLC780D

?PR?KEY_SCAN?KEYPAD                             -----    -----      009EH    0003H
  +--> ?PR?_DELAY_MS?KEYPAD

?PR?LCD_CLEAR?LCD_DRIVER_SPLC780D               -----    -----      -----    -----
  +--> ?PR?_COMMAND?LCD_DRIVER_SPLC780D

?PR?_DISPLAY_POS?MAIN                           -----    -----      0098H    000AH
  +--> ?PR?_ABS?ABS
  +--> ?PR?_WRITEDATA?LCD_DRIVER_SPLC780D

?PR?_DISPLAYLCD?LCD_DRIVER_SPLC780D             -----    -----      0098H    0001H
  +--> ?PR?_WRITEDATA?LCD_DRIVER_SPLC780D

?PR?_STEP_MOVE?BIPOLARMOTOR                     0020H.5  0000H.1    00B4H    0004H
  +--> ?PR?_WAIT_MS?LCD_DRIVER_SPLC780D

?PR?LCD_RETURN_HOME?LCD_DRIVER_SPLC780D         -----    -----      -----    -----
  +--> ?PR?_COMMAND?LCD_DRIVER_SPLC780D

?PR?_READ_TIME?PCF85063BTL                      -----    -----      0098H    000FH
  +--> ?PR?_SPI_READTIME?PCF85063BTL

?PR?_SPI_READTIME?PCF85063BTL                   -----    -----      -----    -----
  +--> ?PR?_SPI_SENDBYTE?PCF85063BTL
  +--> ?PR?SPI_RECEIVEBYTE?PCF85063BTL

?PR?SPI_RECEIVEBYTE?PCF85063BTL                 -----    -----      -----    -----
  +--> ?PR?_PCF85063BTL_DELAY?PCF85063BTL

?PR?_UPDATE_POSITION?BIPOLARMOTOR               -----    -----      0098H    0018H
BL51 BANKED LINKER/LOCATER V6.22                                                      08/07/2018  15:51:13  PAGE 6


  +--> ?PR?_DAY_OF_YEAR?PCF85063BTL
  +--> ?PR?_BCDTODEC1?BIPOLARMOTOR
  +--> ?PR?_TREND_LINE_30_31?BIPOLARMOTOR
  +--> ?PR?_MOVE?BIPOLARMOTOR

?PR?_DAY_OF_YEAR?PCF85063BTL                    -----    -----      -----    -----
  +--> ?PR?_BCDTODEC?PCF85063BTL

?PR?_TREND_LINE_30_31?BIPOLARMOTOR              -----    -----      00B0H    0008H
  +--> ?PR?_POW?POW

?PR?_POW?POW                                    -----    -----      00B8H    000AH
  +--> ?PR?LOG?LOG
  +--> ?PR?EXP?EXP

?PR?LOG?LOG                                     0020H.4  0000H.1    00C2H    0004H

?PR?_MOVE?BIPOLARMOTOR                          0020H.4  0000H.1    00B0H    0004H
  +--> ?PR?_STEP_MOVE?BIPOLARMOTOR



UNRESOLVED EXTERNAL SYMBOLS:
   ADC_DATA



SYMBOL TABLE OF MODULE:  .\Obj\GPIO_RTC_Test (MAIN)

  VALUE           TYPE          NAME
  ----------------------------------

  -------         MODULE        MAIN
  C:0000H         SYMBOL        _ICE_DUMMY_
  D:0080H         PUBLIC        P0
  D:0090H         PUBLIC        P1
  D:00A0H         PUBLIC        P2
  D:00B0H         PUBLIC        P3
  D:00C0H         PUBLIC        P4
  D:00C8H         PUBLIC        P5
  X:00CEH         SYMBOL        PressedKey
  B:00A8H.7       PUBLIC        EA
  D:00E8H         PUBLIC        P6
  D:00F8H         PUBLIC        P7
  X:00D2H         PUBLIC        RX_Data_Uart_Cnt
  D:00A8H         PUBLIC        IE
  D:00B8H         PUBLIC        IP
  B:0098H.0       PUBLIC        RI
  B:0098H.1       PUBLIC        TI
  C:173CH         PUBLIC        Uart
  D:00D8H         PUBLIC        CCON
  C:06A3H         PUBLIC        main
  D:0099H         PUBLIC        SBUF
  D:0098H         PUBLIC        SCON
  D:0089H         PUBLIC        TMOD
  D:0088H         PUBLIC        TCON
  B:00B0H.3       PUBLIC        P33
BL51 BANKED LINKER/LOCATER V6.22                                                      08/07/2018  15:51:13  PAGE 7


  X:00D4H         SYMBOL        KeyCount
  X:00D6H         PUBLIC        Rec_data_hour
  X:00D9H         PUBLIC        Rec_data_min
  D:008EH         PUBLIC        AUXR
  C:000AH         PUBLIC        tm0_isr
  B:0020H.6       PUBLIC        busy
  D:00E0H         PUBLIC        ACC
  B:00A8H.1       PUBLIC        ET0
  D:008CH         PUBLIC        TH0
  X:00DCH         PUBLIC        hour_count
  D:008AH         PUBLIC        TL0
  X:00DDH         PUBLIC        min_count
  B:0088H.4       PUBLIC        TR0
  X:00DEH         SYMBOL        KeyNum
  X:00DFH         SYMBOL        KeyNum_Old
  C:190BH         PUBLIC        _Display_Prox
  C:0FC4H         PUBLIC        _Display_Pos
  X:00E0H         PUBLIC        st_time
  D:00D0H         PUBLIC        PSW
  C:200AH         PUBLIC        _SendUART1
  -------         PROC          TM0_ISR
  C:000AH         LINE#         53
  C:000AH         LINE#         56
  -------         ENDPROC       TM0_ISR
  -------         PROC          MAIN
  -------         DO            
  X:0081H         SYMBOL        seconds
  X:0082H         SYMBOL        mins
  X:0083H         SYMBOL        hours
  X:0084H         SYMBOL        days
  X:0085H         SYMBOL        months
  X:0086H         SYMBOL        mins1
  X:0087H         SYMBOL        hours1
  X:0088H         SYMBOL        mins2
  X:0089H         SYMBOL        hours2
  X:008AH         SYMBOL        prox_data
  X:00C6H         SYMBOL        KeyCount
  X:00C8H         SYMBOL        KeyNum_Old
  X:00C9H         SYMBOL        KeyNum
  X:00CAH         SYMBOL        PressedKey
  X:008CH         SYMBOL        prox_flag
  X:008DH         SYMBOL        count
  X:008FH         SYMBOL        numStr
  X:0094H         SYMBOL        current_position
  -------         ENDDO         
  C:06A3H         LINE#         58
  C:06A3H         LINE#         59
  C:06A3H         LINE#         64
  C:06A9H         LINE#         66
  C:06AEH         LINE#         68
  C:06B8H         LINE#         69
  C:06BAH         LINE#         70
  C:06BCH         LINE#         71
  C:06BEH         LINE#         80
  C:06C1H         LINE#         81
  C:06C4H         LINE#         82
  C:06C7H         LINE#         83
BL51 BANKED LINKER/LOCATER V6.22                                                      08/07/2018  15:51:13  PAGE 8


  C:06CAH         LINE#         84
  C:06CDH         LINE#         86
  C:06D0H         LINE#         87
  C:06D3H         LINE#         88
  C:06D6H         LINE#         89
  C:06D8H         LINE#         90
  C:06DAH         LINE#         91
  C:06DCH         LINE#         93
  C:06DEH         LINE#         94
  C:06E5H         LINE#         95
  C:06ECH         LINE#         96
  C:06F3H         LINE#         97
  C:06FAH         LINE#         101
  C:0701H         LINE#         102
  C:0706H         LINE#         103
  C:070BH         LINE#         104
  C:0710H         LINE#         105
  C:0715H         LINE#         106
  C:071AH         LINE#         109
  C:071AH         LINE#         110
  C:071AH         LINE#         111
  C:071DH         LINE#         112
  C:072BH         LINE#         114
  C:072BH         LINE#         117
  C:0730H         LINE#         118
  C:0735H         LINE#         120
  C:073AH         LINE#         121
  C:073FH         LINE#         122
  C:0744H         LINE#         123
  C:0749H         LINE#         125
  C:075AH         LINE#         127
  C:0761H         LINE#         128
  C:0769H         LINE#         129
  C:076EH         LINE#         130
  C:0776H         LINE#         131
  C:077BH         LINE#         132
  C:0785H         LINE#         134
  C:078DH         LINE#         136
  C:0795H         LINE#         148
  C:0798H         LINE#         149
  C:0798H         LINE#         150
  C:07A3H         LINE#         151
  C:07BAH         LINE#         152
  C:07BAH         LINE#         153
  C:07BCH         LINE#         154
  C:07BEH         LINE#         156
  C:07BEH         LINE#         157
  C:07C9H         LINE#         158
  C:07C9H         LINE#         159
  C:07CEH         LINE#         160
  C:07CEH         LINE#         161
  C:07D1H         LINE#         162
  C:07D1H         LINE#         163
  C:07D3H         LINE#         164
  C:07DEH         LINE#         165
  C:07F5H         LINE#         166
  C:07F5H         LINE#         167
BL51 BANKED LINKER/LOCATER V6.22                                                      08/07/2018  15:51:13  PAGE 9


  C:07F7H         LINE#         168
  C:07F9H         LINE#         170
  C:07F9H         LINE#         171
  C:0804H         LINE#         172
  C:0804H         LINE#         173
  C:0809H         LINE#         174
  C:0809H         LINE#         182
  C:082BH         LINE#         183
  C:082BH         LINE#         184
  C:0835H         LINE#         185
  C:083BH         LINE#         186
  C:083DH         LINE#         187
  C:083FH         LINE#         188
  C:0841H         LINE#         189
  C:0841H         LINE#         190
  C:0844H         LINE#         192
  C:0844H         LINE#         193
  C:084CH         LINE#         194
  C:0854H         LINE#         195
  C:085CH         LINE#         196
  C:0864H         LINE#         197
  C:089FH         LINE#         201
  C:08C6H         LINE#         202
  C:08ECH         LINE#         206
  C:08F9H         LINE#         207
  C:08F9H         LINE#         208
  C:0903H         LINE#         209
  C:090DH         LINE#         210
  C:0914H         LINE#         211
  C:091CH         LINE#         212
  C:0924H         LINE#         213
  -------         ENDPROC       MAIN
  -------         PROC          UART
  C:173CH         LINE#         226
  C:1749H         LINE#         228
  C:174CH         LINE#         229
  C:174CH         LINE#         230
  C:175AH         LINE#         231
  C:175CH         LINE#         232
  C:176EH         LINE#         233
  C:177DH         LINE#         234
  C:1788H         LINE#         235
  C:1788H         LINE#         238
  C:1795H         LINE#         239
  C:179BH         LINE#         240
  C:179BH         LINE#         241
  C:17A1H         LINE#         242
  C:17AFH         LINE#         243
  C:17BDH         LINE#         244
  C:17C5H         LINE#         249
  C:17C5H         LINE#         250
  C:17C5H         LINE#         253
  C:17C5H         LINE#         254
  C:17C8H         LINE#         255
  C:17C8H         LINE#         256
  C:17CAH         LINE#         257
  C:17CCH         LINE#         258
BL51 BANKED LINKER/LOCATER V6.22                                                      08/07/2018  15:51:13  PAGE 10


  C:17CCH         LINE#         259
  -------         ENDPROC       UART
  -------         PROC          _SENDUART1
  D:0007H         SYMBOL        dat
  C:200AH         LINE#         262
  C:200AH         LINE#         263
  C:200AH         LINE#         264
  C:200DH         LINE#         265
  C:200FH         LINE#         266
  C:2010H         LINE#         267
  C:2012H         LINE#         268
  -------         ENDPROC       _SENDUART1
  -------         PROC          _DISPLAY_PROX
  D:0002H         SYMBOL        dat
  -------         DO            
  X:00F3H         SYMBOL        unit
  X:00F4H         SYMBOL        ten
  X:00F5H         SYMBOL        hundred
  X:00F6H         SYMBOL        thousand
  -------         ENDDO         
  C:190BH         LINE#         271
  C:190FH         LINE#         272
  C:190FH         LINE#         274
  C:191BH         LINE#         275
  C:192BH         LINE#         276
  C:1947H         LINE#         277
  C:1977H         LINE#         278
  C:1981H         LINE#         279
  C:198BH         LINE#         280
  C:1995H         LINE#         281
  C:199FH         LINE#         283
  -------         ENDPROC       _DISPLAY_PROX
  -------         PROC          _DISPLAY_POS
  X:0098H         SYMBOL        sign_dat
  -------         DO            
  X:009CH         SYMBOL        unit
  X:009DH         SYMBOL        ten
  X:009EH         SYMBOL        hundred
  D:0003H         SYMBOL        thousand
  X:009FH         SYMBOL        after_dot
  X:00A0H         SYMBOL        dat
  -------         ENDDO         
  C:0FC4H         LINE#         286
  C:0FCAH         LINE#         287
  C:0FCAH         LINE#         291
  C:0FE6H         LINE#         292
  C:1000H         LINE#         293
  C:1024H         LINE#         295
  C:106EH         LINE#         297
  C:1085H         LINE#         298
  C:1092H         LINE#         299
  C:10B4H         LINE#         300
  C:10E9H         LINE#         301
  C:1101H         LINE#         302
  C:1101H         LINE#         304
  C:110BH         LINE#         305
  C:1115H         LINE#         306
BL51 BANKED LINKER/LOCATER V6.22                                                      08/07/2018  15:51:13  PAGE 11


  C:111FH         LINE#         307
  C:1124H         LINE#         308
  C:112EH         LINE#         309
  C:1133H         LINE#         310
  C:1138H         LINE#         311
  C:113AH         LINE#         312
  C:113CH         LINE#         314
  C:113CH         LINE#         316
  C:1141H         LINE#         317
  C:114BH         LINE#         318
  C:1155H         LINE#         319
  C:115FH         LINE#         320
  C:1164H         LINE#         321
  C:116EH         LINE#         322
  C:1173H         LINE#         323
  C:1178H         LINE#         325
  C:1178H         LINE#         327
  -------         ENDPROC       _DISPLAY_POS
  -------         ENDMOD        MAIN

  -------         MODULE        PCF85063BTL
  C:0000H         SYMBOL        _ICE_DUMMY_
  D:0096H         PUBLIC        P2M0
  D:0080H         PUBLIC        P0
  D:0095H         PUBLIC        P2M1
  D:0090H         PUBLIC        P1
  D:00A0H         PUBLIC        P2
  D:00B0H         PUBLIC        P3
  D:00C0H         PUBLIC        P4
  D:00C8H         PUBLIC        P5
  D:00E8H         PUBLIC        P6
  B:00A0H.2       PUBLIC        PCF85063BTL_SDI
  D:00F8H         PUBLIC        P7
  B:00A0H.1       PUBLIC        PCF85063BTL_SCK
  B:00A0H.2       PUBLIC        PCF85063BTL_SDO
  D:00A8H         PUBLIC        IE
  C:1B25H         PUBLIC        _Read_time
  C:1F46H         PUBLIC        _PCF85063BTL_Delay
  D:00B8H         PUBLIC        IP
  D:00D8H         PUBLIC        CCON
  C:1A2CH         PUBLIC        _Day_Of_Year
  C:1E51H         PUBLIC        SPI_ReceiveByte
  D:0098H         PUBLIC        SCON
  D:0088H         PUBLIC        TCON
  C:1F8CH         PUBLIC        _BCDtoDec
  B:00A0H.0       PUBLIC        PCF85063BTL_CS
  C:1F7BH         PUBLIC        _SPI_ReadTime
  C:1FDDH         PUBLIC        SPI_Init
  C:1EE5H         PUBLIC        _SPI_WriteTime
  C:1E31H         PUBLIC        _SPI_SendByte
  D:00D0H         PUBLIC        PSW
  C:1F42H         SYMBOL        L?0047
  -------         PROC          L?0046
  -------         ENDPROC       L?0046
  C:1F42H         SYMBOL        L?0047
  -------         PROC          _PCF85063BTL_DELAY
  D:0006H         SYMBOL        us
BL51 BANKED LINKER/LOCATER V6.22                                                      08/07/2018  15:51:13  PAGE 12


  C:1F46H         LINE#         8
  C:1F46H         LINE#         9
  C:1F46H         LINE#         10
  C:1F50H         LINE#         11
  C:1F50H         LINE#         12
  C:1F51H         LINE#         13
  C:1F53H         LINE#         14
  -------         ENDPROC       _PCF85063BTL_DELAY
  -------         PROC          _SPI_SENDBYTE
  D:0005H         SYMBOL        dat
  -------         DO            
  D:0003H         SYMBOL        i
  -------         ENDDO         
  C:1E31H         LINE#         17
  C:1E33H         LINE#         18
  C:1E33H         LINE#         20
  C:1E35H         LINE#         21
  C:1E35H         LINE#         22
  C:1E37H         LINE#         23
  C:1E3BH         LINE#         24
  C:1E3BH         LINE#         25
  C:1E3DH         LINE#         26
  C:1E3FH         LINE#         28
  C:1E3FH         LINE#         29
  C:1E41H         LINE#         30
  C:1E41H         LINE#         31
  C:1E44H         LINE#         32
  C:1E44H         LINE#         33
  C:1E47H         LINE#         34
  C:1E4BH         LINE#         35
  C:1E50H         LINE#         36
  -------         ENDPROC       _SPI_SENDBYTE
  -------         PROC          SPI_RECEIVEBYTE
  -------         DO            
  D:0003H         SYMBOL        i
  D:0005H         SYMBOL        dat
  -------         ENDDO         
  C:1E51H         LINE#         39
  C:1E51H         LINE#         40
  C:1E51H         LINE#         42
  C:1E53H         LINE#         44
  C:1E55H         LINE#         45
  C:1E56H         LINE#         46
  C:1E56H         LINE#         47
  C:1E5AH         LINE#         48
  C:1E5CH         LINE#         49
  C:1E5FH         LINE#         51
  C:1E62H         LINE#         52
  C:1E62H         LINE#         53
  C:1E66H         LINE#         54
  C:1E66H         LINE#         55
  C:1E66H         LINE#         56
  C:1E69H         LINE#         57
  C:1E6EH         LINE#         58
  C:1E70H         LINE#         59
  -------         ENDPROC       SPI_RECEIVEBYTE
  -------         PROC          _SPI_READTIME
BL51 BANKED LINKER/LOCATER V6.22                                                      08/07/2018  15:51:13  PAGE 13


  D:0007H         SYMBOL        addr
  -------         DO            
  D:0006H         SYMBOL        dat
  -------         ENDDO         
  C:1F7BH         LINE#         61
  C:1F7BH         LINE#         62
  C:1F7BH         LINE#         64
  C:1F7DH         LINE#         65
  C:1F7FH         LINE#         66
  C:1F86H         LINE#         67
  C:1F89H         LINE#         68
  C:1F8BH         LINE#         69
  C:1F8BH         LINE#         70
  -------         ENDPROC       _SPI_READTIME
  -------         PROC          _SPI_WRITETIME
  D:0002H         SYMBOL        val
  D:0005H         SYMBOL        addr
  C:1EE5H         LINE#         71
  C:1EE7H         LINE#         72
  C:1EE7H         LINE#         74
  C:1EE9H         LINE#         75
  C:1EF0H         LINE#         76
  C:1EF5H         LINE#         77
  C:1EFAH         LINE#         78
  C:1EFCH         LINE#         79
  -------         ENDPROC       _SPI_WRITETIME
  -------         PROC          SPI_INIT
  C:1FDDH         LINE#         83
  C:1FDDH         LINE#         84
  C:1FDDH         LINE#         89
  C:1FE0H         LINE#         90
  C:1FE3H         LINE#         91
  C:1FE5H         LINE#         92
  C:1FE7H         LINE#         93
  C:1FE9H         LINE#         94
  -------         ENDPROC       SPI_INIT
  -------         PROC          _READ_TIME
  X:0098H         SYMBOL        months
  X:009BH         SYMBOL        days
  X:009EH         SYMBOL        hours
  X:00A1H         SYMBOL        mins
  X:00A4H         SYMBOL        seconds
  C:1B25H         LINE#         96
  C:1B30H         LINE#         97
  C:1B30H         LINE#         99
  C:1B44H         LINE#         101
  C:1B58H         LINE#         103
  C:1B6CH         LINE#         108
  C:1B80H         LINE#         113
  -------         ENDPROC       _READ_TIME
  -------         PROC          _BCDTODEC
  D:0007H         SYMBOL        bcd
  -------         DO            
  D:0006H         SYMBOL        hi
  D:0007H         SYMBOL        lo
  -------         ENDDO         
  C:1F8CH         LINE#         119
BL51 BANKED LINKER/LOCATER V6.22                                                      08/07/2018  15:51:13  PAGE 14


  C:1F8CH         LINE#         120
  C:1F8CH         LINE#         122
  C:1F91H         LINE#         123
  C:1F95H         LINE#         124
  C:1F9CH         LINE#         125
  -------         ENDPROC       _BCDTODEC
  -------         PROC          _DAY_OF_YEAR
  D:0007H         SYMBOL        months_bcd
  D:0005H         SYMBOL        days_bcd
  -------         DO            
  D:0004H         SYMBOL        months
  D:0007H         SYMBOL        days
  -------         ENDDO         
  C:1A2CH         LINE#         126
  C:1A2CH         LINE#         127
  C:1A2CH         LINE#         130
  C:1A31H         LINE#         132
  C:1A36H         LINE#         134
  C:1A6FH         LINE#         135
  C:1A6FH         LINE#         136
  C:1A6FH         LINE#         137
  C:1A72H         LINE#         138
  C:1A72H         LINE#         139
  C:1A72H         LINE#         140
  C:1A77H         LINE#         141
  C:1A77H         LINE#         142
  C:1A77H         LINE#         143
  C:1A7CH         LINE#         144
  C:1A7CH         LINE#         145
  C:1A7CH         LINE#         146
  C:1A81H         LINE#         147
  C:1A81H         LINE#         148
  C:1A81H         LINE#         149
  C:1A86H         LINE#         150
  C:1A86H         LINE#         151
  C:1A86H         LINE#         152
  C:1A8BH         LINE#         153
  C:1A8BH         LINE#         154
  C:1A8BH         LINE#         155
  C:1A90H         LINE#         156
  C:1A90H         LINE#         157
  C:1A90H         LINE#         158
  C:1A95H         LINE#         159
  C:1A95H         LINE#         160
  C:1A95H         LINE#         161
  C:1A9DH         LINE#         162
  C:1A9DH         LINE#         163
  C:1A9DH         LINE#         164
  C:1AA2H         LINE#         165
  C:1AA2H         LINE#         166
  C:1AA2H         LINE#         167
  C:1AA7H         LINE#         168
  C:1AA7H         LINE#         169
  C:1AA7H         LINE#         170
  C:1AAFH         LINE#         171
  C:1AAFH         LINE#         172
  C:1AAFH         LINE#         173
BL51 BANKED LINKER/LOCATER V6.22                                                      08/07/2018  15:51:13  PAGE 15


  -------         ENDPROC       _DAY_OF_YEAR
  -------         ENDMOD        PCF85063BTL

  -------         MODULE        UART1
  C:0000H         SYMBOL        _ICE_DUMMY_
  D:0080H         PUBLIC        P0
  D:0090H         PUBLIC        P1
  D:00A0H         PUBLIC        P2
  D:00B0H         PUBLIC        P3
  D:00C0H         PUBLIC        P4
  D:00C8H         PUBLIC        P5
  B:00A8H.7       PUBLIC        EA
  D:00E8H         PUBLIC        P6
  D:00F8H         PUBLIC        P7
  C:1D3DH         PUBLIC        _SendString
  D:00A8H         PUBLIC        IE
  B:00A8H.4       PUBLIC        ES
  D:00B8H         PUBLIC        IP
  C:1EFDH         PUBLIC        _ASCIItoBCD
  D:00D8H         PUBLIC        CCON
  C:1F9DH         PUBLIC        initUART1
  D:0098H         PUBLIC        SCON
  D:0088H         PUBLIC        TCON
  C:202AH         PUBLIC        _DectoBCD
  C:2025H         PUBLIC        _ASCII_Letter
  D:008EH         PUBLIC        AUXR
  C:0026H         PUBLIC        _unit
  C:2013H         PUBLIC        _ten
  D:00D6H         PUBLIC        T2H
  D:00D7H         PUBLIC        T2L
  D:00D0H         PUBLIC        PSW
  -------         PROC          INITUART1
  C:1F9DH         LINE#         21
  C:1F9DH         LINE#         22
  C:1F9DH         LINE#         23
  C:1FA0H         LINE#         24
  C:1FA3H         LINE#         25
  C:1FA6H         LINE#         26
  C:1FA9H         LINE#         27
  C:1FABH         LINE#         28
  C:1FADH         LINE#         30
  -------         ENDPROC       INITUART1
  -------         PROC          _SENDSTRING
  X:00F7H         SYMBOL        s
  C:1D3DH         LINE#         35
  C:1D48H         LINE#         36
  C:1D48H         LINE#         37
  C:1D58H         LINE#         38
  C:1D58H         LINE#         39
  C:1D6DH         LINE#         40
  C:1D6FH         LINE#         41
  -------         ENDPROC       _SENDSTRING
  -------         PROC          _TEN
  D:0007H         SYMBOL        BCD
  C:2013H         LINE#         43
  C:2013H         LINE#         44
  C:2013H         LINE#         45
BL51 BANKED LINKER/LOCATER V6.22                                                      08/07/2018  15:51:13  PAGE 16


  C:2018H         LINE#         46
  -------         ENDPROC       _TEN
  -------         PROC          _UNIT
  D:0007H         SYMBOL        BCD
  C:0026H         LINE#         47
  C:0026H         LINE#         48
  C:0026H         LINE#         52
  C:002AH         LINE#         53
  -------         ENDPROC       _UNIT
  -------         PROC          _DECTOBCD
  D:0007H         SYMBOL        dec
  C:202AH         LINE#         54
  C:202AH         LINE#         55
  C:202AH         LINE#         57
  C:202AH         LINE#         58
  -------         ENDPROC       _DECTOBCD
  -------         PROC          _ASCII_LETTER
  D:0007H         SYMBOL        dat
  C:2025H         LINE#         60
  C:2025H         LINE#         61
  C:2025H         LINE#         63
  C:2029H         LINE#         64
  -------         ENDPROC       _ASCII_LETTER
  -------         PROC          _ASCIITOBCD
  D:0001H         SYMBOL        ascii
  -------         DO            
  D:0007H         SYMBOL        dec_val
  D:0006H         SYMBOL        ten
  D:0007H         SYMBOL        unit
  -------         ENDDO         
  C:1EFDH         LINE#         66
  C:1EFDH         LINE#         67
  C:1EFDH         LINE#         69
  C:1F00H         LINE#         70
  C:1F06H         LINE#         71
  C:1F0DH         LINE#         72
  C:1F13H         LINE#         74
  -------         ENDPROC       _ASCIITOBCD
  -------         ENDMOD        UART1

  -------         MODULE        LCD_DRIVER_SPLC780D
  C:0000H         SYMBOL        _ICE_DUMMY_
  D:0080H         PUBLIC        P0
  D:0090H         PUBLIC        P1
  D:00A0H         PUBLIC        P2
  D:00B0H         PUBLIC        P3
  D:00C0H         PUBLIC        P4
  D:00C8H         PUBLIC        P5
  D:00E8H         PUBLIC        P6
  D:00F8H         PUBLIC        P7
  C:1AB0H         PUBLIC        _WriteData
  D:00A8H         PUBLIC        IE
  D:00B8H         PUBLIC        IP
  D:00D8H         PUBLIC        CCON
  B:0090H.4       PUBLIC        LCD_D4
  B:0090H.5       PUBLIC        LCD_D5
  B:0090H.6       PUBLIC        LCD_D6
BL51 BANKED LINKER/LOCATER V6.22                                                      08/07/2018  15:51:13  PAGE 17


  C:1EADH         PUBLIC        _DisplayLCD
  B:0090H.7       PUBLIC        LCD_D7
  D:0098H         PUBLIC        SCON
  D:0088H         PUBLIC        TCON
  C:2000H         PUBLIC        LCD_clear
  C:1C8AH         PUBLIC        _Command
  C:000EH         PUBLIC        _Display_Line
  C:1BEDH         PUBLIC        LCD_Init
  C:1DCDH         PUBLIC        _Wait_ms
  B:0090H.1       PUBLIC        LCD_RS
  B:0090H.2       PUBLIC        LCD_RW
  C:1FF6H         PUBLIC        LCD_return_home
  B:0090H.3       PUBLIC        LCD_E
  D:00D0H         PUBLIC        PSW
  -------         PROC          LCD_INIT
  C:1BEDH         LINE#         9
  C:1BEDH         LINE#         10
  C:1BEDH         LINE#         12
  C:1BF4H         LINE#         13
  C:1BF9H         LINE#         15
  C:1C00H         LINE#         16
  C:1C05H         LINE#         18
  C:1C08H         LINE#         19
  C:1C0DH         LINE#         21
  C:1C10H         LINE#         22
  C:1C15H         LINE#         24
  C:1C1CH         LINE#         27
  C:1C21H         LINE#         28
  C:1C26H         LINE#         30
  C:1C2BH         LINE#         31
  C:1C30H         LINE#         33
  C:1C35H         LINE#         34
  C:1C3AH         LINE#         35
  -------         ENDPROC       LCD_INIT
  -------         PROC          _WRITEDATA
  X:00A2H         SYMBOL        dat
  C:1AB0H         LINE#         38
  C:1AB5H         LINE#         39
  C:1AB5H         LINE#         44
  C:1AB7H         LINE#         45
  C:1AB9H         LINE#         47
  C:1AC7H         LINE#         48
  C:1AD3H         LINE#         49
  C:1ADFH         LINE#         50
  C:1AE9H         LINE#         51
  C:1AEBH         LINE#         52
  C:1AF2H         LINE#         53
  C:1AF4H         LINE#         55
  C:1B04H         LINE#         56
  C:1B0FH         LINE#         57
  C:1B19H         LINE#         58
  C:1B1DH         LINE#         60
  C:1B1DH         LINE#         61
  C:1B20H         LINE#         62
  C:1B22H         LINE#         63
  C:1B24H         LINE#         65
  -------         ENDPROC       _WRITEDATA
BL51 BANKED LINKER/LOCATER V6.22                                                      08/07/2018  15:51:13  PAGE 18


  -------         PROC          _COMMAND
  D:0007H         SYMBOL        dat
  C:1C8AH         LINE#         67
  C:1C8AH         LINE#         68
  C:1C8AH         LINE#         69
  C:1C8CH         LINE#         70
  C:1C8EH         LINE#         72
  C:1C98H         LINE#         73
  C:1C9CH         LINE#         75
  C:1C9EH         LINE#         76
  C:1CA7H         LINE#         77
  C:1CABH         LINE#         79
  C:1CADH         LINE#         80
  C:1CB4H         LINE#         81
  C:1CB8H         LINE#         83
  C:1CBAH         LINE#         84
  C:1CBEH         LINE#         85
  C:1CC2H         LINE#         87
  C:1CC4H         LINE#         88
  C:1CC4H         LINE#         89
  C:1CC7H         LINE#         90
  C:1CC9H         LINE#         91
  -------         ENDPROC       _COMMAND
  C:1DC9H         SYMBOL        L?0028
  -------         PROC          L?0027
  -------         ENDPROC       L?0027
  C:1DC9H         SYMBOL        L?0028
  -------         PROC          _WAIT_MS
  D:0006H         SYMBOL        ms
  -------         DO            
  D:0004H         SYMBOL        De_Cnt
  -------         ENDDO         
  C:1DCDH         LINE#         93
  C:1DCDH         LINE#         94
  C:1DCDH         LINE#         96
  C:1DD7H         LINE#         97
  C:1DD7H         LINE#         98
  C:1DEAH         LINE#         99
  C:1DEAH         LINE#         100
  -------         ENDPROC       _WAIT_MS
  -------         PROC          _DISPLAYLCD
  D:0007H         SYMBOL        BCD
  -------         DO            
  D:0006H         SYMBOL        first_digit
  X:0098H         SYMBOL        second_digit
  -------         ENDDO         
  C:1EADH         LINE#         101
  C:1EADH         LINE#         102
  C:1EADH         LINE#         104
  C:1EB4H         LINE#         105
  C:1EBDH         LINE#         107
  C:1EC2H         LINE#         109
  -------         ENDPROC       _DISPLAYLCD
  -------         PROC          LCD_RETURN_HOME
  C:1FF6H         LINE#         113
  C:1FF6H         LINE#         114
  C:1FF6H         LINE#         115
BL51 BANKED LINKER/LOCATER V6.22                                                      08/07/2018  15:51:13  PAGE 19


  C:1FFBH         LINE#         116
  -------         ENDPROC       LCD_RETURN_HOME
  -------         PROC          LCD_CLEAR
  C:2000H         LINE#         119
  C:2000H         LINE#         120
  C:2000H         LINE#         121
  C:2005H         LINE#         122
  -------         ENDPROC       LCD_CLEAR
  -------         PROC          _DISPLAY_LINE
  D:0006H         SYMBOL        line
  C:000EH         LINE#         126
  C:000EH         LINE#         127
  C:000EH         LINE#         128
  C:0014H         LINE#         129
  C:0014H         LINE#         130
  C:0016H         LINE#         131
  C:0016H         LINE#         132
  C:0018H         LINE#         134
  C:0018H         LINE#         135
  C:001DH         LINE#         136
  C:0022H         LINE#         137
  C:0022H         LINE#         138
  -------         ENDPROC       _DISPLAY_LINE
  -------         ENDMOD        LCD_DRIVER_SPLC780D

  -------         MODULE        KEYPAD
  C:0000H         SYMBOL        _ICE_DUMMY_
  D:0093H         PUBLIC        P0M1
  D:0080H         PUBLIC        P0
  D:0090H         PUBLIC        P1
  D:00A0H         PUBLIC        P2
  D:00B0H         PUBLIC        P3
  D:00C0H         PUBLIC        P4
  D:00C8H         PUBLIC        P5
  D:00E8H         PUBLIC        P6
  D:00F8H         PUBLIC        P7
  D:00A8H         PUBLIC        IE
  C:1179H         PUBLIC        Key_Scan
  D:00B8H         PUBLIC        IP
  D:00D8H         PUBLIC        CCON
  C:0003H         PUBLIC        KeyPad_IO_Init
  C:1E71H         PUBLIC        _Delay_ms
  D:0098H         PUBLIC        SCON
  D:0088H         PUBLIC        TCON
  B:0020H.0       PUBLIC        small_move
  B:0020H.1       PUBLIC        move
  B:0020H.2       PUBLIC        direction
  C:0927H         PUBLIC        Key_Process
  D:00D0H         PUBLIC        PSW
  D:0094H         PUBLIC        P0M0
  -------         PROC          _DELAY_MS
  D:0006H         SYMBOL        ms
  -------         DO            
  D:0004H         SYMBOL        De_Cnt
  -------         ENDDO         
  C:1E71H         LINE#         16
  C:1E71H         LINE#         17
BL51 BANKED LINKER/LOCATER V6.22                                                      08/07/2018  15:51:13  PAGE 20


  C:1E71H         LINE#         19
  C:1E7BH         LINE#         20
  C:1E7BH         LINE#         21
  C:1E8EH         LINE#         22
  C:1E8EH         LINE#         23
  -------         ENDPROC       _DELAY_MS
  -------         PROC          KEY_SCAN
  -------         DO            
  X:009EH         SYMBOL        KeyTemp1
  X:009FH         SYMBOL        KeyTemp2
  X:00A0H         SYMBOL        KeyValue
  -------         ENDDO         
  C:1179H         LINE#         24
  C:1179H         LINE#         25
  C:1179H         LINE#         30
  C:117CH         LINE#         33
  C:117FH         LINE#         35
  C:1187H         LINE#         36
  C:118EH         LINE#         37
  C:118EH         LINE#         38
  C:1195H         LINE#         39
  C:119AH         LINE#         40
  C:11A1H         LINE#         41
  C:11A1H         LINE#         44
  C:11A4H         LINE#         45
  C:11A7H         LINE#         46
  C:11ACH         LINE#         47
  C:11B0H         LINE#         48
  C:11B0H         LINE#         49
  C:11B8H         LINE#         50
  C:11B8H         LINE#         51
  C:11BBH         LINE#         52
  C:11C3H         LINE#         53
  C:11C5H         LINE#         55
  C:11D9H         LINE#         56
  C:11D9H         LINE#         57
  C:11D9H         LINE#         58
  C:11D9H         LINE#         59
  C:11DFH         LINE#         61
  C:11E1H         LINE#         62
  C:11E1H         LINE#         63
  C:11E1H         LINE#         64
  C:11E7H         LINE#         66
  C:11E9H         LINE#         67
  C:11E9H         LINE#         68
  C:11E9H         LINE#         69
  C:11EFH         LINE#         71
  C:11F1H         LINE#         72
  C:11F1H         LINE#         73
  C:11F1H         LINE#         74
  C:11F7H         LINE#         76
  C:11F7H         LINE#         77
  C:11F7H         LINE#         78
  C:11F7H         LINE#         81
  C:11FAH         LINE#         82
  C:11FDH         LINE#         83
  C:1205H         LINE#         84
BL51 BANKED LINKER/LOCATER V6.22                                                      08/07/2018  15:51:13  PAGE 21


  C:1209H         LINE#         85
  C:1209H         LINE#         86
  C:1211H         LINE#         87
  C:1211H         LINE#         88
  C:1214H         LINE#         89
  C:121CH         LINE#         90
  C:121EH         LINE#         91
  C:1232H         LINE#         92
  C:1232H         LINE#         93
  C:1232H         LINE#         94
  C:1232H         LINE#         95
  C:1238H         LINE#         97
  C:123AH         LINE#         98
  C:123AH         LINE#         99
  C:123AH         LINE#         100
  C:1240H         LINE#         102
  C:1242H         LINE#         103
  C:1242H         LINE#         104
  C:1242H         LINE#         105
  C:1248H         LINE#         107
  C:124AH         LINE#         108
  C:124AH         LINE#         109
  C:124AH         LINE#         110
  C:124FH         LINE#         112
  C:124FH         LINE#         113
  C:124FH         LINE#         114
  C:124FH         LINE#         117
  C:1252H         LINE#         118
  C:1255H         LINE#         119
  C:125DH         LINE#         120
  C:1261H         LINE#         121
  C:1261H         LINE#         122
  C:1269H         LINE#         123
  C:1269H         LINE#         124
  C:126CH         LINE#         125
  C:1274H         LINE#         126
  C:1276H         LINE#         127
  C:128AH         LINE#         128
  C:128AH         LINE#         129
  C:128AH         LINE#         130
  C:128AH         LINE#         131
  C:1290H         LINE#         133
  C:1292H         LINE#         134
  C:1292H         LINE#         135
  C:1292H         LINE#         136
  C:1298H         LINE#         138
  C:129AH         LINE#         139
  C:129AH         LINE#         140
  C:129AH         LINE#         141
  C:12A0H         LINE#         143
  C:12A2H         LINE#         144
  C:12A2H         LINE#         145
  C:12A2H         LINE#         146
  C:12A8H         LINE#         148
  C:12A8H         LINE#         149
  C:12A8H         LINE#         150
  C:12A8H         LINE#         154
BL51 BANKED LINKER/LOCATER V6.22                                                      08/07/2018  15:51:13  PAGE 22


  C:12ABH         LINE#         155
  C:12AEH         LINE#         156
  C:12B6H         LINE#         157
  C:12BAH         LINE#         158
  C:12BAH         LINE#         159
  C:12C2H         LINE#         160
  C:12C2H         LINE#         161
  C:12C5H         LINE#         162
  C:12CDH         LINE#         163
  C:12CFH         LINE#         164
  C:12E3H         LINE#         165
  C:12E3H         LINE#         166
  C:12E3H         LINE#         167
  C:12E3H         LINE#         168
  C:12E9H         LINE#         170
  C:12EBH         LINE#         171
  C:12EBH         LINE#         172
  C:12EBH         LINE#         173
  C:12F1H         LINE#         175
  C:12F3H         LINE#         176
  C:12F3H         LINE#         177
  C:12F3H         LINE#         178
  C:12F9H         LINE#         180
  C:12FBH         LINE#         181
  C:12FBH         LINE#         182
  C:12FBH         LINE#         183
  C:1301H         LINE#         185
  C:1301H         LINE#         186
  C:1301H         LINE#         187
  C:1301H         LINE#         189
  C:1307H         LINE#         190
  C:1307H         LINE#         192
  C:1307H         LINE#         193
  C:130AH         LINE#         194
  C:130AH         LINE#         195
  C:130AH         LINE#         197
  C:130AH         LINE#         198
  C:130CH         LINE#         199
  C:130CH         LINE#         200
  -------         ENDPROC       KEY_SCAN
  -------         PROC          KEY_PROCESS
  -------         DO            
  X:00E2H         SYMBOL        KeyCount
  X:00E4H         SYMBOL        KeyNum_Old
  X:00E5H         SYMBOL        KeyNum
  X:00E6H         SYMBOL        PressedKey
  X:0098H         SYMBOL        d
  D:0004H         SYMBOL        hours
  D:0006H         SYMBOL        mins
  X:009AH         SYMBOL        months
  X:009CH         SYMBOL        days
  -------         ENDDO         
  C:0927H         LINE#         201
  C:0927H         LINE#         202
  C:0927H         LINE#         206
  C:092FH         LINE#         207
  C:0937H         LINE#         209
BL51 BANKED LINKER/LOCATER V6.22                                                      08/07/2018  15:51:13  PAGE 23


  C:0944H         LINE#         210
  C:0944H         LINE#         211
  C:0947H         LINE#         212
  C:094AH         LINE#         214
  C:094DH         LINE#         216
  C:094DH         LINE#         217
  C:0958H         LINE#         218
  C:0958H         LINE#         219
  C:095BH         LINE#         221
  C:095BH         LINE#         222
  C:0962H         LINE#         223
  C:0962H         LINE#         224
  C:0965H         LINE#         226
  C:0965H         LINE#         228
  C:0969H         LINE#         229
  C:0969H         LINE#         230
  C:096CH         LINE#         232
  C:096CH         LINE#         233
  C:097CH         LINE#         234
  C:097CH         LINE#         235
  C:098EH         LINE#         236
  C:099CH         LINE#         237
  C:09ABH         LINE#         238
  C:09ABH         LINE#         240
  C:09B1H         LINE#         244
  C:09C7H         LINE#         245
  C:09D8H         LINE#         246
  C:09F3H         LINE#         247
  C:09F3H         LINE#         248
  C:0A03H         LINE#         249
  C:0A14H         LINE#         250
  C:0A14H         LINE#         254
  C:0A2DH         LINE#         255
  C:0A44H         LINE#         256
  C:0A64H         LINE#         257
  C:0A64H         LINE#         258
  C:0A6EH         LINE#         259
  C:0A6EH         LINE#         260
  C:0A77H         LINE#         261
  C:0A77H         LINE#         262
  C:0A8BH         LINE#         263
  C:0A8BH         LINE#         264
  C:0A8BH         LINE#         265
  C:0A8BH         LINE#         266
  C:0A8BH         LINE#         267
  C:0A8DH         LINE#         269
  C:0A8DH         LINE#         270
  C:0A99H         LINE#         271
  C:0A99H         LINE#         272
  C:0AAAH         LINE#         273
  C:0AAAH         LINE#         274
  C:0AAAH         LINE#         275
  C:0AAAH         LINE#         276
  C:0AAAH         LINE#         278
  C:0AACH         LINE#         280
  C:0AACH         LINE#         281
  C:0ABDH         LINE#         282
BL51 BANKED LINKER/LOCATER V6.22                                                      08/07/2018  15:51:13  PAGE 24


  C:0ABDH         LINE#         283
  C:0ABDH         LINE#         284
  C:0ABDH         LINE#         285
  C:0ABDH         LINE#         287
  C:0ABDH         LINE#         289
  C:0ABDH         LINE#         290
  C:0ABFH         LINE#         292
  C:0ABFH         LINE#         293
  C:0AD2H         LINE#         294
  C:0AD2H         LINE#         295
  C:0AE3H         LINE#         296
  C:0AE3H         LINE#         297
  C:0AE3H         LINE#         298
  C:0AE3H         LINE#         299
  C:0AE3H         LINE#         300
  C:0AE5H         LINE#         302
  C:0AE5H         LINE#         303
  C:0AF6H         LINE#         304
  C:0AF6H         LINE#         305
  C:0B07H         LINE#         306
  C:0B18H         LINE#         307
  C:0B18H         LINE#         308
  C:0B18H         LINE#         309
  C:0B18H         LINE#         310
  C:0B18H         LINE#         311
  C:0B1BH         LINE#         312
  C:0B20H         LINE#         313
  C:0B25H         LINE#         314
  C:0B2AH         LINE#         315
  C:0B2FH         LINE#         316
  C:0B34H         LINE#         317
  C:0B39H         LINE#         318
  C:0B3EH         LINE#         319
  C:0B3EH         LINE#         321
  C:0B60H         LINE#         322
  C:0B60H         LINE#         323
  C:0B6AH         LINE#         324
  C:0B6AH         LINE#         325
  C:0B6FH         LINE#         326
  C:0B78H         LINE#         327
  C:0B8FH         LINE#         328
  C:0B8FH         LINE#         329
  C:0B9FH         LINE#         331
  C:0B9FH         LINE#         335
  -------         ENDPROC       KEY_PROCESS
  -------         PROC          KEYPAD_IO_INIT
  C:0003H         LINE#         338
  C:0003H         LINE#         339
  C:0003H         LINE#         340
  C:0006H         LINE#         341
  C:0009H         LINE#         342
  -------         ENDPROC       KEYPAD_IO_INIT
  -------         ENDMOD        KEYPAD

  -------         MODULE        VCNL4035
  C:0000H         SYMBOL        _ICE_DUMMY_
  D:0080H         PUBLIC        P0
BL51 BANKED LINKER/LOCATER V6.22                                                      08/07/2018  15:51:13  PAGE 25


  B:00B0H.2       PUBLIC        I2C_SCK
  D:00B2H         PUBLIC        P3M0
  D:0090H         PUBLIC        P1
  D:00B1H         PUBLIC        P3M1
  D:00A0H         PUBLIC        P2
  D:00B0H         PUBLIC        P3
  D:00C0H         PUBLIC        P4
  D:00C8H         PUBLIC        P5
  D:00E8H         PUBLIC        P6
  D:00F8H         PUBLIC        P7
  D:00A8H         PUBLIC        IE
  C:201FH         PUBLIC        _DisplayLCD_VCNL4035
  D:00B8H         PUBLIC        IP
  D:00D8H         PUBLIC        CCON
  C:1F68H         PUBLIC        I2C_Start
  D:0098H         PUBLIC        SCON
  C:1F14H         PUBLIC        I2C_Init
  D:0088H         PUBLIC        TCON
  C:1FBFH         PUBLIC        uC_NACK
  C:1DA9H         PUBLIC        _Wait_ms_i2c
  C:1E0FH         PUBLIC        _I2C_SendByte
  C:1F2BH         PUBLIC        I2C_Stop
  C:1C41H         PUBLIC        _Write_VCNL4035X
  C:202BH         PUBLIC        nop
  C:17D7H         PUBLIC        _Read_VCNL4035
  C:2019H         PUBLIC        uC_ACK
  C:1ECFH         PUBLIC        I2C_ACK
  C:1E8FH         PUBLIC        _Wait_ms_iic
  B:00B0H.1       PUBLIC        I2C_SDA
  D:00D0H         PUBLIC        PSW
  C:1D76H         PUBLIC        I2C_ReceiveByte
  -------         PROC          _WAIT_MS_IIC
  D:0006H         SYMBOL        ms
  -------         DO            
  D:0004H         SYMBOL        De_Cnt
  -------         ENDDO         
  C:1E8FH         LINE#         5
  C:1E8FH         LINE#         6
  C:1E8FH         LINE#         8
  C:1E99H         LINE#         9
  C:1E99H         LINE#         10
  C:1EACH         LINE#         11
  C:1EACH         LINE#         12
  -------         ENDPROC       _WAIT_MS_IIC
  C:1DA3H         SYMBOL        L?0048
  C:1DA5H         SYMBOL        L?0049
  -------         PROC          L?0047
  -------         ENDPROC       L?0047
  C:1DA3H         SYMBOL        L?0048
  C:1DA5H         SYMBOL        L?0049
  -------         PROC          _WAIT_MS_I2C
  D:0006H         SYMBOL        ms
  -------         DO            
  D:0004H         SYMBOL        De_Cnt
  -------         ENDDO         
  C:1DA9H         LINE#         14
  C:1DA9H         LINE#         15
BL51 BANKED LINKER/LOCATER V6.22                                                      08/07/2018  15:51:13  PAGE 26


  C:1DA9H         LINE#         17
  C:1DB3H         LINE#         18
  C:1DB3H         LINE#         19
  C:1DC6H         LINE#         20
  C:1DC6H         LINE#         21
  -------         ENDPROC       _WAIT_MS_I2C
  -------         PROC          NOP
  C:202BH         LINE#         22
  C:202BH         LINE#         23
  C:202BH         LINE#         25
  -------         ENDPROC       NOP
  -------         PROC          I2C_START
  C:1F68H         LINE#         26
  C:1F68H         LINE#         27
  C:1F68H         LINE#         29
  C:1F6AH         LINE#         30
  C:1F6CH         LINE#         31
  C:1F73H         LINE#         32
  C:1F75H         LINE#         33
  C:1F78H         LINE#         34
  C:1F7AH         LINE#         37
  -------         ENDPROC       I2C_START
  -------         PROC          I2C_STOP
  C:1F2BH         LINE#         39
  C:1F2BH         LINE#         40
  C:1F2BH         LINE#         41
  C:1F2DH         LINE#         42
  C:1F2FH         LINE#         43
  C:1F32H         LINE#         44
  C:1F34H         LINE#         45
  C:1F36H         LINE#         46
  C:1F3DH         LINE#         47
  C:1F3FH         LINE#         50
  -------         ENDPROC       I2C_STOP
  -------         PROC          L?0050
  -------         ENDPROC       L?0050
  -------         PROC          I2C_ACK
  -------         DO            
  X:009BH         SYMBOL        i
  D:0003H         SYMBOL        dat
  -------         ENDDO         
  C:1ECFH         LINE#         52
  C:1ECFH         LINE#         53
  C:1ECFH         LINE#         55
  C:1ED0H         LINE#         60
  C:1ED3H         LINE#         61
  C:1ED5H         LINE#         62
  C:1ED8H         LINE#         64
  C:1EDBH         LINE#         65
  C:1EDBH         LINE#         66
  C:1EDFH         LINE#         67
  C:1EDFH         LINE#         70
  C:1EDFH         LINE#         71
  C:1EE2H         LINE#         72
  C:1EE2H         LINE#         73
  C:1EE4H         LINE#         74
  -------         ENDPROC       I2C_ACK
BL51 BANKED LINKER/LOCATER V6.22                                                      08/07/2018  15:51:13  PAGE 27


  -------         PROC          UC_ACK
  -------         DO            
  X:00FAH         SYMBOL        i
  -------         ENDDO         
  C:2019H         LINE#         75
  C:2019H         LINE#         76
  C:2019H         LINE#         78
  C:2019H         LINE#         85
  C:2019H         LINE#         87
  C:2019H         LINE#         89
  C:2019H         LINE#         90
  C:2019H         LINE#         93
  C:201CH         LINE#         94
  C:201EH         LINE#         95
  C:201EH         LINE#         99
  -------         ENDPROC       UC_ACK
  -------         PROC          UC_NACK
  -------         DO            
  X:00FBH         SYMBOL        i
  -------         ENDDO         
  C:1FBFH         LINE#         101
  C:1FBFH         LINE#         102
  C:1FBFH         LINE#         104
  C:1FBFH         LINE#         108
  C:1FC1H         LINE#         111
  C:1FC1H         LINE#         112
  C:1FC3H         LINE#         113
  C:1FC3H         LINE#         115
  C:1FC3H         LINE#         116
  C:1FC3H         LINE#         119
  C:1FC6H         LINE#         120
  C:1FC8H         LINE#         121
  C:1FCBH         LINE#         122
  C:1FCDH         LINE#         123
  C:1FCDH         LINE#         127
  -------         ENDPROC       UC_NACK
  -------         PROC          I2C_INIT
  C:1F14H         LINE#         129
  C:1F14H         LINE#         130
  C:1F14H         LINE#         133
  C:1F17H         LINE#         134
  C:1F1AH         LINE#         139
  C:1F22H         LINE#         141
  -------         ENDPROC       I2C_INIT
  -------         PROC          _I2C_SENDBYTE
  D:0001H         SYMBOL        dat
  -------         DO            
  D:0003H         SYMBOL        i
  -------         ENDDO         
  C:1E0FH         LINE#         145
  C:1E11H         LINE#         146
  C:1E11H         LINE#         149
  C:1E13H         LINE#         150
  C:1E13H         LINE#         151
  C:1E15H         LINE#         153
  C:1E19H         LINE#         154
  C:1E19H         LINE#         155
BL51 BANKED LINKER/LOCATER V6.22                                                      08/07/2018  15:51:13  PAGE 28


  C:1E1BH         LINE#         156
  C:1E1DH         LINE#         158
  C:1E1DH         LINE#         159
  C:1E1FH         LINE#         160
  C:1E1FH         LINE#         161
  C:1E22H         LINE#         162
  C:1E24H         LINE#         164
  C:1E28H         LINE#         165
  C:1E2BH         LINE#         166
  C:1E30H         LINE#         167
  -------         ENDPROC       _I2C_SENDBYTE
  -------         PROC          L?0051
  -------         ENDPROC       L?0051
  -------         PROC          I2C_RECEIVEBYTE
  -------         DO            
  D:0003H         SYMBOL        i
  D:0001H         SYMBOL        dat
  -------         ENDDO         
  C:1D76H         LINE#         171
  C:1D76H         LINE#         172
  C:1D76H         LINE#         174
  C:1D78H         LINE#         178
  C:1D79H         LINE#         179
  C:1D79H         LINE#         180
  C:1D7DH         LINE#         181
  C:1D7FH         LINE#         182
  C:1D82H         LINE#         184
  C:1D85H         LINE#         185
  C:1D85H         LINE#         186
  C:1D89H         LINE#         187
  C:1D89H         LINE#         188
  C:1D89H         LINE#         189
  C:1D8CH         LINE#         190
  C:1D90H         LINE#         191
  C:1D90H         LINE#         192
  C:1D92H         LINE#         193
  C:1D94H         LINE#         194
  C:1D94H         LINE#         196
  C:1D99H         LINE#         197
  C:1D9BH         LINE#         198
  -------         ENDPROC       I2C_RECEIVEBYTE
  -------         PROC          _WRITE_VCNL4035X
  X:0098H         SYMBOL        command_code
  X:0099H         SYMBOL        dat_h
  X:009AH         SYMBOL        dat_l
  C:1C41H         LINE#         199
  C:1C4CH         LINE#         200
  C:1C4CH         LINE#         201
  C:1C4FH         LINE#         202
  C:1C56H         LINE#         203
  C:1C56H         LINE#         204
  C:1C5CH         LINE#         205
  C:1C5CH         LINE#         206
  C:1C64H         LINE#         207
  C:1C64H         LINE#         208
  C:1C6AH         LINE#         209
  C:1C72H         LINE#         211
BL51 BANKED LINKER/LOCATER V6.22                                                      08/07/2018  15:51:13  PAGE 29


  C:1C78H         LINE#         212
  C:1C80H         LINE#         214
  C:1C86H         LINE#         215
  C:1C89H         LINE#         216
  -------         ENDPROC       _WRITE_VCNL4035X
  -------         PROC          _READ_VCNL4035
  X:00EBH         SYMBOL        command_code
  -------         DO            
  X:00EDH         SYMBOL        temp_dat
  X:00EFH         SYMBOL        temp_dat_l
  X:00F1H         SYMBOL        temp_dat_h
  -------         ENDDO         
  C:17D7H         LINE#         218
  C:17DFH         LINE#         219
  C:17DFH         LINE#         220
  C:17ECH         LINE#         222
  C:17EFH         LINE#         223
  C:17F2H         LINE#         224
  C:17F7H         LINE#         226
  C:17FDH         LINE#         227
  C:17FDH         LINE#         228
  C:17FDH         LINE#         229
  C:17FDH         LINE#         230
  C:1808H         LINE#         231
  C:180BH         LINE#         232
  C:180EH         LINE#         233
  C:180EH         LINE#         236
  C:1811H         LINE#         238
  C:1818H         LINE#         239
  C:1818H         LINE#         240
  C:1818H         LINE#         241
  C:1823H         LINE#         242
  C:1826H         LINE#         243
  C:1829H         LINE#         244
  C:182CH         LINE#         245
  C:182FH         LINE#         246
  C:1832H         LINE#         247
  C:1835H         LINE#         248
  C:1838H         LINE#         249
  C:183BH         LINE#         250
  C:183BH         LINE#         251
  C:1841H         LINE#         252
  C:1841H         LINE#         253
  C:184AH         LINE#         255
  C:184AH         LINE#         256
  C:1850H         LINE#         257
  C:1850H         LINE#         259
  C:1852H         LINE#         260
  C:1858H         LINE#         261
  C:185BH         LINE#         262
  C:1862H         LINE#         263
  C:1862H         LINE#         264
  C:1870H         LINE#         265
  -------         ENDPROC       _READ_VCNL4035
  -------         PROC          _DISPLAYLCD_VCNL4035
  X:00FCH         SYMBOL        dat
  C:201FH         LINE#         267
BL51 BANKED LINKER/LOCATER V6.22                                                      08/07/2018  15:51:13  PAGE 30


  C:2024H         LINE#         268
  C:2024H         LINE#         270
  -------         ENDPROC       _DISPLAYLCD_VCNL4035
  -------         ENDMOD        VCNL4035

  -------         MODULE        BIPOLARMOTOR
  C:0000H         SYMBOL        _ICE_DUMMY_
  D:0080H         PUBLIC        P0
  D:0090H         PUBLIC        P1
  D:00A0H         PUBLIC        P2
  D:00B0H         PUBLIC        P3
  D:00C0H         PUBLIC        P4
  D:00C8H         PUBLIC        P5
  D:00E8H         PUBLIC        P6
  D:00F8H         PUBLIC        P7
  D:00A8H         PUBLIC        IE
  X:0000H         PUBLIC        receiver_pos
  X:0044H         PUBLIC        Time_stamp_PM
  C:1D09H         PUBLIC        _Move
  D:00B8H         PUBLIC        IP
  X:0077H         PUBLIC        num_of_time_stamp
  D:00D8H         PUBLIC        CCON
  C:0DCFH         PUBLIC        _trend_line_30_31
  D:0098H         PUBLIC        SCON
  D:0088H         PUBLIC        TCON
  C:1B94H         PUBLIC        _Step_move
  C:0BA0H         PUBLIC        _Update_position
  C:1DFEH         PUBLIC        _BCDtoDec1
  X:0078H         PUBLIC        degree
  D:00D0H         PUBLIC        PSW
  -------         PROC          L?0024
  -------         ENDPROC       L?0024
  -------         PROC          _BCDTODEC1
  D:0007H         SYMBOL        bcd
  -------         DO            
  D:0006H         SYMBOL        hi
  D:0007H         SYMBOL        lo
  -------         ENDDO         
  C:1DFEH         LINE#         12
  C:1DFEH         LINE#         13
  C:1DFEH         LINE#         15
  C:1E03H         LINE#         16
  C:1E07H         LINE#         17
  C:1E0EH         LINE#         18
  -------         ENDPROC       _BCDTODEC1
  -------         PROC          _STEP_MOVE
  X:00B4H         SYMBOL        step
  B:0020H.5       SYMBOL        dir
  -------         DO            
  X:00B6H         SYMBOL        i
  -------         ENDDO         
  C:1B94H         LINE#         24
  C:1B9CH         LINE#         25
  C:1B9CH         LINE#         26
  C:1BA1H         LINE#         27
  C:1BA4H         LINE#         28
  C:1BA9H         LINE#         30
BL51 BANKED LINKER/LOCATER V6.22                                                      08/07/2018  15:51:13  PAGE 31


  C:1BACH         LINE#         32
  C:1BC8H         LINE#         33
  C:1BC8H         LINE#         34
  C:1BCBH         LINE#         35
  C:1BD2H         LINE#         36
  C:1BD5H         LINE#         37
  C:1BDCH         LINE#         38
  C:1BECH         LINE#         39
  -------         ENDPROC       _STEP_MOVE
  -------         PROC          _MOVE
  X:00B0H         SYMBOL        distance
  B:0020H.4       SYMBOL        direction
  -------         DO            
  D:0006H         SYMBOL        step
  -------         ENDDO         
  C:1D09H         LINE#         41
  C:1D0FH         LINE#         42
  C:1D0FH         LINE#         44
  C:1D36H         LINE#         45
  -------         ENDPROC       _MOVE
  -------         PROC          _UPDATE_POSITION
  X:0098H         SYMBOL        mnths
  X:0099H         SYMBOL        dys
  X:009AH         SYMBOL        hurs
  X:009BH         SYMBOL        mns
  X:009CH         SYMBOL        sconds
  X:009DH         SYMBOL        currnt_pos
  -------         DO            
  X:00A0H         SYMBOL        date
  X:00A2H         SYMBOL        i
  X:00A4H         SYMBOL        desired_distance
  X:00A8H         SYMBOL        distance
  X:00ACH         SYMBOL        h_float
  D:0004H         SYMBOL        m_float
  -------         ENDDO         
  C:0BA0H         LINE#         51
  C:0BABH         LINE#         52
  C:0BABH         LINE#         54
  C:0BB5H         LINE#         59
  C:0BC9H         LINE#         60
  C:0BDCH         LINE#         62
  C:0BFBH         LINE#         63
  C:0BFBH         LINE#         64
  C:0CD0H         LINE#         65
  C:0CD0H         LINE#         67
  C:0CD0H         LINE#         68
  C:0CDCH         LINE#         71
  C:0CDCH         LINE#         72
  C:0CF0H         LINE#         73
  C:0CFEH         LINE#         75
  C:0D22H         LINE#         76
  C:0D22H         LINE#         77
  C:0D22H         LINE#         78
  C:0D47H         LINE#         79
  C:0D63H         LINE#         80
  C:0D7DH         LINE#         81
  C:0D7DH         LINE#         82
BL51 BANKED LINKER/LOCATER V6.22                                                      08/07/2018  15:51:13  PAGE 32


  C:0D8DH         LINE#         83
  C:0D8FH         LINE#         84
  C:0DA7H         LINE#         85
  C:0DA7H         LINE#         86
  C:0DBDH         LINE#         87
  C:0DBDH         LINE#         89
  C:0DBDH         LINE#         90
  C:0DBDH         LINE#         92
  C:0DBDH         LINE#         94
  C:0DBDH         LINE#         96
  C:0DCEH         LINE#         97
  -------         ENDPROC       _UPDATE_POSITION
  -------         PROC          _TREND_LINE_30_31
  X:00B0H         SYMBOL        time
  -------         DO            
  X:00B4H         SYMBOL        offset
  -------         ENDDO         
  C:0DCFH         LINE#         99
  C:0DD5H         LINE#         100
  C:0DD5H         LINE#         102
  C:0F2CH         LINE#         103
  C:0FC3H         LINE#         106
  -------         ENDPROC       _TREND_LINE_30_31
  -------         ENDMOD        BIPOLARMOTOR

  -------         MODULE        ADC
  C:0000H         SYMBOL        _ICE_DUMMY_
  C:1FAEH         PUBLIC        initADC
  D:0080H         PUBLIC        P0
  D:0090H         PUBLIC        P1
  D:00A0H         PUBLIC        P2
  D:00B0H         PUBLIC        P3
  D:00C0H         PUBLIC        P4
  D:00C8H         PUBLIC        P5
  D:00E8H         PUBLIC        P6
  D:00F8H         PUBLIC        P7
  D:00A8H         PUBLIC        IE
  D:00BDH         PUBLIC        ADC_RES
  D:00B8H         PUBLIC        IP
  D:00D8H         PUBLIC        CCON
  D:00BCH         PUBLIC        ADC_CONTR
  D:0098H         PUBLIC        SCON
  D:0088H         PUBLIC        TCON
  C:1CCAH         PUBLIC        adc_isr
  D:009DH         PUBLIC        P1ASF
  D:00BEH         PUBLIC        ADC_RESL
  D:00D0H         PUBLIC        PSW
  -------         PROC          ADC_ISR
  C:1CCAH         LINE#         5
  C:1CD5H         LINE#         8
  C:1CD8H         LINE#         9
  C:1CE2H         LINE#         10
  C:1D00H         LINE#         11
  -------         ENDPROC       ADC_ISR
  -------         PROC          INITADC
  C:1FAEH         LINE#         13
  C:1FAEH         LINE#         14
BL51 BANKED LINKER/LOCATER V6.22                                                      08/07/2018  15:51:13  PAGE 33


  C:1FAEH         LINE#         15
  C:1FB1H         LINE#         16
  C:1FB4H         LINE#         17
  C:1FB6H         LINE#         18
  C:1FB9H         LINE#         19
  -------         ENDPROC       INITADC
  -------         ENDMOD        ADC

  -------         MODULE        ?C_STARTUP
  C:19A0H         SEGMENT       ?C_C51STARTUP
  I:0021H         SEGMENT       ?STACK
  C:0000H         PUBLIC        ?C_STARTUP
  D:00E0H         SYMBOL        ACC
  D:00F0H         SYMBOL        B
  D:0083H         SYMBOL        DPH
  D:0082H         SYMBOL        DPL
  N:0000H         SYMBOL        IBPSTACK
  N:0100H         SYMBOL        IBPSTACKTOP
  N:0080H         SYMBOL        IDATALEN
  C:19A3H         SYMBOL        IDATALOOP
  N:0000H         SYMBOL        PBPSTACK
  N:0100H         SYMBOL        PBPSTACKTOP
  N:0000H         SYMBOL        PDATALEN
  N:0000H         SYMBOL        PDATASTART
  N:0000H         SYMBOL        PPAGE
  N:0000H         SYMBOL        PPAGEENABLE
  D:00A0H         SYMBOL        PPAGE_SFR
  D:0081H         SYMBOL        SP
  C:19A0H         SYMBOL        STARTUP1
  N:0000H         SYMBOL        XBPSTACK
  N:0000H         SYMBOL        XBPSTACKTOP
  N:0000H         SYMBOL        XDATALEN
  N:0000H         SYMBOL        XDATASTART
  C:0000H         LINE#         126
  C:19A0H         LINE#         133
  C:19A2H         LINE#         134
  C:19A3H         LINE#         135
  C:19A4H         LINE#         136
  C:19A6H         LINE#         185
  C:19A9H         LINE#         196
  -------         ENDMOD        ?C_STARTUP

  -------         MODULE        ?C?FPADD
  C:0035H         PUBLIC        ?C?FPADD
  C:0031H         PUBLIC        ?C?FPSUB
  -------         ENDMOD        ?C?FPADD

  -------         MODULE        ?C?FPMUL
  C:0126H         PUBLIC        ?C?FPMUL
  -------         ENDMOD        ?C?FPMUL

  -------         MODULE        ?C?FPDIV
  C:022FH         PUBLIC        ?C?FPDIV
  -------         ENDMOD        ?C?FPDIV

  -------         MODULE        ?C?FPCMP
  C:02CEH         PUBLIC        ?C?FPCMP
BL51 BANKED LINKER/LOCATER V6.22                                                      08/07/2018  15:51:13  PAGE 34


  C:02CCH         PUBLIC        ?C?FPCMP3
  -------         ENDMOD        ?C?FPCMP

  -------         MODULE        ?C?FPNEG
  C:0345H         PUBLIC        ?C?FPNEG
  -------         ENDMOD        ?C?FPNEG

  -------         MODULE        ?C?FCAST
  C:0360H         PUBLIC        ?C?FCASTC
  C:035BH         PUBLIC        ?C?FCASTI
  C:0356H         PUBLIC        ?C?FCASTL
  -------         ENDMOD        ?C?FCAST

  -------         MODULE        ?C?CASTF
  C:0394H         PUBLIC        ?C?CASTF
  -------         ENDMOD        ?C?CASTF

  -------         MODULE        POW
  X:00B8H         PUBLIC        ?_pow?BYTE
  C:130DH         PUBLIC        _pow
  -------         ENDMOD        POW

  -------         MODULE        ?C?CHKFLOAT
  C:0415H         PUBLIC        ?C?CHKFLOAT
  -------         ENDMOD        ?C?CHKFLOAT

  -------         MODULE        EXP
  C:18A9H         PUBLIC        _EXP
  -------         ENDMOD        EXP

  -------         MODULE        LOG
  C:14A7H         PUBLIC        _LOG
  C:14A3H         PUBLIC        _LOG10
  -------         ENDMOD        LOG

  -------         MODULE        ?C?CLDPTR
  C:047CH         PUBLIC        ?C?CLDPTR
  -------         ENDMOD        ?C?CLDPTR

  -------         MODULE        ?C?CSTPTR
  C:0495H         PUBLIC        ?C?CSTPTR
  -------         ENDMOD        ?C?CSTPTR

  -------         MODULE        ?C?IMUL
  C:04A7H         PUBLIC        ?C?IMUL
  -------         ENDMOD        ?C?IMUL

  -------         MODULE        ?C?UIDIV
  C:04B9H         PUBLIC        ?C?UIDIV
  -------         ENDMOD        ?C?UIDIV

  -------         MODULE        ?C?SIDIV
  C:050EH         PUBLIC        ?C?SIDIV
  -------         ENDMOD        ?C?SIDIV

  -------         MODULE        ?C?ILDIX
  C:0544H         PUBLIC        ?C?ILDIX
BL51 BANKED LINKER/LOCATER V6.22                                                      08/07/2018  15:51:13  PAGE 35


  -------         ENDMOD        ?C?ILDIX

  -------         MODULE        ?C?LNEG
  C:055AH         PUBLIC        ?C?LNEG
  -------         ENDMOD        ?C?LNEG

  -------         MODULE        ?C?LLDPTR
  C:0568H         PUBLIC        ?C?LLDPTR
  -------         ENDMOD        ?C?LLDPTR

  -------         MODULE        ?C?LSTPTR
  C:0588H         PUBLIC        ?C?LSTPTR
  -------         ENDMOD        ?C?LSTPTR

  -------         MODULE        ?C?LLDCODE
  C:05A2H         PUBLIC        ?C?LLDCODE
  -------         ENDMOD        ?C?LLDCODE

  -------         MODULE        ?C?LLDXDATA0
  C:05B2H         PUBLIC        ?C?LLDXDATA0
  -------         ENDMOD        ?C?LLDXDATA0

  -------         MODULE        ?C?LLDCODE0
  C:05BEH         PUBLIC        ?C?LLDCODE0
  -------         ENDMOD        ?C?LLDCODE0

  -------         MODULE        ?C?LLDPTR0
  C:05CEH         PUBLIC        ?C?LLDPTR0
  -------         ENDMOD        ?C?LLDPTR0

  -------         MODULE        ?C?LSTXDATA
  C:05EEH         PUBLIC        ?C?LSTXDATA
  -------         ENDMOD        ?C?LSTXDATA

  -------         MODULE        ?C?LSTKXDATA
  C:05FAH         PUBLIC        ?C?LSTKXDATA
  -------         ENDMOD        ?C?LSTKXDATA

  -------         MODULE        ?C?OFFXADD
  C:062BH         PUBLIC        ?C?OFFXADD
  -------         ENDMOD        ?C?OFFXADD

  -------         MODULE        ABS
  C:1FEAH         PUBLIC        _ABS
  -------         ENDMOD        ABS

  -------         MODULE        ATOI
  C:159CH         PUBLIC        _atoi
  -------         ENDMOD        ATOI

  -------         MODULE        ?C?IILDX
  C:0637H         PUBLIC        ?C?IILDX
  -------         ENDMOD        ?C?IILDX

  -------         MODULE        ?C?LLDIDATA
  C:064DH         PUBLIC        ?C?LLDIDATA
  -------         ENDMOD        ?C?LLDIDATA
BL51 BANKED LINKER/LOCATER V6.22                                                      08/07/2018  15:51:13  PAGE 36



  -------         MODULE        ?C?LLDXDATA
  C:0659H         PUBLIC        ?C?LLDXDATA
  -------         ENDMOD        ?C?LLDXDATA

  -------         MODULE        ?C?LLDPDATA
  C:0665H         PUBLIC        ?C?LLDPDATA
  -------         ENDMOD        ?C?LLDPDATA

  -------         MODULE        ?C?LLDIDATA0
  C:0671H         PUBLIC        ?C?LLDIDATA0
  -------         ENDMOD        ?C?LLDIDATA0

  -------         MODULE        ?C?LLDPDATA0
  C:067EH         PUBLIC        ?C?LLDPDATA0
  -------         ENDMOD        ?C?LLDPDATA0

  -------         MODULE        ?C?LSTIDATA
  C:068BH         PUBLIC        ?C?LSTIDATA
  -------         ENDMOD        ?C?LSTIDATA

  -------         MODULE        ?C?LSTPDATA
  C:0697H         PUBLIC        ?C?LSTPDATA
  -------         ENDMOD        ?C?LSTPDATA

  -------         MODULE        ISDIGIT
  C:1FCEH         PUBLIC        _isdigit
  -------         ENDMOD        ISDIGIT

  -------         MODULE        ISSPACE
  C:1F54H         PUBLIC        _isspace
  -------         ENDMOD        ISSPACE

*** WARNING L16: UNCALLED SEGMENT, IGNORED FOR OVERLAY PROCESS
    SEGMENT: ?PR?_DISPLAY_PROX?MAIN

*** WARNING L16: UNCALLED SEGMENT, IGNORED FOR OVERLAY PROCESS
    SEGMENT: ?PR?_SENDSTRING?UART1

*** WARNING L16: UNCALLED SEGMENT, IGNORED FOR OVERLAY PROCESS
    SEGMENT: ?PR?_TEN?UART1

*** WARNING L16: UNCALLED SEGMENT, IGNORED FOR OVERLAY PROCESS
    SEGMENT: ?PR?_UNIT?UART1

*** WARNING L16: UNCALLED SEGMENT, IGNORED FOR OVERLAY PROCESS
    SEGMENT: ?PR?_DECTOBCD?UART1

*** WARNING L16: UNCALLED SEGMENT, IGNORED FOR OVERLAY PROCESS
    SEGMENT: ?PR?_ASCII_LETTER?UART1

*** WARNING L16: UNCALLED SEGMENT, IGNORED FOR OVERLAY PROCESS
    SEGMENT: ?PR?NOP?VCNL4035

*** WARNING L16: UNCALLED SEGMENT, IGNORED FOR OVERLAY PROCESS
    SEGMENT: ?PR?_READ_VCNL4035?VCNL4035

BL51 BANKED LINKER/LOCATER V6.22                                                      08/07/2018  15:51:13  PAGE 37


*** WARNING L16: UNCALLED SEGMENT, IGNORED FOR OVERLAY PROCESS
    SEGMENT: ?PR?_DISPLAYLCD_VCNL4035?VCNL4035

*** WARNING L16: UNCALLED SEGMENT, IGNORED FOR OVERLAY PROCESS
    SEGMENT: ?PR?INITADC?ADC

*** WARNING L1: UNRESOLVED EXTERNAL SYMBOL
    SYMBOL:  ADC_DATA
    MODULE:  .\Obj\ADC.obj (ADC)

*** WARNING L2: REFERENCE MADE TO UNRESOLVED EXTERNAL
    SYMBOL:  ADC_DATA
    MODULE:  .\Obj\ADC.obj (ADC)
    ADDRESS: 1CDBH

*** WARNING L2: REFERENCE MADE TO UNRESOLVED EXTERNAL
    SYMBOL:  ADC_DATA
    MODULE:  .\Obj\ADC.obj (ADC)
    ADDRESS: 1CE3H

*** WARNING L2: REFERENCE MADE TO UNRESOLVED EXTERNAL
    SYMBOL:  ADC_DATA
    MODULE:  .\Obj\ADC.obj (ADC)
    ADDRESS: 1CF9H

Program Size: data=17.7 xdata=253 code=8236
LINK/LOCATE RUN COMPLETE.  14 WARNING(S),  0 ERROR(S)
