BL51 BANKED LINKER/LOCATER V6.22                                                        07/24/2018  14:59:17  PAGE 1


BL51 BANKED LINKER/LOCATER V6.22, INVOKED BY:
C:\KEIL_V5\C51\BIN\BL51.EXE .\Obj\main.obj, .\Obj\PCF85063BTL.obj, .\Obj\UART1.obj, .\Obj\LCd_Driver_SPLC780D.obj, .\Obj
>> \KeyPad.obj, .\Obj\VCNL4035.obj, .\Obj\BipolarMotor.obj, .\Obj\STARTUP.obj TO .\Obj\GPIO_RTC_Test PRINT (.\Lis\GPIO_R
>> TC_Test.m51) RAMSIZE (256)


MEMORY MODEL: LARGE WITH FLOATING POINT ARITHMETIC


INPUT MODULES INCLUDED:
  .\Obj\main.obj (MAIN)
  .\Obj\PCF85063BTL.obj (PCF85063BTL)
  .\Obj\UART1.obj (UART1)
  .\Obj\LCd_Driver_SPLC780D.obj (LCD_DRIVER_SPLC780D)
  .\Obj\KeyPad.obj (KEYPAD)
  .\Obj\VCNL4035.obj (VCNL4035)
  .\Obj\BipolarMotor.obj (BIPOLARMOTOR)
  .\Obj\STARTUP.obj (?C_STARTUP)
  C:\KEIL_V5\C51\LIB\C51FPL.LIB (?C?FPADD)
  C:\KEIL_V5\C51\LIB\C51FPL.LIB (?C?FPMUL)
  C:\KEIL_V5\C51\LIB\C51FPL.LIB (?C?FPDIV)
  C:\KEIL_V5\C51\LIB\C51FPL.LIB (?C?FPCMP)
  C:\KEIL_V5\C51\LIB\C51FPL.LIB (?C?FPNEG)
  C:\KEIL_V5\C51\LIB\C51FPL.LIB (?C?FCAST)
  C:\KEIL_V5\C51\LIB\C51FPL.LIB (?C?CASTF)
  C:\KEIL_V5\C51\LIB\C51FPL.LIB (?C?FPGETOPN)
  C:\KEIL_V5\C51\LIB\C51L.LIB (?C_INIT)
  C:\KEIL_V5\C51\LIB\C51L.LIB (?C?CLDPTR)
  C:\KEIL_V5\C51\LIB\C51L.LIB (?C?CSTPTR)
  C:\KEIL_V5\C51\LIB\C51L.LIB (?C?IMUL)
  C:\KEIL_V5\C51\LIB\C51L.LIB (?C?UIDIV)
  C:\KEIL_V5\C51\LIB\C51L.LIB (?C?SIDIV)
  C:\KEIL_V5\C51\LIB\C51L.LIB (?C?ILDIX)
  C:\KEIL_V5\C51\LIB\C51L.LIB (?C?LNEG)
  C:\KEIL_V5\C51\LIB\C51L.LIB (?C?LLDPTR)
  C:\KEIL_V5\C51\LIB\C51L.LIB (?C?LSTPTR)
  C:\KEIL_V5\C51\LIB\C51L.LIB (?C?LLDPTR0)
  C:\KEIL_V5\C51\LIB\C51L.LIB (?C?LSTXDATA)
  C:\KEIL_V5\C51\LIB\C51L.LIB (?C?LSTKXDATA)
  C:\KEIL_V5\C51\LIB\C51L.LIB (?C?OFFXADD)
  C:\KEIL_V5\C51\LIB\C51L.LIB (ABS)
  C:\KEIL_V5\C51\LIB\C51L.LIB (ATOI)
  C:\KEIL_V5\C51\LIB\C51L.LIB (?C?IILDX)
  C:\KEIL_V5\C51\LIB\C51L.LIB (?C?LLDIDATA)
  C:\KEIL_V5\C51\LIB\C51L.LIB (?C?LLDXDATA)
  C:\KEIL_V5\C51\LIB\C51L.LIB (?C?LLDPDATA)
  C:\KEIL_V5\C51\LIB\C51L.LIB (?C?LLDCODE)
  C:\KEIL_V5\C51\LIB\C51L.LIB (?C?LLDIDATA0)
  C:\KEIL_V5\C51\LIB\C51L.LIB (?C?LLDXDATA0)
  C:\KEIL_V5\C51\LIB\C51L.LIB (?C?LLDPDATA0)
  C:\KEIL_V5\C51\LIB\C51L.LIB (?C?LLDCODE0)
  C:\KEIL_V5\C51\LIB\C51L.LIB (?C?LSTIDATA)
  C:\KEIL_V5\C51\LIB\C51L.LIB (?C?LSTPDATA)
  C:\KEIL_V5\C51\LIB\C51L.LIB (ISDIGIT)
  C:\KEIL_V5\C51\LIB\C51L.LIB (ISSPACE)


LINK MAP OF MODULE:  .\Obj\GPIO_RTC_Test (MAIN)
BL51 BANKED LINKER/LOCATER V6.22                                                      07/24/2018  14:59:17  PAGE 2




            TYPE    BASE      LENGTH    RELOCATION   SEGMENT NAME
            -----------------------------------------------------

            * * * * * * *   D A T A   M E M O R Y   * * * * * * *
            REG     0000H     0008H     ABSOLUTE     "REG BANK 0"
            REG     0008H     0008H     ABSOLUTE     "REG BANK 1"
                    0010H     0010H                  *** GAP ***
            BIT     0020H.0   0000H.3   UNIT         ?BI?KEYPAD
            BIT     0020H.3   0000H.3   UNIT         _BIT_GROUP_
            BIT     0020H.6   0000H.1   UNIT         ?BI?MAIN
                    0020H.7   0000H.1                *** GAP ***
            IDATA   0021H     0001H     UNIT         ?STACK

            * * * * * * *  X D A T A   M E M O R Y  * * * * * * *
            XDATA   0000H     012FH     UNIT         ?XD?BIPOLARMOTOR
            XDATA   012FH     0034H     UNIT         _XDATA_GROUP_
            XDATA   0163H     001CH     UNIT         ?XD?MAIN
            XDATA   017FH     0009H     UNIT         ?XD?KEYPAD
            XDATA   0188H     0008H     UNIT         ?XD?_READ_VCNL4035?VCNL4035
            XDATA   0190H     0004H     UNIT         ?XD?_DISPLAY_PROX?MAIN
            XDATA   0194H     0003H     UNIT         ?XD?_SENDSTRING?UART1
            XDATA   0197H     0001H     UNIT         ?XD?UC_ACK?VCNL4035
            XDATA   0198H     0001H     UNIT         ?XD?UC_NACK?VCNL4035
            XDATA   0199H     0001H     UNIT         ?XD?_DISPLAYLCD_VCNL4035?VCNL4035

            * * * * * * *   C O D E   M E M O R Y   * * * * * * *
            CODE    0000H     0003H     ABSOLUTE     
            CODE    0003H     0007H     UNIT         ?PR?KEYPAD_IO_INIT?KEYPAD
            CODE    000AH     0001H     UNIT         ?PR?TM0_ISR?MAIN
            CODE    000BH     0003H     ABSOLUTE     
            CODE    000EH     0015H     UNIT         ?PR?_DISPLAY_LINE?LCD_DRIVER_SPLC780D
            CODE    0023H     0003H     ABSOLUTE     
            CODE    0026H     060EH     UNIT         ?C?LIB_CODE
            CODE    0634H     04E6H     UNIT         ?PR?_UPDATE_POSITION?BIPOLARMOTOR
            CODE    0B1AH     0279H     UNIT         ?PR?KEY_PROCESS?KEYPAD
            CODE    0D93H     022CH     UNIT         ?PR?MAIN?MAIN
            CODE    0FBFH     01B5H     UNIT         ?PR?_DISPLAY_POS?MAIN
            CODE    1174H     0194H     UNIT         ?PR?KEY_SCAN?KEYPAD
            CODE    1308H     0175H     UNIT         ?C_INITSEG
            CODE    147DH     00DBH     UNIT         ?PR?_ATOI?ATOI
            CODE    1558H     009BH     UNIT         ?PR?UART?MAIN
            CODE    15F3H     009AH     UNIT         ?PR?_READ_VCNL4035?VCNL4035
            CODE    168DH     0095H     UNIT         ?PR?_DISPLAY_PROX?MAIN
            CODE    1722H     008CH     UNIT         ?C_C51STARTUP
            CODE    17AEH     0084H     UNIT         ?PR?_DAY_OF_YEAR?PCF85063BTL
            CODE    1832H     0075H     UNIT         ?PR?_WRITEDATA?LCD_DRIVER_SPLC780D
            CODE    18A7H     006FH     UNIT         ?PR?_READ_TIME?PCF85063BTL
            CODE    1916H     0059H     UNIT         ?PR?_STEP_MOVE?BIPOLARMOTOR
            CODE    196FH     0054H     UNIT         ?PR?LCD_INIT?LCD_DRIVER_SPLC780D
            CODE    19C3H     0049H     UNIT         ?PR?_WRITE_VCNL4035X?VCNL4035
            CODE    1A0CH     0040H     UNIT         ?PR?_COMMAND?LCD_DRIVER_SPLC780D
            CODE    1A4CH     0034H     UNIT         ?PR?_MOVE?BIPOLARMOTOR
            CODE    1A80H     0033H     UNIT         ?PR?_SENDSTRING?UART1
            CODE    1AB3H     002CH     UNIT         ?PR?I2C_RECEIVEBYTE?VCNL4035
            CODE    1ADFH     002BH     UNIT         ?PR?_WAIT_MS_I2C?VCNL4035
BL51 BANKED LINKER/LOCATER V6.22                                                      07/24/2018  14:59:17  PAGE 3


            CODE    1B0AH     0024H     UNIT         ?PR?_WAIT_MS?LCD_DRIVER_SPLC780D
            CODE    1B2EH     0024H     UNIT         ?PR?_BCDTODEC1?BIPOLARMOTOR
            CODE    1B52H     0022H     UNIT         ?PR?_I2C_SENDBYTE?VCNL4035
            CODE    1B74H     0020H     UNIT         ?PR?_SPI_SENDBYTE?PCF85063BTL
            CODE    1B94H     0020H     UNIT         ?PR?SPI_RECEIVEBYTE?PCF85063BTL
            CODE    1BB4H     001EH     UNIT         ?PR?_DELAY_MS?KEYPAD
            CODE    1BD2H     001EH     UNIT         ?PR?_WAIT_MS_IIC?VCNL4035
            CODE    1BF0H     001DH     UNIT         ?PR?_DISPLAYLCD?LCD_DRIVER_SPLC780D
            CODE    1C0DH     001BH     UNIT         ?PR?I2C_ACK?VCNL4035
            CODE    1C28H     0018H     UNIT         ?PR?_SPI_WRITETIME?PCF85063BTL
            CODE    1C40H     0017H     UNIT         ?PR?_ASCIITOBCD?UART1
            CODE    1C57H     0017H     UNIT         ?PR?I2C_INIT?VCNL4035
            CODE    1C6EH     0015H     UNIT         ?PR?I2C_STOP?VCNL4035
            CODE    1C83H     0014H     UNIT         ?PR?_PCF85063BTL_DELAY?PCF85063BTL
            CODE    1C97H     0014H     UNIT         ?PR?_ISSPACE?ISSPACE
            CODE    1CABH     0013H     UNIT         ?PR?I2C_START?VCNL4035
            CODE    1CBEH     0011H     UNIT         ?PR?_SPI_READTIME?PCF85063BTL
            CODE    1CCFH     0011H     UNIT         ?PR?_BCDTODEC?PCF85063BTL
            CODE    1CE0H     0011H     UNIT         ?PR?INITUART1?UART1
            CODE    1CF1H     000FH     UNIT         ?PR?UC_NACK?VCNL4035
            CODE    1D00H     000FH     UNIT         ?PR?_ISDIGIT?ISDIGIT
            CODE    1D0FH     000DH     UNIT         ?PR?SPI_INIT?PCF85063BTL
            CODE    1D1CH     000CH     UNIT         ?PR?_ABS?ABS
            CODE    1D28H     000AH     UNIT         ?PR?LCD_RETURN_HOME?LCD_DRIVER_SPLC780D
            CODE    1D32H     000AH     UNIT         ?PR?LCD_CLEAR?LCD_DRIVER_SPLC780D
            CODE    1D3CH     0009H     UNIT         ?PR?_SENDUART1?MAIN
            CODE    1D45H     0006H     UNIT         ?PR?_TEN?UART1
            CODE    1D4BH     0006H     UNIT         ?PR?UC_ACK?VCNL4035
            CODE    1D51H     0006H     UNIT         ?PR?_DISPLAYLCD_VCNL4035?VCNL4035
            CODE    1D57H     0005H     UNIT         ?PR?_UNIT?UART1
            CODE    1D5CH     0005H     UNIT         ?PR?_ASCII_LETTER?UART1
            CODE    1D61H     0001H     UNIT         ?PR?_DECTOBCD?UART1
            CODE    1D62H     0001H     UNIT         ?PR?NOP?VCNL4035



OVERLAY MAP OF MODULE:   .\Obj\GPIO_RTC_Test (MAIN)


SEGMENT                                            BIT_GROUP          XDATA_GROUP
  +--> CALLED SEGMENT                           START    LENGTH     START    LENGTH
-----------------------------------------------------------------------------------
?PR?UART?MAIN                                   -----    -----      -----    -----
  +--> ?PR?_ASCIITOBCD?UART1

?PR?_ASCIITOBCD?UART1                           -----    -----      -----    -----
  +--> ?PR?_ATOI?ATOI

?PR?_ATOI?ATOI                                  0020H.3  0000H.1    012FH    0005H
  +--> ?PR?_ISSPACE?ISSPACE
  +--> ?PR?_ISDIGIT?ISDIGIT

*** NEW ROOT ***************************************************

?C_C51STARTUP                                   -----    -----      -----    -----
  +--> ?PR?MAIN?MAIN
  +--> ?C_INITSEG
BL51 BANKED LINKER/LOCATER V6.22                                                      07/24/2018  14:59:17  PAGE 4



?PR?MAIN?MAIN                                   -----    -----      0134H    0013H
  +--> ?PR?LCD_INIT?LCD_DRIVER_SPLC780D
  +--> ?PR?SPI_INIT?PCF85063BTL
  +--> ?PR?KEYPAD_IO_INIT?KEYPAD
  +--> ?PR?INITUART1?UART1
  +--> ?PR?I2C_INIT?VCNL4035
  +--> ?PR?_SPI_WRITETIME?PCF85063BTL
  +--> ?PR?_DELAY_MS?KEYPAD
  +--> ?PR?_DISPLAY_LINE?LCD_DRIVER_SPLC780D
  +--> ?PR?_WRITEDATA?LCD_DRIVER_SPLC780D
  +--> ?PR?KEY_PROCESS?KEYPAD
  +--> ?PR?_COMMAND?LCD_DRIVER_SPLC780D
  +--> ?PR?_DISPLAY_POS?MAIN
  +--> ?PR?_DISPLAYLCD?LCD_DRIVER_SPLC780D
  +--> ?PR?_STEP_MOVE?BIPOLARMOTOR
  +--> ?PR?LCD_RETURN_HOME?LCD_DRIVER_SPLC780D
  +--> ?PR?_READ_TIME?PCF85063BTL
  +--> ?PR?_UPDATE_POSITION?BIPOLARMOTOR
  +--> ?PR?_SENDUART1?MAIN

?PR?LCD_INIT?LCD_DRIVER_SPLC780D                -----    -----      -----    -----
  +--> ?PR?_WAIT_MS?LCD_DRIVER_SPLC780D
  +--> ?PR?_COMMAND?LCD_DRIVER_SPLC780D

?PR?_COMMAND?LCD_DRIVER_SPLC780D                -----    -----      -----    -----
  +--> ?PR?_WAIT_MS?LCD_DRIVER_SPLC780D

?PR?I2C_INIT?VCNL4035                           -----    -----      -----    -----
  +--> ?PR?_WRITE_VCNL4035X?VCNL4035

?PR?_WRITE_VCNL4035X?VCNL4035                   -----    -----      0147H    0003H
  +--> ?PR?I2C_START?VCNL4035
  +--> ?PR?_WAIT_MS_I2C?VCNL4035
  +--> ?PR?I2C_ACK?VCNL4035
  +--> ?PR?_I2C_SENDBYTE?VCNL4035
  +--> ?PR?I2C_STOP?VCNL4035

?PR?I2C_START?VCNL4035                          -----    -----      -----    -----
  +--> ?PR?_WAIT_MS_IIC?VCNL4035
  +--> ?PR?_WAIT_MS_I2C?VCNL4035

?PR?I2C_ACK?VCNL4035                            -----    -----      014AH    0001H
  +--> ?PR?_I2C_SENDBYTE?VCNL4035
  +--> ?PR?_WAIT_MS_I2C?VCNL4035

?PR?_I2C_SENDBYTE?VCNL4035                      -----    -----      -----    -----
  +--> ?PR?_WAIT_MS_I2C?VCNL4035

?PR?I2C_STOP?VCNL4035                           -----    -----      -----    -----
  +--> ?PR?_WAIT_MS_I2C?VCNL4035

?PR?_SPI_WRITETIME?PCF85063BTL                  -----    -----      -----    -----
  +--> ?PR?_SPI_SENDBYTE?PCF85063BTL

?PR?_SPI_SENDBYTE?PCF85063BTL                   -----    -----      -----    -----
  +--> ?PR?_PCF85063BTL_DELAY?PCF85063BTL
BL51 BANKED LINKER/LOCATER V6.22                                                      07/24/2018  14:59:17  PAGE 5



?PR?_DISPLAY_LINE?LCD_DRIVER_SPLC780D           -----    -----      -----    -----
  +--> ?PR?_COMMAND?LCD_DRIVER_SPLC780D

?PR?_WRITEDATA?LCD_DRIVER_SPLC780D              -----    -----      0151H    0001H
  +--> ?PR?_WAIT_MS?LCD_DRIVER_SPLC780D

?PR?KEY_PROCESS?KEYPAD                          -----    -----      0147H    0006H
  +--> ?PR?KEY_SCAN?KEYPAD
  +--> ?PR?_SPI_WRITETIME?PCF85063BTL
  +--> ?PR?LCD_CLEAR?LCD_DRIVER_SPLC780D
  +--> ?PR?_COMMAND?LCD_DRIVER_SPLC780D
  +--> ?PR?_WRITEDATA?LCD_DRIVER_SPLC780D

?PR?KEY_SCAN?KEYPAD                             -----    -----      014DH    0003H
  +--> ?PR?_DELAY_MS?KEYPAD

?PR?LCD_CLEAR?LCD_DRIVER_SPLC780D               -----    -----      -----    -----
  +--> ?PR?_COMMAND?LCD_DRIVER_SPLC780D

?PR?_DISPLAY_POS?MAIN                           -----    -----      0147H    000AH
  +--> ?PR?_ABS?ABS
  +--> ?PR?_WRITEDATA?LCD_DRIVER_SPLC780D

?PR?_DISPLAYLCD?LCD_DRIVER_SPLC780D             -----    -----      0147H    0001H
  +--> ?PR?_WRITEDATA?LCD_DRIVER_SPLC780D

?PR?_STEP_MOVE?BIPOLARMOTOR                     0020H.5  0000H.1    015FH    0004H
  +--> ?PR?_WAIT_MS?LCD_DRIVER_SPLC780D

?PR?LCD_RETURN_HOME?LCD_DRIVER_SPLC780D         -----    -----      -----    -----
  +--> ?PR?_COMMAND?LCD_DRIVER_SPLC780D

?PR?_READ_TIME?PCF85063BTL                      -----    -----      0147H    000FH
  +--> ?PR?_SPI_READTIME?PCF85063BTL

?PR?_SPI_READTIME?PCF85063BTL                   -----    -----      -----    -----
  +--> ?PR?_SPI_SENDBYTE?PCF85063BTL
  +--> ?PR?SPI_RECEIVEBYTE?PCF85063BTL

?PR?SPI_RECEIVEBYTE?PCF85063BTL                 -----    -----      -----    -----
  +--> ?PR?_PCF85063BTL_DELAY?PCF85063BTL

?PR?_UPDATE_POSITION?BIPOLARMOTOR               -----    -----      0147H    0014H
  +--> ?PR?_DAY_OF_YEAR?PCF85063BTL
  +--> ?PR?_BCDTODEC1?BIPOLARMOTOR
  +--> ?PR?_MOVE?BIPOLARMOTOR

?PR?_DAY_OF_YEAR?PCF85063BTL                    -----    -----      -----    -----
  +--> ?PR?_BCDTODEC?PCF85063BTL

?PR?_MOVE?BIPOLARMOTOR                          0020H.4  0000H.1    015BH    0004H
  +--> ?PR?_STEP_MOVE?BIPOLARMOTOR



SYMBOL TABLE OF MODULE:  .\Obj\GPIO_RTC_Test (MAIN)
BL51 BANKED LINKER/LOCATER V6.22                                                      07/24/2018  14:59:17  PAGE 6



  VALUE           TYPE          NAME
  ----------------------------------

  -------         MODULE        MAIN
  C:0000H         SYMBOL        _ICE_DUMMY_
  D:0080H         PUBLIC        P0
  D:0090H         PUBLIC        P1
  D:00A0H         PUBLIC        P2
  D:00B0H         PUBLIC        P3
  D:00C0H         PUBLIC        P4
  D:00C8H         PUBLIC        P5
  X:016BH         SYMBOL        PressedKey
  B:00A8H.7       PUBLIC        EA
  D:00E8H         PUBLIC        P6
  D:00F8H         PUBLIC        P7
  X:016FH         PUBLIC        RX_Data_Uart_Cnt
  D:00A8H         PUBLIC        IE
  D:00B8H         PUBLIC        IP
  B:0098H.0       PUBLIC        RI
  B:0098H.1       PUBLIC        TI
  C:1558H         PUBLIC        Uart
  D:00D8H         PUBLIC        CCON
  C:0D93H         PUBLIC        main
  D:0099H         PUBLIC        SBUF
  D:0098H         PUBLIC        SCON
  D:0089H         PUBLIC        TMOD
  D:0088H         PUBLIC        TCON
  B:00B0H.3       PUBLIC        P33
  X:0171H         SYMBOL        KeyCount
  X:0173H         PUBLIC        Rec_data_hour
  X:0176H         PUBLIC        Rec_data_min
  D:008EH         PUBLIC        AUXR
  C:000AH         PUBLIC        tm0_isr
  B:0020H.6       PUBLIC        busy
  D:00E0H         PUBLIC        ACC
  B:00A8H.1       PUBLIC        ET0
  D:008CH         PUBLIC        TH0
  X:0179H         PUBLIC        hour_count
  D:008AH         PUBLIC        TL0
  X:017AH         PUBLIC        min_count
  B:0088H.4       PUBLIC        TR0
  X:017BH         SYMBOL        KeyNum
  X:017CH         SYMBOL        KeyNum_Old
  C:168DH         PUBLIC        _Display_Prox
  C:0FBFH         PUBLIC        _Display_Pos
  X:017DH         PUBLIC        st_time
  D:00D0H         PUBLIC        PSW
  C:1D3CH         PUBLIC        _SendUART1
  -------         PROC          TM0_ISR
  C:000AH         LINE#         53
  C:000AH         LINE#         56
  -------         ENDPROC       TM0_ISR
  -------         PROC          MAIN
  -------         DO            
  X:0134H         SYMBOL        seconds
  X:0135H         SYMBOL        mins
BL51 BANKED LINKER/LOCATER V6.22                                                      07/24/2018  14:59:17  PAGE 7


  X:0136H         SYMBOL        hours
  X:0137H         SYMBOL        days
  X:0138H         SYMBOL        months
  X:0139H         SYMBOL        prox_data
  X:0163H         SYMBOL        KeyCount
  X:0165H         SYMBOL        KeyNum_Old
  X:0166H         SYMBOL        KeyNum
  X:0167H         SYMBOL        PressedKey
  X:013BH         SYMBOL        prox_flag
  X:013CH         SYMBOL        count
  X:013EH         SYMBOL        numStr
  X:0143H         SYMBOL        current_position
  -------         ENDDO         
  C:0D93H         LINE#         58
  C:0D93H         LINE#         59
  C:0D93H         LINE#         64
  C:0D99H         LINE#         66
  C:0D9EH         LINE#         68
  C:0DA8H         LINE#         69
  C:0DAAH         LINE#         70
  C:0DACH         LINE#         71
  C:0DAEH         LINE#         80
  C:0DB1H         LINE#         81
  C:0DB4H         LINE#         82
  C:0DB7H         LINE#         83
  C:0DBAH         LINE#         84
  C:0DBDH         LINE#         86
  C:0DC0H         LINE#         87
  C:0DC3H         LINE#         88
  C:0DC6H         LINE#         89
  C:0DC8H         LINE#         90
  C:0DCAH         LINE#         91
  C:0DCCH         LINE#         93
  C:0DCEH         LINE#         94
  C:0DD5H         LINE#         95
  C:0DDCH         LINE#         96
  C:0DE3H         LINE#         97
  C:0DEAH         LINE#         101
  C:0DF1H         LINE#         102
  C:0DF6H         LINE#         103
  C:0DFBH         LINE#         104
  C:0E00H         LINE#         105
  C:0E05H         LINE#         106
  C:0E0AH         LINE#         109
  C:0E0AH         LINE#         110
  C:0E0AH         LINE#         111
  C:0E0DH         LINE#         112
  C:0E1BH         LINE#         114
  C:0E1BH         LINE#         117
  C:0E20H         LINE#         118
  C:0E25H         LINE#         120
  C:0E2AH         LINE#         121
  C:0E2FH         LINE#         122
  C:0E34H         LINE#         123
  C:0E39H         LINE#         125
  C:0E4AH         LINE#         127
  C:0E51H         LINE#         128
BL51 BANKED LINKER/LOCATER V6.22                                                      07/24/2018  14:59:17  PAGE 8


  C:0E59H         LINE#         129
  C:0E5EH         LINE#         130
  C:0E66H         LINE#         131
  C:0E6BH         LINE#         132
  C:0E75H         LINE#         134
  C:0E7DH         LINE#         136
  C:0E85H         LINE#         148
  C:0E88H         LINE#         149
  C:0E88H         LINE#         150
  C:0E93H         LINE#         151
  C:0EAAH         LINE#         152
  C:0EAAH         LINE#         153
  C:0EACH         LINE#         154
  C:0EAEH         LINE#         156
  C:0EAEH         LINE#         157
  C:0EB9H         LINE#         158
  C:0EB9H         LINE#         159
  C:0EBEH         LINE#         160
  C:0EBEH         LINE#         161
  C:0EC1H         LINE#         162
  C:0EC1H         LINE#         163
  C:0EC3H         LINE#         164
  C:0ECEH         LINE#         165
  C:0EE5H         LINE#         166
  C:0EE5H         LINE#         167
  C:0EE7H         LINE#         168
  C:0EE9H         LINE#         170
  C:0EE9H         LINE#         171
  C:0EF4H         LINE#         172
  C:0EF4H         LINE#         173
  C:0EF9H         LINE#         174
  C:0EF9H         LINE#         182
  C:0F02H         LINE#         183
  C:0F02H         LINE#         184
  C:0F0CH         LINE#         185
  C:0F12H         LINE#         186
  C:0F14H         LINE#         187
  C:0F16H         LINE#         188
  C:0F18H         LINE#         189
  C:0F18H         LINE#         190
  C:0F1BH         LINE#         192
  C:0F1BH         LINE#         193
  C:0F56H         LINE#         194
  C:0F84H         LINE#         198
  C:0F91H         LINE#         199
  C:0F91H         LINE#         200
  C:0F9BH         LINE#         201
  C:0FA5H         LINE#         202
  C:0FACH         LINE#         203
  C:0FB4H         LINE#         204
  C:0FBCH         LINE#         205
  -------         ENDPROC       MAIN
  -------         PROC          UART
  C:1558H         LINE#         218
  C:1565H         LINE#         220
  C:1568H         LINE#         221
  C:1568H         LINE#         222
BL51 BANKED LINKER/LOCATER V6.22                                                      07/24/2018  14:59:17  PAGE 9


  C:1576H         LINE#         223
  C:1578H         LINE#         224
  C:158AH         LINE#         225
  C:1599H         LINE#         226
  C:15A4H         LINE#         227
  C:15A4H         LINE#         230
  C:15B1H         LINE#         231
  C:15B7H         LINE#         232
  C:15B7H         LINE#         233
  C:15BDH         LINE#         234
  C:15CBH         LINE#         235
  C:15D9H         LINE#         236
  C:15E1H         LINE#         241
  C:15E1H         LINE#         242
  C:15E1H         LINE#         245
  C:15E1H         LINE#         246
  C:15E4H         LINE#         247
  C:15E4H         LINE#         248
  C:15E6H         LINE#         249
  C:15E8H         LINE#         250
  C:15E8H         LINE#         251
  -------         ENDPROC       UART
  -------         PROC          _SENDUART1
  D:0007H         SYMBOL        dat
  C:1D3CH         LINE#         254
  C:1D3CH         LINE#         255
  C:1D3CH         LINE#         256
  C:1D3FH         LINE#         257
  C:1D41H         LINE#         258
  C:1D42H         LINE#         259
  C:1D44H         LINE#         260
  -------         ENDPROC       _SENDUART1
  -------         PROC          _DISPLAY_PROX
  D:0002H         SYMBOL        dat
  -------         DO            
  X:0190H         SYMBOL        unit
  X:0191H         SYMBOL        ten
  X:0192H         SYMBOL        hundred
  X:0193H         SYMBOL        thousand
  -------         ENDDO         
  C:168DH         LINE#         263
  C:1691H         LINE#         264
  C:1691H         LINE#         266
  C:169DH         LINE#         267
  C:16ADH         LINE#         268
  C:16C9H         LINE#         269
  C:16F9H         LINE#         270
  C:1703H         LINE#         271
  C:170DH         LINE#         272
  C:1717H         LINE#         273
  C:1721H         LINE#         275
  -------         ENDPROC       _DISPLAY_PROX
  -------         PROC          _DISPLAY_POS
  X:0147H         SYMBOL        sign_dat
  -------         DO            
  X:014BH         SYMBOL        unit
  X:014CH         SYMBOL        ten
BL51 BANKED LINKER/LOCATER V6.22                                                      07/24/2018  14:59:17  PAGE 10


  X:014DH         SYMBOL        hundred
  D:0003H         SYMBOL        thousand
  X:014EH         SYMBOL        after_dot
  X:014FH         SYMBOL        dat
  -------         ENDDO         
  C:0FBFH         LINE#         278
  C:0FC5H         LINE#         279
  C:0FC5H         LINE#         283
  C:0FE1H         LINE#         284
  C:0FFBH         LINE#         285
  C:101FH         LINE#         287
  C:1069H         LINE#         289
  C:1080H         LINE#         290
  C:108DH         LINE#         291
  C:10AFH         LINE#         292
  C:10E4H         LINE#         293
  C:10FCH         LINE#         294
  C:10FCH         LINE#         296
  C:1106H         LINE#         297
  C:1110H         LINE#         298
  C:111AH         LINE#         299
  C:111FH         LINE#         300
  C:1129H         LINE#         301
  C:112EH         LINE#         302
  C:1133H         LINE#         303
  C:1135H         LINE#         304
  C:1137H         LINE#         306
  C:1137H         LINE#         308
  C:113CH         LINE#         309
  C:1146H         LINE#         310
  C:1150H         LINE#         311
  C:115AH         LINE#         312
  C:115FH         LINE#         313
  C:1169H         LINE#         314
  C:116EH         LINE#         315
  C:1173H         LINE#         317
  C:1173H         LINE#         319
  -------         ENDPROC       _DISPLAY_POS
  -------         ENDMOD        MAIN

  -------         MODULE        PCF85063BTL
  C:0000H         SYMBOL        _ICE_DUMMY_
  D:0096H         PUBLIC        P2M0
  D:0080H         PUBLIC        P0
  D:0095H         PUBLIC        P2M1
  D:0090H         PUBLIC        P1
  D:00A0H         PUBLIC        P2
  D:00B0H         PUBLIC        P3
  D:00C0H         PUBLIC        P4
  D:00C8H         PUBLIC        P5
  D:00E8H         PUBLIC        P6
  B:00A0H.2       PUBLIC        PCF85063BTL_SDI
  D:00F8H         PUBLIC        P7
  B:00A0H.1       PUBLIC        PCF85063BTL_SCK
  B:00A0H.2       PUBLIC        PCF85063BTL_SDO
  D:00A8H         PUBLIC        IE
  C:18A7H         PUBLIC        _Read_time
BL51 BANKED LINKER/LOCATER V6.22                                                      07/24/2018  14:59:17  PAGE 11


  C:1C89H         PUBLIC        _PCF85063BTL_Delay
  D:00B8H         PUBLIC        IP
  D:00D8H         PUBLIC        CCON
  C:17AEH         PUBLIC        _Day_Of_Year
  C:1B94H         PUBLIC        SPI_ReceiveByte
  D:0098H         PUBLIC        SCON
  D:0088H         PUBLIC        TCON
  C:1CCFH         PUBLIC        _BCDtoDec
  B:00A0H.0       PUBLIC        PCF85063BTL_CS
  C:1CBEH         PUBLIC        _SPI_ReadTime
  C:1D0FH         PUBLIC        SPI_Init
  C:1C28H         PUBLIC        _SPI_WriteTime
  C:1B74H         PUBLIC        _SPI_SendByte
  D:00D0H         PUBLIC        PSW
  C:1C85H         SYMBOL        L?0047
  -------         PROC          L?0046
  -------         ENDPROC       L?0046
  C:1C85H         SYMBOL        L?0047
  -------         PROC          _PCF85063BTL_DELAY
  D:0006H         SYMBOL        us
  C:1C89H         LINE#         8
  C:1C89H         LINE#         9
  C:1C89H         LINE#         10
  C:1C93H         LINE#         11
  C:1C93H         LINE#         12
  C:1C94H         LINE#         13
  C:1C96H         LINE#         14
  -------         ENDPROC       _PCF85063BTL_DELAY
  -------         PROC          _SPI_SENDBYTE
  D:0005H         SYMBOL        dat
  -------         DO            
  D:0003H         SYMBOL        i
  -------         ENDDO         
  C:1B74H         LINE#         17
  C:1B76H         LINE#         18
  C:1B76H         LINE#         20
  C:1B78H         LINE#         21
  C:1B78H         LINE#         22
  C:1B7AH         LINE#         23
  C:1B7EH         LINE#         24
  C:1B7EH         LINE#         25
  C:1B80H         LINE#         26
  C:1B82H         LINE#         28
  C:1B82H         LINE#         29
  C:1B84H         LINE#         30
  C:1B84H         LINE#         31
  C:1B87H         LINE#         32
  C:1B87H         LINE#         33
  C:1B8AH         LINE#         34
  C:1B8EH         LINE#         35
  C:1B93H         LINE#         36
  -------         ENDPROC       _SPI_SENDBYTE
  -------         PROC          SPI_RECEIVEBYTE
  -------         DO            
  D:0003H         SYMBOL        i
  D:0005H         SYMBOL        dat
  -------         ENDDO         
BL51 BANKED LINKER/LOCATER V6.22                                                      07/24/2018  14:59:17  PAGE 12


  C:1B94H         LINE#         39
  C:1B94H         LINE#         40
  C:1B94H         LINE#         42
  C:1B96H         LINE#         44
  C:1B98H         LINE#         45
  C:1B99H         LINE#         46
  C:1B99H         LINE#         47
  C:1B9DH         LINE#         48
  C:1B9FH         LINE#         49
  C:1BA2H         LINE#         51
  C:1BA5H         LINE#         52
  C:1BA5H         LINE#         53
  C:1BA9H         LINE#         54
  C:1BA9H         LINE#         55
  C:1BA9H         LINE#         56
  C:1BACH         LINE#         57
  C:1BB1H         LINE#         58
  C:1BB3H         LINE#         59
  -------         ENDPROC       SPI_RECEIVEBYTE
  -------         PROC          _SPI_READTIME
  D:0007H         SYMBOL        addr
  -------         DO            
  D:0006H         SYMBOL        dat
  -------         ENDDO         
  C:1CBEH         LINE#         61
  C:1CBEH         LINE#         62
  C:1CBEH         LINE#         64
  C:1CC0H         LINE#         65
  C:1CC2H         LINE#         66
  C:1CC9H         LINE#         67
  C:1CCCH         LINE#         68
  C:1CCEH         LINE#         69
  C:1CCEH         LINE#         70
  -------         ENDPROC       _SPI_READTIME
  -------         PROC          _SPI_WRITETIME
  D:0002H         SYMBOL        val
  D:0005H         SYMBOL        addr
  C:1C28H         LINE#         71
  C:1C2AH         LINE#         72
  C:1C2AH         LINE#         74
  C:1C2CH         LINE#         75
  C:1C33H         LINE#         76
  C:1C38H         LINE#         77
  C:1C3DH         LINE#         78
  C:1C3FH         LINE#         79
  -------         ENDPROC       _SPI_WRITETIME
  -------         PROC          SPI_INIT
  C:1D0FH         LINE#         83
  C:1D0FH         LINE#         84
  C:1D0FH         LINE#         89
  C:1D12H         LINE#         90
  C:1D15H         LINE#         91
  C:1D17H         LINE#         92
  C:1D19H         LINE#         93
  C:1D1BH         LINE#         94
  -------         ENDPROC       SPI_INIT
  -------         PROC          _READ_TIME
BL51 BANKED LINKER/LOCATER V6.22                                                      07/24/2018  14:59:17  PAGE 13


  X:0147H         SYMBOL        months
  X:014AH         SYMBOL        days
  X:014DH         SYMBOL        hours
  X:0150H         SYMBOL        mins
  X:0153H         SYMBOL        seconds
  C:18A7H         LINE#         96
  C:18B2H         LINE#         97
  C:18B2H         LINE#         99
  C:18C6H         LINE#         101
  C:18DAH         LINE#         103
  C:18EEH         LINE#         108
  C:1902H         LINE#         113
  -------         ENDPROC       _READ_TIME
  -------         PROC          _BCDTODEC
  D:0007H         SYMBOL        bcd
  -------         DO            
  D:0006H         SYMBOL        hi
  D:0007H         SYMBOL        lo
  -------         ENDDO         
  C:1CCFH         LINE#         119
  C:1CCFH         LINE#         120
  C:1CCFH         LINE#         122
  C:1CD4H         LINE#         123
  C:1CD8H         LINE#         124
  C:1CDFH         LINE#         125
  -------         ENDPROC       _BCDTODEC
  -------         PROC          _DAY_OF_YEAR
  D:0007H         SYMBOL        months_bcd
  D:0005H         SYMBOL        days_bcd
  -------         DO            
  D:0004H         SYMBOL        months
  D:0007H         SYMBOL        days
  -------         ENDDO         
  C:17AEH         LINE#         126
  C:17AEH         LINE#         127
  C:17AEH         LINE#         130
  C:17B3H         LINE#         132
  C:17B8H         LINE#         134
  C:17F1H         LINE#         135
  C:17F1H         LINE#         136
  C:17F1H         LINE#         137
  C:17F4H         LINE#         138
  C:17F4H         LINE#         139
  C:17F4H         LINE#         140
  C:17F9H         LINE#         141
  C:17F9H         LINE#         142
  C:17F9H         LINE#         143
  C:17FEH         LINE#         144
  C:17FEH         LINE#         145
  C:17FEH         LINE#         146
  C:1803H         LINE#         147
  C:1803H         LINE#         148
  C:1803H         LINE#         149
  C:1808H         LINE#         150
  C:1808H         LINE#         151
  C:1808H         LINE#         152
  C:180DH         LINE#         153
BL51 BANKED LINKER/LOCATER V6.22                                                      07/24/2018  14:59:17  PAGE 14


  C:180DH         LINE#         154
  C:180DH         LINE#         155
  C:1812H         LINE#         156
  C:1812H         LINE#         157
  C:1812H         LINE#         158
  C:1817H         LINE#         159
  C:1817H         LINE#         160
  C:1817H         LINE#         161
  C:181FH         LINE#         162
  C:181FH         LINE#         163
  C:181FH         LINE#         164
  C:1824H         LINE#         165
  C:1824H         LINE#         166
  C:1824H         LINE#         167
  C:1829H         LINE#         168
  C:1829H         LINE#         169
  C:1829H         LINE#         170
  C:1831H         LINE#         171
  C:1831H         LINE#         172
  C:1831H         LINE#         173
  -------         ENDPROC       _DAY_OF_YEAR
  -------         ENDMOD        PCF85063BTL

  -------         MODULE        UART1
  C:0000H         SYMBOL        _ICE_DUMMY_
  D:0080H         PUBLIC        P0
  D:0090H         PUBLIC        P1
  D:00A0H         PUBLIC        P2
  D:00B0H         PUBLIC        P3
  D:00C0H         PUBLIC        P4
  D:00C8H         PUBLIC        P5
  B:00A8H.7       PUBLIC        EA
  D:00E8H         PUBLIC        P6
  D:00F8H         PUBLIC        P7
  C:1A80H         PUBLIC        _SendString
  D:00A8H         PUBLIC        IE
  B:00A8H.4       PUBLIC        ES
  D:00B8H         PUBLIC        IP
  C:1C40H         PUBLIC        _ASCIItoBCD
  D:00D8H         PUBLIC        CCON
  C:1CE0H         PUBLIC        initUART1
  D:0098H         PUBLIC        SCON
  D:0088H         PUBLIC        TCON
  C:1D61H         PUBLIC        _DectoBCD
  C:1D5CH         PUBLIC        _ASCII_Letter
  D:008EH         PUBLIC        AUXR
  C:1D57H         PUBLIC        _unit
  C:1D45H         PUBLIC        _ten
  D:00D6H         PUBLIC        T2H
  D:00D7H         PUBLIC        T2L
  D:00D0H         PUBLIC        PSW
  -------         PROC          INITUART1
  C:1CE0H         LINE#         21
  C:1CE0H         LINE#         22
  C:1CE0H         LINE#         23
  C:1CE3H         LINE#         24
  C:1CE6H         LINE#         25
BL51 BANKED LINKER/LOCATER V6.22                                                      07/24/2018  14:59:17  PAGE 15


  C:1CE9H         LINE#         26
  C:1CECH         LINE#         27
  C:1CEEH         LINE#         28
  C:1CF0H         LINE#         30
  -------         ENDPROC       INITUART1
  -------         PROC          _SENDSTRING
  X:0194H         SYMBOL        s
  C:1A80H         LINE#         35
  C:1A8BH         LINE#         36
  C:1A8BH         LINE#         37
  C:1A9BH         LINE#         38
  C:1A9BH         LINE#         39
  C:1AB0H         LINE#         40
  C:1AB2H         LINE#         41
  -------         ENDPROC       _SENDSTRING
  -------         PROC          _TEN
  D:0007H         SYMBOL        BCD
  C:1D45H         LINE#         43
  C:1D45H         LINE#         44
  C:1D45H         LINE#         45
  C:1D4AH         LINE#         46
  -------         ENDPROC       _TEN
  -------         PROC          _UNIT
  D:0007H         SYMBOL        BCD
  C:1D57H         LINE#         47
  C:1D57H         LINE#         48
  C:1D57H         LINE#         52
  C:1D5BH         LINE#         53
  -------         ENDPROC       _UNIT
  -------         PROC          _DECTOBCD
  D:0007H         SYMBOL        dec
  C:1D61H         LINE#         54
  C:1D61H         LINE#         55
  C:1D61H         LINE#         57
  C:1D61H         LINE#         58
  -------         ENDPROC       _DECTOBCD
  -------         PROC          _ASCII_LETTER
  D:0007H         SYMBOL        dat
  C:1D5CH         LINE#         60
  C:1D5CH         LINE#         61
  C:1D5CH         LINE#         63
  C:1D60H         LINE#         64
  -------         ENDPROC       _ASCII_LETTER
  -------         PROC          _ASCIITOBCD
  D:0001H         SYMBOL        ascii
  -------         DO            
  D:0007H         SYMBOL        dec_val
  D:0006H         SYMBOL        ten
  D:0007H         SYMBOL        unit
  -------         ENDDO         
  C:1C40H         LINE#         66
  C:1C40H         LINE#         67
  C:1C40H         LINE#         69
  C:1C43H         LINE#         70
  C:1C49H         LINE#         71
  C:1C50H         LINE#         72
  C:1C56H         LINE#         74
BL51 BANKED LINKER/LOCATER V6.22                                                      07/24/2018  14:59:17  PAGE 16


  -------         ENDPROC       _ASCIITOBCD
  -------         ENDMOD        UART1

  -------         MODULE        LCD_DRIVER_SPLC780D
  C:0000H         SYMBOL        _ICE_DUMMY_
  D:0080H         PUBLIC        P0
  D:0090H         PUBLIC        P1
  D:00A0H         PUBLIC        P2
  D:00B0H         PUBLIC        P3
  D:00C0H         PUBLIC        P4
  D:00C8H         PUBLIC        P5
  D:00E8H         PUBLIC        P6
  D:00F8H         PUBLIC        P7
  C:1832H         PUBLIC        _WriteData
  D:00A8H         PUBLIC        IE
  D:00B8H         PUBLIC        IP
  D:00D8H         PUBLIC        CCON
  B:0090H.4       PUBLIC        LCD_D4
  B:0090H.5       PUBLIC        LCD_D5
  B:0090H.6       PUBLIC        LCD_D6
  C:1BF0H         PUBLIC        _DisplayLCD
  B:0090H.7       PUBLIC        LCD_D7
  D:0098H         PUBLIC        SCON
  D:0088H         PUBLIC        TCON
  C:1D32H         PUBLIC        LCD_clear
  C:1A0CH         PUBLIC        _Command
  C:000EH         PUBLIC        _Display_Line
  C:196FH         PUBLIC        LCD_Init
  C:1B10H         PUBLIC        _Wait_ms
  B:0090H.1       PUBLIC        LCD_RS
  B:0090H.2       PUBLIC        LCD_RW
  C:1D28H         PUBLIC        LCD_return_home
  B:0090H.3       PUBLIC        LCD_E
  D:00D0H         PUBLIC        PSW
  -------         PROC          LCD_INIT
  C:196FH         LINE#         9
  C:196FH         LINE#         10
  C:196FH         LINE#         12
  C:1976H         LINE#         13
  C:197BH         LINE#         15
  C:1982H         LINE#         16
  C:1987H         LINE#         18
  C:198AH         LINE#         19
  C:198FH         LINE#         21
  C:1992H         LINE#         22
  C:1997H         LINE#         24
  C:199EH         LINE#         27
  C:19A3H         LINE#         28
  C:19A8H         LINE#         30
  C:19ADH         LINE#         31
  C:19B2H         LINE#         33
  C:19B7H         LINE#         34
  C:19BCH         LINE#         35
  -------         ENDPROC       LCD_INIT
  -------         PROC          _WRITEDATA
  X:0151H         SYMBOL        dat
  C:1832H         LINE#         38
BL51 BANKED LINKER/LOCATER V6.22                                                      07/24/2018  14:59:17  PAGE 17


  C:1837H         LINE#         39
  C:1837H         LINE#         44
  C:1839H         LINE#         45
  C:183BH         LINE#         47
  C:1849H         LINE#         48
  C:1855H         LINE#         49
  C:1861H         LINE#         50
  C:186BH         LINE#         51
  C:186DH         LINE#         52
  C:1874H         LINE#         53
  C:1876H         LINE#         55
  C:1886H         LINE#         56
  C:1891H         LINE#         57
  C:189BH         LINE#         58
  C:189FH         LINE#         60
  C:189FH         LINE#         61
  C:18A2H         LINE#         62
  C:18A4H         LINE#         63
  C:18A6H         LINE#         65
  -------         ENDPROC       _WRITEDATA
  -------         PROC          _COMMAND
  D:0007H         SYMBOL        dat
  C:1A0CH         LINE#         67
  C:1A0CH         LINE#         68
  C:1A0CH         LINE#         69
  C:1A0EH         LINE#         70
  C:1A10H         LINE#         72
  C:1A1AH         LINE#         73
  C:1A1EH         LINE#         75
  C:1A20H         LINE#         76
  C:1A29H         LINE#         77
  C:1A2DH         LINE#         79
  C:1A2FH         LINE#         80
  C:1A36H         LINE#         81
  C:1A3AH         LINE#         83
  C:1A3CH         LINE#         84
  C:1A40H         LINE#         85
  C:1A44H         LINE#         87
  C:1A46H         LINE#         88
  C:1A46H         LINE#         89
  C:1A49H         LINE#         90
  C:1A4BH         LINE#         91
  -------         ENDPROC       _COMMAND
  C:1B0CH         SYMBOL        L?0028
  -------         PROC          L?0027
  -------         ENDPROC       L?0027
  C:1B0CH         SYMBOL        L?0028
  -------         PROC          _WAIT_MS
  D:0006H         SYMBOL        ms
  -------         DO            
  D:0004H         SYMBOL        De_Cnt
  -------         ENDDO         
  C:1B10H         LINE#         93
  C:1B10H         LINE#         94
  C:1B10H         LINE#         96
  C:1B1AH         LINE#         97
  C:1B1AH         LINE#         98
BL51 BANKED LINKER/LOCATER V6.22                                                      07/24/2018  14:59:17  PAGE 18


  C:1B2DH         LINE#         99
  C:1B2DH         LINE#         100
  -------         ENDPROC       _WAIT_MS
  -------         PROC          _DISPLAYLCD
  D:0007H         SYMBOL        BCD
  -------         DO            
  D:0006H         SYMBOL        first_digit
  X:0147H         SYMBOL        second_digit
  -------         ENDDO         
  C:1BF0H         LINE#         101
  C:1BF0H         LINE#         102
  C:1BF0H         LINE#         104
  C:1BF7H         LINE#         105
  C:1C00H         LINE#         107
  C:1C05H         LINE#         109
  -------         ENDPROC       _DISPLAYLCD
  -------         PROC          LCD_RETURN_HOME
  C:1D28H         LINE#         113
  C:1D28H         LINE#         114
  C:1D28H         LINE#         115
  C:1D2DH         LINE#         116
  -------         ENDPROC       LCD_RETURN_HOME
  -------         PROC          LCD_CLEAR
  C:1D32H         LINE#         119
  C:1D32H         LINE#         120
  C:1D32H         LINE#         121
  C:1D37H         LINE#         122
  -------         ENDPROC       LCD_CLEAR
  -------         PROC          _DISPLAY_LINE
  D:0006H         SYMBOL        line
  C:000EH         LINE#         126
  C:000EH         LINE#         127
  C:000EH         LINE#         128
  C:0014H         LINE#         129
  C:0014H         LINE#         130
  C:0016H         LINE#         131
  C:0016H         LINE#         132
  C:0018H         LINE#         134
  C:0018H         LINE#         135
  C:001DH         LINE#         136
  C:0022H         LINE#         137
  C:0022H         LINE#         138
  -------         ENDPROC       _DISPLAY_LINE
  -------         ENDMOD        LCD_DRIVER_SPLC780D

  -------         MODULE        KEYPAD
  C:0000H         SYMBOL        _ICE_DUMMY_
  D:0093H         PUBLIC        P0M1
  D:0080H         PUBLIC        P0
  D:0090H         PUBLIC        P1
  D:00A0H         PUBLIC        P2
  D:00B0H         PUBLIC        P3
  D:00C0H         PUBLIC        P4
  D:00C8H         PUBLIC        P5
  D:00E8H         PUBLIC        P6
  D:00F8H         PUBLIC        P7
  D:00A8H         PUBLIC        IE
BL51 BANKED LINKER/LOCATER V6.22                                                      07/24/2018  14:59:17  PAGE 19


  C:1174H         PUBLIC        Key_Scan
  D:00B8H         PUBLIC        IP
  D:00D8H         PUBLIC        CCON
  C:0003H         PUBLIC        KeyPad_IO_Init
  C:1BB4H         PUBLIC        _Delay_ms
  D:0098H         PUBLIC        SCON
  D:0088H         PUBLIC        TCON
  B:0020H.0       PUBLIC        small_move
  B:0020H.1       PUBLIC        move
  B:0020H.2       PUBLIC        direction
  C:0B1AH         PUBLIC        Key_Process
  D:00D0H         PUBLIC        PSW
  D:0094H         PUBLIC        P0M0
  -------         PROC          _DELAY_MS
  D:0006H         SYMBOL        ms
  -------         DO            
  D:0004H         SYMBOL        De_Cnt
  -------         ENDDO         
  C:1BB4H         LINE#         16
  C:1BB4H         LINE#         17
  C:1BB4H         LINE#         19
  C:1BBEH         LINE#         20
  C:1BBEH         LINE#         21
  C:1BD1H         LINE#         22
  C:1BD1H         LINE#         23
  -------         ENDPROC       _DELAY_MS
  -------         PROC          KEY_SCAN
  -------         DO            
  X:014DH         SYMBOL        KeyTemp1
  X:014EH         SYMBOL        KeyTemp2
  X:014FH         SYMBOL        KeyValue
  -------         ENDDO         
  C:1174H         LINE#         24
  C:1174H         LINE#         25
  C:1174H         LINE#         30
  C:1177H         LINE#         33
  C:117AH         LINE#         35
  C:1182H         LINE#         36
  C:1189H         LINE#         37
  C:1189H         LINE#         38
  C:1190H         LINE#         39
  C:1195H         LINE#         40
  C:119CH         LINE#         41
  C:119CH         LINE#         44
  C:119FH         LINE#         45
  C:11A2H         LINE#         46
  C:11A7H         LINE#         47
  C:11ABH         LINE#         48
  C:11ABH         LINE#         49
  C:11B3H         LINE#         50
  C:11B3H         LINE#         51
  C:11B6H         LINE#         52
  C:11BEH         LINE#         53
  C:11C0H         LINE#         55
  C:11D4H         LINE#         56
  C:11D4H         LINE#         57
  C:11D4H         LINE#         58
BL51 BANKED LINKER/LOCATER V6.22                                                      07/24/2018  14:59:17  PAGE 20


  C:11D4H         LINE#         59
  C:11DAH         LINE#         61
  C:11DCH         LINE#         62
  C:11DCH         LINE#         63
  C:11DCH         LINE#         64
  C:11E2H         LINE#         66
  C:11E4H         LINE#         67
  C:11E4H         LINE#         68
  C:11E4H         LINE#         69
  C:11EAH         LINE#         71
  C:11ECH         LINE#         72
  C:11ECH         LINE#         73
  C:11ECH         LINE#         74
  C:11F2H         LINE#         76
  C:11F2H         LINE#         77
  C:11F2H         LINE#         78
  C:11F2H         LINE#         81
  C:11F5H         LINE#         82
  C:11F8H         LINE#         83
  C:1200H         LINE#         84
  C:1204H         LINE#         85
  C:1204H         LINE#         86
  C:120CH         LINE#         87
  C:120CH         LINE#         88
  C:120FH         LINE#         89
  C:1217H         LINE#         90
  C:1219H         LINE#         91
  C:122DH         LINE#         92
  C:122DH         LINE#         93
  C:122DH         LINE#         94
  C:122DH         LINE#         95
  C:1233H         LINE#         97
  C:1235H         LINE#         98
  C:1235H         LINE#         99
  C:1235H         LINE#         100
  C:123BH         LINE#         102
  C:123DH         LINE#         103
  C:123DH         LINE#         104
  C:123DH         LINE#         105
  C:1243H         LINE#         107
  C:1245H         LINE#         108
  C:1245H         LINE#         109
  C:1245H         LINE#         110
  C:124AH         LINE#         112
  C:124AH         LINE#         113
  C:124AH         LINE#         114
  C:124AH         LINE#         117
  C:124DH         LINE#         118
  C:1250H         LINE#         119
  C:1258H         LINE#         120
  C:125CH         LINE#         121
  C:125CH         LINE#         122
  C:1264H         LINE#         123
  C:1264H         LINE#         124
  C:1267H         LINE#         125
  C:126FH         LINE#         126
  C:1271H         LINE#         127
BL51 BANKED LINKER/LOCATER V6.22                                                      07/24/2018  14:59:17  PAGE 21


  C:1285H         LINE#         128
  C:1285H         LINE#         129
  C:1285H         LINE#         130
  C:1285H         LINE#         131
  C:128BH         LINE#         133
  C:128DH         LINE#         134
  C:128DH         LINE#         135
  C:128DH         LINE#         136
  C:1293H         LINE#         138
  C:1295H         LINE#         139
  C:1295H         LINE#         140
  C:1295H         LINE#         141
  C:129BH         LINE#         143
  C:129DH         LINE#         144
  C:129DH         LINE#         145
  C:129DH         LINE#         146
  C:12A3H         LINE#         148
  C:12A3H         LINE#         149
  C:12A3H         LINE#         150
  C:12A3H         LINE#         154
  C:12A6H         LINE#         155
  C:12A9H         LINE#         156
  C:12B1H         LINE#         157
  C:12B5H         LINE#         158
  C:12B5H         LINE#         159
  C:12BDH         LINE#         160
  C:12BDH         LINE#         161
  C:12C0H         LINE#         162
  C:12C8H         LINE#         163
  C:12CAH         LINE#         164
  C:12DEH         LINE#         165
  C:12DEH         LINE#         166
  C:12DEH         LINE#         167
  C:12DEH         LINE#         168
  C:12E4H         LINE#         170
  C:12E6H         LINE#         171
  C:12E6H         LINE#         172
  C:12E6H         LINE#         173
  C:12ECH         LINE#         175
  C:12EEH         LINE#         176
  C:12EEH         LINE#         177
  C:12EEH         LINE#         178
  C:12F4H         LINE#         180
  C:12F6H         LINE#         181
  C:12F6H         LINE#         182
  C:12F6H         LINE#         183
  C:12FCH         LINE#         185
  C:12FCH         LINE#         186
  C:12FCH         LINE#         187
  C:12FCH         LINE#         189
  C:1302H         LINE#         190
  C:1302H         LINE#         192
  C:1302H         LINE#         193
  C:1305H         LINE#         194
  C:1305H         LINE#         195
  C:1305H         LINE#         197
  C:1305H         LINE#         198
BL51 BANKED LINKER/LOCATER V6.22                                                      07/24/2018  14:59:17  PAGE 22


  C:1307H         LINE#         199
  C:1307H         LINE#         200
  -------         ENDPROC       KEY_SCAN
  -------         PROC          KEY_PROCESS
  -------         DO            
  X:017FH         SYMBOL        KeyCount
  X:0181H         SYMBOL        KeyNum_Old
  X:0182H         SYMBOL        KeyNum
  X:0183H         SYMBOL        PressedKey
  X:0147H         SYMBOL        d
  D:0004H         SYMBOL        hours
  D:0006H         SYMBOL        mins
  X:0149H         SYMBOL        months
  X:014BH         SYMBOL        days
  -------         ENDDO         
  C:0B1AH         LINE#         201
  C:0B1AH         LINE#         202
  C:0B1AH         LINE#         206
  C:0B22H         LINE#         207
  C:0B2AH         LINE#         209
  C:0B37H         LINE#         210
  C:0B37H         LINE#         211
  C:0B3AH         LINE#         212
  C:0B3DH         LINE#         214
  C:0B40H         LINE#         216
  C:0B40H         LINE#         217
  C:0B4BH         LINE#         218
  C:0B4BH         LINE#         219
  C:0B4EH         LINE#         221
  C:0B4EH         LINE#         222
  C:0B55H         LINE#         223
  C:0B55H         LINE#         224
  C:0B58H         LINE#         226
  C:0B58H         LINE#         228
  C:0B5CH         LINE#         229
  C:0B5CH         LINE#         230
  C:0B5FH         LINE#         232
  C:0B5FH         LINE#         233
  C:0B6FH         LINE#         234
  C:0B6FH         LINE#         235
  C:0B81H         LINE#         236
  C:0B8FH         LINE#         237
  C:0B9EH         LINE#         238
  C:0B9EH         LINE#         240
  C:0BA4H         LINE#         244
  C:0BBAH         LINE#         245
  C:0BCBH         LINE#         246
  C:0BE6H         LINE#         247
  C:0BE6H         LINE#         248
  C:0BF6H         LINE#         249
  C:0C07H         LINE#         250
  C:0C07H         LINE#         254
  C:0C20H         LINE#         255
  C:0C37H         LINE#         256
  C:0C57H         LINE#         257
  C:0C57H         LINE#         258
  C:0C61H         LINE#         259
BL51 BANKED LINKER/LOCATER V6.22                                                      07/24/2018  14:59:17  PAGE 23


  C:0C61H         LINE#         260
  C:0C6AH         LINE#         261
  C:0C6AH         LINE#         262
  C:0C7EH         LINE#         263
  C:0C7EH         LINE#         264
  C:0C7EH         LINE#         265
  C:0C7EH         LINE#         266
  C:0C7EH         LINE#         267
  C:0C80H         LINE#         269
  C:0C80H         LINE#         270
  C:0C8CH         LINE#         271
  C:0C8CH         LINE#         272
  C:0C9DH         LINE#         273
  C:0C9DH         LINE#         274
  C:0C9DH         LINE#         275
  C:0C9DH         LINE#         276
  C:0C9DH         LINE#         278
  C:0C9FH         LINE#         280
  C:0C9FH         LINE#         281
  C:0CB0H         LINE#         282
  C:0CB0H         LINE#         283
  C:0CB0H         LINE#         284
  C:0CB0H         LINE#         285
  C:0CB0H         LINE#         287
  C:0CB0H         LINE#         289
  C:0CB0H         LINE#         290
  C:0CB2H         LINE#         292
  C:0CB2H         LINE#         293
  C:0CC5H         LINE#         294
  C:0CC5H         LINE#         295
  C:0CD6H         LINE#         296
  C:0CD6H         LINE#         297
  C:0CD6H         LINE#         298
  C:0CD6H         LINE#         299
  C:0CD6H         LINE#         300
  C:0CD8H         LINE#         302
  C:0CD8H         LINE#         303
  C:0CE9H         LINE#         304
  C:0CE9H         LINE#         305
  C:0CFAH         LINE#         306
  C:0D0BH         LINE#         307
  C:0D0BH         LINE#         308
  C:0D0BH         LINE#         309
  C:0D0BH         LINE#         310
  C:0D0BH         LINE#         311
  C:0D0EH         LINE#         312
  C:0D13H         LINE#         313
  C:0D18H         LINE#         314
  C:0D1DH         LINE#         315
  C:0D22H         LINE#         316
  C:0D27H         LINE#         317
  C:0D2CH         LINE#         318
  C:0D31H         LINE#         319
  C:0D31H         LINE#         321
  C:0D53H         LINE#         322
  C:0D53H         LINE#         323
  C:0D5DH         LINE#         324
BL51 BANKED LINKER/LOCATER V6.22                                                      07/24/2018  14:59:17  PAGE 24


  C:0D5DH         LINE#         325
  C:0D62H         LINE#         326
  C:0D6BH         LINE#         327
  C:0D82H         LINE#         328
  C:0D82H         LINE#         329
  C:0D92H         LINE#         331
  C:0D92H         LINE#         335
  -------         ENDPROC       KEY_PROCESS
  -------         PROC          KEYPAD_IO_INIT
  C:0003H         LINE#         338
  C:0003H         LINE#         339
  C:0003H         LINE#         340
  C:0006H         LINE#         341
  C:0009H         LINE#         342
  -------         ENDPROC       KEYPAD_IO_INIT
  -------         ENDMOD        KEYPAD

  -------         MODULE        VCNL4035
  C:0000H         SYMBOL        _ICE_DUMMY_
  D:0080H         PUBLIC        P0
  B:00B0H.2       PUBLIC        I2C_SCK
  D:00B2H         PUBLIC        P3M0
  D:0090H         PUBLIC        P1
  D:00B1H         PUBLIC        P3M1
  D:00A0H         PUBLIC        P2
  D:00B0H         PUBLIC        P3
  D:00C0H         PUBLIC        P4
  D:00C8H         PUBLIC        P5
  D:00E8H         PUBLIC        P6
  D:00F8H         PUBLIC        P7
  D:00A8H         PUBLIC        IE
  C:1D51H         PUBLIC        _DisplayLCD_VCNL4035
  D:00B8H         PUBLIC        IP
  D:00D8H         PUBLIC        CCON
  C:1CABH         PUBLIC        I2C_Start
  D:0098H         PUBLIC        SCON
  C:1C57H         PUBLIC        I2C_Init
  D:0088H         PUBLIC        TCON
  C:1CF1H         PUBLIC        uC_NACK
  C:1AECH         PUBLIC        _Wait_ms_i2c
  C:1B52H         PUBLIC        _I2C_SendByte
  C:1C6EH         PUBLIC        I2C_Stop
  C:19C3H         PUBLIC        _Write_VCNL4035X
  C:1D62H         PUBLIC        nop
  C:15F3H         PUBLIC        _Read_VCNL4035
  C:1D4BH         PUBLIC        uC_ACK
  C:1C12H         PUBLIC        I2C_ACK
  C:1BD2H         PUBLIC        _Wait_ms_iic
  B:00B0H.1       PUBLIC        I2C_SDA
  D:00D0H         PUBLIC        PSW
  C:1AB9H         PUBLIC        I2C_ReceiveByte
  -------         PROC          _WAIT_MS_IIC
  D:0006H         SYMBOL        ms
  -------         DO            
  D:0004H         SYMBOL        De_Cnt
  -------         ENDDO         
  C:1BD2H         LINE#         5
BL51 BANKED LINKER/LOCATER V6.22                                                      07/24/2018  14:59:17  PAGE 25


  C:1BD2H         LINE#         6
  C:1BD2H         LINE#         8
  C:1BDCH         LINE#         9
  C:1BDCH         LINE#         10
  C:1BEFH         LINE#         11
  C:1BEFH         LINE#         12
  -------         ENDPROC       _WAIT_MS_IIC
  C:1AE6H         SYMBOL        L?0048
  C:1AE8H         SYMBOL        L?0049
  -------         PROC          L?0047
  -------         ENDPROC       L?0047
  C:1AE6H         SYMBOL        L?0048
  C:1AE8H         SYMBOL        L?0049
  -------         PROC          _WAIT_MS_I2C
  D:0006H         SYMBOL        ms
  -------         DO            
  D:0004H         SYMBOL        De_Cnt
  -------         ENDDO         
  C:1AECH         LINE#         14
  C:1AECH         LINE#         15
  C:1AECH         LINE#         17
  C:1AF6H         LINE#         18
  C:1AF6H         LINE#         19
  C:1B09H         LINE#         20
  C:1B09H         LINE#         21
  -------         ENDPROC       _WAIT_MS_I2C
  -------         PROC          NOP
  C:1D62H         LINE#         22
  C:1D62H         LINE#         23
  C:1D62H         LINE#         25
  -------         ENDPROC       NOP
  -------         PROC          I2C_START
  C:1CABH         LINE#         26
  C:1CABH         LINE#         27
  C:1CABH         LINE#         29
  C:1CADH         LINE#         30
  C:1CAFH         LINE#         31
  C:1CB6H         LINE#         32
  C:1CB8H         LINE#         33
  C:1CBBH         LINE#         34
  C:1CBDH         LINE#         37
  -------         ENDPROC       I2C_START
  -------         PROC          I2C_STOP
  C:1C6EH         LINE#         39
  C:1C6EH         LINE#         40
  C:1C6EH         LINE#         41
  C:1C70H         LINE#         42
  C:1C72H         LINE#         43
  C:1C75H         LINE#         44
  C:1C77H         LINE#         45
  C:1C79H         LINE#         46
  C:1C80H         LINE#         47
  C:1C82H         LINE#         50
  -------         ENDPROC       I2C_STOP
  -------         PROC          L?0050
  -------         ENDPROC       L?0050
  -------         PROC          I2C_ACK
BL51 BANKED LINKER/LOCATER V6.22                                                      07/24/2018  14:59:17  PAGE 26


  -------         DO            
  X:014AH         SYMBOL        i
  D:0003H         SYMBOL        dat
  -------         ENDDO         
  C:1C12H         LINE#         52
  C:1C12H         LINE#         53
  C:1C12H         LINE#         55
  C:1C13H         LINE#         60
  C:1C16H         LINE#         61
  C:1C18H         LINE#         62
  C:1C1BH         LINE#         64
  C:1C1EH         LINE#         65
  C:1C1EH         LINE#         66
  C:1C22H         LINE#         67
  C:1C22H         LINE#         70
  C:1C22H         LINE#         71
  C:1C25H         LINE#         72
  C:1C25H         LINE#         73
  C:1C27H         LINE#         74
  -------         ENDPROC       I2C_ACK
  -------         PROC          UC_ACK
  -------         DO            
  X:0197H         SYMBOL        i
  -------         ENDDO         
  C:1D4BH         LINE#         75
  C:1D4BH         LINE#         76
  C:1D4BH         LINE#         78
  C:1D4BH         LINE#         85
  C:1D4BH         LINE#         87
  C:1D4BH         LINE#         89
  C:1D4BH         LINE#         90
  C:1D4BH         LINE#         93
  C:1D4EH         LINE#         94
  C:1D50H         LINE#         95
  C:1D50H         LINE#         99
  -------         ENDPROC       UC_ACK
  -------         PROC          UC_NACK
  -------         DO            
  X:0198H         SYMBOL        i
  -------         ENDDO         
  C:1CF1H         LINE#         101
  C:1CF1H         LINE#         102
  C:1CF1H         LINE#         104
  C:1CF1H         LINE#         108
  C:1CF3H         LINE#         111
  C:1CF3H         LINE#         112
  C:1CF5H         LINE#         113
  C:1CF5H         LINE#         115
  C:1CF5H         LINE#         116
  C:1CF5H         LINE#         119
  C:1CF8H         LINE#         120
  C:1CFAH         LINE#         121
  C:1CFDH         LINE#         122
  C:1CFFH         LINE#         123
  C:1CFFH         LINE#         127
  -------         ENDPROC       UC_NACK
  -------         PROC          I2C_INIT
BL51 BANKED LINKER/LOCATER V6.22                                                      07/24/2018  14:59:17  PAGE 27


  C:1C57H         LINE#         129
  C:1C57H         LINE#         130
  C:1C57H         LINE#         133
  C:1C5AH         LINE#         134
  C:1C5DH         LINE#         139
  C:1C65H         LINE#         141
  -------         ENDPROC       I2C_INIT
  -------         PROC          _I2C_SENDBYTE
  D:0001H         SYMBOL        dat
  -------         DO            
  D:0003H         SYMBOL        i
  -------         ENDDO         
  C:1B52H         LINE#         145
  C:1B54H         LINE#         146
  C:1B54H         LINE#         149
  C:1B56H         LINE#         150
  C:1B56H         LINE#         151
  C:1B58H         LINE#         153
  C:1B5CH         LINE#         154
  C:1B5CH         LINE#         155
  C:1B5EH         LINE#         156
  C:1B60H         LINE#         158
  C:1B60H         LINE#         159
  C:1B62H         LINE#         160
  C:1B62H         LINE#         161
  C:1B65H         LINE#         162
  C:1B67H         LINE#         164
  C:1B6BH         LINE#         165
  C:1B6EH         LINE#         166
  C:1B73H         LINE#         167
  -------         ENDPROC       _I2C_SENDBYTE
  -------         PROC          L?0051
  -------         ENDPROC       L?0051
  -------         PROC          I2C_RECEIVEBYTE
  -------         DO            
  D:0003H         SYMBOL        i
  D:0001H         SYMBOL        dat
  -------         ENDDO         
  C:1AB9H         LINE#         171
  C:1AB9H         LINE#         172
  C:1AB9H         LINE#         174
  C:1ABBH         LINE#         178
  C:1ABCH         LINE#         179
  C:1ABCH         LINE#         180
  C:1AC0H         LINE#         181
  C:1AC2H         LINE#         182
  C:1AC5H         LINE#         184
  C:1AC8H         LINE#         185
  C:1AC8H         LINE#         186
  C:1ACCH         LINE#         187
  C:1ACCH         LINE#         188
  C:1ACCH         LINE#         189
  C:1ACFH         LINE#         190
  C:1AD3H         LINE#         191
  C:1AD3H         LINE#         192
  C:1AD5H         LINE#         193
  C:1AD7H         LINE#         194
BL51 BANKED LINKER/LOCATER V6.22                                                      07/24/2018  14:59:17  PAGE 28


  C:1AD7H         LINE#         196
  C:1ADCH         LINE#         197
  C:1ADEH         LINE#         198
  -------         ENDPROC       I2C_RECEIVEBYTE
  -------         PROC          _WRITE_VCNL4035X
  X:0147H         SYMBOL        command_code
  X:0148H         SYMBOL        dat_h
  X:0149H         SYMBOL        dat_l
  C:19C3H         LINE#         199
  C:19CEH         LINE#         200
  C:19CEH         LINE#         201
  C:19D1H         LINE#         202
  C:19D8H         LINE#         203
  C:19D8H         LINE#         204
  C:19DEH         LINE#         205
  C:19DEH         LINE#         206
  C:19E6H         LINE#         207
  C:19E6H         LINE#         208
  C:19ECH         LINE#         209
  C:19F4H         LINE#         211
  C:19FAH         LINE#         212
  C:1A02H         LINE#         214
  C:1A08H         LINE#         215
  C:1A0BH         LINE#         216
  -------         ENDPROC       _WRITE_VCNL4035X
  -------         PROC          _READ_VCNL4035
  X:0188H         SYMBOL        command_code
  -------         DO            
  X:018AH         SYMBOL        temp_dat
  X:018CH         SYMBOL        temp_dat_l
  X:018EH         SYMBOL        temp_dat_h
  -------         ENDDO         
  C:15F3H         LINE#         218
  C:15FBH         LINE#         219
  C:15FBH         LINE#         220
  C:1608H         LINE#         222
  C:160BH         LINE#         223
  C:160EH         LINE#         224
  C:1613H         LINE#         226
  C:1619H         LINE#         227
  C:1619H         LINE#         228
  C:1619H         LINE#         229
  C:1619H         LINE#         230
  C:1624H         LINE#         231
  C:1627H         LINE#         232
  C:162AH         LINE#         233
  C:162AH         LINE#         236
  C:162DH         LINE#         238
  C:1634H         LINE#         239
  C:1634H         LINE#         240
  C:1634H         LINE#         241
  C:163FH         LINE#         242
  C:1642H         LINE#         243
  C:1645H         LINE#         244
  C:1648H         LINE#         245
  C:164BH         LINE#         246
  C:164EH         LINE#         247
BL51 BANKED LINKER/LOCATER V6.22                                                      07/24/2018  14:59:17  PAGE 29


  C:1651H         LINE#         248
  C:1654H         LINE#         249
  C:1657H         LINE#         250
  C:1657H         LINE#         251
  C:165DH         LINE#         252
  C:165DH         LINE#         253
  C:1666H         LINE#         255
  C:1666H         LINE#         256
  C:166CH         LINE#         257
  C:166CH         LINE#         259
  C:166EH         LINE#         260
  C:1674H         LINE#         261
  C:1677H         LINE#         262
  C:167EH         LINE#         263
  C:167EH         LINE#         264
  C:168CH         LINE#         265
  -------         ENDPROC       _READ_VCNL4035
  -------         PROC          _DISPLAYLCD_VCNL4035
  X:0199H         SYMBOL        dat
  C:1D51H         LINE#         267
  C:1D56H         LINE#         268
  C:1D56H         LINE#         270
  -------         ENDPROC       _DISPLAYLCD_VCNL4035
  -------         ENDMOD        VCNL4035

  -------         MODULE        BIPOLARMOTOR
  C:0000H         SYMBOL        _ICE_DUMMY_
  D:0080H         PUBLIC        P0
  D:0090H         PUBLIC        P1
  D:00A0H         PUBLIC        P2
  D:00B0H         PUBLIC        P3
  D:00C0H         PUBLIC        P4
  D:00C8H         PUBLIC        P5
  D:00E8H         PUBLIC        P6
  D:00F8H         PUBLIC        P7
  D:00A8H         PUBLIC        IE
  X:0000H         PUBLIC        receiver_pos
  X:0104H         PUBLIC        Time_stamp_PM
  C:1A4CH         PUBLIC        _Move
  D:00B8H         PUBLIC        IP
  D:00D8H         PUBLIC        CCON
  D:0098H         PUBLIC        SCON
  D:0088H         PUBLIC        TCON
  C:1916H         PUBLIC        _Step_move
  C:0634H         PUBLIC        _Update_position
  C:1B41H         PUBLIC        _BCDtoDec1
  X:012BH         PUBLIC        degree
  D:00D0H         PUBLIC        PSW
  C:1B2EH         SYMBOL        L?0042
  -------         PROC          L?0041
  -------         ENDPROC       L?0041
  C:1B2EH         SYMBOL        L?0042
  -------         PROC          _BCDTODEC1
  D:0007H         SYMBOL        bcd
  -------         DO            
  D:0006H         SYMBOL        hi
  D:0007H         SYMBOL        lo
BL51 BANKED LINKER/LOCATER V6.22                                                      07/24/2018  14:59:17  PAGE 30


  -------         ENDDO         
  C:1B41H         LINE#         11
  C:1B41H         LINE#         12
  C:1B41H         LINE#         14
  C:1B46H         LINE#         15
  C:1B4AH         LINE#         16
  C:1B51H         LINE#         17
  -------         ENDPROC       _BCDTODEC1
  -------         PROC          _STEP_MOVE
  X:015FH         SYMBOL        step
  B:0020H.5       SYMBOL        dir
  -------         DO            
  X:0161H         SYMBOL        i
  -------         ENDDO         
  C:1916H         LINE#         23
  C:191EH         LINE#         24
  C:191EH         LINE#         25
  C:1923H         LINE#         26
  C:1926H         LINE#         27
  C:192BH         LINE#         29
  C:192EH         LINE#         31
  C:194AH         LINE#         32
  C:194AH         LINE#         33
  C:194DH         LINE#         34
  C:1954H         LINE#         35
  C:1957H         LINE#         36
  C:195EH         LINE#         37
  C:196EH         LINE#         38
  -------         ENDPROC       _STEP_MOVE
  -------         PROC          _MOVE
  X:015BH         SYMBOL        distance
  B:0020H.4       SYMBOL        direction
  -------         DO            
  D:0006H         SYMBOL        step
  -------         ENDDO         
  C:1A4CH         LINE#         40
  C:1A52H         LINE#         41
  C:1A52H         LINE#         43
  C:1A79H         LINE#         44
  -------         ENDPROC       _MOVE
  -------         PROC          _UPDATE_POSITION
  X:0147H         SYMBOL        mnths
  X:0148H         SYMBOL        dys
  X:0149H         SYMBOL        hurs
  X:014AH         SYMBOL        mns
  X:014BH         SYMBOL        sconds
  X:014CH         SYMBOL        currnt_pos
  -------         DO            
  X:014FH         SYMBOL        date
  X:0151H         SYMBOL        i
  X:0153H         SYMBOL        desired_distance
  X:0157H         SYMBOL        distance
  -------         ENDDO         
  C:0634H         LINE#         50
  C:063FH         LINE#         51
  C:063FH         LINE#         53
  C:0649H         LINE#         57
BL51 BANKED LINKER/LOCATER V6.22                                                      07/24/2018  14:59:17  PAGE 31


  C:065DH         LINE#         58
  C:0670H         LINE#         60
  C:0675H         LINE#         61
  C:0675H         LINE#         62
  C:06F0H         LINE#         63
  C:06F0H         LINE#         64
  C:0710H         LINE#         65
  C:0710H         LINE#         66
  C:0710H         LINE#         67
  C:071BH         LINE#         68
  C:071DH         LINE#         69
  C:071DH         LINE#         70
  C:072EH         LINE#         71
  C:0730H         LINE#         72
  C:0730H         LINE#         73
  C:0741H         LINE#         74
  C:0743H         LINE#         75
  C:0743H         LINE#         76
  C:0754H         LINE#         77
  C:0756H         LINE#         78
  C:0756H         LINE#         79
  C:0780H         LINE#         80
  C:0780H         LINE#         81
  C:0780H         LINE#         82
  C:0780H         LINE#         83
  C:0780H         LINE#         87
  C:07A5H         LINE#         88
  C:07C1H         LINE#         89
  C:07DBH         LINE#         90
  C:07DBH         LINE#         91
  C:07DBH         LINE#         92
  C:07DEH         LINE#         93
  C:07F9H         LINE#         94
  C:07F9H         LINE#         95
  C:07F9H         LINE#         96
  C:07FCH         LINE#         98
  C:07FCH         LINE#         99
  C:07FCH         LINE#         101
  C:07FCH         LINE#         102
  C:07FCH         LINE#         103
  C:08D5H         LINE#         104
  C:08D5H         LINE#         105
  C:08EBH         LINE#         106
  C:08EBH         LINE#         107
  C:08EBH         LINE#         108
  C:0A5EH         LINE#         112
  C:0A5EH         LINE#         113
  C:0A83H         LINE#         114
  C:0A9FH         LINE#         115
  C:0AB9H         LINE#         116
  C:0AB9H         LINE#         117
  C:0AC9H         LINE#         118
  C:0ACBH         LINE#         119
  C:0AE3H         LINE#         120
  C:0AE3H         LINE#         121
  C:0AF9H         LINE#         122
  C:0AF9H         LINE#         124
BL51 BANKED LINKER/LOCATER V6.22                                                      07/24/2018  14:59:17  PAGE 32


  C:0AF9H         LINE#         125
  C:0AF9H         LINE#         127
  C:0AF9H         LINE#         129
  C:0AF9H         LINE#         131
  C:0B19H         LINE#         132
  -------         ENDPROC       _UPDATE_POSITION
  -------         ENDMOD        BIPOLARMOTOR

  -------         MODULE        ?C_STARTUP
  C:1722H         SEGMENT       ?C_C51STARTUP
  I:0021H         SEGMENT       ?STACK
  C:0000H         PUBLIC        ?C_STARTUP
  D:00E0H         SYMBOL        ACC
  D:00F0H         SYMBOL        B
  D:0083H         SYMBOL        DPH
  D:0082H         SYMBOL        DPL
  N:0000H         SYMBOL        IBPSTACK
  N:0100H         SYMBOL        IBPSTACKTOP
  N:0080H         SYMBOL        IDATALEN
  C:1725H         SYMBOL        IDATALOOP
  N:0000H         SYMBOL        PBPSTACK
  N:0100H         SYMBOL        PBPSTACKTOP
  N:0000H         SYMBOL        PDATALEN
  N:0000H         SYMBOL        PDATASTART
  N:0000H         SYMBOL        PPAGE
  N:0000H         SYMBOL        PPAGEENABLE
  D:00A0H         SYMBOL        PPAGE_SFR
  D:0081H         SYMBOL        SP
  C:1722H         SYMBOL        STARTUP1
  N:0000H         SYMBOL        XBPSTACK
  N:0000H         SYMBOL        XBPSTACKTOP
  N:0000H         SYMBOL        XDATALEN
  N:0000H         SYMBOL        XDATASTART
  C:0000H         LINE#         126
  C:1722H         LINE#         133
  C:1724H         LINE#         134
  C:1725H         LINE#         135
  C:1726H         LINE#         136
  C:1728H         LINE#         185
  C:172BH         LINE#         196
  -------         ENDMOD        ?C_STARTUP

  -------         MODULE        ?C?FPADD
  C:002DH         PUBLIC        ?C?FPADD
  C:0029H         PUBLIC        ?C?FPSUB
  -------         ENDMOD        ?C?FPADD

  -------         MODULE        ?C?FPMUL
  C:011EH         PUBLIC        ?C?FPMUL
  -------         ENDMOD        ?C?FPMUL

  -------         MODULE        ?C?FPDIV
  C:0227H         PUBLIC        ?C?FPDIV
  -------         ENDMOD        ?C?FPDIV

  -------         MODULE        ?C?FPCMP
  C:02C6H         PUBLIC        ?C?FPCMP
BL51 BANKED LINKER/LOCATER V6.22                                                      07/24/2018  14:59:17  PAGE 33


  C:02C4H         PUBLIC        ?C?FPCMP3
  -------         ENDMOD        ?C?FPCMP

  -------         MODULE        ?C?FPNEG
  C:033DH         PUBLIC        ?C?FPNEG
  -------         ENDMOD        ?C?FPNEG

  -------         MODULE        ?C?FCAST
  C:0358H         PUBLIC        ?C?FCASTC
  C:0353H         PUBLIC        ?C?FCASTI
  C:034EH         PUBLIC        ?C?FCASTL
  -------         ENDMOD        ?C?FCAST

  -------         MODULE        ?C?CASTF
  C:038CH         PUBLIC        ?C?CASTF
  -------         ENDMOD        ?C?CASTF

  -------         MODULE        ?C?CLDPTR
  C:040DH         PUBLIC        ?C?CLDPTR
  -------         ENDMOD        ?C?CLDPTR

  -------         MODULE        ?C?CSTPTR
  C:0426H         PUBLIC        ?C?CSTPTR
  -------         ENDMOD        ?C?CSTPTR

  -------         MODULE        ?C?IMUL
  C:0438H         PUBLIC        ?C?IMUL
  -------         ENDMOD        ?C?IMUL

  -------         MODULE        ?C?UIDIV
  C:044AH         PUBLIC        ?C?UIDIV
  -------         ENDMOD        ?C?UIDIV

  -------         MODULE        ?C?SIDIV
  C:049FH         PUBLIC        ?C?SIDIV
  -------         ENDMOD        ?C?SIDIV

  -------         MODULE        ?C?ILDIX
  C:04D5H         PUBLIC        ?C?ILDIX
  -------         ENDMOD        ?C?ILDIX

  -------         MODULE        ?C?LNEG
  C:04EBH         PUBLIC        ?C?LNEG
  -------         ENDMOD        ?C?LNEG

  -------         MODULE        ?C?LLDPTR
  C:04F9H         PUBLIC        ?C?LLDPTR
  -------         ENDMOD        ?C?LLDPTR

  -------         MODULE        ?C?LSTPTR
  C:0519H         PUBLIC        ?C?LSTPTR
  -------         ENDMOD        ?C?LSTPTR

  -------         MODULE        ?C?LLDPTR0
  C:0533H         PUBLIC        ?C?LLDPTR0
  -------         ENDMOD        ?C?LLDPTR0

BL51 BANKED LINKER/LOCATER V6.22                                                      07/24/2018  14:59:17  PAGE 34


  -------         MODULE        ?C?LSTXDATA
  C:0553H         PUBLIC        ?C?LSTXDATA
  -------         ENDMOD        ?C?LSTXDATA

  -------         MODULE        ?C?LSTKXDATA
  C:055FH         PUBLIC        ?C?LSTKXDATA
  -------         ENDMOD        ?C?LSTKXDATA

  -------         MODULE        ?C?OFFXADD
  C:0590H         PUBLIC        ?C?OFFXADD
  -------         ENDMOD        ?C?OFFXADD

  -------         MODULE        ABS
  C:1D1CH         PUBLIC        _ABS
  -------         ENDMOD        ABS

  -------         MODULE        ATOI
  C:147DH         PUBLIC        _atoi
  -------         ENDMOD        ATOI

  -------         MODULE        ?C?IILDX
  C:059CH         PUBLIC        ?C?IILDX
  -------         ENDMOD        ?C?IILDX

  -------         MODULE        ?C?LLDIDATA
  C:05B2H         PUBLIC        ?C?LLDIDATA
  -------         ENDMOD        ?C?LLDIDATA

  -------         MODULE        ?C?LLDXDATA
  C:05BEH         PUBLIC        ?C?LLDXDATA
  -------         ENDMOD        ?C?LLDXDATA

  -------         MODULE        ?C?LLDPDATA
  C:05CAH         PUBLIC        ?C?LLDPDATA
  -------         ENDMOD        ?C?LLDPDATA

  -------         MODULE        ?C?LLDCODE
  C:05D6H         PUBLIC        ?C?LLDCODE
  -------         ENDMOD        ?C?LLDCODE

  -------         MODULE        ?C?LLDIDATA0
  C:05E6H         PUBLIC        ?C?LLDIDATA0
  -------         ENDMOD        ?C?LLDIDATA0

  -------         MODULE        ?C?LLDXDATA0
  C:05F3H         PUBLIC        ?C?LLDXDATA0
  -------         ENDMOD        ?C?LLDXDATA0

  -------         MODULE        ?C?LLDPDATA0
  C:05FFH         PUBLIC        ?C?LLDPDATA0
  -------         ENDMOD        ?C?LLDPDATA0

  -------         MODULE        ?C?LLDCODE0
  C:060CH         PUBLIC        ?C?LLDCODE0
  -------         ENDMOD        ?C?LLDCODE0

  -------         MODULE        ?C?LSTIDATA
BL51 BANKED LINKER/LOCATER V6.22                                                      07/24/2018  14:59:17  PAGE 35


  C:061CH         PUBLIC        ?C?LSTIDATA
  -------         ENDMOD        ?C?LSTIDATA

  -------         MODULE        ?C?LSTPDATA
  C:0628H         PUBLIC        ?C?LSTPDATA
  -------         ENDMOD        ?C?LSTPDATA

  -------         MODULE        ISDIGIT
  C:1D00H         PUBLIC        _isdigit
  -------         ENDMOD        ISDIGIT

  -------         MODULE        ISSPACE
  C:1C97H         PUBLIC        _isspace
  -------         ENDMOD        ISSPACE

*** WARNING L16: UNCALLED SEGMENT, IGNORED FOR OVERLAY PROCESS
    SEGMENT: ?PR?_DISPLAY_PROX?MAIN

*** WARNING L16: UNCALLED SEGMENT, IGNORED FOR OVERLAY PROCESS
    SEGMENT: ?PR?_SENDSTRING?UART1

*** WARNING L16: UNCALLED SEGMENT, IGNORED FOR OVERLAY PROCESS
    SEGMENT: ?PR?_TEN?UART1

*** WARNING L16: UNCALLED SEGMENT, IGNORED FOR OVERLAY PROCESS
    SEGMENT: ?PR?_UNIT?UART1

*** WARNING L16: UNCALLED SEGMENT, IGNORED FOR OVERLAY PROCESS
    SEGMENT: ?PR?_DECTOBCD?UART1

*** WARNING L16: UNCALLED SEGMENT, IGNORED FOR OVERLAY PROCESS
    SEGMENT: ?PR?_ASCII_LETTER?UART1

*** WARNING L16: UNCALLED SEGMENT, IGNORED FOR OVERLAY PROCESS
    SEGMENT: ?PR?NOP?VCNL4035

*** WARNING L16: UNCALLED SEGMENT, IGNORED FOR OVERLAY PROCESS
    SEGMENT: ?PR?_READ_VCNL4035?VCNL4035

*** WARNING L16: UNCALLED SEGMENT, IGNORED FOR OVERLAY PROCESS
    SEGMENT: ?PR?_DISPLAYLCD_VCNL4035?VCNL4035

Program Size: data=17.7 xdata=410 code=7523
LINK/LOCATE RUN COMPLETE.  9 WARNING(S),  0 ERROR(S)
