BL51 BANKED LINKER/LOCATER V6.22                                                        05/11/2018  13:35:24  PAGE 1


BL51 BANKED LINKER/LOCATER V6.22, INVOKED BY:
C:\KEIL_V5\C51\BIN\BL51.EXE .\Obj\main.obj, .\Obj\PCF85063BTL.obj, .\Obj\UART1.obj, .\Obj\LCd_Driver_SPLC780D.obj, .\Obj
>> \STARTUP.obj TO .\Obj\GPIO_RTC_Test PRINT (.\Lis\GPIO_RTC_Test.m51) RAMSIZE (256)


MEMORY MODEL: LARGE


INPUT MODULES INCLUDED:
  .\Obj\main.obj (MAIN)
  .\Obj\PCF85063BTL.obj (PCF85063BTL)
  .\Obj\UART1.obj (UART1)
  .\Obj\LCd_Driver_SPLC780D.obj (LCD_DRIVER_SPLC780D)
  .\Obj\STARTUP.obj (?C_STARTUP)
  C:\KEIL_V5\C51\LIB\C51L.LIB (?C_INIT)
  C:\KEIL_V5\C51\LIB\C51L.LIB (?C?CLDPTR)
  C:\KEIL_V5\C51\LIB\C51L.LIB (?C?CSTPTR)
  C:\KEIL_V5\C51\LIB\C51L.LIB (?C?ILDIX)
  C:\KEIL_V5\C51\LIB\C51L.LIB (ATOI)
  C:\KEIL_V5\C51\LIB\C51L.LIB (?C?IMUL)
  C:\KEIL_V5\C51\LIB\C51L.LIB (?C?IILDX)
  C:\KEIL_V5\C51\LIB\C51L.LIB (ISDIGIT)
  C:\KEIL_V5\C51\LIB\C51L.LIB (ISSPACE)


LINK MAP OF MODULE:  .\Obj\GPIO_RTC_Test (MAIN)


            TYPE    BASE      LENGTH    RELOCATION   SEGMENT NAME
            -----------------------------------------------------

            * * * * * * *   D A T A   M E M O R Y   * * * * * * *
            REG     0000H     0008H     ABSOLUTE     "REG BANK 0"
            REG     0008H     0008H     ABSOLUTE     "REG BANK 1"
                    0010H     0010H                  *** GAP ***
            BIT     0020H.0   0000H.1   UNIT         ?BI?MAIN
            BIT     0020H.1   0000H.1   UNIT         _BIT_GROUP_
                    0020H.2   0000H.6                *** GAP ***
            IDATA   0021H     0001H     UNIT         ?STACK

            * * * * * * *  X D A T A   M E M O R Y  * * * * * * *
            XDATA   0000H     0020H     UNIT         _XDATA_GROUP_
            XDATA   0020H     000CH     UNIT         ?XD?MAIN
            XDATA   002CH     0003H     UNIT         ?XD?_SENDSTRING?UART1

            * * * * * * *   C O D E   M E M O R Y   * * * * * * *
            CODE    0000H     0003H     ABSOLUTE     
            CODE    0003H     0020H     UNIT         ?PR?_SPI_SENDBYTE?PCF85063BTL
            CODE    0023H     0003H     ABSOLUTE     
            CODE    0026H     00EAH     UNIT         ?PR?_DISPLAY_TIME?UART1
            CODE    0110H     00DDH     UNIT         ?PR?MAIN?MAIN
            CODE    01EDH     00DBH     UNIT         ?PR?_ATOI?ATOI
            CODE    02C8H     0099H     UNIT         ?PR?UART?MAIN
            CODE    0361H     008CH     UNIT         ?C_C51STARTUP
            CODE    03EDH     0075H     UNIT         ?PR?_WRITEDATA?LCD_DRIVER_SPLC780D
            CODE    0462H     0069H     UNIT         ?C?LIB_CODE
            CODE    04CBH     0054H     UNIT         ?PR?LCD_INIT?LCD_DRIVER_SPLC780D
            CODE    051FH     0040H     UNIT         ?PR?_COMMAND?LCD_DRIVER_SPLC780D
BL51 BANKED LINKER/LOCATER V6.22                                                      05/11/2018  13:35:24  PAGE 2


            CODE    055FH     0033H     UNIT         ?PR?_SENDSTRING?UART1
            CODE    0592H     0024H     UNIT         ?PR?_WAIT_MS?LCD_DRIVER_SPLC780D
            CODE    05B6H     0020H     UNIT         ?PR?SPI_RECEIVEBYTE?PCF85063BTL
            CODE    05D6H     001EH     UNIT         ?PR?_DELAY_MS?MAIN
            CODE    05F4H     001DH     UNIT         ?PR?_DISPLAYLCD?LCD_DRIVER_SPLC780D
            CODE    0611H     0018H     UNIT         ?PR?_SPI_WRITETIME?PCF85063BTL
            CODE    0629H     0017H     UNIT         ?C_INITSEG
            CODE    0640H     0017H     UNIT         ?PR?_ASCIITOBCD?UART1
            CODE    0657H     0014H     UNIT         ?PR?_PCF85063BTL_DELAY?PCF85063BTL
            CODE    066BH     0014H     UNIT         ?PR?_ISSPACE?ISSPACE
            CODE    067FH     0012H     UNIT         ?PR?_TEN?UART1
            CODE    0691H     0011H     UNIT         ?PR?_SPI_READTIME?PCF85063BTL
            CODE    06A2H     0011H     UNIT         ?PR?INITUART1?UART1
            CODE    06B3H     0011H     UNIT         ?PR?_UNIT?UART1
            CODE    06C4H     000FH     UNIT         ?PR?_ISDIGIT?ISDIGIT
            CODE    06D3H     000DH     UNIT         ?PR?SPI_INIT?PCF85063BTL
            CODE    06E0H     000AH     UNIT         ?PR?LCD_RETURN_HOME?LCD_DRIVER_SPLC780D
            CODE    06EAH     000AH     UNIT         ?PR?LCD_CLEAR?LCD_DRIVER_SPLC780D
            CODE    06F4H     0009H     UNIT         ?PR?_SENDUART1?MAIN
            CODE    06FDH     0005H     UNIT         ?PR?_ASCII_LETTER?UART1
            CODE    0702H     0001H     UNIT         ?PR?_DECTOBCD?UART1



OVERLAY MAP OF MODULE:   .\Obj\GPIO_RTC_Test (MAIN)


SEGMENT                                            BIT_GROUP          XDATA_GROUP
  +--> CALLED SEGMENT                           START    LENGTH     START    LENGTH
-----------------------------------------------------------------------------------
?PR?UART?MAIN                                   -----    -----      -----    -----
  +--> ?PR?_ASCIITOBCD?UART1

?PR?_ASCIITOBCD?UART1                           -----    -----      -----    -----
  +--> ?PR?_ATOI?ATOI

?PR?_ATOI?ATOI                                  0020H.1  0000H.1    0000H    0005H
  +--> ?PR?_ISSPACE?ISSPACE
  +--> ?PR?_ISDIGIT?ISDIGIT

*** NEW ROOT ***************************************************

?C_C51STARTUP                                   -----    -----      -----    -----
  +--> ?PR?MAIN?MAIN
  +--> ?C_INITSEG

?PR?MAIN?MAIN                                   -----    -----      0005H    000CH
  +--> ?PR?LCD_INIT?LCD_DRIVER_SPLC780D
  +--> ?PR?SPI_INIT?PCF85063BTL
  +--> ?PR?INITUART1?UART1
  +--> ?PR?_SPI_WRITETIME?PCF85063BTL
  +--> ?PR?_DELAY_MS?MAIN
  +--> ?PR?_DISPLAYLCD?LCD_DRIVER_SPLC780D
  +--> ?PR?_WRITEDATA?LCD_DRIVER_SPLC780D
  +--> ?PR?LCD_RETURN_HOME?LCD_DRIVER_SPLC780D
  +--> ?PR?_SENDUART1?MAIN
  +--> ?PR?_DISPLAY_TIME?UART1
BL51 BANKED LINKER/LOCATER V6.22                                                      05/11/2018  13:35:24  PAGE 3



?PR?LCD_INIT?LCD_DRIVER_SPLC780D                -----    -----      -----    -----
  +--> ?PR?_WAIT_MS?LCD_DRIVER_SPLC780D
  +--> ?PR?_COMMAND?LCD_DRIVER_SPLC780D

?PR?_COMMAND?LCD_DRIVER_SPLC780D                -----    -----      -----    -----
  +--> ?PR?_WAIT_MS?LCD_DRIVER_SPLC780D

?PR?_SPI_WRITETIME?PCF85063BTL                  -----    -----      -----    -----
  +--> ?PR?_SPI_SENDBYTE?PCF85063BTL

?PR?_SPI_SENDBYTE?PCF85063BTL                   -----    -----      -----    -----
  +--> ?PR?_PCF85063BTL_DELAY?PCF85063BTL

?PR?_DISPLAYLCD?LCD_DRIVER_SPLC780D             -----    -----      0011H    0001H
  +--> ?PR?_WRITEDATA?LCD_DRIVER_SPLC780D

?PR?_WRITEDATA?LCD_DRIVER_SPLC780D              -----    -----      0012H    0001H
  +--> ?PR?_WAIT_MS?LCD_DRIVER_SPLC780D

?PR?LCD_RETURN_HOME?LCD_DRIVER_SPLC780D         -----    -----      -----    -----
  +--> ?PR?_COMMAND?LCD_DRIVER_SPLC780D

?PR?_DISPLAY_TIME?UART1                         -----    -----      0011H    000FH
  +--> ?PR?_SPI_READTIME?PCF85063BTL
  +--> ?PR?_TEN?UART1
  +--> ?PR?_SENDUART1?MAIN
  +--> ?PR?_UNIT?UART1

?PR?_SPI_READTIME?PCF85063BTL                   -----    -----      -----    -----
  +--> ?PR?_SPI_SENDBYTE?PCF85063BTL
  +--> ?PR?SPI_RECEIVEBYTE?PCF85063BTL

?PR?SPI_RECEIVEBYTE?PCF85063BTL                 -----    -----      -----    -----
  +--> ?PR?_PCF85063BTL_DELAY?PCF85063BTL



SYMBOL TABLE OF MODULE:  .\Obj\GPIO_RTC_Test (MAIN)

  VALUE           TYPE          NAME
  ----------------------------------

  -------         MODULE        MAIN
  C:0000H         SYMBOL        _ICE_DUMMY_
  D:0080H         PUBLIC        P0
  D:0090H         PUBLIC        P1
  D:00A0H         PUBLIC        P2
  D:00B0H         PUBLIC        P3
  D:00C0H         PUBLIC        P4
  D:00C8H         PUBLIC        P5
  B:00A8H.7       PUBLIC        EA
  D:00E8H         PUBLIC        P6
  D:00F8H         PUBLIC        P7
  X:0020H         PUBLIC        RX_Data_Uart_Cnt
  D:00A8H         PUBLIC        IE
  D:00B8H         PUBLIC        IP
BL51 BANKED LINKER/LOCATER V6.22                                                      05/11/2018  13:35:24  PAGE 4


  B:0098H.0       PUBLIC        RI
  B:0098H.1       PUBLIC        TI
  C:02C8H         PUBLIC        Uart
  D:00D8H         PUBLIC        CCON
  C:0110H         PUBLIC        main
  D:0099H         PUBLIC        SBUF
  C:05D6H         PUBLIC        _Delay_ms
  D:0098H         PUBLIC        SCON
  D:0088H         PUBLIC        TCON
  X:0022H         PUBLIC        Rec_data_hour
  X:0025H         PUBLIC        Rec_data_min
  B:0020H.0       PUBLIC        busy
  D:00E0H         PUBLIC        ACC
  X:0028H         PUBLIC        hour_count
  X:0029H         PUBLIC        min_count
  X:002AH         PUBLIC        st_time
  D:00D0H         PUBLIC        PSW
  C:06F4H         PUBLIC        _SendUART1
  -------         PROC          MAIN
  -------         DO            
  X:0005H         SYMBOL        seconds
  X:0006H         SYMBOL        mins
  X:0007H         SYMBOL        hours
  X:0008H         SYMBOL        days
  X:0009H         SYMBOL        months
  X:000AH         SYMBOL        sec_decimal
  X:000CH         SYMBOL        numStr
  -------         ENDDO         
  C:0110H         LINE#         36
  C:0110H         LINE#         37
  C:0110H         LINE#         41
  C:0113H         LINE#         42
  C:0116H         LINE#         43
  C:0119H         LINE#         44
  C:011BH         LINE#         45
  C:0122H         LINE#         46
  C:0129H         LINE#         47
  C:0130H         LINE#         48
  C:0137H         LINE#         49
  C:0137H         LINE#         50
  C:0137H         LINE#         51
  C:013FH         LINE#         52
  C:0144H         LINE#         53
  C:014CH         LINE#         54
  C:0151H         LINE#         55
  C:015BH         LINE#         56
  C:0160H         LINE#         57
  C:0168H         LINE#         58
  C:016DH         LINE#         59
  C:0175H         LINE#         62
  C:0178H         LINE#         63
  C:0182H         LINE#         64
  C:0182H         LINE#         65
  C:018CH         LINE#         66
  C:0196H         LINE#         67
  C:019DH         LINE#         68
  C:01A5H         LINE#         69
BL51 BANKED LINKER/LOCATER V6.22                                                      05/11/2018  13:35:24  PAGE 5


  C:01ADH         LINE#         70
  C:01AFH         LINE#         72
  C:01AFH         LINE#         73
  C:01EAH         LINE#         75
  C:01EAH         LINE#         76
  -------         ENDPROC       MAIN
  -------         PROC          _DELAY_MS
  D:0006H         SYMBOL        ms
  -------         DO            
  D:0004H         SYMBOL        De_Cnt
  -------         ENDDO         
  C:05D6H         LINE#         80
  C:05D6H         LINE#         81
  C:05D6H         LINE#         83
  C:05E0H         LINE#         84
  C:05E0H         LINE#         85
  C:05F3H         LINE#         86
  C:05F3H         LINE#         87
  -------         ENDPROC       _DELAY_MS
  -------         PROC          UART
  C:02C8H         LINE#         90
  C:02D5H         LINE#         92
  C:02D8H         LINE#         93
  C:02D8H         LINE#         94
  C:02E6H         LINE#         95
  C:02E8H         LINE#         96
  C:02FAH         LINE#         97
  C:0309H         LINE#         98
  C:0314H         LINE#         99
  C:0314H         LINE#         102
  C:0321H         LINE#         103
  C:0327H         LINE#         104
  C:0327H         LINE#         105
  C:032DH         LINE#         106
  C:033BH         LINE#         107
  C:0349H         LINE#         108
  C:034FH         LINE#         113
  C:034FH         LINE#         114
  C:034FH         LINE#         117
  C:034FH         LINE#         118
  C:0352H         LINE#         119
  C:0352H         LINE#         120
  C:0354H         LINE#         121
  C:0356H         LINE#         122
  C:0356H         LINE#         123
  -------         ENDPROC       UART
  -------         PROC          _SENDUART1
  D:0007H         SYMBOL        dat
  C:06F4H         LINE#         126
  C:06F4H         LINE#         127
  C:06F4H         LINE#         128
  C:06F7H         LINE#         129
  C:06F9H         LINE#         130
  C:06FAH         LINE#         131
  C:06FCH         LINE#         132
  -------         ENDPROC       _SENDUART1
  -------         ENDMOD        MAIN
BL51 BANKED LINKER/LOCATER V6.22                                                      05/11/2018  13:35:24  PAGE 6



  -------         MODULE        PCF85063BTL
  C:0000H         SYMBOL        _ICE_DUMMY_
  D:0096H         PUBLIC        P2M0
  D:0080H         PUBLIC        P0
  D:0095H         PUBLIC        P2M1
  D:0090H         PUBLIC        P1
  D:00A0H         PUBLIC        P2
  D:00B0H         PUBLIC        P3
  D:00C0H         PUBLIC        P4
  D:00C8H         PUBLIC        P5
  D:00E8H         PUBLIC        P6
  B:00A0H.2       PUBLIC        PCF85063BTL_SDI
  D:00F8H         PUBLIC        P7
  B:00A0H.1       PUBLIC        PCF85063BTL_SCK
  B:00A0H.2       PUBLIC        PCF85063BTL_SDO
  D:00A8H         PUBLIC        IE
  C:065DH         PUBLIC        _PCF85063BTL_Delay
  D:00B8H         PUBLIC        IP
  D:00D8H         PUBLIC        CCON
  C:05B6H         PUBLIC        SPI_ReceiveByte
  D:0098H         PUBLIC        SCON
  D:0088H         PUBLIC        TCON
  B:00A0H.0       PUBLIC        PCF85063BTL_CS
  C:0691H         PUBLIC        _SPI_ReadTime
  C:06D3H         PUBLIC        SPI_Init
  C:0611H         PUBLIC        _SPI_WriteTime
  C:0003H         PUBLIC        _SPI_SendByte
  D:00D0H         PUBLIC        PSW
  C:0659H         SYMBOL        L?0020
  -------         PROC          L?0019
  -------         ENDPROC       L?0019
  C:0659H         SYMBOL        L?0020
  -------         PROC          _PCF85063BTL_DELAY
  D:0006H         SYMBOL        us
  C:065DH         LINE#         8
  C:065DH         LINE#         9
  C:065DH         LINE#         10
  C:0667H         LINE#         11
  C:0667H         LINE#         12
  C:0668H         LINE#         13
  C:066AH         LINE#         14
  -------         ENDPROC       _PCF85063BTL_DELAY
  -------         PROC          _SPI_SENDBYTE
  D:0005H         SYMBOL        dat
  -------         DO            
  D:0003H         SYMBOL        i
  -------         ENDDO         
  C:0003H         LINE#         17
  C:0005H         LINE#         18
  C:0005H         LINE#         20
  C:0007H         LINE#         21
  C:0007H         LINE#         22
  C:0009H         LINE#         23
  C:000DH         LINE#         24
  C:000DH         LINE#         25
  C:000FH         LINE#         26
BL51 BANKED LINKER/LOCATER V6.22                                                      05/11/2018  13:35:24  PAGE 7


  C:0011H         LINE#         28
  C:0011H         LINE#         29
  C:0013H         LINE#         30
  C:0013H         LINE#         31
  C:0016H         LINE#         32
  C:0016H         LINE#         33
  C:0019H         LINE#         34
  C:001DH         LINE#         35
  C:0022H         LINE#         36
  -------         ENDPROC       _SPI_SENDBYTE
  -------         PROC          SPI_RECEIVEBYTE
  -------         DO            
  D:0003H         SYMBOL        i
  D:0005H         SYMBOL        dat
  -------         ENDDO         
  C:05B6H         LINE#         39
  C:05B6H         LINE#         40
  C:05B6H         LINE#         42
  C:05B8H         LINE#         44
  C:05BAH         LINE#         45
  C:05BBH         LINE#         46
  C:05BBH         LINE#         47
  C:05BFH         LINE#         48
  C:05C1H         LINE#         49
  C:05C4H         LINE#         51
  C:05C7H         LINE#         52
  C:05C7H         LINE#         53
  C:05CBH         LINE#         54
  C:05CBH         LINE#         55
  C:05CBH         LINE#         56
  C:05CEH         LINE#         57
  C:05D3H         LINE#         58
  C:05D5H         LINE#         59
  -------         ENDPROC       SPI_RECEIVEBYTE
  -------         PROC          _SPI_READTIME
  D:0007H         SYMBOL        addr
  -------         DO            
  D:0006H         SYMBOL        dat
  -------         ENDDO         
  C:0691H         LINE#         61
  C:0691H         LINE#         62
  C:0691H         LINE#         64
  C:0693H         LINE#         65
  C:0695H         LINE#         66
  C:069CH         LINE#         67
  C:069FH         LINE#         68
  C:06A1H         LINE#         69
  C:06A1H         LINE#         70
  -------         ENDPROC       _SPI_READTIME
  -------         PROC          _SPI_WRITETIME
  D:0002H         SYMBOL        val
  D:0005H         SYMBOL        addr
  C:0611H         LINE#         71
  C:0613H         LINE#         72
  C:0613H         LINE#         74
  C:0615H         LINE#         75
  C:061CH         LINE#         76
BL51 BANKED LINKER/LOCATER V6.22                                                      05/11/2018  13:35:24  PAGE 8


  C:0621H         LINE#         77
  C:0626H         LINE#         78
  C:0628H         LINE#         79
  -------         ENDPROC       _SPI_WRITETIME
  -------         PROC          SPI_INIT
  C:06D3H         LINE#         83
  C:06D3H         LINE#         84
  C:06D3H         LINE#         89
  C:06D6H         LINE#         90
  C:06D9H         LINE#         91
  C:06DBH         LINE#         92
  C:06DDH         LINE#         93
  C:06DFH         LINE#         94
  -------         ENDPROC       SPI_INIT
  -------         ENDMOD        PCF85063BTL

  -------         MODULE        UART1
  C:0000H         SYMBOL        _ICE_DUMMY_
  D:0080H         PUBLIC        P0
  D:0090H         PUBLIC        P1
  D:00A0H         PUBLIC        P2
  D:00B0H         PUBLIC        P3
  D:00C0H         PUBLIC        P4
  D:00C8H         PUBLIC        P5
  B:00A8H.7       PUBLIC        EA
  D:00E8H         PUBLIC        P6
  D:00F8H         PUBLIC        P7
  C:055FH         PUBLIC        _SendString
  D:00A8H         PUBLIC        IE
  B:00A8H.4       PUBLIC        ES
  D:00B8H         PUBLIC        IP
  C:0640H         PUBLIC        _ASCIItoBCD
  D:00D8H         PUBLIC        CCON
  C:06A2H         PUBLIC        initUART1
  D:0098H         PUBLIC        SCON
  D:0088H         PUBLIC        TCON
  C:0702H         PUBLIC        _DectoBCD
  C:06FDH         PUBLIC        _ASCII_Letter
  D:008EH         PUBLIC        AUXR
  C:06BFH         PUBLIC        _unit
  C:068BH         PUBLIC        _ten
  D:00D6H         PUBLIC        T2H
  D:00D7H         PUBLIC        T2L
  C:0026H         PUBLIC        _Display_time
  D:00D0H         PUBLIC        PSW
  -------         PROC          INITUART1
  C:06A2H         LINE#         21
  C:06A2H         LINE#         22
  C:06A2H         LINE#         23
  C:06A5H         LINE#         24
  C:06A8H         LINE#         25
  C:06ABH         LINE#         26
  C:06AEH         LINE#         27
  C:06B0H         LINE#         28
  C:06B2H         LINE#         30
  -------         ENDPROC       INITUART1
  -------         PROC          _SENDSTRING
BL51 BANKED LINKER/LOCATER V6.22                                                      05/11/2018  13:35:24  PAGE 9


  X:002CH         SYMBOL        s
  C:055FH         LINE#         35
  C:056AH         LINE#         36
  C:056AH         LINE#         37
  C:057AH         LINE#         38
  C:057AH         LINE#         39
  C:058FH         LINE#         40
  C:0591H         LINE#         41
  -------         ENDPROC       _SENDSTRING
  -------         PROC          L?0011
  -------         ENDPROC       L?0011
  -------         PROC          _TEN
  D:0007H         SYMBOL        BCD
  C:068BH         LINE#         43
  C:068BH         LINE#         44
  C:068BH         LINE#         45
  C:0690H         LINE#         46
  -------         ENDPROC       _TEN
  -------         PROC          L?0012
  -------         ENDPROC       L?0012
  -------         PROC          _UNIT
  D:0007H         SYMBOL        BCD
  C:06BFH         LINE#         47
  C:06BFH         LINE#         48
  C:06BFH         LINE#         52
  C:06C3H         LINE#         53
  -------         ENDPROC       _UNIT
  -------         PROC          _DECTOBCD
  D:0007H         SYMBOL        dec
  C:0702H         LINE#         54
  C:0702H         LINE#         55
  C:0702H         LINE#         57
  C:0702H         LINE#         58
  -------         ENDPROC       _DECTOBCD
  -------         PROC          _ASCII_LETTER
  D:0007H         SYMBOL        dat
  C:06FDH         LINE#         60
  C:06FDH         LINE#         61
  C:06FDH         LINE#         63
  C:0701H         LINE#         64
  -------         ENDPROC       _ASCII_LETTER
  -------         PROC          _ASCIITOBCD
  D:0001H         SYMBOL        ascii
  -------         DO            
  D:0007H         SYMBOL        dec_val
  D:0006H         SYMBOL        ten
  D:0007H         SYMBOL        unit
  -------         ENDDO         
  C:0640H         LINE#         66
  C:0640H         LINE#         67
  C:0640H         LINE#         69
  C:0643H         LINE#         70
  C:0649H         LINE#         71
  C:0650H         LINE#         72
  C:0656H         LINE#         74
  -------         ENDPROC       _ASCIITOBCD
  -------         PROC          _DISPLAY_TIME
BL51 BANKED LINKER/LOCATER V6.22                                                      05/11/2018  13:35:24  PAGE 10


  X:0011H         SYMBOL        months
  X:0014H         SYMBOL        days
  X:0017H         SYMBOL        hours
  X:001AH         SYMBOL        mins
  X:001DH         SYMBOL        seconds
  C:0026H         LINE#         75
  C:0031H         LINE#         76
  C:0031H         LINE#         78
  C:0045H         LINE#         80
  C:0059H         LINE#         82
  C:006DH         LINE#         83
  C:007AH         LINE#         84
  C:0087H         LINE#         85
  C:008CH         LINE#         87
  C:00A0H         LINE#         88
  C:00ADH         LINE#         89
  C:00BAH         LINE#         90
  C:00BFH         LINE#         92
  C:00D3H         LINE#         93
  C:00E3H         LINE#         94
  C:00F0H         LINE#         95
  C:010BH         LINE#         96
  -------         ENDPROC       _DISPLAY_TIME
  -------         ENDMOD        UART1

  -------         MODULE        LCD_DRIVER_SPLC780D
  C:0000H         SYMBOL        _ICE_DUMMY_
  D:0080H         PUBLIC        P0
  D:0090H         PUBLIC        P1
  D:00A0H         PUBLIC        P2
  D:00B0H         PUBLIC        P3
  D:00C0H         PUBLIC        P4
  D:00C8H         PUBLIC        P5
  D:00E8H         PUBLIC        P6
  D:00F8H         PUBLIC        P7
  C:03EDH         PUBLIC        _WriteData
  D:00A8H         PUBLIC        IE
  D:00B8H         PUBLIC        IP
  D:00D8H         PUBLIC        CCON
  B:0090H.4       PUBLIC        LCD_D4
  B:0090H.5       PUBLIC        LCD_D5
  B:0090H.6       PUBLIC        LCD_D6
  C:05F4H         PUBLIC        _DisplayLCD
  B:0090H.7       PUBLIC        LCD_D7
  D:0098H         PUBLIC        SCON
  D:0088H         PUBLIC        TCON
  C:06EAH         PUBLIC        LCD_clear
  C:051FH         PUBLIC        _Command
  C:04CBH         PUBLIC        LCD_Init
  C:0598H         PUBLIC        _Wait_ms
  B:0090H.1       PUBLIC        LCD_RS
  B:0090H.2       PUBLIC        LCD_RW
  C:06E0H         PUBLIC        LCD_return_home
  B:0090H.3       PUBLIC        LCD_E
  D:00D0H         PUBLIC        PSW
  -------         PROC          LCD_INIT
  C:04CBH         LINE#         9
BL51 BANKED LINKER/LOCATER V6.22                                                      05/11/2018  13:35:24  PAGE 11


  C:04CBH         LINE#         10
  C:04CBH         LINE#         12
  C:04D2H         LINE#         13
  C:04D7H         LINE#         15
  C:04DEH         LINE#         16
  C:04E3H         LINE#         18
  C:04E6H         LINE#         19
  C:04EBH         LINE#         21
  C:04EEH         LINE#         22
  C:04F3H         LINE#         26
  C:04F8H         LINE#         27
  C:04FDH         LINE#         30
  C:0502H         LINE#         31
  C:0507H         LINE#         32
  C:050CH         LINE#         33
  C:0513H         LINE#         34
  C:0518H         LINE#         35
  -------         ENDPROC       LCD_INIT
  -------         PROC          _WRITEDATA
  X:0012H         SYMBOL        dat
  C:03EDH         LINE#         38
  C:03F2H         LINE#         39
  C:03F2H         LINE#         44
  C:03F4H         LINE#         45
  C:03F6H         LINE#         47
  C:0404H         LINE#         48
  C:0410H         LINE#         49
  C:041CH         LINE#         50
  C:0426H         LINE#         51
  C:0428H         LINE#         52
  C:042FH         LINE#         53
  C:0431H         LINE#         55
  C:0441H         LINE#         56
  C:044CH         LINE#         57
  C:0456H         LINE#         58
  C:045AH         LINE#         60
  C:045AH         LINE#         61
  C:045DH         LINE#         62
  C:045FH         LINE#         63
  C:0461H         LINE#         65
  -------         ENDPROC       _WRITEDATA
  -------         PROC          _COMMAND
  D:0007H         SYMBOL        dat
  C:051FH         LINE#         67
  C:051FH         LINE#         68
  C:051FH         LINE#         69
  C:0521H         LINE#         70
  C:0523H         LINE#         75
  C:052DH         LINE#         76
  C:0531H         LINE#         78
  C:0533H         LINE#         79
  C:053CH         LINE#         80
  C:0540H         LINE#         82
  C:0542H         LINE#         83
  C:0549H         LINE#         84
  C:054DH         LINE#         86
  C:054FH         LINE#         87
BL51 BANKED LINKER/LOCATER V6.22                                                      05/11/2018  13:35:24  PAGE 12


  C:0553H         LINE#         88
  C:0557H         LINE#         90
  C:0559H         LINE#         94
  C:0559H         LINE#         95
  C:055CH         LINE#         96
  C:055EH         LINE#         97
  -------         ENDPROC       _COMMAND
  C:0594H         SYMBOL        L?0024
  -------         PROC          L?0023
  -------         ENDPROC       L?0023
  C:0594H         SYMBOL        L?0024
  -------         PROC          _WAIT_MS
  D:0006H         SYMBOL        ms
  -------         DO            
  D:0004H         SYMBOL        De_Cnt
  -------         ENDDO         
  C:0598H         LINE#         99
  C:0598H         LINE#         100
  C:0598H         LINE#         102
  C:05A2H         LINE#         103
  C:05A2H         LINE#         104
  C:05B5H         LINE#         105
  C:05B5H         LINE#         106
  -------         ENDPROC       _WAIT_MS
  -------         PROC          _DISPLAYLCD
  D:0007H         SYMBOL        BCD
  -------         DO            
  D:0006H         SYMBOL        first_digit
  X:0011H         SYMBOL        second_digit
  -------         ENDDO         
  C:05F4H         LINE#         107
  C:05F4H         LINE#         108
  C:05F4H         LINE#         110
  C:05FBH         LINE#         111
  C:0604H         LINE#         113
  C:0609H         LINE#         115
  -------         ENDPROC       _DISPLAYLCD
  -------         PROC          LCD_RETURN_HOME
  C:06E0H         LINE#         119
  C:06E0H         LINE#         120
  C:06E0H         LINE#         121
  C:06E5H         LINE#         122
  -------         ENDPROC       LCD_RETURN_HOME
  -------         PROC          LCD_CLEAR
  C:06EAH         LINE#         125
  C:06EAH         LINE#         126
  C:06EAH         LINE#         127
  C:06EFH         LINE#         128
  -------         ENDPROC       LCD_CLEAR
  -------         ENDMOD        LCD_DRIVER_SPLC780D

  -------         MODULE        ?C_STARTUP
  C:0361H         SEGMENT       ?C_C51STARTUP
  I:0021H         SEGMENT       ?STACK
  C:0000H         PUBLIC        ?C_STARTUP
  D:00E0H         SYMBOL        ACC
  D:00F0H         SYMBOL        B
BL51 BANKED LINKER/LOCATER V6.22                                                      05/11/2018  13:35:24  PAGE 13


  D:0083H         SYMBOL        DPH
  D:0082H         SYMBOL        DPL
  N:0000H         SYMBOL        IBPSTACK
  N:0100H         SYMBOL        IBPSTACKTOP
  N:0080H         SYMBOL        IDATALEN
  C:0364H         SYMBOL        IDATALOOP
  N:0000H         SYMBOL        PBPSTACK
  N:0100H         SYMBOL        PBPSTACKTOP
  N:0000H         SYMBOL        PDATALEN
  N:0000H         SYMBOL        PDATASTART
  N:0000H         SYMBOL        PPAGE
  N:0000H         SYMBOL        PPAGEENABLE
  D:00A0H         SYMBOL        PPAGE_SFR
  D:0081H         SYMBOL        SP
  C:0361H         SYMBOL        STARTUP1
  N:0000H         SYMBOL        XBPSTACK
  N:0000H         SYMBOL        XBPSTACKTOP
  N:0000H         SYMBOL        XDATALEN
  N:0000H         SYMBOL        XDATASTART
  C:0000H         LINE#         126
  C:0361H         LINE#         133
  C:0363H         LINE#         134
  C:0364H         LINE#         135
  C:0365H         LINE#         136
  C:0367H         LINE#         185
  C:036AH         LINE#         196
  -------         ENDMOD        ?C_STARTUP

  -------         MODULE        ?C?CLDPTR
  C:0462H         PUBLIC        ?C?CLDPTR
  -------         ENDMOD        ?C?CLDPTR

  -------         MODULE        ?C?CSTPTR
  C:047BH         PUBLIC        ?C?CSTPTR
  -------         ENDMOD        ?C?CSTPTR

  -------         MODULE        ?C?ILDIX
  C:048DH         PUBLIC        ?C?ILDIX
  -------         ENDMOD        ?C?ILDIX

  -------         MODULE        ATOI
  C:01EDH         PUBLIC        _atoi
  -------         ENDMOD        ATOI

  -------         MODULE        ?C?IMUL
  C:04A3H         PUBLIC        ?C?IMUL
  -------         ENDMOD        ?C?IMUL

  -------         MODULE        ?C?IILDX
  C:04B5H         PUBLIC        ?C?IILDX
  -------         ENDMOD        ?C?IILDX

  -------         MODULE        ISDIGIT
  C:06C4H         PUBLIC        _isdigit
  -------         ENDMOD        ISDIGIT

  -------         MODULE        ISSPACE
BL51 BANKED LINKER/LOCATER V6.22                                                      05/11/2018  13:35:24  PAGE 14


  C:066BH         PUBLIC        _isspace
  -------         ENDMOD        ISSPACE

*** WARNING L16: UNCALLED SEGMENT, IGNORED FOR OVERLAY PROCESS
    SEGMENT: ?PR?_SENDSTRING?UART1

*** WARNING L16: UNCALLED SEGMENT, IGNORED FOR OVERLAY PROCESS
    SEGMENT: ?PR?_DECTOBCD?UART1

*** WARNING L16: UNCALLED SEGMENT, IGNORED FOR OVERLAY PROCESS
    SEGMENT: ?PR?_ASCII_LETTER?UART1

*** WARNING L16: UNCALLED SEGMENT, IGNORED FOR OVERLAY PROCESS
    SEGMENT: ?PR?LCD_CLEAR?LCD_DRIVER_SPLC780D

Program Size: data=17.2 xdata=47 code=1795
LINK/LOCATE RUN COMPLETE.  4 WARNING(S),  0 ERROR(S)
