BL51 BANKED LINKER/LOCATER V6.22                                                        07/11/2018  09:45:21  PAGE 1


BL51 BANKED LINKER/LOCATER V6.22, INVOKED BY:
C:\KEIL_V5\C51\BIN\BL51.EXE .\Obj\main.obj, .\Obj\PCF85063BTL.obj, .\Obj\UART1.obj, .\Obj\LCd_Driver_SPLC780D.obj, .\Obj
>> \KeyPad.obj, .\Obj\VCNL4035.obj, .\Obj\BipolarMotor.obj, .\Obj\STARTUP.obj TO .\Obj\GPIO_RTC_Test PRINT (.\Lis\GPIO_R
>> TC_Test.m51) RAMSIZE (256)


MEMORY MODEL: LARGE WITH FLOATING POINT ARITHMETIC


INPUT MODULES INCLUDED:
  .\Obj\main.obj (MAIN)
  .\Obj\PCF85063BTL.obj (PCF85063BTL)
  .\Obj\UART1.obj (UART1)
  .\Obj\LCd_Driver_SPLC780D.obj (LCD_DRIVER_SPLC780D)
  .\Obj\KeyPad.obj (KEYPAD)
  .\Obj\VCNL4035.obj (VCNL4035)
  .\Obj\BipolarMotor.obj (BIPOLARMOTOR)
  .\Obj\STARTUP.obj (?C_STARTUP)
  C:\KEIL_V5\C51\LIB\C51FPL.LIB (?C?FPMUL)
  C:\KEIL_V5\C51\LIB\C51FPL.LIB (?C?FPDIV)
  C:\KEIL_V5\C51\LIB\C51FPL.LIB (?C?CASTF)
  C:\KEIL_V5\C51\LIB\C51FPL.LIB (?C?FPGETOPN)
  C:\KEIL_V5\C51\LIB\C51L.LIB (?C_INIT)
  C:\KEIL_V5\C51\LIB\C51L.LIB (?C?CLDPTR)
  C:\KEIL_V5\C51\LIB\C51L.LIB (?C?CSTPTR)
  C:\KEIL_V5\C51\LIB\C51L.LIB (?C?IMUL)
  C:\KEIL_V5\C51\LIB\C51L.LIB (?C?UIDIV)
  C:\KEIL_V5\C51\LIB\C51L.LIB (?C?SIDIV)
  C:\KEIL_V5\C51\LIB\C51L.LIB (?C?ILDIX)
  C:\KEIL_V5\C51\LIB\C51L.LIB (?C?LNEG)
  C:\KEIL_V5\C51\LIB\C51L.LIB (?C?LSTXDATA)
  C:\KEIL_V5\C51\LIB\C51L.LIB (ATOI)
  C:\KEIL_V5\C51\LIB\C51L.LIB (?C?IILDX)
  C:\KEIL_V5\C51\LIB\C51L.LIB (ISDIGIT)
  C:\KEIL_V5\C51\LIB\C51L.LIB (ISSPACE)


LINK MAP OF MODULE:  .\Obj\GPIO_RTC_Test (MAIN)


            TYPE    BASE      LENGTH    RELOCATION   SEGMENT NAME
            -----------------------------------------------------

            * * * * * * *   D A T A   M E M O R Y   * * * * * * *
            REG     0000H     0008H     ABSOLUTE     "REG BANK 0"
            REG     0008H     0008H     ABSOLUTE     "REG BANK 1"
                    0010H     0010H                  *** GAP ***
            BIT     0020H.0   0000H.1   UNIT         ?BI?MAIN
            BIT     0020H.1   0000H.1   UNIT         ?BI?KEYPAD
            BIT     0020H.2   0000H.1   UNIT         _BIT_GROUP_
                    0020H.3   0000H.5                *** GAP ***
            IDATA   0021H     0001H     UNIT         ?STACK

            * * * * * * *  X D A T A   M E M O R Y  * * * * * * *
            XDATA   0000H     0020H     UNIT         _XDATA_GROUP_
            XDATA   0020H     001CH     UNIT         ?XD?MAIN
            XDATA   003CH     0009H     UNIT         ?XD?KEYPAD
            XDATA   0045H     0006H     UNIT         ?XD?_MOVE?BIPOLARMOTOR
BL51 BANKED LINKER/LOCATER V6.22                                                      07/11/2018  09:45:21  PAGE 2


            XDATA   004BH     0004H     UNIT         ?XD?BIPOLARMOTOR
            XDATA   004FH     0003H     UNIT         ?XD?_SENDSTRING?UART1
            XDATA   0052H     0001H     UNIT         ?XD?_DISPLAYLCD_VCNL4035?VCNL4035

            * * * * * * *   C O D E   M E M O R Y   * * * * * * *
            CODE    0000H     0003H     ABSOLUTE     
            CODE    0003H     0007H     UNIT         ?PR?KEYPAD_IO_INIT?KEYPAD
            CODE    000AH     0001H     UNIT         ?PR?TM0_ISR?MAIN
            CODE    000BH     0003H     ABSOLUTE     
            CODE    000EH     0015H     UNIT         ?PR?_DISPLAY_LINE?LCD_DRIVER_SPLC780D
            CODE    0023H     0003H     ABSOLUTE     
            CODE    0026H     0335H     UNIT         ?C?LIB_CODE
            CODE    035BH     026DH     UNIT         ?PR?KEY_PROCESS?KEYPAD
            CODE    05C8H     0194H     UNIT         ?PR?KEY_SCAN?KEYPAD
            CODE    075CH     0142H     UNIT         ?PR?MAIN?MAIN
            CODE    089EH     00DBH     UNIT         ?PR?_ATOI?ATOI
            CODE    0979H     009BH     UNIT         ?PR?UART?MAIN
            CODE    0A14H     009AH     UNIT         ?PR?_READ_VCNL4035?VCNL4035
            CODE    0AAEH     0095H     UNIT         ?PR?_DISPLAY_PROX?MAIN
            CODE    0B43H     008CH     UNIT         ?C_C51STARTUP
            CODE    0BCFH     007CH     UNIT         ?PR?_DAY_OF_YEAR?PCF85063BTL
            CODE    0C4BH     0075H     UNIT         ?PR?_WRITEDATA?LCD_DRIVER_SPLC780D
            CODE    0CC0H     006FH     UNIT         ?PR?_READ_TIME?PCF85063BTL
            CODE    0D2FH     0054H     UNIT         ?PR?LCD_INIT?LCD_DRIVER_SPLC780D
            CODE    0D83H     0053H     UNIT         ?PR?_STEP_MOVE?BIPOLARMOTOR
            CODE    0DD6H     0049H     UNIT         ?PR?_WRITE_VCNL4035X?VCNL4035
            CODE    0E1FH     0040H     UNIT         ?PR?_COMMAND?LCD_DRIVER_SPLC780D
            CODE    0E5FH     003EH     UNIT         ?C_INITSEG
            CODE    0E9DH     0038H     UNIT         ?PR?_MOVE?BIPOLARMOTOR
            CODE    0ED5H     0033H     UNIT         ?PR?_SENDSTRING?UART1
            CODE    0F08H     002CH     UNIT         ?PR?I2C_RECEIVEBYTE?VCNL4035
            CODE    0F34H     002BH     UNIT         ?PR?_WAIT_MS_I2C?VCNL4035
            CODE    0F5FH     0024H     UNIT         ?PR?_WAIT_MS?LCD_DRIVER_SPLC780D
            CODE    0F83H     0022H     UNIT         ?PR?_I2C_SENDBYTE?VCNL4035
            CODE    0FA5H     0020H     UNIT         ?PR?_SPI_SENDBYTE?PCF85063BTL
            CODE    0FC5H     0020H     UNIT         ?PR?SPI_RECEIVEBYTE?PCF85063BTL
            CODE    0FE5H     001EH     UNIT         ?PR?_DELAY_MS?KEYPAD
            CODE    1003H     001EH     UNIT         ?PR?_WAIT_MS_IIC?VCNL4035
            CODE    1021H     001DH     UNIT         ?PR?_DISPLAYLCD?LCD_DRIVER_SPLC780D
            CODE    103EH     001BH     UNIT         ?PR?I2C_ACK?VCNL4035
            CODE    1059H     0018H     UNIT         ?PR?_SPI_WRITETIME?PCF85063BTL
            CODE    1071H     0017H     UNIT         ?PR?_ASCIITOBCD?UART1
            CODE    1088H     0017H     UNIT         ?PR?I2C_INIT?VCNL4035
            CODE    109FH     0015H     UNIT         ?PR?I2C_STOP?VCNL4035
            CODE    10B4H     0014H     UNIT         ?PR?_PCF85063BTL_DELAY?PCF85063BTL
            CODE    10C8H     0014H     UNIT         ?PR?_ISSPACE?ISSPACE
            CODE    10DCH     0013H     UNIT         ?PR?I2C_START?VCNL4035
            CODE    10EFH     0011H     UNIT         ?PR?_SPI_READTIME?PCF85063BTL
            CODE    1100H     0011H     UNIT         ?PR?INITUART1?UART1
            CODE    1111H     000FH     UNIT         ?PR?UC_NACK?VCNL4035
            CODE    1120H     000FH     UNIT         ?PR?_ISDIGIT?ISDIGIT
            CODE    112FH     000DH     UNIT         ?PR?SPI_INIT?PCF85063BTL
            CODE    113CH     000AH     UNIT         ?PR?LCD_RETURN_HOME?LCD_DRIVER_SPLC780D
            CODE    1146H     000AH     UNIT         ?PR?LCD_CLEAR?LCD_DRIVER_SPLC780D
            CODE    1150H     0009H     UNIT         ?PR?_SENDUART1?MAIN
            CODE    1159H     0006H     UNIT         ?PR?_TEN?UART1
            CODE    115FH     0006H     UNIT         ?PR?UC_ACK?VCNL4035
BL51 BANKED LINKER/LOCATER V6.22                                                      07/11/2018  09:45:21  PAGE 3


            CODE    1165H     0006H     UNIT         ?PR?_DISPLAYLCD_VCNL4035?VCNL4035
            CODE    116BH     0005H     UNIT         ?PR?_UNIT?UART1
            CODE    1170H     0005H     UNIT         ?PR?_ASCII_LETTER?UART1
            CODE    1175H     0001H     UNIT         ?PR?_DECTOBCD?UART1
            CODE    1176H     0001H     UNIT         ?PR?NOP?VCNL4035



OVERLAY MAP OF MODULE:   .\Obj\GPIO_RTC_Test (MAIN)


SEGMENT                                            BIT_GROUP          XDATA_GROUP
  +--> CALLED SEGMENT                           START    LENGTH     START    LENGTH
-----------------------------------------------------------------------------------
?PR?UART?MAIN                                   -----    -----      -----    -----
  +--> ?PR?_ASCIITOBCD?UART1

?PR?_ASCIITOBCD?UART1                           -----    -----      -----    -----
  +--> ?PR?_ATOI?ATOI

?PR?_ATOI?ATOI                                  0020H.2  0000H.1    0000H    0005H
  +--> ?PR?_ISSPACE?ISSPACE
  +--> ?PR?_ISDIGIT?ISDIGIT

*** NEW ROOT ***************************************************

?C_C51STARTUP                                   -----    -----      -----    -----
  +--> ?PR?MAIN?MAIN
  +--> ?C_INITSEG

?PR?MAIN?MAIN                                   -----    -----      0005H    000CH
  +--> ?PR?LCD_INIT?LCD_DRIVER_SPLC780D
  +--> ?PR?SPI_INIT?PCF85063BTL
  +--> ?PR?KEYPAD_IO_INIT?KEYPAD
  +--> ?PR?INITUART1?UART1
  +--> ?PR?I2C_INIT?VCNL4035
  +--> ?PR?_SPI_WRITETIME?PCF85063BTL
  +--> ?PR?_DELAY_MS?KEYPAD
  +--> ?PR?_DISPLAY_LINE?LCD_DRIVER_SPLC780D
  +--> ?PR?_WRITEDATA?LCD_DRIVER_SPLC780D
  +--> ?PR?KEY_PROCESS?KEYPAD
  +--> ?PR?_DISPLAYLCD?LCD_DRIVER_SPLC780D
  +--> ?PR?_READ_VCNL4035?VCNL4035
  +--> ?PR?_DISPLAY_PROX?MAIN
  +--> ?PR?_STEP_MOVE?BIPOLARMOTOR
  +--> ?PR?LCD_RETURN_HOME?LCD_DRIVER_SPLC780D
  +--> ?PR?_READ_TIME?PCF85063BTL
  +--> ?PR?_SENDUART1?MAIN

?PR?LCD_INIT?LCD_DRIVER_SPLC780D                -----    -----      -----    -----
  +--> ?PR?_WAIT_MS?LCD_DRIVER_SPLC780D
  +--> ?PR?_COMMAND?LCD_DRIVER_SPLC780D

?PR?_COMMAND?LCD_DRIVER_SPLC780D                -----    -----      -----    -----
  +--> ?PR?_WAIT_MS?LCD_DRIVER_SPLC780D

?PR?I2C_INIT?VCNL4035                           -----    -----      -----    -----
BL51 BANKED LINKER/LOCATER V6.22                                                      07/11/2018  09:45:21  PAGE 4


  +--> ?PR?_WRITE_VCNL4035X?VCNL4035

?PR?_WRITE_VCNL4035X?VCNL4035                   -----    -----      0011H    0003H
  +--> ?PR?I2C_START?VCNL4035
  +--> ?PR?_WAIT_MS_I2C?VCNL4035
  +--> ?PR?I2C_ACK?VCNL4035
  +--> ?PR?_I2C_SENDBYTE?VCNL4035
  +--> ?PR?I2C_STOP?VCNL4035

?PR?I2C_START?VCNL4035                          -----    -----      -----    -----
  +--> ?PR?_WAIT_MS_IIC?VCNL4035
  +--> ?PR?_WAIT_MS_I2C?VCNL4035

?PR?I2C_ACK?VCNL4035                            -----    -----      0019H    0001H
  +--> ?PR?_I2C_SENDBYTE?VCNL4035
  +--> ?PR?_WAIT_MS_I2C?VCNL4035

?PR?_I2C_SENDBYTE?VCNL4035                      -----    -----      -----    -----
  +--> ?PR?_WAIT_MS_I2C?VCNL4035

?PR?I2C_STOP?VCNL4035                           -----    -----      -----    -----
  +--> ?PR?_WAIT_MS_I2C?VCNL4035

?PR?_SPI_WRITETIME?PCF85063BTL                  -----    -----      -----    -----
  +--> ?PR?_SPI_SENDBYTE?PCF85063BTL

?PR?_SPI_SENDBYTE?PCF85063BTL                   -----    -----      -----    -----
  +--> ?PR?_PCF85063BTL_DELAY?PCF85063BTL

?PR?_DISPLAY_LINE?LCD_DRIVER_SPLC780D           -----    -----      -----    -----
  +--> ?PR?_COMMAND?LCD_DRIVER_SPLC780D

?PR?_WRITEDATA?LCD_DRIVER_SPLC780D              -----    -----      0017H    0001H
  +--> ?PR?_WAIT_MS?LCD_DRIVER_SPLC780D

?PR?KEY_PROCESS?KEYPAD                          -----    -----      0011H    0006H
  +--> ?PR?KEY_SCAN?KEYPAD
  +--> ?PR?_SPI_WRITETIME?PCF85063BTL
  +--> ?PR?LCD_CLEAR?LCD_DRIVER_SPLC780D
  +--> ?PR?_COMMAND?LCD_DRIVER_SPLC780D
  +--> ?PR?_WRITEDATA?LCD_DRIVER_SPLC780D

?PR?KEY_SCAN?KEYPAD                             -----    -----      0017H    0003H
  +--> ?PR?_DELAY_MS?KEYPAD

?PR?LCD_CLEAR?LCD_DRIVER_SPLC780D               -----    -----      -----    -----
  +--> ?PR?_COMMAND?LCD_DRIVER_SPLC780D

?PR?_DISPLAYLCD?LCD_DRIVER_SPLC780D             -----    -----      0011H    0001H
  +--> ?PR?_WRITEDATA?LCD_DRIVER_SPLC780D

?PR?_READ_VCNL4035?VCNL4035                     -----    -----      0011H    0008H
  +--> ?PR?I2C_START?VCNL4035
  +--> ?PR?_WAIT_MS_I2C?VCNL4035
  +--> ?PR?_I2C_SENDBYTE?VCNL4035
  +--> ?PR?I2C_ACK?VCNL4035
  +--> ?PR?I2C_RECEIVEBYTE?VCNL4035
BL51 BANKED LINKER/LOCATER V6.22                                                      07/11/2018  09:45:21  PAGE 5


  +--> ?PR?UC_ACK?VCNL4035
  +--> ?PR?UC_NACK?VCNL4035
  +--> ?PR?I2C_STOP?VCNL4035
  +--> ?PR?_WAIT_MS_IIC?VCNL4035

?PR?I2C_RECEIVEBYTE?VCNL4035                    -----    -----      -----    -----
  +--> ?PR?_WAIT_MS_I2C?VCNL4035

?PR?UC_ACK?VCNL4035                             -----    -----      0019H    0001H
  +--> ?PR?_WAIT_MS_I2C?VCNL4035

?PR?UC_NACK?VCNL4035                            -----    -----      0019H    0001H
  +--> ?PR?_WAIT_MS_I2C?VCNL4035

?PR?_DISPLAY_PROX?MAIN                          -----    -----      0011H    0004H
  +--> ?PR?_WRITEDATA?LCD_DRIVER_SPLC780D

?PR?_STEP_MOVE?BIPOLARMOTOR                     -----    -----      0011H    0006H
  +--> ?PR?_WAIT_MS?LCD_DRIVER_SPLC780D

?PR?LCD_RETURN_HOME?LCD_DRIVER_SPLC780D         -----    -----      -----    -----
  +--> ?PR?_COMMAND?LCD_DRIVER_SPLC780D

?PR?_READ_TIME?PCF85063BTL                      -----    -----      0011H    000FH
  +--> ?PR?_SPI_READTIME?PCF85063BTL

?PR?_SPI_READTIME?PCF85063BTL                   -----    -----      -----    -----
  +--> ?PR?_SPI_SENDBYTE?PCF85063BTL
  +--> ?PR?SPI_RECEIVEBYTE?PCF85063BTL

?PR?SPI_RECEIVEBYTE?PCF85063BTL                 -----    -----      -----    -----
  +--> ?PR?_PCF85063BTL_DELAY?PCF85063BTL



SYMBOL TABLE OF MODULE:  .\Obj\GPIO_RTC_Test (MAIN)

  VALUE           TYPE          NAME
  ----------------------------------

  -------         MODULE        MAIN
  C:0000H         SYMBOL        _ICE_DUMMY_
  D:0080H         PUBLIC        P0
  D:0090H         PUBLIC        P1
  D:00A0H         PUBLIC        P2
  D:00B0H         PUBLIC        P3
  D:00C0H         PUBLIC        P4
  D:00C8H         PUBLIC        P5
  X:0028H         SYMBOL        PressedKey
  B:00A8H.7       PUBLIC        EA
  D:00E8H         PUBLIC        P6
  D:00F8H         PUBLIC        P7
  X:002CH         PUBLIC        RX_Data_Uart_Cnt
  D:00A8H         PUBLIC        IE
  D:00B8H         PUBLIC        IP
  B:0098H.0       PUBLIC        RI
  B:0098H.1       PUBLIC        TI
BL51 BANKED LINKER/LOCATER V6.22                                                      07/11/2018  09:45:21  PAGE 6


  C:0979H         PUBLIC        Uart
  D:00D8H         PUBLIC        CCON
  C:075CH         PUBLIC        main
  D:0099H         PUBLIC        SBUF
  D:0098H         PUBLIC        SCON
  D:0089H         PUBLIC        TMOD
  D:0088H         PUBLIC        TCON
  X:002EH         SYMBOL        KeyCount
  X:0030H         PUBLIC        Rec_data_hour
  X:0033H         PUBLIC        Rec_data_min
  D:008EH         PUBLIC        AUXR
  C:000AH         PUBLIC        tm0_isr
  B:0020H.0       PUBLIC        busy
  D:00E0H         PUBLIC        ACC
  B:00A8H.1       PUBLIC        ET0
  D:008CH         PUBLIC        TH0
  X:0036H         PUBLIC        hour_count
  D:008AH         PUBLIC        TL0
  X:0037H         PUBLIC        min_count
  B:0088H.4       PUBLIC        TR0
  X:0038H         SYMBOL        KeyNum
  X:0039H         SYMBOL        KeyNum_Old
  C:0AAEH         PUBLIC        _Display_Prox
  X:003AH         PUBLIC        st_time
  D:00D0H         PUBLIC        PSW
  C:1150H         PUBLIC        _SendUART1
  -------         PROC          TM0_ISR
  C:000AH         LINE#         52
  C:000AH         LINE#         55
  -------         ENDPROC       TM0_ISR
  -------         PROC          MAIN
  -------         DO            
  X:0005H         SYMBOL        seconds
  X:0006H         SYMBOL        mins
  X:0007H         SYMBOL        hours
  X:0008H         SYMBOL        days
  X:0009H         SYMBOL        months
  D:0006H         SYMBOL        prox_data
  X:0020H         SYMBOL        KeyCount
  X:0022H         SYMBOL        KeyNum_Old
  X:0023H         SYMBOL        KeyNum
  X:0024H         SYMBOL        PressedKey
  X:000AH         SYMBOL        count
  X:000CH         SYMBOL        numStr
  -------         ENDDO         
  C:075CH         LINE#         57
  C:075CH         LINE#         58
  C:075CH         LINE#         64
  C:0763H         LINE#         66
  C:0765H         LINE#         75
  C:0768H         LINE#         76
  C:076BH         LINE#         77
  C:076EH         LINE#         78
  C:0771H         LINE#         79
  C:0774H         LINE#         81
  C:0777H         LINE#         82
  C:077AH         LINE#         83
BL51 BANKED LINKER/LOCATER V6.22                                                      07/11/2018  09:45:21  PAGE 7


  C:077DH         LINE#         84
  C:077FH         LINE#         85
  C:0781H         LINE#         86
  C:0783H         LINE#         88
  C:0785H         LINE#         89
  C:078CH         LINE#         90
  C:0793H         LINE#         91
  C:079AH         LINE#         92
  C:07A1H         LINE#         96
  C:07A8H         LINE#         97
  C:07ADH         LINE#         98
  C:07B2H         LINE#         99
  C:07B7H         LINE#         100
  C:07BCH         LINE#         101
  C:07C1H         LINE#         104
  C:07C1H         LINE#         105
  C:07C1H         LINE#         106
  C:07C4H         LINE#         107
  C:07D2H         LINE#         109
  C:07D2H         LINE#         110
  C:07D9H         LINE#         111
  C:07E1H         LINE#         112
  C:07E6H         LINE#         113
  C:07EEH         LINE#         114
  C:07F3H         LINE#         115
  C:07FDH         LINE#         117
  C:0805H         LINE#         119
  C:080DH         LINE#         121
  C:0814H         LINE#         122
  C:0817H         LINE#         130
  C:081AH         LINE#         131
  C:081AH         LINE#         132
  C:0825H         LINE#         134
  C:0825H         LINE#         135
  C:0828H         LINE#         137
  C:0828H         LINE#         138
  C:0863H         LINE#         143
  C:0870H         LINE#         144
  C:0870H         LINE#         145
  C:087AH         LINE#         146
  C:0884H         LINE#         147
  C:088BH         LINE#         148
  C:0893H         LINE#         149
  C:089BH         LINE#         150
  -------         ENDPROC       MAIN
  -------         PROC          UART
  C:0979H         LINE#         163
  C:0986H         LINE#         165
  C:0989H         LINE#         166
  C:0989H         LINE#         167
  C:0997H         LINE#         168
  C:0999H         LINE#         169
  C:09ABH         LINE#         170
  C:09BAH         LINE#         171
  C:09C5H         LINE#         172
  C:09C5H         LINE#         175
  C:09D2H         LINE#         176
BL51 BANKED LINKER/LOCATER V6.22                                                      07/11/2018  09:45:21  PAGE 8


  C:09D8H         LINE#         177
  C:09D8H         LINE#         178
  C:09DEH         LINE#         179
  C:09ECH         LINE#         180
  C:09FAH         LINE#         181
  C:0A02H         LINE#         186
  C:0A02H         LINE#         187
  C:0A02H         LINE#         190
  C:0A02H         LINE#         191
  C:0A05H         LINE#         192
  C:0A05H         LINE#         193
  C:0A07H         LINE#         194
  C:0A09H         LINE#         195
  C:0A09H         LINE#         196
  -------         ENDPROC       UART
  -------         PROC          _SENDUART1
  D:0007H         SYMBOL        dat
  C:1150H         LINE#         199
  C:1150H         LINE#         200
  C:1150H         LINE#         201
  C:1153H         LINE#         202
  C:1155H         LINE#         203
  C:1156H         LINE#         204
  C:1158H         LINE#         205
  -------         ENDPROC       _SENDUART1
  -------         PROC          _DISPLAY_PROX
  D:0002H         SYMBOL        dat
  -------         DO            
  X:0011H         SYMBOL        unit
  X:0012H         SYMBOL        ten
  X:0013H         SYMBOL        hundred
  X:0014H         SYMBOL        thousand
  -------         ENDDO         
  C:0AAEH         LINE#         208
  C:0AB2H         LINE#         209
  C:0AB2H         LINE#         211
  C:0ABEH         LINE#         212
  C:0ACEH         LINE#         213
  C:0AEAH         LINE#         214
  C:0B1AH         LINE#         215
  C:0B24H         LINE#         216
  C:0B2EH         LINE#         217
  C:0B38H         LINE#         218
  C:0B42H         LINE#         220
  -------         ENDPROC       _DISPLAY_PROX
  -------         ENDMOD        MAIN

  -------         MODULE        PCF85063BTL
  C:0000H         SYMBOL        _ICE_DUMMY_
  D:0096H         PUBLIC        P2M0
  D:0080H         PUBLIC        P0
  D:0095H         PUBLIC        P2M1
  D:0090H         PUBLIC        P1
  D:00A0H         PUBLIC        P2
  D:00B0H         PUBLIC        P3
  D:00C0H         PUBLIC        P4
  D:00C8H         PUBLIC        P5
BL51 BANKED LINKER/LOCATER V6.22                                                      07/11/2018  09:45:21  PAGE 9


  D:00E8H         PUBLIC        P6
  B:00A0H.2       PUBLIC        PCF85063BTL_SDI
  D:00F8H         PUBLIC        P7
  B:00A0H.1       PUBLIC        PCF85063BTL_SCK
  B:00A0H.2       PUBLIC        PCF85063BTL_SDO
  D:00A8H         PUBLIC        IE
  C:0CC0H         PUBLIC        _Read_time
  C:10BAH         PUBLIC        _PCF85063BTL_Delay
  D:00B8H         PUBLIC        IP
  D:00D8H         PUBLIC        CCON
  C:0BCFH         PUBLIC        _Day_Of_Year
  C:0FC5H         PUBLIC        SPI_ReceiveByte
  D:0098H         PUBLIC        SCON
  D:0088H         PUBLIC        TCON
  B:00A0H.0       PUBLIC        PCF85063BTL_CS
  C:10EFH         PUBLIC        _SPI_ReadTime
  C:112FH         PUBLIC        SPI_Init
  C:1059H         PUBLIC        _SPI_WriteTime
  C:0FA5H         PUBLIC        _SPI_SendByte
  D:00D0H         PUBLIC        PSW
  C:10B6H         SYMBOL        L?0046
  -------         PROC          L?0045
  -------         ENDPROC       L?0045
  C:10B6H         SYMBOL        L?0046
  -------         PROC          _PCF85063BTL_DELAY
  D:0006H         SYMBOL        us
  C:10BAH         LINE#         8
  C:10BAH         LINE#         9
  C:10BAH         LINE#         10
  C:10C4H         LINE#         11
  C:10C4H         LINE#         12
  C:10C5H         LINE#         13
  C:10C7H         LINE#         14
  -------         ENDPROC       _PCF85063BTL_DELAY
  -------         PROC          _SPI_SENDBYTE
  D:0005H         SYMBOL        dat
  -------         DO            
  D:0003H         SYMBOL        i
  -------         ENDDO         
  C:0FA5H         LINE#         17
  C:0FA7H         LINE#         18
  C:0FA7H         LINE#         20
  C:0FA9H         LINE#         21
  C:0FA9H         LINE#         22
  C:0FABH         LINE#         23
  C:0FAFH         LINE#         24
  C:0FAFH         LINE#         25
  C:0FB1H         LINE#         26
  C:0FB3H         LINE#         28
  C:0FB3H         LINE#         29
  C:0FB5H         LINE#         30
  C:0FB5H         LINE#         31
  C:0FB8H         LINE#         32
  C:0FB8H         LINE#         33
  C:0FBBH         LINE#         34
  C:0FBFH         LINE#         35
  C:0FC4H         LINE#         36
BL51 BANKED LINKER/LOCATER V6.22                                                      07/11/2018  09:45:21  PAGE 10


  -------         ENDPROC       _SPI_SENDBYTE
  -------         PROC          SPI_RECEIVEBYTE
  -------         DO            
  D:0003H         SYMBOL        i
  D:0005H         SYMBOL        dat
  -------         ENDDO         
  C:0FC5H         LINE#         39
  C:0FC5H         LINE#         40
  C:0FC5H         LINE#         42
  C:0FC7H         LINE#         44
  C:0FC9H         LINE#         45
  C:0FCAH         LINE#         46
  C:0FCAH         LINE#         47
  C:0FCEH         LINE#         48
  C:0FD0H         LINE#         49
  C:0FD3H         LINE#         51
  C:0FD6H         LINE#         52
  C:0FD6H         LINE#         53
  C:0FDAH         LINE#         54
  C:0FDAH         LINE#         55
  C:0FDAH         LINE#         56
  C:0FDDH         LINE#         57
  C:0FE2H         LINE#         58
  C:0FE4H         LINE#         59
  -------         ENDPROC       SPI_RECEIVEBYTE
  -------         PROC          _SPI_READTIME
  D:0007H         SYMBOL        addr
  -------         DO            
  D:0006H         SYMBOL        dat
  -------         ENDDO         
  C:10EFH         LINE#         61
  C:10EFH         LINE#         62
  C:10EFH         LINE#         64
  C:10F1H         LINE#         65
  C:10F3H         LINE#         66
  C:10FAH         LINE#         67
  C:10FDH         LINE#         68
  C:10FFH         LINE#         69
  C:10FFH         LINE#         70
  -------         ENDPROC       _SPI_READTIME
  -------         PROC          _SPI_WRITETIME
  D:0002H         SYMBOL        val
  D:0005H         SYMBOL        addr
  C:1059H         LINE#         71
  C:105BH         LINE#         72
  C:105BH         LINE#         74
  C:105DH         LINE#         75
  C:1064H         LINE#         76
  C:1069H         LINE#         77
  C:106EH         LINE#         78
  C:1070H         LINE#         79
  -------         ENDPROC       _SPI_WRITETIME
  -------         PROC          SPI_INIT
  C:112FH         LINE#         83
  C:112FH         LINE#         84
  C:112FH         LINE#         89
  C:1132H         LINE#         90
BL51 BANKED LINKER/LOCATER V6.22                                                      07/11/2018  09:45:21  PAGE 11


  C:1135H         LINE#         91
  C:1137H         LINE#         92
  C:1139H         LINE#         93
  C:113BH         LINE#         94
  -------         ENDPROC       SPI_INIT
  -------         PROC          _READ_TIME
  X:0011H         SYMBOL        months
  X:0014H         SYMBOL        days
  X:0017H         SYMBOL        hours
  X:001AH         SYMBOL        mins
  X:001DH         SYMBOL        seconds
  C:0CC0H         LINE#         96
  C:0CCBH         LINE#         97
  C:0CCBH         LINE#         99
  C:0CDFH         LINE#         101
  C:0CF3H         LINE#         103
  C:0D07H         LINE#         108
  C:0D1BH         LINE#         113
  -------         ENDPROC       _READ_TIME
  -------         PROC          _DAY_OF_YEAR
  D:0007H         SYMBOL        months
  D:0005H         SYMBOL        days
  C:0BCFH         LINE#         120
  C:0BCFH         LINE#         121
  C:0BCFH         LINE#         123
  C:0C08H         LINE#         124
  C:0C08H         LINE#         125
  C:0C08H         LINE#         126
  C:0C0DH         LINE#         127
  C:0C0DH         LINE#         128
  C:0C0DH         LINE#         129
  C:0C12H         LINE#         130
  C:0C12H         LINE#         131
  C:0C12H         LINE#         132
  C:0C17H         LINE#         133
  C:0C17H         LINE#         134
  C:0C17H         LINE#         135
  C:0C1CH         LINE#         136
  C:0C1CH         LINE#         137
  C:0C1CH         LINE#         138
  C:0C21H         LINE#         139
  C:0C21H         LINE#         140
  C:0C21H         LINE#         141
  C:0C26H         LINE#         142
  C:0C26H         LINE#         143
  C:0C26H         LINE#         144
  C:0C2BH         LINE#         145
  C:0C2BH         LINE#         146
  C:0C2BH         LINE#         147
  C:0C30H         LINE#         148
  C:0C30H         LINE#         149
  C:0C30H         LINE#         150
  C:0C38H         LINE#         151
  C:0C38H         LINE#         152
  C:0C38H         LINE#         153
  C:0C3DH         LINE#         154
  C:0C3DH         LINE#         155
BL51 BANKED LINKER/LOCATER V6.22                                                      07/11/2018  09:45:21  PAGE 12


  C:0C3DH         LINE#         156
  C:0C42H         LINE#         157
  C:0C42H         LINE#         158
  C:0C42H         LINE#         159
  C:0C4AH         LINE#         160
  C:0C4AH         LINE#         161
  C:0C4AH         LINE#         162
  -------         ENDPROC       _DAY_OF_YEAR
  -------         ENDMOD        PCF85063BTL

  -------         MODULE        UART1
  C:0000H         SYMBOL        _ICE_DUMMY_
  D:0080H         PUBLIC        P0
  D:0090H         PUBLIC        P1
  D:00A0H         PUBLIC        P2
  D:00B0H         PUBLIC        P3
  D:00C0H         PUBLIC        P4
  D:00C8H         PUBLIC        P5
  B:00A8H.7       PUBLIC        EA
  D:00E8H         PUBLIC        P6
  D:00F8H         PUBLIC        P7
  C:0ED5H         PUBLIC        _SendString
  D:00A8H         PUBLIC        IE
  B:00A8H.4       PUBLIC        ES
  D:00B8H         PUBLIC        IP
  C:1071H         PUBLIC        _ASCIItoBCD
  D:00D8H         PUBLIC        CCON
  C:1100H         PUBLIC        initUART1
  D:0098H         PUBLIC        SCON
  D:0088H         PUBLIC        TCON
  C:1175H         PUBLIC        _DectoBCD
  C:1170H         PUBLIC        _ASCII_Letter
  D:008EH         PUBLIC        AUXR
  C:116BH         PUBLIC        _unit
  C:1159H         PUBLIC        _ten
  D:00D6H         PUBLIC        T2H
  D:00D7H         PUBLIC        T2L
  D:00D0H         PUBLIC        PSW
  -------         PROC          INITUART1
  C:1100H         LINE#         21
  C:1100H         LINE#         22
  C:1100H         LINE#         23
  C:1103H         LINE#         24
  C:1106H         LINE#         25
  C:1109H         LINE#         26
  C:110CH         LINE#         27
  C:110EH         LINE#         28
  C:1110H         LINE#         30
  -------         ENDPROC       INITUART1
  -------         PROC          _SENDSTRING
  X:004FH         SYMBOL        s
  C:0ED5H         LINE#         35
  C:0EE0H         LINE#         36
  C:0EE0H         LINE#         37
  C:0EF0H         LINE#         38
  C:0EF0H         LINE#         39
  C:0F05H         LINE#         40
BL51 BANKED LINKER/LOCATER V6.22                                                      07/11/2018  09:45:21  PAGE 13


  C:0F07H         LINE#         41
  -------         ENDPROC       _SENDSTRING
  -------         PROC          _TEN
  D:0007H         SYMBOL        BCD
  C:1159H         LINE#         43
  C:1159H         LINE#         44
  C:1159H         LINE#         45
  C:115EH         LINE#         46
  -------         ENDPROC       _TEN
  -------         PROC          _UNIT
  D:0007H         SYMBOL        BCD
  C:116BH         LINE#         47
  C:116BH         LINE#         48
  C:116BH         LINE#         52
  C:116FH         LINE#         53
  -------         ENDPROC       _UNIT
  -------         PROC          _DECTOBCD
  D:0007H         SYMBOL        dec
  C:1175H         LINE#         54
  C:1175H         LINE#         55
  C:1175H         LINE#         57
  C:1175H         LINE#         58
  -------         ENDPROC       _DECTOBCD
  -------         PROC          _ASCII_LETTER
  D:0007H         SYMBOL        dat
  C:1170H         LINE#         60
  C:1170H         LINE#         61
  C:1170H         LINE#         63
  C:1174H         LINE#         64
  -------         ENDPROC       _ASCII_LETTER
  -------         PROC          _ASCIITOBCD
  D:0001H         SYMBOL        ascii
  -------         DO            
  D:0007H         SYMBOL        dec_val
  D:0006H         SYMBOL        ten
  D:0007H         SYMBOL        unit
  -------         ENDDO         
  C:1071H         LINE#         66
  C:1071H         LINE#         67
  C:1071H         LINE#         69
  C:1074H         LINE#         70
  C:107AH         LINE#         71
  C:1081H         LINE#         72
  C:1087H         LINE#         74
  -------         ENDPROC       _ASCIITOBCD
  -------         ENDMOD        UART1

  -------         MODULE        LCD_DRIVER_SPLC780D
  C:0000H         SYMBOL        _ICE_DUMMY_
  D:0080H         PUBLIC        P0
  D:0090H         PUBLIC        P1
  D:00A0H         PUBLIC        P2
  D:00B0H         PUBLIC        P3
  D:00C0H         PUBLIC        P4
  D:00C8H         PUBLIC        P5
  D:00E8H         PUBLIC        P6
  D:00F8H         PUBLIC        P7
BL51 BANKED LINKER/LOCATER V6.22                                                      07/11/2018  09:45:21  PAGE 14


  C:0C4BH         PUBLIC        _WriteData
  D:00A8H         PUBLIC        IE
  D:00B8H         PUBLIC        IP
  D:00D8H         PUBLIC        CCON
  B:0090H.4       PUBLIC        LCD_D4
  B:0090H.5       PUBLIC        LCD_D5
  B:0090H.6       PUBLIC        LCD_D6
  C:1021H         PUBLIC        _DisplayLCD
  B:0090H.7       PUBLIC        LCD_D7
  D:0098H         PUBLIC        SCON
  D:0088H         PUBLIC        TCON
  C:1146H         PUBLIC        LCD_clear
  C:0E1FH         PUBLIC        _Command
  C:000EH         PUBLIC        _Display_Line
  C:0D2FH         PUBLIC        LCD_Init
  C:0F65H         PUBLIC        _Wait_ms
  B:0090H.1       PUBLIC        LCD_RS
  B:0090H.2       PUBLIC        LCD_RW
  C:113CH         PUBLIC        LCD_return_home
  B:0090H.3       PUBLIC        LCD_E
  D:00D0H         PUBLIC        PSW
  -------         PROC          LCD_INIT
  C:0D2FH         LINE#         9
  C:0D2FH         LINE#         10
  C:0D2FH         LINE#         12
  C:0D36H         LINE#         13
  C:0D3BH         LINE#         15
  C:0D42H         LINE#         16
  C:0D47H         LINE#         18
  C:0D4AH         LINE#         19
  C:0D4FH         LINE#         21
  C:0D52H         LINE#         22
  C:0D57H         LINE#         24
  C:0D5EH         LINE#         27
  C:0D63H         LINE#         28
  C:0D68H         LINE#         30
  C:0D6DH         LINE#         31
  C:0D72H         LINE#         33
  C:0D77H         LINE#         34
  C:0D7CH         LINE#         35
  -------         ENDPROC       LCD_INIT
  -------         PROC          _WRITEDATA
  X:0017H         SYMBOL        dat
  C:0C4BH         LINE#         38
  C:0C50H         LINE#         39
  C:0C50H         LINE#         44
  C:0C52H         LINE#         45
  C:0C54H         LINE#         47
  C:0C62H         LINE#         48
  C:0C6EH         LINE#         49
  C:0C7AH         LINE#         50
  C:0C84H         LINE#         51
  C:0C86H         LINE#         52
  C:0C8DH         LINE#         53
  C:0C8FH         LINE#         55
  C:0C9FH         LINE#         56
  C:0CAAH         LINE#         57
BL51 BANKED LINKER/LOCATER V6.22                                                      07/11/2018  09:45:21  PAGE 15


  C:0CB4H         LINE#         58
  C:0CB8H         LINE#         60
  C:0CB8H         LINE#         61
  C:0CBBH         LINE#         62
  C:0CBDH         LINE#         63
  C:0CBFH         LINE#         65
  -------         ENDPROC       _WRITEDATA
  -------         PROC          _COMMAND
  D:0007H         SYMBOL        dat
  C:0E1FH         LINE#         67
  C:0E1FH         LINE#         68
  C:0E1FH         LINE#         69
  C:0E21H         LINE#         70
  C:0E23H         LINE#         72
  C:0E2DH         LINE#         73
  C:0E31H         LINE#         75
  C:0E33H         LINE#         76
  C:0E3CH         LINE#         77
  C:0E40H         LINE#         79
  C:0E42H         LINE#         80
  C:0E49H         LINE#         81
  C:0E4DH         LINE#         83
  C:0E4FH         LINE#         84
  C:0E53H         LINE#         85
  C:0E57H         LINE#         87
  C:0E59H         LINE#         88
  C:0E59H         LINE#         89
  C:0E5CH         LINE#         90
  C:0E5EH         LINE#         91
  -------         ENDPROC       _COMMAND
  C:0F61H         SYMBOL        L?0028
  -------         PROC          L?0027
  -------         ENDPROC       L?0027
  C:0F61H         SYMBOL        L?0028
  -------         PROC          _WAIT_MS
  D:0006H         SYMBOL        ms
  -------         DO            
  D:0004H         SYMBOL        De_Cnt
  -------         ENDDO         
  C:0F65H         LINE#         93
  C:0F65H         LINE#         94
  C:0F65H         LINE#         96
  C:0F6FH         LINE#         97
  C:0F6FH         LINE#         98
  C:0F82H         LINE#         99
  C:0F82H         LINE#         100
  -------         ENDPROC       _WAIT_MS
  -------         PROC          _DISPLAYLCD
  D:0007H         SYMBOL        BCD
  -------         DO            
  D:0006H         SYMBOL        first_digit
  X:0011H         SYMBOL        second_digit
  -------         ENDDO         
  C:1021H         LINE#         101
  C:1021H         LINE#         102
  C:1021H         LINE#         104
  C:1028H         LINE#         105
BL51 BANKED LINKER/LOCATER V6.22                                                      07/11/2018  09:45:21  PAGE 16


  C:1031H         LINE#         107
  C:1036H         LINE#         109
  -------         ENDPROC       _DISPLAYLCD
  -------         PROC          LCD_RETURN_HOME
  C:113CH         LINE#         113
  C:113CH         LINE#         114
  C:113CH         LINE#         115
  C:1141H         LINE#         116
  -------         ENDPROC       LCD_RETURN_HOME
  -------         PROC          LCD_CLEAR
  C:1146H         LINE#         119
  C:1146H         LINE#         120
  C:1146H         LINE#         121
  C:114BH         LINE#         122
  -------         ENDPROC       LCD_CLEAR
  -------         PROC          _DISPLAY_LINE
  D:0006H         SYMBOL        line
  C:000EH         LINE#         126
  C:000EH         LINE#         127
  C:000EH         LINE#         128
  C:0014H         LINE#         129
  C:0014H         LINE#         130
  C:0016H         LINE#         131
  C:0016H         LINE#         132
  C:0018H         LINE#         134
  C:0018H         LINE#         135
  C:001DH         LINE#         136
  C:0022H         LINE#         137
  C:0022H         LINE#         138
  -------         ENDPROC       _DISPLAY_LINE
  -------         ENDMOD        LCD_DRIVER_SPLC780D

  -------         MODULE        KEYPAD
  C:0000H         SYMBOL        _ICE_DUMMY_
  D:0093H         PUBLIC        P0M1
  D:0080H         PUBLIC        P0
  D:0090H         PUBLIC        P1
  D:00A0H         PUBLIC        P2
  D:00B0H         PUBLIC        P3
  D:00C0H         PUBLIC        P4
  D:00C8H         PUBLIC        P5
  D:00E8H         PUBLIC        P6
  D:00F8H         PUBLIC        P7
  D:00A8H         PUBLIC        IE
  C:05C8H         PUBLIC        Key_Scan
  D:00B8H         PUBLIC        IP
  D:00D8H         PUBLIC        CCON
  C:0003H         PUBLIC        KeyPad_IO_Init
  C:0FE5H         PUBLIC        _Delay_ms
  D:0098H         PUBLIC        SCON
  D:0088H         PUBLIC        TCON
  B:0020H.1       PUBLIC        move
  C:035BH         PUBLIC        Key_Process
  D:00D0H         PUBLIC        PSW
  D:0094H         PUBLIC        P0M0
  -------         PROC          _DELAY_MS
  D:0006H         SYMBOL        ms
BL51 BANKED LINKER/LOCATER V6.22                                                      07/11/2018  09:45:21  PAGE 17


  -------         DO            
  D:0004H         SYMBOL        De_Cnt
  -------         ENDDO         
  C:0FE5H         LINE#         13
  C:0FE5H         LINE#         14
  C:0FE5H         LINE#         16
  C:0FEFH         LINE#         17
  C:0FEFH         LINE#         18
  C:1002H         LINE#         19
  C:1002H         LINE#         20
  -------         ENDPROC       _DELAY_MS
  -------         PROC          KEY_SCAN
  -------         DO            
  X:0017H         SYMBOL        KeyTemp1
  X:0018H         SYMBOL        KeyTemp2
  X:0019H         SYMBOL        KeyValue
  -------         ENDDO         
  C:05C8H         LINE#         21
  C:05C8H         LINE#         22
  C:05C8H         LINE#         27
  C:05CBH         LINE#         30
  C:05CEH         LINE#         32
  C:05D6H         LINE#         33
  C:05DDH         LINE#         34
  C:05DDH         LINE#         35
  C:05E4H         LINE#         36
  C:05E9H         LINE#         37
  C:05F0H         LINE#         38
  C:05F0H         LINE#         41
  C:05F3H         LINE#         42
  C:05F6H         LINE#         43
  C:05FBH         LINE#         44
  C:05FFH         LINE#         45
  C:05FFH         LINE#         46
  C:0607H         LINE#         47
  C:0607H         LINE#         48
  C:060AH         LINE#         49
  C:0612H         LINE#         50
  C:0614H         LINE#         52
  C:0628H         LINE#         53
  C:0628H         LINE#         54
  C:0628H         LINE#         55
  C:0628H         LINE#         56
  C:062EH         LINE#         58
  C:0630H         LINE#         59
  C:0630H         LINE#         60
  C:0630H         LINE#         61
  C:0636H         LINE#         63
  C:0638H         LINE#         64
  C:0638H         LINE#         65
  C:0638H         LINE#         66
  C:063EH         LINE#         68
  C:0640H         LINE#         69
  C:0640H         LINE#         70
  C:0640H         LINE#         71
  C:0646H         LINE#         73
  C:0646H         LINE#         74
BL51 BANKED LINKER/LOCATER V6.22                                                      07/11/2018  09:45:21  PAGE 18


  C:0646H         LINE#         75
  C:0646H         LINE#         78
  C:0649H         LINE#         79
  C:064CH         LINE#         80
  C:0654H         LINE#         81
  C:0658H         LINE#         82
  C:0658H         LINE#         83
  C:0660H         LINE#         84
  C:0660H         LINE#         85
  C:0663H         LINE#         86
  C:066BH         LINE#         87
  C:066DH         LINE#         88
  C:0681H         LINE#         89
  C:0681H         LINE#         90
  C:0681H         LINE#         91
  C:0681H         LINE#         92
  C:0687H         LINE#         94
  C:0689H         LINE#         95
  C:0689H         LINE#         96
  C:0689H         LINE#         97
  C:068FH         LINE#         99
  C:0691H         LINE#         100
  C:0691H         LINE#         101
  C:0691H         LINE#         102
  C:0697H         LINE#         104
  C:0699H         LINE#         105
  C:0699H         LINE#         106
  C:0699H         LINE#         107
  C:069EH         LINE#         109
  C:069EH         LINE#         110
  C:069EH         LINE#         111
  C:069EH         LINE#         114
  C:06A1H         LINE#         115
  C:06A4H         LINE#         116
  C:06ACH         LINE#         117
  C:06B0H         LINE#         118
  C:06B0H         LINE#         119
  C:06B8H         LINE#         120
  C:06B8H         LINE#         121
  C:06BBH         LINE#         122
  C:06C3H         LINE#         123
  C:06C5H         LINE#         124
  C:06D9H         LINE#         125
  C:06D9H         LINE#         126
  C:06D9H         LINE#         127
  C:06D9H         LINE#         128
  C:06DFH         LINE#         130
  C:06E1H         LINE#         131
  C:06E1H         LINE#         132
  C:06E1H         LINE#         133
  C:06E7H         LINE#         135
  C:06E9H         LINE#         136
  C:06E9H         LINE#         137
  C:06E9H         LINE#         138
  C:06EFH         LINE#         140
  C:06F1H         LINE#         141
  C:06F1H         LINE#         142
BL51 BANKED LINKER/LOCATER V6.22                                                      07/11/2018  09:45:21  PAGE 19


  C:06F1H         LINE#         143
  C:06F7H         LINE#         145
  C:06F7H         LINE#         146
  C:06F7H         LINE#         147
  C:06F7H         LINE#         151
  C:06FAH         LINE#         152
  C:06FDH         LINE#         153
  C:0705H         LINE#         154
  C:0709H         LINE#         155
  C:0709H         LINE#         156
  C:0711H         LINE#         157
  C:0711H         LINE#         158
  C:0714H         LINE#         159
  C:071CH         LINE#         160
  C:071EH         LINE#         161
  C:0732H         LINE#         162
  C:0732H         LINE#         163
  C:0732H         LINE#         164
  C:0732H         LINE#         165
  C:0738H         LINE#         167
  C:073AH         LINE#         168
  C:073AH         LINE#         169
  C:073AH         LINE#         170
  C:0740H         LINE#         172
  C:0742H         LINE#         173
  C:0742H         LINE#         174
  C:0742H         LINE#         175
  C:0748H         LINE#         177
  C:074AH         LINE#         178
  C:074AH         LINE#         179
  C:074AH         LINE#         180
  C:0750H         LINE#         182
  C:0750H         LINE#         183
  C:0750H         LINE#         184
  C:0750H         LINE#         186
  C:0756H         LINE#         187
  C:0756H         LINE#         189
  C:0756H         LINE#         190
  C:0759H         LINE#         191
  C:0759H         LINE#         192
  C:0759H         LINE#         194
  C:0759H         LINE#         195
  C:075BH         LINE#         196
  C:075BH         LINE#         197
  -------         ENDPROC       KEY_SCAN
  -------         PROC          KEY_PROCESS
  -------         DO            
  X:003CH         SYMBOL        KeyCount
  X:003EH         SYMBOL        KeyNum_Old
  X:003FH         SYMBOL        KeyNum
  X:0040H         SYMBOL        PressedKey
  X:0011H         SYMBOL        d
  D:0004H         SYMBOL        hours
  D:0006H         SYMBOL        mins
  X:0013H         SYMBOL        months
  X:0015H         SYMBOL        days
  -------         ENDDO         
BL51 BANKED LINKER/LOCATER V6.22                                                      07/11/2018  09:45:21  PAGE 20


  C:035BH         LINE#         198
  C:035BH         LINE#         199
  C:035BH         LINE#         203
  C:0363H         LINE#         204
  C:036BH         LINE#         206
  C:0378H         LINE#         207
  C:0378H         LINE#         208
  C:037CH         LINE#         210
  C:037CH         LINE#         211
  C:0387H         LINE#         212
  C:0387H         LINE#         213
  C:038AH         LINE#         215
  C:038AH         LINE#         216
  C:0391H         LINE#         217
  C:0391H         LINE#         218
  C:0394H         LINE#         220
  C:0394H         LINE#         221
  C:03A4H         LINE#         222
  C:03A4H         LINE#         223
  C:03B6H         LINE#         224
  C:03C4H         LINE#         225
  C:03D3H         LINE#         226
  C:03D3H         LINE#         228
  C:03D9H         LINE#         232
  C:03EFH         LINE#         233
  C:0400H         LINE#         234
  C:041BH         LINE#         235
  C:041BH         LINE#         236
  C:042BH         LINE#         237
  C:043CH         LINE#         238
  C:043CH         LINE#         242
  C:0455H         LINE#         243
  C:046CH         LINE#         244
  C:048CH         LINE#         245
  C:048CH         LINE#         246
  C:0496H         LINE#         247
  C:0496H         LINE#         248
  C:049FH         LINE#         249
  C:049FH         LINE#         250
  C:04B3H         LINE#         251
  C:04B3H         LINE#         252
  C:04B3H         LINE#         253
  C:04B3H         LINE#         254
  C:04B3H         LINE#         255
  C:04B5H         LINE#         257
  C:04B5H         LINE#         258
  C:04C1H         LINE#         259
  C:04C1H         LINE#         260
  C:04D2H         LINE#         261
  C:04D2H         LINE#         262
  C:04D2H         LINE#         263
  C:04D2H         LINE#         264
  C:04D2H         LINE#         266
  C:04D4H         LINE#         268
  C:04D4H         LINE#         269
  C:04E5H         LINE#         270
  C:04E5H         LINE#         271
BL51 BANKED LINKER/LOCATER V6.22                                                      07/11/2018  09:45:21  PAGE 21


  C:04E5H         LINE#         272
  C:04E5H         LINE#         273
  C:04E5H         LINE#         275
  C:04E5H         LINE#         277
  C:04E5H         LINE#         278
  C:04E7H         LINE#         280
  C:04E7H         LINE#         281
  C:04FAH         LINE#         282
  C:04FAH         LINE#         283
  C:050BH         LINE#         284
  C:050BH         LINE#         285
  C:050BH         LINE#         286
  C:050BH         LINE#         287
  C:050BH         LINE#         288
  C:050DH         LINE#         290
  C:050DH         LINE#         291
  C:051EH         LINE#         292
  C:051EH         LINE#         293
  C:052FH         LINE#         294
  C:0540H         LINE#         295
  C:0540H         LINE#         296
  C:0540H         LINE#         297
  C:0540H         LINE#         298
  C:0540H         LINE#         299
  C:0543H         LINE#         300
  C:0548H         LINE#         301
  C:054DH         LINE#         302
  C:0552H         LINE#         303
  C:0557H         LINE#         304
  C:055CH         LINE#         305
  C:0561H         LINE#         306
  C:0566H         LINE#         307
  C:0566H         LINE#         309
  C:0588H         LINE#         310
  C:0588H         LINE#         311
  C:0592H         LINE#         312
  C:0592H         LINE#         313
  C:0597H         LINE#         314
  C:05A0H         LINE#         315
  C:05B7H         LINE#         316
  C:05B7H         LINE#         317
  C:05C7H         LINE#         319
  C:05C7H         LINE#         323
  -------         ENDPROC       KEY_PROCESS
  -------         PROC          KEYPAD_IO_INIT
  C:0003H         LINE#         326
  C:0003H         LINE#         327
  C:0003H         LINE#         328
  C:0006H         LINE#         329
  C:0009H         LINE#         330
  -------         ENDPROC       KEYPAD_IO_INIT
  -------         ENDMOD        KEYPAD

  -------         MODULE        VCNL4035
  C:0000H         SYMBOL        _ICE_DUMMY_
  D:0080H         PUBLIC        P0
  B:00B0H.2       PUBLIC        I2C_SCK
BL51 BANKED LINKER/LOCATER V6.22                                                      07/11/2018  09:45:21  PAGE 22


  D:00B2H         PUBLIC        P3M0
  D:0090H         PUBLIC        P1
  D:00B1H         PUBLIC        P3M1
  D:00A0H         PUBLIC        P2
  D:00B0H         PUBLIC        P3
  D:00C0H         PUBLIC        P4
  D:00C8H         PUBLIC        P5
  D:00E8H         PUBLIC        P6
  D:00F8H         PUBLIC        P7
  D:00A8H         PUBLIC        IE
  C:1165H         PUBLIC        _DisplayLCD_VCNL4035
  D:00B8H         PUBLIC        IP
  D:00D8H         PUBLIC        CCON
  C:10DCH         PUBLIC        I2C_Start
  D:0098H         PUBLIC        SCON
  C:1088H         PUBLIC        I2C_Init
  D:0088H         PUBLIC        TCON
  C:1111H         PUBLIC        uC_NACK
  C:0F41H         PUBLIC        _Wait_ms_i2c
  C:0F83H         PUBLIC        _I2C_SendByte
  C:109FH         PUBLIC        I2C_Stop
  C:0DD6H         PUBLIC        _Write_VCNL4035X
  C:1176H         PUBLIC        nop
  C:0A14H         PUBLIC        _Read_VCNL4035
  C:115FH         PUBLIC        uC_ACK
  C:1043H         PUBLIC        I2C_ACK
  C:1003H         PUBLIC        _Wait_ms_iic
  B:00B0H.1       PUBLIC        I2C_SDA
  D:00D0H         PUBLIC        PSW
  C:0F0EH         PUBLIC        I2C_ReceiveByte
  -------         PROC          _WAIT_MS_IIC
  D:0006H         SYMBOL        ms
  -------         DO            
  D:0004H         SYMBOL        De_Cnt
  -------         ENDDO         
  C:1003H         LINE#         5
  C:1003H         LINE#         6
  C:1003H         LINE#         8
  C:100DH         LINE#         9
  C:100DH         LINE#         10
  C:1020H         LINE#         11
  C:1020H         LINE#         12
  -------         ENDPROC       _WAIT_MS_IIC
  C:0F3BH         SYMBOL        L?0048
  C:0F3DH         SYMBOL        L?0049
  -------         PROC          L?0047
  -------         ENDPROC       L?0047
  C:0F3BH         SYMBOL        L?0048
  C:0F3DH         SYMBOL        L?0049
  -------         PROC          _WAIT_MS_I2C
  D:0006H         SYMBOL        ms
  -------         DO            
  D:0004H         SYMBOL        De_Cnt
  -------         ENDDO         
  C:0F41H         LINE#         14
  C:0F41H         LINE#         15
  C:0F41H         LINE#         17
BL51 BANKED LINKER/LOCATER V6.22                                                      07/11/2018  09:45:21  PAGE 23


  C:0F4BH         LINE#         18
  C:0F4BH         LINE#         19
  C:0F5EH         LINE#         20
  C:0F5EH         LINE#         21
  -------         ENDPROC       _WAIT_MS_I2C
  -------         PROC          NOP
  C:1176H         LINE#         22
  C:1176H         LINE#         23
  C:1176H         LINE#         25
  -------         ENDPROC       NOP
  -------         PROC          I2C_START
  C:10DCH         LINE#         26
  C:10DCH         LINE#         27
  C:10DCH         LINE#         29
  C:10DEH         LINE#         30
  C:10E0H         LINE#         31
  C:10E7H         LINE#         32
  C:10E9H         LINE#         33
  C:10ECH         LINE#         34
  C:10EEH         LINE#         37
  -------         ENDPROC       I2C_START
  -------         PROC          I2C_STOP
  C:109FH         LINE#         39
  C:109FH         LINE#         40
  C:109FH         LINE#         41
  C:10A1H         LINE#         42
  C:10A3H         LINE#         43
  C:10A6H         LINE#         44
  C:10A8H         LINE#         45
  C:10AAH         LINE#         46
  C:10B1H         LINE#         47
  C:10B3H         LINE#         50
  -------         ENDPROC       I2C_STOP
  -------         PROC          L?0050
  -------         ENDPROC       L?0050
  -------         PROC          I2C_ACK
  -------         DO            
  X:0019H         SYMBOL        i
  D:0003H         SYMBOL        dat
  -------         ENDDO         
  C:1043H         LINE#         52
  C:1043H         LINE#         53
  C:1043H         LINE#         55
  C:1044H         LINE#         60
  C:1047H         LINE#         61
  C:1049H         LINE#         62
  C:104CH         LINE#         64
  C:104FH         LINE#         65
  C:104FH         LINE#         66
  C:1053H         LINE#         67
  C:1053H         LINE#         70
  C:1053H         LINE#         71
  C:1056H         LINE#         72
  C:1056H         LINE#         73
  C:1058H         LINE#         74
  -------         ENDPROC       I2C_ACK
  -------         PROC          UC_ACK
BL51 BANKED LINKER/LOCATER V6.22                                                      07/11/2018  09:45:21  PAGE 24


  -------         DO            
  X:0019H         SYMBOL        i
  -------         ENDDO         
  C:115FH         LINE#         75
  C:115FH         LINE#         76
  C:115FH         LINE#         78
  C:115FH         LINE#         85
  C:115FH         LINE#         87
  C:115FH         LINE#         89
  C:115FH         LINE#         90
  C:115FH         LINE#         93
  C:1162H         LINE#         94
  C:1164H         LINE#         95
  C:1164H         LINE#         99
  -------         ENDPROC       UC_ACK
  -------         PROC          UC_NACK
  -------         DO            
  X:0019H         SYMBOL        i
  -------         ENDDO         
  C:1111H         LINE#         101
  C:1111H         LINE#         102
  C:1111H         LINE#         104
  C:1111H         LINE#         108
  C:1113H         LINE#         111
  C:1113H         LINE#         112
  C:1115H         LINE#         113
  C:1115H         LINE#         115
  C:1115H         LINE#         116
  C:1115H         LINE#         119
  C:1118H         LINE#         120
  C:111AH         LINE#         121
  C:111DH         LINE#         122
  C:111FH         LINE#         123
  C:111FH         LINE#         127
  -------         ENDPROC       UC_NACK
  -------         PROC          I2C_INIT
  C:1088H         LINE#         129
  C:1088H         LINE#         130
  C:1088H         LINE#         133
  C:108BH         LINE#         134
  C:108EH         LINE#         139
  C:1096H         LINE#         141
  -------         ENDPROC       I2C_INIT
  -------         PROC          _I2C_SENDBYTE
  D:0001H         SYMBOL        dat
  -------         DO            
  D:0003H         SYMBOL        i
  -------         ENDDO         
  C:0F83H         LINE#         145
  C:0F85H         LINE#         146
  C:0F85H         LINE#         149
  C:0F87H         LINE#         150
  C:0F87H         LINE#         151
  C:0F89H         LINE#         153
  C:0F8DH         LINE#         154
  C:0F8DH         LINE#         155
  C:0F8FH         LINE#         156
BL51 BANKED LINKER/LOCATER V6.22                                                      07/11/2018  09:45:21  PAGE 25


  C:0F91H         LINE#         158
  C:0F91H         LINE#         159
  C:0F93H         LINE#         160
  C:0F93H         LINE#         161
  C:0F96H         LINE#         162
  C:0F98H         LINE#         164
  C:0F9CH         LINE#         165
  C:0F9FH         LINE#         166
  C:0FA4H         LINE#         167
  -------         ENDPROC       _I2C_SENDBYTE
  -------         PROC          L?0051
  -------         ENDPROC       L?0051
  -------         PROC          I2C_RECEIVEBYTE
  -------         DO            
  D:0003H         SYMBOL        i
  D:0001H         SYMBOL        dat
  -------         ENDDO         
  C:0F0EH         LINE#         171
  C:0F0EH         LINE#         172
  C:0F0EH         LINE#         174
  C:0F10H         LINE#         178
  C:0F11H         LINE#         179
  C:0F11H         LINE#         180
  C:0F15H         LINE#         181
  C:0F17H         LINE#         182
  C:0F1AH         LINE#         184
  C:0F1DH         LINE#         185
  C:0F1DH         LINE#         186
  C:0F21H         LINE#         187
  C:0F21H         LINE#         188
  C:0F21H         LINE#         189
  C:0F24H         LINE#         190
  C:0F28H         LINE#         191
  C:0F28H         LINE#         192
  C:0F2AH         LINE#         193
  C:0F2CH         LINE#         194
  C:0F2CH         LINE#         196
  C:0F31H         LINE#         197
  C:0F33H         LINE#         198
  -------         ENDPROC       I2C_RECEIVEBYTE
  -------         PROC          _WRITE_VCNL4035X
  X:0011H         SYMBOL        command_code
  X:0012H         SYMBOL        dat_h
  X:0013H         SYMBOL        dat_l
  C:0DD6H         LINE#         199
  C:0DE1H         LINE#         200
  C:0DE1H         LINE#         201
  C:0DE4H         LINE#         202
  C:0DEBH         LINE#         203
  C:0DEBH         LINE#         204
  C:0DF1H         LINE#         205
  C:0DF1H         LINE#         206
  C:0DF9H         LINE#         207
  C:0DF9H         LINE#         208
  C:0DFFH         LINE#         209
  C:0E07H         LINE#         211
  C:0E0DH         LINE#         212
BL51 BANKED LINKER/LOCATER V6.22                                                      07/11/2018  09:45:21  PAGE 26


  C:0E15H         LINE#         214
  C:0E1BH         LINE#         215
  C:0E1EH         LINE#         216
  -------         ENDPROC       _WRITE_VCNL4035X
  -------         PROC          _READ_VCNL4035
  X:0011H         SYMBOL        command_code
  -------         DO            
  X:0013H         SYMBOL        temp_dat
  X:0015H         SYMBOL        temp_dat_l
  X:0017H         SYMBOL        temp_dat_h
  -------         ENDDO         
  C:0A14H         LINE#         218
  C:0A1CH         LINE#         219
  C:0A1CH         LINE#         220
  C:0A29H         LINE#         222
  C:0A2CH         LINE#         223
  C:0A2FH         LINE#         224
  C:0A34H         LINE#         226
  C:0A3AH         LINE#         227
  C:0A3AH         LINE#         228
  C:0A3AH         LINE#         229
  C:0A3AH         LINE#         230
  C:0A45H         LINE#         231
  C:0A48H         LINE#         232
  C:0A4BH         LINE#         233
  C:0A4BH         LINE#         236
  C:0A4EH         LINE#         238
  C:0A55H         LINE#         239
  C:0A55H         LINE#         240
  C:0A55H         LINE#         241
  C:0A60H         LINE#         242
  C:0A63H         LINE#         243
  C:0A66H         LINE#         244
  C:0A69H         LINE#         245
  C:0A6CH         LINE#         246
  C:0A6FH         LINE#         247
  C:0A72H         LINE#         248
  C:0A75H         LINE#         249
  C:0A78H         LINE#         250
  C:0A78H         LINE#         251
  C:0A7EH         LINE#         252
  C:0A7EH         LINE#         253
  C:0A87H         LINE#         255
  C:0A87H         LINE#         256
  C:0A8DH         LINE#         257
  C:0A8DH         LINE#         259
  C:0A8FH         LINE#         260
  C:0A95H         LINE#         261
  C:0A98H         LINE#         262
  C:0A9FH         LINE#         263
  C:0A9FH         LINE#         264
  C:0AADH         LINE#         265
  -------         ENDPROC       _READ_VCNL4035
  -------         PROC          _DISPLAYLCD_VCNL4035
  X:0052H         SYMBOL        dat
  C:1165H         LINE#         267
  C:116AH         LINE#         268
BL51 BANKED LINKER/LOCATER V6.22                                                      07/11/2018  09:45:21  PAGE 27


  C:116AH         LINE#         270
  -------         ENDPROC       _DISPLAYLCD_VCNL4035
  -------         ENDMOD        VCNL4035

  -------         MODULE        BIPOLARMOTOR
  C:0000H         SYMBOL        _ICE_DUMMY_
  D:0080H         PUBLIC        P0
  D:0090H         PUBLIC        P1
  D:00A0H         PUBLIC        P2
  D:00B0H         PUBLIC        P3
  D:00C0H         PUBLIC        P4
  D:00C8H         PUBLIC        P5
  D:00E8H         PUBLIC        P6
  D:00F8H         PUBLIC        P7
  D:00A8H         PUBLIC        IE
  C:0E9DH         PUBLIC        _Move
  D:00B8H         PUBLIC        IP
  D:00D8H         PUBLIC        CCON
  D:0098H         PUBLIC        SCON
  D:0088H         PUBLIC        TCON
  C:0D83H         PUBLIC        _Step_move
  X:004BH         PUBLIC        degree
  D:00D0H         PUBLIC        PSW
  -------         PROC          _STEP_MOVE
  X:0011H         SYMBOL        step
  X:0013H         SYMBOL        direction
  -------         DO            
  X:0015H         SYMBOL        i
  -------         ENDDO         
  C:0D83H         LINE#         8
  C:0D91H         LINE#         9
  C:0D91H         LINE#         10
  C:0D96H         LINE#         11
  C:0DB1H         LINE#         12
  C:0DB1H         LINE#         13
  C:0DB4H         LINE#         14
  C:0DBBH         LINE#         15
  C:0DBEH         LINE#         16
  C:0DC5H         LINE#         17
  C:0DD5H         LINE#         18
  -------         ENDPROC       _STEP_MOVE
  -------         PROC          _MOVE
  X:0045H         SYMBOL        distance
  X:0049H         SYMBOL        direction
  -------         DO            
  D:0006H         SYMBOL        step
  -------         ENDDO         
  C:0E9DH         LINE#         20
  C:0EA3H         LINE#         21
  C:0EA3H         LINE#         23
  C:0ECAH         LINE#         24
  -------         ENDPROC       _MOVE
  -------         ENDMOD        BIPOLARMOTOR

  -------         MODULE        ?C_STARTUP
  C:0B43H         SEGMENT       ?C_C51STARTUP
  I:0021H         SEGMENT       ?STACK
BL51 BANKED LINKER/LOCATER V6.22                                                      07/11/2018  09:45:21  PAGE 28


  C:0000H         PUBLIC        ?C_STARTUP
  D:00E0H         SYMBOL        ACC
  D:00F0H         SYMBOL        B
  D:0083H         SYMBOL        DPH
  D:0082H         SYMBOL        DPL
  N:0000H         SYMBOL        IBPSTACK
  N:0100H         SYMBOL        IBPSTACKTOP
  N:0080H         SYMBOL        IDATALEN
  C:0B46H         SYMBOL        IDATALOOP
  N:0000H         SYMBOL        PBPSTACK
  N:0100H         SYMBOL        PBPSTACKTOP
  N:0000H         SYMBOL        PDATALEN
  N:0000H         SYMBOL        PDATASTART
  N:0000H         SYMBOL        PPAGE
  N:0000H         SYMBOL        PPAGEENABLE
  D:00A0H         SYMBOL        PPAGE_SFR
  D:0081H         SYMBOL        SP
  C:0B43H         SYMBOL        STARTUP1
  N:0000H         SYMBOL        XBPSTACK
  N:0000H         SYMBOL        XBPSTACKTOP
  N:0000H         SYMBOL        XDATALEN
  N:0000H         SYMBOL        XDATASTART
  C:0000H         LINE#         126
  C:0B43H         LINE#         133
  C:0B45H         LINE#         134
  C:0B46H         LINE#         135
  C:0B47H         LINE#         136
  C:0B49H         LINE#         185
  C:0B4CH         LINE#         196
  -------         ENDMOD        ?C_STARTUP

  -------         MODULE        ?C?FPMUL
  C:0026H         PUBLIC        ?C?FPMUL
  -------         ENDMOD        ?C?FPMUL

  -------         MODULE        ?C?FPDIV
  C:012FH         PUBLIC        ?C?FPDIV
  -------         ENDMOD        ?C?FPDIV

  -------         MODULE        ?C?CASTF
  C:01CCH         PUBLIC        ?C?CASTF
  -------         ENDMOD        ?C?CASTF

  -------         MODULE        ?C?CLDPTR
  C:024DH         PUBLIC        ?C?CLDPTR
  -------         ENDMOD        ?C?CLDPTR

  -------         MODULE        ?C?CSTPTR
  C:0266H         PUBLIC        ?C?CSTPTR
  -------         ENDMOD        ?C?CSTPTR

  -------         MODULE        ?C?IMUL
  C:0278H         PUBLIC        ?C?IMUL
  -------         ENDMOD        ?C?IMUL

  -------         MODULE        ?C?UIDIV
  C:028AH         PUBLIC        ?C?UIDIV
BL51 BANKED LINKER/LOCATER V6.22                                                      07/11/2018  09:45:21  PAGE 29


  -------         ENDMOD        ?C?UIDIV

  -------         MODULE        ?C?SIDIV
  C:02DFH         PUBLIC        ?C?SIDIV
  -------         ENDMOD        ?C?SIDIV

  -------         MODULE        ?C?ILDIX
  C:0315H         PUBLIC        ?C?ILDIX
  -------         ENDMOD        ?C?ILDIX

  -------         MODULE        ?C?LNEG
  C:032BH         PUBLIC        ?C?LNEG
  -------         ENDMOD        ?C?LNEG

  -------         MODULE        ?C?LSTXDATA
  C:0339H         PUBLIC        ?C?LSTXDATA
  -------         ENDMOD        ?C?LSTXDATA

  -------         MODULE        ATOI
  C:089EH         PUBLIC        _atoi
  -------         ENDMOD        ATOI

  -------         MODULE        ?C?IILDX
  C:0345H         PUBLIC        ?C?IILDX
  -------         ENDMOD        ?C?IILDX

  -------         MODULE        ISDIGIT
  C:1120H         PUBLIC        _isdigit
  -------         ENDMOD        ISDIGIT

  -------         MODULE        ISSPACE
  C:10C8H         PUBLIC        _isspace
  -------         ENDMOD        ISSPACE

*** WARNING L16: UNCALLED SEGMENT, IGNORED FOR OVERLAY PROCESS
    SEGMENT: ?PR?_DAY_OF_YEAR?PCF85063BTL

*** WARNING L16: UNCALLED SEGMENT, IGNORED FOR OVERLAY PROCESS
    SEGMENT: ?PR?_SENDSTRING?UART1

*** WARNING L16: UNCALLED SEGMENT, IGNORED FOR OVERLAY PROCESS
    SEGMENT: ?PR?_TEN?UART1

*** WARNING L16: UNCALLED SEGMENT, IGNORED FOR OVERLAY PROCESS
    SEGMENT: ?PR?_UNIT?UART1

*** WARNING L16: UNCALLED SEGMENT, IGNORED FOR OVERLAY PROCESS
    SEGMENT: ?PR?_DECTOBCD?UART1

*** WARNING L16: UNCALLED SEGMENT, IGNORED FOR OVERLAY PROCESS
    SEGMENT: ?PR?_ASCII_LETTER?UART1

*** WARNING L16: UNCALLED SEGMENT, IGNORED FOR OVERLAY PROCESS
    SEGMENT: ?PR?NOP?VCNL4035

*** WARNING L16: UNCALLED SEGMENT, IGNORED FOR OVERLAY PROCESS
    SEGMENT: ?PR?_DISPLAYLCD_VCNL4035?VCNL4035
BL51 BANKED LINKER/LOCATER V6.22                                                      07/11/2018  09:45:21  PAGE 30



*** WARNING L16: UNCALLED SEGMENT, IGNORED FOR OVERLAY PROCESS
    SEGMENT: ?PR?_MOVE?BIPOLARMOTOR

Program Size: data=17.3 xdata=83 code=4471
LINK/LOCATE RUN COMPLETE.  9 WARNING(S),  0 ERROR(S)
