BL51 BANKED LINKER/LOCATER V6.22                                                        05/02/2018  15:37:32  PAGE 1


BL51 BANKED LINKER/LOCATER V6.22, INVOKED BY:
C:\KEIL_V5\C51\BIN\BL51.EXE .\Obj\main.obj, .\Obj\PCF85063BTL.obj, .\Obj\UART1.obj, .\Obj\STARTUP.obj TO .\Obj\GPIO_RTC_
>> Test PRINT (.\Lis\GPIO_RTC_Test.m51) RAMSIZE (256)


MEMORY MODEL: LARGE


INPUT MODULES INCLUDED:
  .\Obj\main.obj (MAIN)
  .\Obj\PCF85063BTL.obj (PCF85063BTL)
  .\Obj\UART1.obj (UART1)
  .\Obj\STARTUP.obj (?C_STARTUP)
  C:\KEIL_V5\C51\LIB\C51L.LIB (?C?CLDPTR)
  C:\KEIL_V5\C51\LIB\C51L.LIB (?C?ILDIX)


LINK MAP OF MODULE:  .\Obj\GPIO_RTC_Test (MAIN)


            TYPE    BASE      LENGTH    RELOCATION   SEGMENT NAME
            -----------------------------------------------------

            * * * * * * *   D A T A   M E M O R Y   * * * * * * *
            REG     0000H     0008H     ABSOLUTE     "REG BANK 0"
                    0008H     0018H                  *** GAP ***
            BIT     0020H.0   0000H.1   UNIT         ?BI?UART1
                    0020H.1   0000H.7                *** GAP ***
            IDATA   0021H     0001H     UNIT         ?STACK

            * * * * * * *  X D A T A   M E M O R Y  * * * * * * *
            XDATA   0000H     000BH     UNIT         _XDATA_GROUP_
            XDATA   000BH     0003H     UNIT         ?XD?_SENDSTRING?UART1

            * * * * * * *   C O D E   M E M O R Y   * * * * * * *
            CODE    0000H     0003H     ABSOLUTE     
            CODE    0003H     0020H     UNIT         ?PR?_SPI_SENDBYTE?PCF85063BTL
            CODE    0023H     0003H     ABSOLUTE     
            CODE    0026H     0039H     UNIT         ?PR?DISPLAY_TIME?UART1
            CODE    005FH     0033H     UNIT         ?PR?_SENDSTRING?UART1
            CODE    0092H     002FH     UNIT         ?C?LIB_CODE
            CODE    00C1H     0020H     UNIT         ?PR?SPI_RECEIVEBYTE?PCF85063BTL
            CODE    00E1H     001EH     UNIT         ?PR?_DELAY_MS?MAIN
            CODE    00FFH     001EH     UNIT         ?PR?_SENDUART1?UART1
            CODE    011DH     0014H     UNIT         ?PR?MAIN?MAIN
            CODE    0131H     0014H     UNIT         ?PR?_PCF85063BTL_DELAY?PCF85063BTL
            CODE    0145H     0013H     UNIT         ?PR?INITUART1?UART1
            CODE    0158H     0011H     UNIT         ?PR?_SPI_READTIME?PCF85063BTL
            CODE    0169H     000DH     UNIT         ?PR?UART?UART1
            CODE    0176H     000CH     UNIT         ?C_C51STARTUP
            CODE    0182H     000BH     UNIT         ?PR?SPI_INIT?PCF85063BTL
            CODE    018DH     0006H     UNIT         ?PR?_TEN?UART1
            CODE    0193H     0005H     UNIT         ?PR?_UNIT?UART1
            CODE    0198H     0005H     UNIT         ?PR?_ASCII_LETTER?UART1
            CODE    019DH     0001H     UNIT         ?PR?_DECTOBCD?UART1



BL51 BANKED LINKER/LOCATER V6.22                                                      05/02/2018  15:37:32  PAGE 2


OVERLAY MAP OF MODULE:   .\Obj\GPIO_RTC_Test (MAIN)


SEGMENT                                      XDATA_GROUP
  +--> CALLED SEGMENT                      START    LENGTH
----------------------------------------------------------
?C_C51STARTUP                              -----    -----
  +--> ?PR?MAIN?MAIN

?PR?MAIN?MAIN                              0000H    000AH
  +--> ?PR?SPI_INIT?PCF85063BTL
  +--> ?PR?INITUART1?UART1
  +--> ?PR?DISPLAY_TIME?UART1
  +--> ?PR?_DELAY_MS?MAIN

?PR?DISPLAY_TIME?UART1                     -----    -----
  +--> ?PR?_SPI_READTIME?PCF85063BTL
  +--> ?PR?_SENDUART1?UART1
  +--> ?PR?_TEN?UART1

?PR?_SPI_READTIME?PCF85063BTL              000AH    0001H
  +--> ?PR?_SPI_SENDBYTE?PCF85063BTL
  +--> ?PR?SPI_RECEIVEBYTE?PCF85063BTL

?PR?_SPI_SENDBYTE?PCF85063BTL              -----    -----
  +--> ?PR?_PCF85063BTL_DELAY?PCF85063BTL

?PR?SPI_RECEIVEBYTE?PCF85063BTL            -----    -----
  +--> ?PR?_PCF85063BTL_DELAY?PCF85063BTL

?PR?_SENDUART1?UART1                       -----    -----
  +--> ?PR?_TEN?UART1
  +--> ?PR?_UNIT?UART1



SYMBOL TABLE OF MODULE:  .\Obj\GPIO_RTC_Test (MAIN)

  VALUE           TYPE          NAME
  ----------------------------------

  -------         MODULE        MAIN
  C:0000H         SYMBOL        _ICE_DUMMY_
  D:0080H         PUBLIC        P0
  D:0090H         PUBLIC        P1
  D:00A0H         PUBLIC        P2
  D:00B0H         PUBLIC        P3
  D:00C0H         PUBLIC        P4
  D:00C8H         PUBLIC        P5
  B:00A8H.7       PUBLIC        EA
  D:00E8H         PUBLIC        P6
  D:00F8H         PUBLIC        P7
  D:00A8H         PUBLIC        IE
  D:00B8H         PUBLIC        IP
  D:00D8H         PUBLIC        CCON
  C:011DH         PUBLIC        main
  C:00E1H         PUBLIC        _Delay_ms
BL51 BANKED LINKER/LOCATER V6.22                                                      05/02/2018  15:37:32  PAGE 3


  D:0098H         PUBLIC        SCON
  D:0088H         PUBLIC        TCON
  D:00D0H         PUBLIC        PSW
  -------         PROC          MAIN
  -------         DO            
  X:0000H         SYMBOL        seconds
  X:0001H         SYMBOL        mins
  X:0002H         SYMBOL        hours
  X:0003H         SYMBOL        sec_decimal
  X:0005H         SYMBOL        numStr
  -------         ENDDO         
  C:011DH         LINE#         20
  C:011DH         LINE#         21
  C:011DH         LINE#         25
  C:0120H         LINE#         26
  C:0123H         LINE#         27
  C:0125H         LINE#         29
  C:0125H         LINE#         30
  C:0125H         LINE#         31
  C:0128H         LINE#         32
  C:012FH         LINE#         33
  -------         ENDPROC       MAIN
  -------         PROC          _DELAY_MS
  D:0006H         SYMBOL        ms
  -------         DO            
  D:0004H         SYMBOL        De_Cnt
  -------         ENDDO         
  C:00E1H         LINE#         37
  C:00E1H         LINE#         38
  C:00E1H         LINE#         40
  C:00EBH         LINE#         41
  C:00EBH         LINE#         42
  C:00FEH         LINE#         43
  C:00FEH         LINE#         44
  -------         ENDPROC       _DELAY_MS
  -------         ENDMOD        MAIN

  -------         MODULE        PCF85063BTL
  C:0000H         SYMBOL        _ICE_DUMMY_
  D:0096H         PUBLIC        P2M0
  D:0080H         PUBLIC        P0
  D:0095H         PUBLIC        P2M1
  D:0090H         PUBLIC        P1
  D:00A0H         PUBLIC        P2
  D:00B0H         PUBLIC        P3
  D:00C0H         PUBLIC        P4
  D:00C8H         PUBLIC        P5
  D:00E8H         PUBLIC        P6
  B:00A0H.2       PUBLIC        PCF85063BTL_SDI
  D:00F8H         PUBLIC        P7
  B:00A0H.1       PUBLIC        PCF85063BTL_SCK
  B:00A0H.2       PUBLIC        PCF85063BTL_SDO
  D:00A8H         PUBLIC        IE
  C:0137H         PUBLIC        _PCF85063BTL_Delay
  D:00B8H         PUBLIC        IP
  D:00D8H         PUBLIC        CCON
  C:00C1H         PUBLIC        SPI_ReceiveByte
BL51 BANKED LINKER/LOCATER V6.22                                                      05/02/2018  15:37:32  PAGE 4


  D:0098H         PUBLIC        SCON
  D:0088H         PUBLIC        TCON
  B:00A0H.0       PUBLIC        PCF85063BTL_CS
  C:0158H         PUBLIC        _SPI_ReadTime
  C:0182H         PUBLIC        SPI_Init
  C:0003H         PUBLIC        _SPI_SendByte
  D:00D0H         PUBLIC        PSW
  C:0133H         SYMBOL        L?0019
  -------         PROC          L?0018
  -------         ENDPROC       L?0018
  C:0133H         SYMBOL        L?0019
  -------         PROC          _PCF85063BTL_DELAY
  D:0006H         SYMBOL        us
  C:0137H         LINE#         8
  C:0137H         LINE#         9
  C:0137H         LINE#         10
  C:0141H         LINE#         11
  C:0141H         LINE#         12
  C:0142H         LINE#         13
  C:0144H         LINE#         14
  -------         ENDPROC       _PCF85063BTL_DELAY
  -------         PROC          _SPI_SENDBYTE
  D:0005H         SYMBOL        dat
  -------         DO            
  D:0003H         SYMBOL        i
  -------         ENDDO         
  C:0003H         LINE#         17
  C:0005H         LINE#         18
  C:0005H         LINE#         20
  C:0007H         LINE#         21
  C:0007H         LINE#         22
  C:0009H         LINE#         23
  C:000DH         LINE#         24
  C:000DH         LINE#         25
  C:000FH         LINE#         26
  C:0011H         LINE#         28
  C:0011H         LINE#         29
  C:0013H         LINE#         30
  C:0013H         LINE#         31
  C:0016H         LINE#         32
  C:0016H         LINE#         33
  C:0019H         LINE#         34
  C:001DH         LINE#         35
  C:0022H         LINE#         36
  -------         ENDPROC       _SPI_SENDBYTE
  -------         PROC          SPI_RECEIVEBYTE
  -------         DO            
  D:0003H         SYMBOL        i
  D:0005H         SYMBOL        dat
  -------         ENDDO         
  C:00C1H         LINE#         39
  C:00C1H         LINE#         40
  C:00C1H         LINE#         42
  C:00C3H         LINE#         44
  C:00C5H         LINE#         45
  C:00C6H         LINE#         46
  C:00C6H         LINE#         47
BL51 BANKED LINKER/LOCATER V6.22                                                      05/02/2018  15:37:32  PAGE 5


  C:00CAH         LINE#         48
  C:00CCH         LINE#         49
  C:00CFH         LINE#         51
  C:00D2H         LINE#         52
  C:00D2H         LINE#         53
  C:00D6H         LINE#         54
  C:00D6H         LINE#         55
  C:00D6H         LINE#         56
  C:00D9H         LINE#         57
  C:00DEH         LINE#         58
  C:00E0H         LINE#         59
  -------         ENDPROC       SPI_RECEIVEBYTE
  -------         PROC          _SPI_READTIME
  D:0007H         SYMBOL        addr
  -------         DO            
  X:000AH         SYMBOL        i
  D:0006H         SYMBOL        dat
  -------         ENDDO         
  C:0158H         LINE#         61
  C:0158H         LINE#         62
  C:0158H         LINE#         64
  C:015AH         LINE#         65
  C:015CH         LINE#         66
  C:0163H         LINE#         67
  C:0166H         LINE#         68
  C:0168H         LINE#         69
  C:0168H         LINE#         70
  -------         ENDPROC       _SPI_READTIME
  -------         PROC          SPI_INIT
  C:0182H         LINE#         74
  C:0182H         LINE#         75
  C:0182H         LINE#         80
  C:0185H         LINE#         81
  C:0188H         LINE#         82
  C:018AH         LINE#         83
  C:018CH         LINE#         84
  -------         ENDPROC       SPI_INIT
  -------         ENDMOD        PCF85063BTL

  -------         MODULE        UART1
  C:0000H         SYMBOL        _ICE_DUMMY_
  D:0080H         PUBLIC        P0
  D:0090H         PUBLIC        P1
  D:00A0H         PUBLIC        P2
  D:00B0H         PUBLIC        P3
  D:00C0H         PUBLIC        P4
  D:00C8H         PUBLIC        P5
  B:00A8H.7       PUBLIC        EA
  D:00E8H         PUBLIC        P6
  D:00F8H         PUBLIC        P7
  C:005FH         PUBLIC        _SendString
  D:00A8H         PUBLIC        IE
  B:00A8H.4       PUBLIC        ES
  D:00B8H         PUBLIC        IP
  B:0098H.0       PUBLIC        RI
  B:0098H.1       PUBLIC        TI
  C:0169H         PUBLIC        Uart
BL51 BANKED LINKER/LOCATER V6.22                                                      05/02/2018  15:37:32  PAGE 6


  B:00B8H.4       PUBLIC        PS
  D:00D8H         PUBLIC        CCON
  C:0145H         PUBLIC        initUART1
  D:0099H         PUBLIC        SBUF
  D:0098H         PUBLIC        SCON
  D:0088H         PUBLIC        TCON
  C:019DH         PUBLIC        _DectoBCD
  C:0198H         PUBLIC        _ASCII_Letter
  D:008EH         PUBLIC        AUXR
  C:0193H         PUBLIC        _unit
  B:0020H.0       PUBLIC        busy
  D:00E0H         PUBLIC        ACC
  C:018DH         PUBLIC        _ten
  D:00D6H         PUBLIC        T2H
  D:00D7H         PUBLIC        T2L
  C:0026H         PUBLIC        Display_time
  D:00D0H         PUBLIC        PSW
  C:0114H         PUBLIC        _SendUART1
  -------         PROC          UART
  C:0169H         LINE#         12
  C:0169H         LINE#         14
  C:016CH         LINE#         15
  C:016CH         LINE#         16
  C:016EH         LINE#         17
  C:016EH         LINE#         18
  C:0171H         LINE#         19
  C:0171H         LINE#         20
  C:0173H         LINE#         21
  C:0175H         LINE#         22
  C:0175H         LINE#         23
  -------         ENDPROC       UART
  -------         PROC          INITUART1
  C:0145H         LINE#         24
  C:0145H         LINE#         25
  C:0145H         LINE#         26
  C:0148H         LINE#         27
  C:014BH         LINE#         28
  C:014EH         LINE#         29
  C:0151H         LINE#         30
  C:0153H         LINE#         31
  C:0155H         LINE#         32
  C:0157H         LINE#         33
  -------         ENDPROC       INITUART1
  C:010DH         SYMBOL        L?0017
  C:0110H         SYMBOL        L?0018
  -------         PROC          L?0016
  -------         ENDPROC       L?0016
  C:010DH         SYMBOL        L?0017
  C:0110H         SYMBOL        L?0018
  -------         PROC          _SENDUART1
  D:0007H         SYMBOL        dat
  C:0114H         LINE#         35
  C:0114H         LINE#         36
  C:0114H         LINE#         37
  C:0117H         LINE#         38
  C:0119H         LINE#         39
  C:011AH         LINE#         40
BL51 BANKED LINKER/LOCATER V6.22                                                      05/02/2018  15:37:32  PAGE 7


  C:011CH         LINE#         41
  -------         ENDPROC       _SENDUART1
  -------         PROC          _SENDSTRING
  X:000BH         SYMBOL        s
  C:005FH         LINE#         45
  C:006AH         LINE#         46
  C:006AH         LINE#         47
  C:007AH         LINE#         48
  C:007AH         LINE#         49
  C:008FH         LINE#         50
  C:0091H         LINE#         51
  -------         ENDPROC       _SENDSTRING
  -------         PROC          _TEN
  D:0007H         SYMBOL        BCD
  C:018DH         LINE#         52
  C:018DH         LINE#         53
  C:018DH         LINE#         54
  C:0192H         LINE#         55
  -------         ENDPROC       _TEN
  -------         PROC          _UNIT
  D:0007H         SYMBOL        BCD
  C:0193H         LINE#         56
  C:0193H         LINE#         57
  C:0193H         LINE#         61
  C:0197H         LINE#         62
  -------         ENDPROC       _UNIT
  -------         PROC          _DECTOBCD
  D:0007H         SYMBOL        dec
  C:019DH         LINE#         63
  C:019DH         LINE#         64
  C:019DH         LINE#         70
  C:019DH         LINE#         71
  -------         ENDPROC       _DECTOBCD
  -------         PROC          _ASCII_LETTER
  D:0007H         SYMBOL        dat
  C:0198H         LINE#         73
  C:0198H         LINE#         74
  C:0198H         LINE#         75
  C:019CH         LINE#         76
  -------         ENDPROC       _ASCII_LETTER
  -------         PROC          DISPLAY_TIME
  -------         DO            
  D:0006H         SYMBOL        seconds
  D:0006H         SYMBOL        mins
  D:0006H         SYMBOL        hours
  -------         ENDDO         
  C:0026H         LINE#         78
  C:0026H         LINE#         79
  C:0026H         LINE#         82
  C:002BH         LINE#         83
  C:002BH         LINE#         84
  C:002EH         LINE#         85
  C:0033H         LINE#         87
  C:0038H         LINE#         88
  C:0038H         LINE#         89
  C:003BH         LINE#         90
  C:0040H         LINE#         92
BL51 BANKED LINKER/LOCATER V6.22                                                      05/02/2018  15:37:32  PAGE 8


  C:0047H         LINE#         93
  C:0049H         LINE#         94
  C:0053H         LINE#         95
  C:005AH         LINE#         96
  -------         ENDPROC       DISPLAY_TIME
  -------         ENDMOD        UART1

  -------         MODULE        ?C_STARTUP
  C:0176H         SEGMENT       ?C_C51STARTUP
  I:0021H         SEGMENT       ?STACK
  C:0000H         PUBLIC        ?C_STARTUP
  D:00E0H         SYMBOL        ACC
  D:00F0H         SYMBOL        B
  D:0083H         SYMBOL        DPH
  D:0082H         SYMBOL        DPL
  N:0000H         SYMBOL        IBPSTACK
  N:0100H         SYMBOL        IBPSTACKTOP
  N:0080H         SYMBOL        IDATALEN
  C:0179H         SYMBOL        IDATALOOP
  N:0000H         SYMBOL        PBPSTACK
  N:0100H         SYMBOL        PBPSTACKTOP
  N:0000H         SYMBOL        PDATALEN
  N:0000H         SYMBOL        PDATASTART
  N:0000H         SYMBOL        PPAGE
  N:0000H         SYMBOL        PPAGEENABLE
  D:00A0H         SYMBOL        PPAGE_SFR
  D:0081H         SYMBOL        SP
  C:0176H         SYMBOL        STARTUP1
  N:0000H         SYMBOL        XBPSTACK
  N:0000H         SYMBOL        XBPSTACKTOP
  N:0000H         SYMBOL        XDATALEN
  N:0000H         SYMBOL        XDATASTART
  C:0000H         LINE#         126
  C:0176H         LINE#         133
  C:0178H         LINE#         134
  C:0179H         LINE#         135
  C:017AH         LINE#         136
  C:017CH         LINE#         185
  C:017FH         LINE#         196
  -------         ENDMOD        ?C_STARTUP

  -------         MODULE        ?C?CLDPTR
  C:0092H         PUBLIC        ?C?CLDPTR
  -------         ENDMOD        ?C?CLDPTR

  -------         MODULE        ?C?ILDIX
  C:00ABH         PUBLIC        ?C?ILDIX
  -------         ENDMOD        ?C?ILDIX

*** WARNING L16: UNCALLED SEGMENT, IGNORED FOR OVERLAY PROCESS
    SEGMENT: ?PR?_SENDSTRING?UART1

*** WARNING L16: UNCALLED SEGMENT, IGNORED FOR OVERLAY PROCESS
    SEGMENT: ?PR?_DECTOBCD?UART1

*** WARNING L16: UNCALLED SEGMENT, IGNORED FOR OVERLAY PROCESS
    SEGMENT: ?PR?_ASCII_LETTER?UART1
BL51 BANKED LINKER/LOCATER V6.22                                                      05/02/2018  15:37:32  PAGE 9



Program Size: data=9.1 xdata=14 code=414
LINK/LOCATE RUN COMPLETE.  3 WARNING(S),  0 ERROR(S)
