BL51 BANKED LINKER/LOCATER V6.22                                                        03/29/2019  13:49:34  PAGE 1


BL51 BANKED LINKER/LOCATER V6.22, INVOKED BY:
C:\KEIL\C51\BIN\BL51.EXE .\Obj\main.obj, .\Obj\PCF85063BTL.obj, .\Obj\UART1.obj, .\Obj\LCd_Driver_SPLC780D.obj, .\Obj\Ke
>> yPad.obj, .\Obj\VCNL4035.obj, .\Obj\BipolarMotor.obj, .\Obj\SunPos.obj, .\Obj\STARTUP.obj TO .\Obj\GPIO_RTC_Test PRIN
>> T (.\Lis\GPIO_RTC_Test.m51) RAMSIZE (256)


MEMORY MODEL: LARGE WITH FLOATING POINT ARITHMETIC


INPUT MODULES INCLUDED:
  .\Obj\main.obj (MAIN)
  .\Obj\PCF85063BTL.obj (PCF85063BTL)
  .\Obj\UART1.obj (UART1)
  .\Obj\LCd_Driver_SPLC780D.obj (LCD_DRIVER_SPLC780D)
  .\Obj\KeyPad.obj (KEYPAD)
  .\Obj\VCNL4035.obj (VCNL4035)
  .\Obj\BipolarMotor.obj (BIPOLARMOTOR)
  .\Obj\SunPos.obj (SUNPOS)
  .\Obj\STARTUP.obj (?C_STARTUP)
  C:\KEIL\C51\LIB\C51FPL.LIB (?C?FPADD)
  C:\KEIL\C51\LIB\C51FPL.LIB (?C?FPMUL)
  C:\KEIL\C51\LIB\C51FPL.LIB (?C?FPDIV)
  C:\KEIL\C51\LIB\C51FPL.LIB (?C?FPCMP)
  C:\KEIL\C51\LIB\C51FPL.LIB (?C?FPNEG)
  C:\KEIL\C51\LIB\C51FPL.LIB (?C?FCAST)
  C:\KEIL\C51\LIB\C51FPL.LIB (?C?CASTF)
  C:\KEIL\C51\LIB\C51FPL.LIB (ATAN2)
  C:\KEIL\C51\LIB\C51FPL.LIB (SIN)
  C:\KEIL\C51\LIB\C51FPL.LIB (ACOS)
  C:\KEIL\C51\LIB\C51FPL.LIB (ASIN)
  C:\KEIL\C51\LIB\C51FPL.LIB (?C?FPGETOPN)
  C:\KEIL\C51\LIB\C51FPL.LIB (?C?FPSERIES)
  C:\KEIL\C51\LIB\C51FPL.LIB (SQRT)
  C:\KEIL\C51\LIB\C51FPL.LIB (ATAN)
  C:\KEIL\C51\LIB\C51L.LIB (?C_INIT)
  C:\KEIL\C51\LIB\C51L.LIB (?C?COPY)
  C:\KEIL\C51\LIB\C51L.LIB (?C?CLDPTR)
  C:\KEIL\C51\LIB\C51L.LIB (?C?CSTPTR)
  C:\KEIL\C51\LIB\C51L.LIB (?C?IMUL)
  C:\KEIL\C51\LIB\C51L.LIB (?C?UIDIV)
  C:\KEIL\C51\LIB\C51L.LIB (?C?SIDIV)
  C:\KEIL\C51\LIB\C51L.LIB (?C?ILDIX)
  C:\KEIL\C51\LIB\C51L.LIB (?C?LMUL)
  C:\KEIL\C51\LIB\C51L.LIB (?C?SLDIV)
  C:\KEIL\C51\LIB\C51L.LIB (?C?LNEG)
  C:\KEIL\C51\LIB\C51L.LIB (?C?LLDPTR)
  C:\KEIL\C51\LIB\C51L.LIB (?C?LLDOPTR)
  C:\KEIL\C51\LIB\C51L.LIB (?C?LSTPTR)
  C:\KEIL\C51\LIB\C51L.LIB (?C?LSTOPTR)
  C:\KEIL\C51\LIB\C51L.LIB (?C?LLDXDATA)
  C:\KEIL\C51\LIB\C51L.LIB (?C?LLDCODE)
  C:\KEIL\C51\LIB\C51L.LIB (?C?LLDXDATA0)
  C:\KEIL\C51\LIB\C51L.LIB (?C?LLDCODE0)
  C:\KEIL\C51\LIB\C51L.LIB (?C?LLDPTR0)
  C:\KEIL\C51\LIB\C51L.LIB (?C?LSTXDATA)
  C:\KEIL\C51\LIB\C51L.LIB (?C?LSTKXDATA)
  C:\KEIL\C51\LIB\C51L.LIB (?C?OFFXADD)
  C:\KEIL\C51\LIB\C51L.LIB (ABS)
BL51 BANKED LINKER/LOCATER V6.22                                                      03/29/2019  13:49:34  PAGE 2


  C:\KEIL\C51\LIB\C51L.LIB (ATOI)
  C:\KEIL\C51\LIB\C51L.LIB (?C?IILDX)
  C:\KEIL\C51\LIB\C51L.LIB (?C?ULDIV)
  C:\KEIL\C51\LIB\C51L.LIB (?C?LLDIDATA)
  C:\KEIL\C51\LIB\C51L.LIB (?C?LLDPDATA)
  C:\KEIL\C51\LIB\C51L.LIB (?C?LLDIDATA0)
  C:\KEIL\C51\LIB\C51L.LIB (?C?LLDPDATA0)
  C:\KEIL\C51\LIB\C51L.LIB (?C?LSTIDATA)
  C:\KEIL\C51\LIB\C51L.LIB (?C?LSTPDATA)
  C:\KEIL\C51\LIB\C51L.LIB (ISDIGIT)
  C:\KEIL\C51\LIB\C51L.LIB (ISSPACE)


LINK MAP OF MODULE:  .\Obj\GPIO_RTC_Test (MAIN)


            TYPE    BASE      LENGTH    RELOCATION   SEGMENT NAME
            -----------------------------------------------------

            * * * * * * *   D A T A   M E M O R Y   * * * * * * *
            REG     0000H     0008H     ABSOLUTE     "REG BANK 0"
                    0008H     0018H                  *** GAP ***
            BIT     0020H.0   0000H.5   UNIT         ?BI?KEYPAD
            BIT     0020H.5   0000H.2   UNIT         _BIT_GROUP_
            BIT     0020H.7   0000H.1   UNIT         ?BI?MAIN
            BIT     0021H.0   0000H.1   UNIT         ?BI?_MOVE?BIPOLARMOTOR
            BIT     0021H.1   0000H.1   UNIT         ?BI?_ATOI?ATOI
                    0021H.2   0000H.6                *** GAP ***
            IDATA   0022H     0001H     UNIT         ?STACK

            * * * * * * *  X D A T A   M E M O R Y  * * * * * * *
            XDATA   0000H     02EFH     UNIT         ?XD?BIPOLARMOTOR
            XDATA   02EFH     010DH     UNIT         _XDATA_GROUP_
            XDATA   03FCH     00D4H     UNIT         ?XD?MAIN
            XDATA   04D0H     0040H     UNIT         ?XD?_FINDDET4X4?BIPOLARMOTOR
            XDATA   0510H     0024H     UNIT         ?XD?_FINDDET3X3?BIPOLARMOTOR
            XDATA   0534H     0009H     UNIT         ?XD?KEYPAD
            XDATA   053DH     0008H     UNIT         ?XD?_READ_VCNL4035?VCNL4035
            XDATA   0545H     0005H     UNIT         ?XD?_ATOI?ATOI
            XDATA   054AH     0004H     UNIT         ?XD?_DISPLAY_PROX?MAIN
            XDATA   054EH     0004H     UNIT         ?XD?_MOVE?BIPOLARMOTOR
            XDATA   0552H     0003H     UNIT         ?XD?_SENDSTRING?UART1
            XDATA   0555H     0003H     UNIT         ?XD?_WRITE_VCNL4035X?VCNL4035
            XDATA   0558H     0001H     UNIT         ?XD?I2C_ACK?VCNL4035
            XDATA   0559H     0001H     UNIT         ?XD?UC_ACK?VCNL4035
            XDATA   055AH     0001H     UNIT         ?XD?UC_NACK?VCNL4035
            XDATA   055BH     0001H     UNIT         ?XD?_DISPLAYLCD_VCNL4035?VCNL4035

            * * * * * * *   C O D E   M E M O R Y   * * * * * * *
            CODE    0000H     0003H     ABSOLUTE     
            CODE    0003H     0006H     UNIT         ?PR?_TEN?UART1
            CODE    0009H     0001H     UNIT         ?PR?TM0_ISR?MAIN
            CODE    000AH     0001H     UNIT         ?PR?_DECTOBCD?UART1
            CODE    000BH     0003H     ABSOLUTE     
            CODE    000EH     0A63H     UNIT         ?PR?_UPDATE_POSITION?BIPOLARMOTOR
            CODE    0A71H     08C2H     UNIT         ?C?LIB_CODE
            CODE    1333H     0849H     UNIT         ?PR?MAIN?MAIN
BL51 BANKED LINKER/LOCATER V6.22                                                      03/29/2019  13:49:34  PAGE 3


            CODE    1B7CH     07A2H     UNIT         ?PR?SUNPOS?SUNPOS
            CODE    231EH     0355H     UNIT         ?C_INITSEG
            CODE    2673H     02C0H     UNIT         ?PR?_FINDDET4X4?BIPOLARMOTOR
            CODE    2933H     02A0H     UNIT         ?PR?KEY_PROCESS?KEYPAD
            CODE    2BD3H     01D1H     UNIT         ?PR?_FINDDET3X3?BIPOLARMOTOR
            CODE    2DA4H     01B5H     UNIT         ?PR?_DISPLAY_POS?MAIN
            CODE    2F59H     018DH     UNIT         ?PR?KEY_SCAN?KEYPAD
            CODE    30E6H     0188H     UNIT         ?PR?SIN?SIN
            CODE    326EH     0122H     UNIT         ?PR?ATAN?ATAN
            CODE    3390H     00DBH     UNIT         ?PR?_ATOI?ATOI
            CODE    346BH     00C3H     UNIT         ?PR?LINEAR_INTERPOLATE?BIPOLARMOTOR
            CODE    352EH     00ACH     UNIT         ?PR?SQRT?SQRT
            CODE    35DAH     009DH     UNIT         ?PR?_ATAN2?ATAN2
            CODE    3677H     009AH     UNIT         ?PR?_READ_VCNL4035?VCNL4035
            CODE    3711H     0095H     UNIT         ?PR?_DISPLAY_PROX?MAIN
            CODE    37A6H     008CH     UNIT         ?C_C51STARTUP
            CODE    3832H     0084H     UNIT         ?PR?_DAY_OF_YEAR?PCF85063BTL
            CODE    38B6H     0075H     UNIT         ?PR?_WRITEDATA?LCD_DRIVER_SPLC780D
            CODE    392BH     006FH     UNIT         ?PR?_READ_TIME?PCF85063BTL
            CODE    399AH     0059H     UNIT         ?PR?LCD_INIT?LCD_DRIVER_SPLC780D
            CODE    39F3H     004AH     UNIT         ?PR?VONESTEPMOVE?BIPOLARMOTOR
            CODE    3A3DH     004AH     UNIT         ?PR?ACOS?ACOS
            CODE    3A87H     0049H     UNIT         ?PR?_WRITE_VCNL4035X?VCNL4035
            CODE    3AD0H     0044H     UNIT         ?C?LDIV
            CODE    3B14H     0040H     UNIT         ?PR?_COMMAND?LCD_DRIVER_SPLC780D
            CODE    3B54H     0040H     UNIT         ?PR?_STEP_MOVE?BIPOLARMOTOR
            CODE    3B94H     003BH     UNIT         ?PR?ASIN?ASIN
            CODE    3BCFH     0033H     UNIT         ?PR?_SENDSTRING?UART1
            CODE    3C02H     002CH     UNIT         ?PR?I2C_RECEIVEBYTE?VCNL4035
            CODE    3C2EH     002BH     UNIT         ?PR?_WAIT_MS_I2C?VCNL4035
            CODE    3C59H     0028H     UNIT         ?PR?_MOVE?BIPOLARMOTOR
            CODE    3C81H     0024H     UNIT         ?PR?_WAIT_MS?LCD_DRIVER_SPLC780D
            CODE    3CA5H     0022H     UNIT         ?PR?_I2C_SENDBYTE?VCNL4035
            CODE    3CC7H     0020H     UNIT         ?PR?_SPI_SENDBYTE?PCF85063BTL
            CODE    3CE7H     0020H     UNIT         ?PR?SPI_RECEIVEBYTE?PCF85063BTL
            CODE    3D07H     001EH     UNIT         ?PR?_DELAY_MS?KEYPAD
            CODE    3D25H     001EH     UNIT         ?PR?_WAIT_MS_IIC?VCNL4035
            CODE    3D43H     001DH     UNIT         ?PR?_DISPLAYLCD?LCD_DRIVER_SPLC780D
            CODE    3D60H     001BH     UNIT         ?PR?I2C_ACK?VCNL4035
            CODE    3D7BH     001BH     UNIT         ?PR?_BCDTODEC1?BIPOLARMOTOR
            CODE    3D96H     0018H     UNIT         ?PR?_SPI_WRITETIME?PCF85063BTL
            CODE    3DAEH     0017H     UNIT         ?PR?_ASCIITOBCD?UART1
            CODE    3DC5H     0017H     UNIT         ?PR?I2C_INIT?VCNL4035
            CODE    3DDCH     0015H     UNIT         ?PR?_DISPLAY_LINE?LCD_DRIVER_SPLC780D
            CODE    3DF1H     0015H     UNIT         ?PR?I2C_STOP?VCNL4035
            CODE    3E06H     0014H     UNIT         ?PR?_PCF85063BTL_DELAY?PCF85063BTL
            CODE    3E1AH     0014H     UNIT         ?PR?_ISSPACE?ISSPACE
            CODE    3E2EH     0013H     UNIT         ?PR?I2C_START?VCNL4035
            CODE    3E41H     0011H     UNIT         ?PR?_SPI_READTIME?PCF85063BTL
            CODE    3E52H     0011H     UNIT         ?PR?_BCDTODEC?PCF85063BTL
            CODE    3E63H     0011H     UNIT         ?PR?INITUART1?UART1
            CODE    3E74H     000FH     UNIT         ?PR?UC_NACK?VCNL4035
            CODE    3E83H     000FH     UNIT         ?PR?_ISDIGIT?ISDIGIT
            CODE    3E92H     000DH     UNIT         ?PR?SPI_INIT?PCF85063BTL
            CODE    3E9FH     000CH     UNIT         ?PR?KEYPAD_IO_INIT?KEYPAD
            CODE    3EABH     000CH     UNIT         ?PR?_ABS?ABS
            CODE    3EB7H     000AH     UNIT         ?PR?LCD_RETURN_HOME?LCD_DRIVER_SPLC780D
BL51 BANKED LINKER/LOCATER V6.22                                                      03/29/2019  13:49:34  PAGE 4


            CODE    3EC1H     000AH     UNIT         ?PR?LCD_CLEAR?LCD_DRIVER_SPLC780D
            CODE    3ECBH     0006H     UNIT         ?PR?UC_ACK?VCNL4035
            CODE    3ED1H     0006H     UNIT         ?PR?_DISPLAYLCD_VCNL4035?VCNL4035
            CODE    3ED7H     0005H     UNIT         ?PR?_UNIT?UART1
            CODE    3EDCH     0005H     UNIT         ?PR?_ASCII_LETTER?UART1
            CODE    3EE1H     0001H     UNIT         ?PR?NOP?VCNL4035
            CODE    3EE2H     0001H     UNIT         ?PR?WAIT?BIPOLARMOTOR



OVERLAY MAP OF MODULE:   .\Obj\GPIO_RTC_Test (MAIN)


SEGMENT                                            BIT_GROUP          XDATA_GROUP
  +--> CALLED SEGMENT                           START    LENGTH     START    LENGTH
-----------------------------------------------------------------------------------
?C_C51STARTUP                                   -----    -----      -----    -----
  +--> ?PR?MAIN?MAIN
  +--> ?C_INITSEG

?PR?MAIN?MAIN                                   -----    -----      02EFH    0019H
  +--> ?PR?LCD_INIT?LCD_DRIVER_SPLC780D
  +--> ?PR?SPI_INIT?PCF85063BTL
  +--> ?PR?KEYPAD_IO_INIT?KEYPAD
  +--> ?PR?_SPI_WRITETIME?PCF85063BTL
  +--> ?PR?_DELAY_MS?KEYPAD
  +--> ?PR?_DISPLAY_LINE?LCD_DRIVER_SPLC780D
  +--> ?PR?_WRITEDATA?LCD_DRIVER_SPLC780D
  +--> ?PR?KEY_PROCESS?KEYPAD
  +--> ?PR?_COMMAND?LCD_DRIVER_SPLC780D
  +--> ?PR?_DISPLAY_POS?MAIN
  +--> ?PR?_DISPLAYLCD?LCD_DRIVER_SPLC780D
  +--> ?PR?_STEP_MOVE?BIPOLARMOTOR
  +--> ?PR?LCD_RETURN_HOME?LCD_DRIVER_SPLC780D
  +--> ?PR?_READ_TIME?PCF85063BTL
  +--> ?PR?_BCDTODEC1?BIPOLARMOTOR
  +--> ?PR?LINEAR_INTERPOLATE?BIPOLARMOTOR
  +--> ?PR?_UPDATE_POSITION?BIPOLARMOTOR

?PR?LCD_INIT?LCD_DRIVER_SPLC780D                -----    -----      -----    -----
  +--> ?PR?_WAIT_MS?LCD_DRIVER_SPLC780D
  +--> ?PR?_COMMAND?LCD_DRIVER_SPLC780D

?PR?_COMMAND?LCD_DRIVER_SPLC780D                -----    -----      -----    -----
  +--> ?PR?_WAIT_MS?LCD_DRIVER_SPLC780D

?PR?_SPI_WRITETIME?PCF85063BTL                  -----    -----      -----    -----
  +--> ?PR?_SPI_SENDBYTE?PCF85063BTL

?PR?_SPI_SENDBYTE?PCF85063BTL                   -----    -----      -----    -----
  +--> ?PR?_PCF85063BTL_DELAY?PCF85063BTL

?PR?_DISPLAY_LINE?LCD_DRIVER_SPLC780D           -----    -----      -----    -----
  +--> ?PR?_COMMAND?LCD_DRIVER_SPLC780D

?PR?_WRITEDATA?LCD_DRIVER_SPLC780D              -----    -----      0312H    0001H
  +--> ?PR?_WAIT_MS?LCD_DRIVER_SPLC780D
BL51 BANKED LINKER/LOCATER V6.22                                                      03/29/2019  13:49:34  PAGE 5



?PR?KEY_PROCESS?KEYPAD                          -----    -----      0308H    0006H
  +--> ?PR?KEY_SCAN?KEYPAD
  +--> ?PR?_SPI_WRITETIME?PCF85063BTL
  +--> ?PR?LCD_CLEAR?LCD_DRIVER_SPLC780D
  +--> ?PR?_COMMAND?LCD_DRIVER_SPLC780D
  +--> ?PR?_WRITEDATA?LCD_DRIVER_SPLC780D

?PR?KEY_SCAN?KEYPAD                             -----    -----      030EH    0003H

?PR?LCD_CLEAR?LCD_DRIVER_SPLC780D               -----    -----      -----    -----
  +--> ?PR?_COMMAND?LCD_DRIVER_SPLC780D

?PR?_DISPLAY_POS?MAIN                           -----    -----      0308H    000AH
  +--> ?PR?_ABS?ABS
  +--> ?PR?_WRITEDATA?LCD_DRIVER_SPLC780D

?PR?_DISPLAYLCD?LCD_DRIVER_SPLC780D             -----    -----      0308H    0001H
  +--> ?PR?_WRITEDATA?LCD_DRIVER_SPLC780D

?PR?_STEP_MOVE?BIPOLARMOTOR                     0020H.5  0000H.1    0308H    0004H
  +--> ?PR?VONESTEPMOVE?BIPOLARMOTOR

?PR?VONESTEPMOVE?BIPOLARMOTOR                   0020H.6  0000H.1    -----    -----
  +--> ?PR?_DELAY_MS?KEYPAD

?PR?LCD_RETURN_HOME?LCD_DRIVER_SPLC780D         -----    -----      -----    -----
  +--> ?PR?_COMMAND?LCD_DRIVER_SPLC780D

?PR?_READ_TIME?PCF85063BTL                      -----    -----      0308H    000FH
  +--> ?PR?_SPI_READTIME?PCF85063BTL

?PR?_SPI_READTIME?PCF85063BTL                   -----    -----      -----    -----
  +--> ?PR?_SPI_SENDBYTE?PCF85063BTL
  +--> ?PR?SPI_RECEIVEBYTE?PCF85063BTL

?PR?SPI_RECEIVEBYTE?PCF85063BTL                 -----    -----      -----    -----
  +--> ?PR?_PCF85063BTL_DELAY?PCF85063BTL

?PR?LINEAR_INTERPOLATE?BIPOLARMOTOR             -----    -----      0393H    0014H

?PR?_UPDATE_POSITION?BIPOLARMOTOR               -----    -----      0308H    008BH
  +--> ?PR?_BCDTODEC1?BIPOLARMOTOR
  +--> ?PR?SUNPOS?SUNPOS
  +--> ?PR?SIN?SIN
  +--> ?PR?ASIN?ASIN
  +--> ?PR?LINEAR_INTERPOLATE?BIPOLARMOTOR
  +--> ?PR?_ABS?ABS

?PR?SUNPOS?SUNPOS                               -----    -----      0393H    005DH
  +--> ?PR?SIN?SIN
  +--> ?PR?_ATAN2?ATAN2
  +--> ?PR?ASIN?ASIN
  +--> ?PR?ACOS?ACOS

?PR?SIN?SIN                                     0020H.5  0000H.1    03F0H    0004H

BL51 BANKED LINKER/LOCATER V6.22                                                      03/29/2019  13:49:34  PAGE 6


?PR?_ATAN2?ATAN2                                -----    -----      03F0H    0008H
  +--> ?PR?ATAN?ATAN

?PR?ATAN?ATAN                                   0020H.5  0000H.2    03F8H    0004H

?PR?ASIN?ASIN                                   -----    -----      -----    -----
  +--> ?PR?SQRT?SQRT
  +--> ?PR?ATAN?ATAN

?PR?SQRT?SQRT                                   -----    -----      03F0H    0004H

?PR?ACOS?ACOS                                   -----    -----      -----    -----
  +--> ?PR?SQRT?SQRT
  +--> ?PR?ATAN?ATAN



UNRESOLVED EXTERNAL SYMBOLS:
   ?_CALIBRATION?BYTE
   ADC_INIT
   AUTO_MODE
   _CALIBRATION
   _SENDUART1
   _WRITE_PI4IOE5V96248



SYMBOL TABLE OF MODULE:  .\Obj\GPIO_RTC_Test (MAIN)

  VALUE           TYPE          NAME
  ----------------------------------

  -------         MODULE        MAIN
  C:0000H         SYMBOL        _ICE_DUMMY_
  X:0404H         PUBLIC        calib_value
  D:0080H         PUBLIC        P0
  D:00B2H         PUBLIC        P3M0
  D:0090H         PUBLIC        P1
  D:00B1H         PUBLIC        P3M1
  D:00A0H         PUBLIC        P2
  D:00B0H         PUBLIC        P3
  D:00C0H         PUBLIC        P4
  D:00C8H         PUBLIC        P5
  X:0458H         SYMBOL        PressedKey
  B:00A8H.7       PUBLIC        EA
  D:00E8H         PUBLIC        P6
  X:045CH         PUBLIC        calib_stamp
  D:00F8H         PUBLIC        P7
  X:045DH         PUBLIC        RX_Data_Uart_Cnt
  D:00A8H         PUBLIC        IE
  X:045FH         PUBLIC        calib_time
  D:00B8H         PUBLIC        IP
  X:04B3H         PUBLIC        months
  D:00D8H         PUBLIC        CCON
  C:1333H         PUBLIC        main
  X:04B4H         PUBLIC        count
  X:04B6H         PUBLIC        days
BL51 BANKED LINKER/LOCATER V6.22                                                      03/29/2019  13:49:34  PAGE 7


  X:04B7H         PUBLIC        hours
  D:0098H         PUBLIC        SCON
  D:0089H         PUBLIC        TMOD
  D:0088H         PUBLIC        TCON
  B:00A0H.3       PUBLIC        P23
  X:04B8H         SYMBOL        KeyCount
  X:04BAH         PUBLIC        mins
  X:04BBH         PUBLIC        Rec_data_hour
  B:00C8H.5       PUBLIC        P55
  X:04BEH         PUBLIC        Rec_data_min
  D:008EH         PUBLIC        AUXR
  C:0009H         PUBLIC        tm0_isr
  B:0020H.7       PUBLIC        busy
  B:00A8H.1       PUBLIC        ET0
  D:008CH         PUBLIC        TH0
  X:04C1H         PUBLIC        hour_count
  D:008AH         PUBLIC        TL0
  X:04C2H         PUBLIC        min_count
  B:0088H.4       PUBLIC        TR0
  X:04C3H         SYMBOL        KeyNum
  X:04C4H         SYMBOL        KeyNum_Old
  X:04C5H         PUBLIC        current_position
  X:04C9H         PUBLIC        hours1
  X:04CAH         PUBLIC        hours2
  C:3711H         PUBLIC        _Display_Prox
  X:04CBH         PUBLIC        mins1
  X:04CCH         PUBLIC        mins2
  C:2DA4H         PUBLIC        _Display_Pos
  X:04CDH         PUBLIC        seconds
  X:04CEH         PUBLIC        st_time
  D:00D0H         PUBLIC        PSW
  -------         PROC          TM0_ISR
  C:0009H         LINE#         86
  C:0009H         LINE#         88
  -------         ENDPROC       TM0_ISR
  -------         PROC          MAIN
  -------         DO            
  X:02EFH         SYMBOL        prox_data
  X:03FCH         SYMBOL        KeyCount
  X:03FEH         SYMBOL        KeyNum_Old
  X:03FFH         SYMBOL        KeyNum
  X:0400H         SYMBOL        PressedKey
  X:02F1H         SYMBOL        prox_flag
  X:02F2H         SYMBOL        iUse_prevday_calib_value
  X:02F4H         SYMBOL        calib_point1
  X:02FCH         SYMBOL        calib_point2
  X:0304H         SYMBOL        calib_day
  X:0306H         SYMBOL        calib_count
  -------         ENDDO         
  C:1333H         LINE#         91
  C:1333H         LINE#         92
  C:1333H         LINE#         97
  C:1339H         LINE#         98
  C:133EH         LINE#         101
  C:1344H         LINE#         105
  C:1346H         LINE#         106
  C:1348H         LINE#         107
BL51 BANKED LINKER/LOCATER V6.22                                                      03/29/2019  13:49:34  PAGE 8


  C:134AH         LINE#         108
  C:134CH         LINE#         110
  C:1352H         LINE#         121
  C:1354H         LINE#         122
  C:1357H         LINE#         123
  C:135AH         LINE#         124
  C:135DH         LINE#         125
  C:1360H         LINE#         126
  C:1363H         LINE#         129
  C:1366H         LINE#         131
  C:1369H         LINE#         133
  C:136CH         LINE#         134
  C:136FH         LINE#         135
  C:1371H         LINE#         136
  C:1373H         LINE#         137
  C:1375H         LINE#         139
  C:1377H         LINE#         140
  C:137EH         LINE#         141
  C:1385H         LINE#         142
  C:138CH         LINE#         143
  C:1393H         LINE#         147
  C:139AH         LINE#         148
  C:139FH         LINE#         149
  C:13A4H         LINE#         150
  C:13A9H         LINE#         151
  C:13AEH         LINE#         152
  C:13B3H         LINE#         155
  C:13CCH         LINE#         156
  C:13CCH         LINE#         157
  C:13E8H         LINE#         158
  C:142FH         LINE#         159
  C:1440H         LINE#         160
  C:1440H         LINE#         161
  C:1440H         LINE#         162
  C:1443H         LINE#         165
  C:1443H         LINE#         168
  C:1448H         LINE#         169
  C:144DH         LINE#         171
  C:1452H         LINE#         172
  C:1457H         LINE#         173
  C:145CH         LINE#         174
  C:1461H         LINE#         176
  C:1472H         LINE#         178
  C:1479H         LINE#         179
  C:1481H         LINE#         180
  C:1486H         LINE#         181
  C:148EH         LINE#         182
  C:1493H         LINE#         183
  C:149DH         LINE#         184
  C:14A2H         LINE#         185
  C:14AAH         LINE#         187
  C:14B2H         LINE#         188
  C:14B7H         LINE#         189
  C:14C1H         LINE#         190
  C:14C1H         LINE#         191
  C:14C3H         LINE#         192
  C:14C5H         LINE#         193
BL51 BANKED LINKER/LOCATER V6.22                                                      03/29/2019  13:49:34  PAGE 9


  C:14CFH         LINE#         194
  C:14CFH         LINE#         195
  C:14D4H         LINE#         196
  C:14D4H         LINE#         208
  C:14E1H         LINE#         209
  C:14E1H         LINE#         210
  C:14EBH         LINE#         211
  C:1502H         LINE#         212
  C:1502H         LINE#         213
  C:1504H         LINE#         214
  C:1506H         LINE#         216
  C:1506H         LINE#         217
  C:1511H         LINE#         218
  C:1511H         LINE#         219
  C:1516H         LINE#         220
  C:1516H         LINE#         221
  C:1523H         LINE#         222
  C:1523H         LINE#         225
  C:152DH         LINE#         226
  C:1544H         LINE#         227
  C:1544H         LINE#         228
  C:1546H         LINE#         229
  C:1548H         LINE#         231
  C:1548H         LINE#         232
  C:1553H         LINE#         233
  C:1553H         LINE#         234
  C:1558H         LINE#         235
  C:155AH         LINE#         236
  C:155AH         LINE#         245
  C:157CH         LINE#         246
  C:157CH         LINE#         247
  C:1586H         LINE#         248
  C:158CH         LINE#         249
  C:158EH         LINE#         250
  C:1590H         LINE#         251
  C:1592H         LINE#         252
  C:1592H         LINE#         253
  C:1595H         LINE#         255
  C:1595H         LINE#         256
  C:159BH         LINE#         257
  C:15A3H         LINE#         258
  C:15A9H         LINE#         259
  C:15B1H         LINE#         260
  C:15ECH         LINE#         264
  C:15F9H         LINE#         265
  C:15F9H         LINE#         267
  C:162CH         LINE#         268
  C:1639H         LINE#         269
  C:1639H         LINE#         271
  C:165CH         LINE#         272
  C:165CH         LINE#         273
  C:167EH         LINE#         274
  C:167EH         LINE#         275
  C:16FAH         LINE#         276
  C:1740H         LINE#         280
  C:1743H         LINE#         281
  C:1754H         LINE#         282
BL51 BANKED LINKER/LOCATER V6.22                                                      03/29/2019  13:49:34  PAGE 10


  C:1754H         LINE#         283
  C:1754H         LINE#         285
  C:1754H         LINE#         289
  C:1757H         LINE#         291
  C:1757H         LINE#         292
  C:1779H         LINE#         293
  C:1779H         LINE#         294
  C:17F5H         LINE#         295
  C:184AH         LINE#         296
  C:184AH         LINE#         297
  C:184AH         LINE#         298
  C:184DH         LINE#         302
  C:184DH         LINE#         305
  C:1875H         LINE#         306
  C:1875H         LINE#         307
  C:1897H         LINE#         308
  C:1897H         LINE#         309
  C:1913H         LINE#         310
  C:196DH         LINE#         315
  C:1970H         LINE#         316
  C:1981H         LINE#         317
  C:1981H         LINE#         318
  C:1989H         LINE#         320
  C:1989H         LINE#         323
  C:198CH         LINE#         325
  C:198CH         LINE#         327
  C:19AEH         LINE#         328
  C:19AEH         LINE#         329
  C:1A2AH         LINE#         331
  C:1A57H         LINE#         332
  C:1A72H         LINE#         333
  C:1A9FH         LINE#         334
  C:1ABAH         LINE#         336
  C:1B56H         LINE#         339
  C:1B56H         LINE#         340
  C:1B56H         LINE#         341
  C:1B56H         LINE#         343
  C:1B56H         LINE#         346
  C:1B72H         LINE#         347
  C:1B77H         LINE#         349
  C:1B79H         LINE#         350
  -------         ENDPROC       MAIN
  -------         PROC          _DISPLAY_PROX
  D:0002H         SYMBOL        dat
  -------         DO            
  X:054AH         SYMBOL        unit
  X:054BH         SYMBOL        ten
  X:054CH         SYMBOL        hundred
  X:054DH         SYMBOL        thousand
  -------         ENDDO         
  C:3711H         LINE#         434
  C:3715H         LINE#         435
  C:3715H         LINE#         437
  C:3721H         LINE#         438
  C:3731H         LINE#         439
  C:374DH         LINE#         440
  C:377DH         LINE#         441
BL51 BANKED LINKER/LOCATER V6.22                                                      03/29/2019  13:49:34  PAGE 11


  C:3787H         LINE#         442
  C:3791H         LINE#         443
  C:379BH         LINE#         444
  C:37A5H         LINE#         446
  -------         ENDPROC       _DISPLAY_PROX
  -------         PROC          _DISPLAY_POS
  X:0308H         SYMBOL        sign_dat
  -------         DO            
  X:030CH         SYMBOL        unit
  X:030DH         SYMBOL        ten
  X:030EH         SYMBOL        hundred
  D:0003H         SYMBOL        thousand
  X:030FH         SYMBOL        after_dot
  X:0310H         SYMBOL        dat
  -------         ENDDO         
  C:2DA4H         LINE#         449
  C:2DAAH         LINE#         450
  C:2DAAH         LINE#         454
  C:2DC6H         LINE#         455
  C:2DE0H         LINE#         456
  C:2E04H         LINE#         458
  C:2E4EH         LINE#         460
  C:2E65H         LINE#         461
  C:2E72H         LINE#         462
  C:2E94H         LINE#         463
  C:2EC9H         LINE#         464
  C:2EE1H         LINE#         465
  C:2EE1H         LINE#         467
  C:2EEBH         LINE#         468
  C:2EF5H         LINE#         469
  C:2EFFH         LINE#         470
  C:2F04H         LINE#         471
  C:2F0EH         LINE#         472
  C:2F13H         LINE#         473
  C:2F18H         LINE#         474
  C:2F1AH         LINE#         475
  C:2F1CH         LINE#         477
  C:2F1CH         LINE#         479
  C:2F21H         LINE#         480
  C:2F2BH         LINE#         481
  C:2F35H         LINE#         482
  C:2F3FH         LINE#         483
  C:2F44H         LINE#         484
  C:2F4EH         LINE#         485
  C:2F53H         LINE#         486
  C:2F58H         LINE#         488
  C:2F58H         LINE#         490
  -------         ENDPROC       _DISPLAY_POS
  -------         ENDMOD        MAIN

  -------         MODULE        PCF85063BTL
  C:0000H         SYMBOL        _ICE_DUMMY_
  D:0096H         PUBLIC        P2M0
  D:0080H         PUBLIC        P0
  D:0095H         PUBLIC        P2M1
  D:0090H         PUBLIC        P1
  D:00A0H         PUBLIC        P2
BL51 BANKED LINKER/LOCATER V6.22                                                      03/29/2019  13:49:34  PAGE 12


  D:00B0H         PUBLIC        P3
  D:00C0H         PUBLIC        P4
  D:00C8H         PUBLIC        P5
  D:00E8H         PUBLIC        P6
  B:00A0H.1       PUBLIC        PCF85063BTL_SDI
  D:00F8H         PUBLIC        P7
  B:00A0H.2       PUBLIC        PCF85063BTL_SCK
  B:00A0H.1       PUBLIC        PCF85063BTL_SDO
  D:00A8H         PUBLIC        IE
  C:392BH         PUBLIC        _Read_time
  C:3E0CH         PUBLIC        _PCF85063BTL_Delay
  D:00B8H         PUBLIC        IP
  D:00D8H         PUBLIC        CCON
  C:3832H         PUBLIC        _Day_Of_Year
  C:3CE7H         PUBLIC        SPI_ReceiveByte
  D:0098H         PUBLIC        SCON
  D:0088H         PUBLIC        TCON
  C:3E52H         PUBLIC        _BCDtoDec
  B:00A0H.0       PUBLIC        PCF85063BTL_CS
  C:3E41H         PUBLIC        _SPI_ReadTime
  C:3E92H         PUBLIC        SPI_Init
  C:3D96H         PUBLIC        _SPI_WriteTime
  C:3CC7H         PUBLIC        _SPI_SendByte
  D:00D0H         PUBLIC        PSW
  C:3E08H         SYMBOL        L?0047
  -------         PROC          L?0046
  -------         ENDPROC       L?0046
  C:3E08H         SYMBOL        L?0047
  -------         PROC          _PCF85063BTL_DELAY
  D:0006H         SYMBOL        us
  C:3E0CH         LINE#         8
  C:3E0CH         LINE#         9
  C:3E0CH         LINE#         10
  C:3E16H         LINE#         11
  C:3E16H         LINE#         12
  C:3E17H         LINE#         13
  C:3E19H         LINE#         14
  -------         ENDPROC       _PCF85063BTL_DELAY
  -------         PROC          _SPI_SENDBYTE
  D:0005H         SYMBOL        dat
  -------         DO            
  D:0003H         SYMBOL        i
  -------         ENDDO         
  C:3CC7H         LINE#         17
  C:3CC9H         LINE#         18
  C:3CC9H         LINE#         20
  C:3CCBH         LINE#         21
  C:3CCBH         LINE#         22
  C:3CCDH         LINE#         23
  C:3CD1H         LINE#         24
  C:3CD1H         LINE#         25
  C:3CD3H         LINE#         26
  C:3CD5H         LINE#         28
  C:3CD5H         LINE#         29
  C:3CD7H         LINE#         30
  C:3CD7H         LINE#         31
  C:3CDAH         LINE#         32
BL51 BANKED LINKER/LOCATER V6.22                                                      03/29/2019  13:49:34  PAGE 13


  C:3CDAH         LINE#         33
  C:3CDDH         LINE#         34
  C:3CE1H         LINE#         35
  C:3CE6H         LINE#         36
  -------         ENDPROC       _SPI_SENDBYTE
  -------         PROC          SPI_RECEIVEBYTE
  -------         DO            
  D:0003H         SYMBOL        i
  D:0005H         SYMBOL        dat
  -------         ENDDO         
  C:3CE7H         LINE#         39
  C:3CE7H         LINE#         40
  C:3CE7H         LINE#         42
  C:3CE9H         LINE#         44
  C:3CEBH         LINE#         45
  C:3CECH         LINE#         46
  C:3CECH         LINE#         47
  C:3CF0H         LINE#         48
  C:3CF2H         LINE#         49
  C:3CF5H         LINE#         51
  C:3CF8H         LINE#         52
  C:3CF8H         LINE#         53
  C:3CFCH         LINE#         54
  C:3CFCH         LINE#         55
  C:3CFCH         LINE#         56
  C:3CFFH         LINE#         57
  C:3D04H         LINE#         58
  C:3D06H         LINE#         59
  -------         ENDPROC       SPI_RECEIVEBYTE
  -------         PROC          _SPI_READTIME
  D:0007H         SYMBOL        addr
  -------         DO            
  D:0006H         SYMBOL        dat
  -------         ENDDO         
  C:3E41H         LINE#         61
  C:3E41H         LINE#         62
  C:3E41H         LINE#         64
  C:3E43H         LINE#         65
  C:3E45H         LINE#         66
  C:3E4CH         LINE#         67
  C:3E4FH         LINE#         68
  C:3E51H         LINE#         69
  C:3E51H         LINE#         70
  -------         ENDPROC       _SPI_READTIME
  -------         PROC          _SPI_WRITETIME
  D:0002H         SYMBOL        val
  D:0005H         SYMBOL        addr
  C:3D96H         LINE#         71
  C:3D98H         LINE#         72
  C:3D98H         LINE#         74
  C:3D9AH         LINE#         75
  C:3DA1H         LINE#         76
  C:3DA6H         LINE#         77
  C:3DABH         LINE#         78
  C:3DADH         LINE#         79
  -------         ENDPROC       _SPI_WRITETIME
  -------         PROC          SPI_INIT
BL51 BANKED LINKER/LOCATER V6.22                                                      03/29/2019  13:49:34  PAGE 14


  C:3E92H         LINE#         83
  C:3E92H         LINE#         84
  C:3E92H         LINE#         89
  C:3E95H         LINE#         90
  C:3E98H         LINE#         91
  C:3E9AH         LINE#         92
  C:3E9CH         LINE#         93
  C:3E9EH         LINE#         94
  -------         ENDPROC       SPI_INIT
  -------         PROC          _READ_TIME
  X:0308H         SYMBOL        months
  X:030BH         SYMBOL        days
  X:030EH         SYMBOL        hours
  X:0311H         SYMBOL        mins
  X:0314H         SYMBOL        seconds
  C:392BH         LINE#         96
  C:3936H         LINE#         97
  C:3936H         LINE#         99
  C:394AH         LINE#         101
  C:395EH         LINE#         103
  C:3972H         LINE#         108
  C:3986H         LINE#         113
  -------         ENDPROC       _READ_TIME
  -------         PROC          _BCDTODEC
  D:0007H         SYMBOL        bcd
  -------         DO            
  D:0006H         SYMBOL        hi
  D:0007H         SYMBOL        lo
  -------         ENDDO         
  C:3E52H         LINE#         119
  C:3E52H         LINE#         120
  C:3E52H         LINE#         122
  C:3E57H         LINE#         123
  C:3E5BH         LINE#         124
  C:3E62H         LINE#         125
  -------         ENDPROC       _BCDTODEC
  -------         PROC          _DAY_OF_YEAR
  D:0007H         SYMBOL        months_bcd
  D:0005H         SYMBOL        days_bcd
  -------         DO            
  D:0004H         SYMBOL        months
  D:0007H         SYMBOL        days
  -------         ENDDO         
  C:3832H         LINE#         126
  C:3832H         LINE#         127
  C:3832H         LINE#         130
  C:3837H         LINE#         132
  C:383CH         LINE#         134
  C:3875H         LINE#         135
  C:3875H         LINE#         136
  C:3875H         LINE#         137
  C:3878H         LINE#         138
  C:3878H         LINE#         139
  C:3878H         LINE#         140
  C:387DH         LINE#         141
  C:387DH         LINE#         142
  C:387DH         LINE#         143
BL51 BANKED LINKER/LOCATER V6.22                                                      03/29/2019  13:49:34  PAGE 15


  C:3882H         LINE#         144
  C:3882H         LINE#         145
  C:3882H         LINE#         146
  C:3887H         LINE#         147
  C:3887H         LINE#         148
  C:3887H         LINE#         149
  C:388CH         LINE#         150
  C:388CH         LINE#         151
  C:388CH         LINE#         152
  C:3891H         LINE#         153
  C:3891H         LINE#         154
  C:3891H         LINE#         155
  C:3896H         LINE#         156
  C:3896H         LINE#         157
  C:3896H         LINE#         158
  C:389BH         LINE#         159
  C:389BH         LINE#         160
  C:389BH         LINE#         161
  C:38A3H         LINE#         162
  C:38A3H         LINE#         163
  C:38A3H         LINE#         164
  C:38A8H         LINE#         165
  C:38A8H         LINE#         166
  C:38A8H         LINE#         167
  C:38ADH         LINE#         168
  C:38ADH         LINE#         169
  C:38ADH         LINE#         170
  C:38B5H         LINE#         171
  C:38B5H         LINE#         172
  C:38B5H         LINE#         173
  -------         ENDPROC       _DAY_OF_YEAR
  -------         ENDMOD        PCF85063BTL

  -------         MODULE        UART1
  C:0000H         SYMBOL        _ICE_DUMMY_
  D:0080H         PUBLIC        P0
  D:0090H         PUBLIC        P1
  D:00A0H         PUBLIC        P2
  D:00B0H         PUBLIC        P3
  D:00C0H         PUBLIC        P4
  D:00C8H         PUBLIC        P5
  B:00A8H.7       PUBLIC        EA
  D:00E8H         PUBLIC        P6
  D:00F8H         PUBLIC        P7
  C:3BCFH         PUBLIC        _SendString
  D:00A8H         PUBLIC        IE
  B:00A8H.4       PUBLIC        ES
  D:00B8H         PUBLIC        IP
  C:3DAEH         PUBLIC        _ASCIItoBCD
  D:00D8H         PUBLIC        CCON
  C:3E63H         PUBLIC        initUART1
  D:0098H         PUBLIC        SCON
  D:0088H         PUBLIC        TCON
  C:000AH         PUBLIC        _DectoBCD
  C:3EDCH         PUBLIC        _ASCII_Letter
  D:008EH         PUBLIC        AUXR
  C:3ED7H         PUBLIC        _unit
BL51 BANKED LINKER/LOCATER V6.22                                                      03/29/2019  13:49:34  PAGE 16


  C:0003H         PUBLIC        _ten
  D:00D6H         PUBLIC        T2H
  D:00D7H         PUBLIC        T2L
  D:00D0H         PUBLIC        PSW
  -------         PROC          INITUART1
  C:3E63H         LINE#         21
  C:3E63H         LINE#         22
  C:3E63H         LINE#         23
  C:3E66H         LINE#         24
  C:3E69H         LINE#         25
  C:3E6CH         LINE#         26
  C:3E6FH         LINE#         27
  C:3E71H         LINE#         28
  C:3E73H         LINE#         30
  -------         ENDPROC       INITUART1
  -------         PROC          _SENDSTRING
  X:0552H         SYMBOL        s
  C:3BCFH         LINE#         35
  C:3BDAH         LINE#         36
  C:3BDAH         LINE#         37
  C:3BEAH         LINE#         38
  C:3BEAH         LINE#         39
  C:3BFFH         LINE#         40
  C:3C01H         LINE#         41
  -------         ENDPROC       _SENDSTRING
  -------         PROC          _TEN
  D:0007H         SYMBOL        BCD
  C:0003H         LINE#         43
  C:0003H         LINE#         44
  C:0003H         LINE#         45
  C:0008H         LINE#         46
  -------         ENDPROC       _TEN
  -------         PROC          _UNIT
  D:0007H         SYMBOL        BCD
  C:3ED7H         LINE#         47
  C:3ED7H         LINE#         48
  C:3ED7H         LINE#         52
  C:3EDBH         LINE#         53
  -------         ENDPROC       _UNIT
  -------         PROC          _DECTOBCD
  D:0007H         SYMBOL        dec
  C:000AH         LINE#         54
  C:000AH         LINE#         55
  C:000AH         LINE#         57
  C:000AH         LINE#         58
  -------         ENDPROC       _DECTOBCD
  -------         PROC          _ASCII_LETTER
  D:0007H         SYMBOL        dat
  C:3EDCH         LINE#         60
  C:3EDCH         LINE#         61
  C:3EDCH         LINE#         63
  C:3EE0H         LINE#         64
  -------         ENDPROC       _ASCII_LETTER
  -------         PROC          _ASCIITOBCD
  D:0001H         SYMBOL        ascii
  -------         DO            
  D:0007H         SYMBOL        dec_val
BL51 BANKED LINKER/LOCATER V6.22                                                      03/29/2019  13:49:34  PAGE 17


  D:0006H         SYMBOL        ten
  D:0007H         SYMBOL        unit
  -------         ENDDO         
  C:3DAEH         LINE#         66
  C:3DAEH         LINE#         67
  C:3DAEH         LINE#         69
  C:3DB1H         LINE#         70
  C:3DB7H         LINE#         71
  C:3DBEH         LINE#         72
  C:3DC4H         LINE#         74
  -------         ENDPROC       _ASCIITOBCD
  -------         ENDMOD        UART1

  -------         MODULE        LCD_DRIVER_SPLC780D
  C:0000H         SYMBOL        _ICE_DUMMY_
  D:0092H         PUBLIC        P1M0
  D:0091H         PUBLIC        P1M1
  D:0080H         PUBLIC        P0
  D:0090H         PUBLIC        P1
  D:00A0H         PUBLIC        P2
  D:00B0H         PUBLIC        P3
  D:00C0H         PUBLIC        P4
  D:00C8H         PUBLIC        P5
  D:00E8H         PUBLIC        P6
  D:00F8H         PUBLIC        P7
  C:38B6H         PUBLIC        _WriteData
  D:00A8H         PUBLIC        IE
  D:00B8H         PUBLIC        IP
  D:00D8H         PUBLIC        CCON
  B:00B0H.4       PUBLIC        LCD_D4
  B:00B0H.5       PUBLIC        LCD_D5
  B:00B0H.6       PUBLIC        LCD_D6
  C:3D43H         PUBLIC        _DisplayLCD
  B:00B0H.7       PUBLIC        LCD_D7
  D:0098H         PUBLIC        SCON
  D:0088H         PUBLIC        TCON
  C:3EC1H         PUBLIC        LCD_clear
  C:3B14H         PUBLIC        _Command
  C:3DDCH         PUBLIC        _Display_Line
  C:399AH         PUBLIC        LCD_Init
  C:3C87H         PUBLIC        _Wait_ms
  B:00C0H.0       PUBLIC        LCD_RS
  B:00B0H.2       PUBLIC        LCD_RW
  C:3EB7H         PUBLIC        LCD_return_home
  B:00B0H.3       PUBLIC        LCD_E
  D:00D0H         PUBLIC        PSW
  -------         PROC          LCD_INIT
  C:399AH         LINE#         9
  C:399AH         LINE#         10
  C:399AH         LINE#         11
  C:399DH         LINE#         12
  C:39A0H         LINE#         14
  C:39A6H         LINE#         15
  C:39ABH         LINE#         17
  C:39B2H         LINE#         18
  C:39B7H         LINE#         20
  C:39BAH         LINE#         21
BL51 BANKED LINKER/LOCATER V6.22                                                      03/29/2019  13:49:34  PAGE 18


  C:39BFH         LINE#         23
  C:39C2H         LINE#         24
  C:39C7H         LINE#         26
  C:39CEH         LINE#         29
  C:39D3H         LINE#         30
  C:39D8H         LINE#         32
  C:39DDH         LINE#         33
  C:39E2H         LINE#         35
  C:39E7H         LINE#         36
  C:39ECH         LINE#         37
  -------         ENDPROC       LCD_INIT
  -------         PROC          _WRITEDATA
  X:0312H         SYMBOL        dat
  C:38B6H         LINE#         40
  C:38BBH         LINE#         41
  C:38BBH         LINE#         46
  C:38BDH         LINE#         47
  C:38BFH         LINE#         49
  C:38CDH         LINE#         50
  C:38D9H         LINE#         51
  C:38E5H         LINE#         52
  C:38EFH         LINE#         53
  C:38F1H         LINE#         54
  C:38F8H         LINE#         55
  C:38FAH         LINE#         57
  C:390AH         LINE#         58
  C:3915H         LINE#         59
  C:391FH         LINE#         60
  C:3923H         LINE#         62
  C:3923H         LINE#         63
  C:3926H         LINE#         64
  C:3928H         LINE#         65
  C:392AH         LINE#         67
  -------         ENDPROC       _WRITEDATA
  -------         PROC          _COMMAND
  D:0007H         SYMBOL        dat
  C:3B14H         LINE#         69
  C:3B14H         LINE#         70
  C:3B14H         LINE#         71
  C:3B16H         LINE#         72
  C:3B18H         LINE#         74
  C:3B22H         LINE#         75
  C:3B26H         LINE#         77
  C:3B28H         LINE#         78
  C:3B31H         LINE#         79
  C:3B35H         LINE#         81
  C:3B37H         LINE#         82
  C:3B3EH         LINE#         83
  C:3B42H         LINE#         85
  C:3B44H         LINE#         86
  C:3B48H         LINE#         87
  C:3B4CH         LINE#         89
  C:3B4EH         LINE#         90
  C:3B4EH         LINE#         91
  C:3B51H         LINE#         92
  C:3B53H         LINE#         93
  -------         ENDPROC       _COMMAND
BL51 BANKED LINKER/LOCATER V6.22                                                      03/29/2019  13:49:34  PAGE 19


  C:3C83H         SYMBOL        L?0028
  -------         PROC          L?0027
  -------         ENDPROC       L?0027
  C:3C83H         SYMBOL        L?0028
  -------         PROC          _WAIT_MS
  D:0006H         SYMBOL        ms
  -------         DO            
  D:0004H         SYMBOL        De_Cnt
  -------         ENDDO         
  C:3C87H         LINE#         95
  C:3C87H         LINE#         96
  C:3C87H         LINE#         98
  C:3C91H         LINE#         99
  C:3C91H         LINE#         100
  C:3CA4H         LINE#         101
  C:3CA4H         LINE#         102
  -------         ENDPROC       _WAIT_MS
  -------         PROC          _DISPLAYLCD
  D:0007H         SYMBOL        BCD
  -------         DO            
  D:0006H         SYMBOL        first_digit
  X:0308H         SYMBOL        second_digit
  -------         ENDDO         
  C:3D43H         LINE#         103
  C:3D43H         LINE#         104
  C:3D43H         LINE#         106
  C:3D4AH         LINE#         107
  C:3D53H         LINE#         109
  C:3D58H         LINE#         111
  -------         ENDPROC       _DISPLAYLCD
  -------         PROC          LCD_RETURN_HOME
  C:3EB7H         LINE#         115
  C:3EB7H         LINE#         116
  C:3EB7H         LINE#         117
  C:3EBCH         LINE#         118
  -------         ENDPROC       LCD_RETURN_HOME
  -------         PROC          LCD_CLEAR
  C:3EC1H         LINE#         121
  C:3EC1H         LINE#         122
  C:3EC1H         LINE#         123
  C:3EC6H         LINE#         124
  -------         ENDPROC       LCD_CLEAR
  -------         PROC          _DISPLAY_LINE
  D:0006H         SYMBOL        line
  C:3DDCH         LINE#         128
  C:3DDCH         LINE#         129
  C:3DDCH         LINE#         130
  C:3DE2H         LINE#         131
  C:3DE2H         LINE#         132
  C:3DE4H         LINE#         133
  C:3DE4H         LINE#         134
  C:3DE6H         LINE#         136
  C:3DE6H         LINE#         137
  C:3DEBH         LINE#         138
  C:3DF0H         LINE#         139
  C:3DF0H         LINE#         140
  -------         ENDPROC       _DISPLAY_LINE
BL51 BANKED LINKER/LOCATER V6.22                                                      03/29/2019  13:49:34  PAGE 20


  -------         ENDMOD        LCD_DRIVER_SPLC780D

  -------         MODULE        KEYPAD
  C:0000H         SYMBOL        _ICE_DUMMY_
  D:0093H         PUBLIC        P0M1
  D:0080H         PUBLIC        P0
  D:0090H         PUBLIC        P1
  D:00A0H         PUBLIC        P2
  D:00B0H         PUBLIC        P3
  D:00C0H         PUBLIC        P4
  D:00C8H         PUBLIC        P5
  B:0020H.0       PUBLIC        calib_mode
  D:00E8H         PUBLIC        P6
  D:00F8H         PUBLIC        P7
  D:00A8H         PUBLIC        IE
  C:2F59H         PUBLIC        Key_Scan
  D:00B8H         PUBLIC        IP
  D:00D8H         PUBLIC        CCON
  C:3E9FH         PUBLIC        KeyPad_IO_Init
  C:3D07H         PUBLIC        _Delay_ms
  D:0098H         PUBLIC        SCON
  D:0088H         PUBLIC        TCON
  B:0020H.1       PUBLIC        small_move
  B:0020H.2       PUBLIC        move
  B:0020H.3       PUBLIC        direction
  B:0020H.4       PUBLIC        auto_move
  C:2933H         PUBLIC        Key_Process
  D:00D0H         PUBLIC        PSW
  D:0094H         PUBLIC        P0M0
  -------         PROC          _DELAY_MS
  D:0006H         SYMBOL        ms
  -------         DO            
  D:0004H         SYMBOL        De_Cnt
  -------         ENDDO         
  C:3D07H         LINE#         19
  C:3D07H         LINE#         20
  C:3D07H         LINE#         22
  C:3D11H         LINE#         23
  C:3D11H         LINE#         24
  C:3D24H         LINE#         25
  C:3D24H         LINE#         26
  -------         ENDPROC       _DELAY_MS
  -------         PROC          KEY_SCAN
  -------         DO            
  X:030EH         SYMBOL        KeyTemp1
  X:030FH         SYMBOL        KeyTemp2
  X:0310H         SYMBOL        KeyValue
  -------         ENDDO         
  C:2F59H         LINE#         27
  C:2F59H         LINE#         28
  C:2F59H         LINE#         33
  C:2F5CH         LINE#         36
  C:2F5FH         LINE#         38
  C:2F67H         LINE#         39
  C:2F6EH         LINE#         40
  C:2F6EH         LINE#         42
  C:2F73H         LINE#         43
BL51 BANKED LINKER/LOCATER V6.22                                                      03/29/2019  13:49:34  PAGE 21


  C:2F7AH         LINE#         44
  C:2F7AH         LINE#         47
  C:2F7DH         LINE#         48
  C:2F80H         LINE#         49
  C:2F85H         LINE#         50
  C:2F89H         LINE#         51
  C:2F89H         LINE#         52
  C:2F91H         LINE#         53
  C:2F91H         LINE#         54
  C:2F94H         LINE#         55
  C:2F9CH         LINE#         56
  C:2F9EH         LINE#         58
  C:2FB2H         LINE#         59
  C:2FB2H         LINE#         60
  C:2FB2H         LINE#         61
  C:2FB2H         LINE#         62
  C:2FB8H         LINE#         64
  C:2FBAH         LINE#         65
  C:2FBAH         LINE#         66
  C:2FBAH         LINE#         67
  C:2FC0H         LINE#         69
  C:2FC2H         LINE#         70
  C:2FC2H         LINE#         71
  C:2FC2H         LINE#         72
  C:2FC8H         LINE#         74
  C:2FCAH         LINE#         75
  C:2FCAH         LINE#         76
  C:2FCAH         LINE#         77
  C:2FD0H         LINE#         79
  C:2FD0H         LINE#         80
  C:2FD0H         LINE#         81
  C:2FD0H         LINE#         84
  C:2FD3H         LINE#         85
  C:2FD6H         LINE#         86
  C:2FDEH         LINE#         87
  C:2FE2H         LINE#         88
  C:2FE2H         LINE#         89
  C:2FEAH         LINE#         90
  C:2FEAH         LINE#         91
  C:2FEDH         LINE#         92
  C:2FF5H         LINE#         93
  C:2FF7H         LINE#         94
  C:300BH         LINE#         95
  C:300BH         LINE#         96
  C:300BH         LINE#         97
  C:300BH         LINE#         98
  C:3011H         LINE#         100
  C:3013H         LINE#         101
  C:3013H         LINE#         102
  C:3013H         LINE#         103
  C:3019H         LINE#         105
  C:301BH         LINE#         106
  C:301BH         LINE#         107
  C:301BH         LINE#         108
  C:3021H         LINE#         110
  C:3023H         LINE#         111
  C:3023H         LINE#         112
BL51 BANKED LINKER/LOCATER V6.22                                                      03/29/2019  13:49:34  PAGE 22


  C:3023H         LINE#         113
  C:3028H         LINE#         115
  C:3028H         LINE#         116
  C:3028H         LINE#         117
  C:3028H         LINE#         120
  C:302BH         LINE#         121
  C:302EH         LINE#         122
  C:3036H         LINE#         123
  C:303AH         LINE#         124
  C:303AH         LINE#         125
  C:3042H         LINE#         126
  C:3042H         LINE#         127
  C:3045H         LINE#         128
  C:304DH         LINE#         129
  C:304FH         LINE#         130
  C:3063H         LINE#         131
  C:3063H         LINE#         132
  C:3063H         LINE#         133
  C:3063H         LINE#         134
  C:3069H         LINE#         136
  C:306BH         LINE#         137
  C:306BH         LINE#         138
  C:306BH         LINE#         139
  C:3071H         LINE#         141
  C:3073H         LINE#         142
  C:3073H         LINE#         143
  C:3073H         LINE#         144
  C:3079H         LINE#         146
  C:307BH         LINE#         147
  C:307BH         LINE#         148
  C:307BH         LINE#         149
  C:3081H         LINE#         151
  C:3081H         LINE#         152
  C:3081H         LINE#         153
  C:3081H         LINE#         157
  C:3084H         LINE#         158
  C:3087H         LINE#         159
  C:308FH         LINE#         160
  C:3093H         LINE#         161
  C:3093H         LINE#         162
  C:309BH         LINE#         163
  C:309BH         LINE#         164
  C:309EH         LINE#         165
  C:30A6H         LINE#         166
  C:30A8H         LINE#         167
  C:30BCH         LINE#         168
  C:30BCH         LINE#         169
  C:30BCH         LINE#         170
  C:30BCH         LINE#         171
  C:30C2H         LINE#         173
  C:30C4H         LINE#         174
  C:30C4H         LINE#         175
  C:30C4H         LINE#         176
  C:30CAH         LINE#         178
  C:30CCH         LINE#         179
  C:30CCH         LINE#         180
  C:30CCH         LINE#         181
BL51 BANKED LINKER/LOCATER V6.22                                                      03/29/2019  13:49:34  PAGE 23


  C:30D2H         LINE#         183
  C:30D4H         LINE#         184
  C:30D4H         LINE#         185
  C:30D4H         LINE#         186
  C:30DAH         LINE#         188
  C:30DAH         LINE#         189
  C:30DAH         LINE#         190
  C:30DAH         LINE#         192
  C:30E0H         LINE#         193
  C:30E0H         LINE#         195
  C:30E0H         LINE#         196
  C:30E3H         LINE#         197
  C:30E3H         LINE#         198
  C:30E3H         LINE#         200
  C:30E3H         LINE#         201
  C:30E5H         LINE#         202
  C:30E5H         LINE#         203
  -------         ENDPROC       KEY_SCAN
  -------         PROC          KEY_PROCESS
  -------         DO            
  X:0534H         SYMBOL        KeyCount
  X:0536H         SYMBOL        KeyNum_Old
  X:0537H         SYMBOL        KeyNum
  X:0538H         SYMBOL        PressedKey
  X:0308H         SYMBOL        d
  D:0004H         SYMBOL        hours
  D:0006H         SYMBOL        mins
  X:030AH         SYMBOL        months
  X:030CH         SYMBOL        days
  -------         ENDDO         
  C:2933H         LINE#         204
  C:2933H         LINE#         205
  C:2933H         LINE#         209
  C:293BH         LINE#         210
  C:2943H         LINE#         212
  C:2946H         LINE#         213
  C:2946H         LINE#         214
  C:2949H         LINE#         216
  C:2949H         LINE#         217
  C:2956H         LINE#         218
  C:2956H         LINE#         219
  C:2959H         LINE#         220
  C:295CH         LINE#         222
  C:295FH         LINE#         224
  C:295FH         LINE#         225
  C:296AH         LINE#         226
  C:296AH         LINE#         227
  C:296DH         LINE#         229
  C:296DH         LINE#         230
  C:2974H         LINE#         231
  C:2974H         LINE#         232
  C:2977H         LINE#         234
  C:2977H         LINE#         235
  C:297FH         LINE#         236
  C:297FH         LINE#         237
  C:2989H         LINE#         238
  C:2991H         LINE#         240
BL51 BANKED LINKER/LOCATER V6.22                                                      03/29/2019  13:49:34  PAGE 24


  C:299AH         LINE#         242
  C:299AH         LINE#         251
  C:29AFH         LINE#         252
  C:29AFH         LINE#         253
  C:29C1H         LINE#         254
  C:29CFH         LINE#         255
  C:29DEH         LINE#         256
  C:29DEH         LINE#         258
  C:29E4H         LINE#         262
  C:29FAH         LINE#         263
  C:2A0BH         LINE#         264
  C:2A26H         LINE#         265
  C:2A26H         LINE#         266
  C:2A36H         LINE#         267
  C:2A47H         LINE#         268
  C:2A47H         LINE#         272
  C:2A60H         LINE#         273
  C:2A77H         LINE#         274
  C:2A97H         LINE#         275
  C:2A97H         LINE#         276
  C:2AA1H         LINE#         277
  C:2AA1H         LINE#         278
  C:2AAAH         LINE#         279
  C:2AAAH         LINE#         280
  C:2ABEH         LINE#         281
  C:2ABEH         LINE#         282
  C:2ABEH         LINE#         283
  C:2ABEH         LINE#         284
  C:2ABEH         LINE#         285
  C:2AC0H         LINE#         287
  C:2AC0H         LINE#         288
  C:2ACCH         LINE#         289
  C:2ACCH         LINE#         290
  C:2ADDH         LINE#         291
  C:2ADDH         LINE#         292
  C:2ADDH         LINE#         293
  C:2ADDH         LINE#         294
  C:2ADDH         LINE#         296
  C:2ADFH         LINE#         298
  C:2ADFH         LINE#         299
  C:2AF0H         LINE#         300
  C:2AF0H         LINE#         301
  C:2AF0H         LINE#         302
  C:2AF0H         LINE#         303
  C:2AF0H         LINE#         305
  C:2AF0H         LINE#         307
  C:2AF0H         LINE#         308
  C:2AF2H         LINE#         310
  C:2AF2H         LINE#         311
  C:2B05H         LINE#         312
  C:2B05H         LINE#         313
  C:2B16H         LINE#         314
  C:2B16H         LINE#         315
  C:2B16H         LINE#         316
  C:2B16H         LINE#         317
  C:2B16H         LINE#         318
  C:2B18H         LINE#         320
BL51 BANKED LINKER/LOCATER V6.22                                                      03/29/2019  13:49:34  PAGE 25


  C:2B18H         LINE#         321
  C:2B29H         LINE#         322
  C:2B29H         LINE#         323
  C:2B3AH         LINE#         324
  C:2B4BH         LINE#         325
  C:2B4BH         LINE#         326
  C:2B4BH         LINE#         327
  C:2B4BH         LINE#         328
  C:2B4BH         LINE#         329
  C:2B4EH         LINE#         330
  C:2B53H         LINE#         331
  C:2B58H         LINE#         332
  C:2B5DH         LINE#         333
  C:2B62H         LINE#         334
  C:2B67H         LINE#         335
  C:2B6CH         LINE#         336
  C:2B71H         LINE#         337
  C:2B71H         LINE#         339
  C:2B93H         LINE#         340
  C:2B93H         LINE#         341
  C:2B9DH         LINE#         342
  C:2B9DH         LINE#         343
  C:2BA2H         LINE#         344
  C:2BABH         LINE#         345
  C:2BC2H         LINE#         346
  C:2BC2H         LINE#         347
  C:2BD2H         LINE#         349
  C:2BD2H         LINE#         353
  -------         ENDPROC       KEY_PROCESS
  -------         PROC          KEYPAD_IO_INIT
  C:3E9FH         LINE#         356
  C:3E9FH         LINE#         357
  C:3E9FH         LINE#         358
  C:3EA2H         LINE#         359
  C:3EA5H         LINE#         360
  C:3EA8H         LINE#         361
  C:3EAAH         LINE#         362
  -------         ENDPROC       KEYPAD_IO_INIT
  -------         ENDMOD        KEYPAD

  -------         MODULE        VCNL4035
  C:0000H         SYMBOL        _ICE_DUMMY_
  D:0080H         PUBLIC        P0
  B:00B0H.2       PUBLIC        I2C_SCK
  D:00B2H         PUBLIC        P3M0
  D:0090H         PUBLIC        P1
  D:00B1H         PUBLIC        P3M1
  D:00A0H         PUBLIC        P2
  D:00B0H         PUBLIC        P3
  D:00C0H         PUBLIC        P4
  D:00C8H         PUBLIC        P5
  D:00E8H         PUBLIC        P6
  D:00F8H         PUBLIC        P7
  D:00A8H         PUBLIC        IE
  C:3ED1H         PUBLIC        _DisplayLCD_VCNL4035
  D:00B8H         PUBLIC        IP
  D:00D8H         PUBLIC        CCON
BL51 BANKED LINKER/LOCATER V6.22                                                      03/29/2019  13:49:34  PAGE 26


  C:3E2EH         PUBLIC        I2C_Start
  D:0098H         PUBLIC        SCON
  C:3DC5H         PUBLIC        I2C_Init
  D:0088H         PUBLIC        TCON
  C:3E74H         PUBLIC        uC_NACK
  C:3C3BH         PUBLIC        _Wait_ms_i2c
  C:3CA5H         PUBLIC        _I2C_SendByte
  C:3DF1H         PUBLIC        I2C_Stop
  C:3A87H         PUBLIC        _Write_VCNL4035X
  C:3EE1H         PUBLIC        nop
  C:3677H         PUBLIC        _Read_VCNL4035
  C:3ECBH         PUBLIC        uC_ACK
  C:3D65H         PUBLIC        I2C_ACK
  C:3D25H         PUBLIC        _Wait_ms_iic
  B:00B0H.1       PUBLIC        I2C_SDA
  D:00D0H         PUBLIC        PSW
  C:3C08H         PUBLIC        I2C_ReceiveByte
  -------         PROC          _WAIT_MS_IIC
  D:0006H         SYMBOL        ms
  -------         DO            
  D:0004H         SYMBOL        De_Cnt
  -------         ENDDO         
  C:3D25H         LINE#         5
  C:3D25H         LINE#         6
  C:3D25H         LINE#         8
  C:3D2FH         LINE#         9
  C:3D2FH         LINE#         10
  C:3D42H         LINE#         11
  C:3D42H         LINE#         12
  -------         ENDPROC       _WAIT_MS_IIC
  C:3C35H         SYMBOL        L?0048
  C:3C37H         SYMBOL        L?0049
  -------         PROC          L?0047
  -------         ENDPROC       L?0047
  C:3C35H         SYMBOL        L?0048
  C:3C37H         SYMBOL        L?0049
  -------         PROC          _WAIT_MS_I2C
  D:0006H         SYMBOL        ms
  -------         DO            
  D:0004H         SYMBOL        De_Cnt
  -------         ENDDO         
  C:3C3BH         LINE#         14
  C:3C3BH         LINE#         15
  C:3C3BH         LINE#         17
  C:3C45H         LINE#         18
  C:3C45H         LINE#         19
  C:3C58H         LINE#         20
  C:3C58H         LINE#         21
  -------         ENDPROC       _WAIT_MS_I2C
  -------         PROC          NOP
  C:3EE1H         LINE#         22
  C:3EE1H         LINE#         23
  C:3EE1H         LINE#         25
  -------         ENDPROC       NOP
  -------         PROC          I2C_START
  C:3E2EH         LINE#         26
  C:3E2EH         LINE#         27
BL51 BANKED LINKER/LOCATER V6.22                                                      03/29/2019  13:49:34  PAGE 27


  C:3E2EH         LINE#         29
  C:3E30H         LINE#         30
  C:3E32H         LINE#         31
  C:3E39H         LINE#         32
  C:3E3BH         LINE#         33
  C:3E3EH         LINE#         34
  C:3E40H         LINE#         37
  -------         ENDPROC       I2C_START
  -------         PROC          I2C_STOP
  C:3DF1H         LINE#         39
  C:3DF1H         LINE#         40
  C:3DF1H         LINE#         41
  C:3DF3H         LINE#         42
  C:3DF5H         LINE#         43
  C:3DF8H         LINE#         44
  C:3DFAH         LINE#         45
  C:3DFCH         LINE#         46
  C:3E03H         LINE#         47
  C:3E05H         LINE#         50
  -------         ENDPROC       I2C_STOP
  -------         PROC          L?0050
  -------         ENDPROC       L?0050
  -------         PROC          I2C_ACK
  -------         DO            
  X:0558H         SYMBOL        i
  D:0003H         SYMBOL        dat
  -------         ENDDO         
  C:3D65H         LINE#         52
  C:3D65H         LINE#         53
  C:3D65H         LINE#         55
  C:3D66H         LINE#         60
  C:3D69H         LINE#         61
  C:3D6BH         LINE#         62
  C:3D6EH         LINE#         64
  C:3D71H         LINE#         65
  C:3D71H         LINE#         66
  C:3D75H         LINE#         67
  C:3D75H         LINE#         70
  C:3D75H         LINE#         71
  C:3D78H         LINE#         72
  C:3D78H         LINE#         73
  C:3D7AH         LINE#         74
  -------         ENDPROC       I2C_ACK
  -------         PROC          UC_ACK
  -------         DO            
  X:0559H         SYMBOL        i
  -------         ENDDO         
  C:3ECBH         LINE#         75
  C:3ECBH         LINE#         76
  C:3ECBH         LINE#         78
  C:3ECBH         LINE#         85
  C:3ECBH         LINE#         87
  C:3ECBH         LINE#         89
  C:3ECBH         LINE#         90
  C:3ECBH         LINE#         93
  C:3ECEH         LINE#         94
  C:3ED0H         LINE#         95
BL51 BANKED LINKER/LOCATER V6.22                                                      03/29/2019  13:49:34  PAGE 28


  C:3ED0H         LINE#         99
  -------         ENDPROC       UC_ACK
  -------         PROC          UC_NACK
  -------         DO            
  X:055AH         SYMBOL        i
  -------         ENDDO         
  C:3E74H         LINE#         101
  C:3E74H         LINE#         102
  C:3E74H         LINE#         104
  C:3E74H         LINE#         108
  C:3E76H         LINE#         111
  C:3E76H         LINE#         112
  C:3E78H         LINE#         113
  C:3E78H         LINE#         115
  C:3E78H         LINE#         116
  C:3E78H         LINE#         119
  C:3E7BH         LINE#         120
  C:3E7DH         LINE#         121
  C:3E80H         LINE#         122
  C:3E82H         LINE#         123
  C:3E82H         LINE#         127
  -------         ENDPROC       UC_NACK
  -------         PROC          I2C_INIT
  C:3DC5H         LINE#         129
  C:3DC5H         LINE#         130
  C:3DC5H         LINE#         133
  C:3DC8H         LINE#         134
  C:3DCBH         LINE#         139
  C:3DD3H         LINE#         141
  -------         ENDPROC       I2C_INIT
  -------         PROC          _I2C_SENDBYTE
  D:0001H         SYMBOL        dat
  -------         DO            
  D:0003H         SYMBOL        i
  -------         ENDDO         
  C:3CA5H         LINE#         145
  C:3CA7H         LINE#         146
  C:3CA7H         LINE#         149
  C:3CA9H         LINE#         150
  C:3CA9H         LINE#         151
  C:3CABH         LINE#         153
  C:3CAFH         LINE#         154
  C:3CAFH         LINE#         155
  C:3CB1H         LINE#         156
  C:3CB3H         LINE#         158
  C:3CB3H         LINE#         159
  C:3CB5H         LINE#         160
  C:3CB5H         LINE#         161
  C:3CB8H         LINE#         162
  C:3CBAH         LINE#         164
  C:3CBEH         LINE#         165
  C:3CC1H         LINE#         166
  C:3CC6H         LINE#         167
  -------         ENDPROC       _I2C_SENDBYTE
  -------         PROC          L?0051
  -------         ENDPROC       L?0051
  -------         PROC          I2C_RECEIVEBYTE
BL51 BANKED LINKER/LOCATER V6.22                                                      03/29/2019  13:49:34  PAGE 29


  -------         DO            
  D:0003H         SYMBOL        i
  D:0001H         SYMBOL        dat
  -------         ENDDO         
  C:3C08H         LINE#         171
  C:3C08H         LINE#         172
  C:3C08H         LINE#         174
  C:3C0AH         LINE#         178
  C:3C0BH         LINE#         179
  C:3C0BH         LINE#         180
  C:3C0FH         LINE#         181
  C:3C11H         LINE#         182
  C:3C14H         LINE#         184
  C:3C17H         LINE#         185
  C:3C17H         LINE#         186
  C:3C1BH         LINE#         187
  C:3C1BH         LINE#         188
  C:3C1BH         LINE#         189
  C:3C1EH         LINE#         190
  C:3C22H         LINE#         191
  C:3C22H         LINE#         192
  C:3C24H         LINE#         193
  C:3C26H         LINE#         194
  C:3C26H         LINE#         196
  C:3C2BH         LINE#         197
  C:3C2DH         LINE#         198
  -------         ENDPROC       I2C_RECEIVEBYTE
  -------         PROC          _WRITE_VCNL4035X
  X:0555H         SYMBOL        command_code
  X:0556H         SYMBOL        dat_h
  X:0557H         SYMBOL        dat_l
  C:3A87H         LINE#         199
  C:3A92H         LINE#         200
  C:3A92H         LINE#         201
  C:3A95H         LINE#         202
  C:3A9CH         LINE#         203
  C:3A9CH         LINE#         204
  C:3AA2H         LINE#         205
  C:3AA2H         LINE#         206
  C:3AAAH         LINE#         207
  C:3AAAH         LINE#         208
  C:3AB0H         LINE#         209
  C:3AB8H         LINE#         211
  C:3ABEH         LINE#         212
  C:3AC6H         LINE#         214
  C:3ACCH         LINE#         215
  C:3ACFH         LINE#         216
  -------         ENDPROC       _WRITE_VCNL4035X
  -------         PROC          _READ_VCNL4035
  X:053DH         SYMBOL        command_code
  -------         DO            
  X:053FH         SYMBOL        temp_dat
  X:0541H         SYMBOL        temp_dat_l
  X:0543H         SYMBOL        temp_dat_h
  -------         ENDDO         
  C:3677H         LINE#         218
  C:367FH         LINE#         219
BL51 BANKED LINKER/LOCATER V6.22                                                      03/29/2019  13:49:34  PAGE 30


  C:367FH         LINE#         220
  C:368CH         LINE#         222
  C:368FH         LINE#         223
  C:3692H         LINE#         224
  C:3697H         LINE#         226
  C:369DH         LINE#         227
  C:369DH         LINE#         228
  C:369DH         LINE#         229
  C:369DH         LINE#         230
  C:36A8H         LINE#         231
  C:36ABH         LINE#         232
  C:36AEH         LINE#         233
  C:36AEH         LINE#         236
  C:36B1H         LINE#         238
  C:36B8H         LINE#         239
  C:36B8H         LINE#         240
  C:36B8H         LINE#         241
  C:36C3H         LINE#         242
  C:36C6H         LINE#         243
  C:36C9H         LINE#         244
  C:36CCH         LINE#         245
  C:36CFH         LINE#         246
  C:36D2H         LINE#         247
  C:36D5H         LINE#         248
  C:36D8H         LINE#         249
  C:36DBH         LINE#         250
  C:36DBH         LINE#         251
  C:36E1H         LINE#         252
  C:36E1H         LINE#         253
  C:36EAH         LINE#         255
  C:36EAH         LINE#         256
  C:36F0H         LINE#         257
  C:36F0H         LINE#         259
  C:36F2H         LINE#         260
  C:36F8H         LINE#         261
  C:36FBH         LINE#         262
  C:3702H         LINE#         263
  C:3702H         LINE#         264
  C:3710H         LINE#         265
  -------         ENDPROC       _READ_VCNL4035
  -------         PROC          _DISPLAYLCD_VCNL4035
  X:055BH         SYMBOL        dat
  C:3ED1H         LINE#         267
  C:3ED6H         LINE#         268
  C:3ED6H         LINE#         270
  -------         ENDPROC       _DISPLAYLCD_VCNL4035
  -------         ENDMOD        VCNL4035

  -------         MODULE        BIPOLARMOTOR
  C:0000H         SYMBOL        _ICE_DUMMY_
  D:0080H         PUBLIC        P0
  D:0090H         PUBLIC        P1
  D:00A0H         PUBLIC        P2
  D:00B0H         PUBLIC        P3
  D:00C0H         PUBLIC        P4
  D:00C8H         PUBLIC        P5
  D:00E8H         PUBLIC        P6
BL51 BANKED LINKER/LOCATER V6.22                                                      03/29/2019  13:49:34  PAGE 31


  D:00F8H         PUBLIC        P7
  X:0000H         PUBLIC        low_date_azimuth_mapping
  D:00A8H         PUBLIC        IE
  C:348EH         PUBLIC        linear_interpolate
  C:3C59H         PUBLIC        _Move
  D:00B8H         PUBLIC        IP
  C:2C06H         PUBLIC        _findDet3x3
  C:2673H         PUBLIC        _findDet4x4
  D:00D8H         PUBLIC        CCON
  X:0028H         PUBLIC        previous_move_time
  D:0098H         PUBLIC        SCON
  D:0088H         PUBLIC        TCON
  C:3EE2H         PUBLIC        wait
  C:3B54H         PUBLIC        _Step_move
  X:0029H         PUBLIC        dat
  C:000EH         PUBLIC        _Update_position
  C:39F3H         PUBLIC        vOneStepMove
  X:002FH         PUBLIC        elevation_stamp
  X:005BH         PUBLIC        date_azimuth_mapping
  X:0083H         PUBLIC        elevation_stamp_extra
  X:0093H         PUBLIC        RX_pos
  X:024BH         PUBLIC        RX_pos_extra
  C:3D85H         PUBLIC        _BCDtoDec1
  X:02EBH         PUBLIC        degree
  D:00D0H         PUBLIC        PSW
  -------         PROC          L?0058
  -------         ENDPROC       L?0058
  -------         PROC          _BCDTODEC1
  D:0007H         SYMBOL        bcd
  -------         DO            
  D:0006H         SYMBOL        hi
  D:0007H         SYMBOL        lo
  -------         ENDDO         
  C:3D85H         LINE#         29
  C:3D85H         LINE#         30
  C:3D85H         LINE#         32
  C:3D8AH         LINE#         33
  C:3D8EH         LINE#         34
  C:3D95H         LINE#         35
  -------         ENDPROC       _BCDTODEC1
  -------         PROC          WAIT
  C:3EE2H         LINE#         37
  C:3EE2H         LINE#         39
  -------         ENDPROC       WAIT
  -------         PROC          VONESTEPMOVE
  B:0020H.6       SYMBOL        bDir
  C:39F3H         LINE#         41
  C:39F3H         LINE#         42
  C:39F3H         LINE#         44
  C:39F9H         LINE#         45
  C:39F9H         LINE#         46
  C:39FCH         LINE#         47
  C:3A05H         LINE#         48
  C:3A0CH         LINE#         49
  C:3A11H         LINE#         50
  C:3A11H         LINE#         51
  C:3A11H         LINE#         53
BL51 BANKED LINKER/LOCATER V6.22                                                      03/29/2019  13:49:34  PAGE 32


  C:3A13H         LINE#         56
  C:3A13H         LINE#         57
  C:3A16H         LINE#         58
  C:3A1FH         LINE#         59
  C:3A26H         LINE#         60
  C:3A2CH         LINE#         61
  C:3A35H         LINE#         62
  C:3A3CH         LINE#         63
  C:3A3CH         LINE#         67
  -------         ENDPROC       VONESTEPMOVE
  -------         PROC          _STEP_MOVE
  X:0308H         SYMBOL        step
  B:0020H.5       SYMBOL        dir
  -------         DO            
  X:030AH         SYMBOL        i
  -------         ENDDO         
  C:3B54H         LINE#         69
  C:3B5CH         LINE#         70
  C:3B5CH         LINE#         72
  C:3B61H         LINE#         75
  C:3B7CH         LINE#         76
  C:3B7CH         LINE#         77
  C:3B83H         LINE#         79
  C:3B93H         LINE#         81
  -------         ENDPROC       _STEP_MOVE
  -------         PROC          _MOVE
  X:054EH         SYMBOL        distance
  B:0021H.0       SYMBOL        direction
  -------         DO            
  D:0006H         SYMBOL        step
  -------         ENDDO         
  C:3C59H         LINE#         83
  C:3C5FH         LINE#         84
  C:3C5FH         LINE#         87
  C:3C7AH         LINE#         88
  -------         ENDPROC       _MOVE
  C:2BE7H         SYMBOL        L?0054
  C:2BFBH         SYMBOL        L?0055
  -------         PROC          L?0053
  -------         ENDPROC       L?0053
  C:2BE7H         SYMBOL        L?0054
  C:2BFBH         SYMBOL        L?0055
  -------         PROC          _FINDDET3X3
  X:0510H         SYMBOL        a11
  X:0514H         SYMBOL        a12
  X:0518H         SYMBOL        a13
  X:051CH         SYMBOL        a21
  X:0520H         SYMBOL        a22
  X:0524H         SYMBOL        a23
  X:0528H         SYMBOL        a31
  X:052CH         SYMBOL        a32
  X:0530H         SYMBOL        a33
  C:2C06H         LINE#         92
  C:2C0CH         LINE#         96
  C:2C0CH         LINE#         97
  C:2DA3H         LINE#         99
  -------         ENDPROC       _FINDDET3X3
BL51 BANKED LINKER/LOCATER V6.22                                                      03/29/2019  13:49:34  PAGE 33


  -------         PROC          _FINDDET4X4
  X:04D0H         SYMBOL        a11
  X:04D4H         SYMBOL        a12
  X:04D8H         SYMBOL        a13
  X:04DCH         SYMBOL        a14
  X:04E0H         SYMBOL        a21
  X:04E4H         SYMBOL        a22
  X:04E8H         SYMBOL        a23
  X:04ECH         SYMBOL        a24
  X:04F0H         SYMBOL        a31
  X:04F4H         SYMBOL        a32
  X:04F8H         SYMBOL        a33
  X:04FCH         SYMBOL        a34
  X:0500H         SYMBOL        a41
  X:0504H         SYMBOL        a42
  X:0508H         SYMBOL        a43
  X:050CH         SYMBOL        a44
  C:2673H         LINE#         100
  C:2679H         LINE#         104
  C:2679H         LINE#         111
  C:2932H         LINE#         115
  -------         ENDPROC       _FINDDET4X4
  C:347DH         SYMBOL        L?0057
  -------         PROC          L?0056
  -------         ENDPROC       L?0056
  C:347DH         SYMBOL        L?0057
  -------         PROC          LINEAR_INTERPOLATE
  X:0393H         SYMBOL        p1
  X:039BH         SYMBOL        p2
  X:03A3H         SYMBOL        x
  -------         DO            
  D:0004H         SYMBOL        fx
  -------         ENDDO         
  C:348EH         LINE#         121
  C:348EH         LINE#         122
  C:348EH         LINE#         125
  C:352DH         LINE#         127
  C:352DH         LINE#         128
  -------         ENDPROC       LINEAR_INTERPOLATE
  -------         PROC          _UPDATE_POSITION
  D:0001H         SYMBOL        mnths
  D:0002H         SYMBOL        dys
  X:030AH         SYMBOL        hurs
  X:030BH         SYMBOL        mns
  X:030CH         SYMBOL        sconds
  X:030DH         SYMBOL        currnt_pos
  X:0310H         SYMBOL        offset_calib
  -------         DO            
  X:0314H         SYMBOL        date
  X:0316H         SYMBOL        i
  X:0318H         SYMBOL        yy
  X:031AH         SYMBOL        desired_distance
  X:031EH         SYMBOL        distance
  X:0322H         SYMBOL        JP_pos
  X:0326H         SYMBOL        pos_interpolate_azimuth
  X:034EH         SYMBOL        current_local_sun_time
  X:0352H         SYMBOL        azimuth
BL51 BANKED LINKER/LOCATER V6.22                                                      03/29/2019  13:49:34  PAGE 34


  X:0356H         SYMBOL        elevation
  X:035AH         SYMBOL        time_offset
  X:035EH         SYMBOL        UTC_time
  X:0362H         SYMBOL        declination
  X:0366H         SYMBOL        p1
  X:036EH         SYMBOL        p2
  X:0376H         SYMBOL        time
  X:0388H         SYMBOL        location
  X:0390H         SYMBOL        sunCoord
  -------         ENDDO         
  C:000EH         LINE#         132
  C:0017H         LINE#         135
  C:0017H         LINE#         136
  C:0022H         LINE#         138
  C:003EH         LINE#         139
  C:0048H         LINE#         147
  C:0052H         LINE#         148
  C:005CH         LINE#         149
  C:0066H         LINE#         150
  C:0071H         LINE#         151
  C:007CH         LINE#         152
  C:0095H         LINE#         153
  C:00A6H         LINE#         154
  C:00B5H         LINE#         157
  C:00C9H         LINE#         161
  C:011BH         LINE#         162
  C:027FH         LINE#         163
  C:02CFH         LINE#         165
  C:03F7H         LINE#         167
  C:04C6H         LINE#         174
  C:04D0H         LINE#         175
  C:04D0H         LINE#         179
  C:04EAH         LINE#         180
  C:04EAH         LINE#         181
  C:055AH         LINE#         182
  C:055AH         LINE#         183
  C:0561H         LINE#         184
  C:0561H         LINE#         185
  C:058EH         LINE#         186
  C:05A9H         LINE#         188
  C:05F0H         LINE#         189
  C:0624H         LINE#         191
  C:066AH         LINE#         192
  C:068DH         LINE#         194
  C:068DH         LINE#         196
  C:0703H         LINE#         197
  C:0703H         LINE#         198
  C:070AH         LINE#         199
  C:070AH         LINE#         200
  C:0737H         LINE#         201
  C:0752H         LINE#         203
  C:0799H         LINE#         204
  C:07CDH         LINE#         206
  C:0813H         LINE#         207
  C:0833H         LINE#         209
  C:0833H         LINE#         210
  C:0844H         LINE#         213
BL51 BANKED LINKER/LOCATER V6.22                                                      03/29/2019  13:49:34  PAGE 35


  C:085EH         LINE#         214
  C:085EH         LINE#         215
  C:08CEH         LINE#         216
  C:08CEH         LINE#         217
  C:08FBH         LINE#         218
  C:0916H         LINE#         220
  C:0943H         LINE#         221
  C:095EH         LINE#         223
  C:0990H         LINE#         226
  C:0990H         LINE#         228
  C:09A1H         LINE#         233
  C:09D0H         LINE#         236
  C:09F5H         LINE#         237
  C:0A54H         LINE#         238
  C:0A54H         LINE#         244
  C:0A70H         LINE#         245
  C:0A70H         LINE#         246
  C:0A70H         LINE#         249
  -------         ENDPROC       _UPDATE_POSITION
  -------         ENDMOD        BIPOLARMOTOR

  -------         MODULE        SUNPOS
  C:0000H         SYMBOL        _ICE_DUMMY_
  C:1B7CH         PUBLIC        sunpos
  -------         PROC          SUNPOS
  X:0393H         SYMBOL        udtTime
  X:03A5H         SYMBOL        udtLocation
  X:03ADH         SYMBOL        udtSunCoordinates
  -------         DO            
  X:03B0H         SYMBOL        dElapsedJulianDays
  X:03B4H         SYMBOL        dDecimalHours
  X:03B8H         SYMBOL        dEclipticLongitude
  X:03BCH         SYMBOL        dEclipticObliquity
  X:03C0H         SYMBOL        dRightAscension
  X:03C4H         SYMBOL        dDeclination
  X:03C8H         SYMBOL        dY
  X:03CCH         SYMBOL        dX
  -------         DO            
  X:03D0H         SYMBOL        dJulianDate
  X:03D4H         SYMBOL        liAux1
  X:03D8H         SYMBOL        liAux2
  X:03D0H         SYMBOL        dMeanLongitude
  X:03D4H         SYMBOL        dMeanAnomaly
  X:03D8H         SYMBOL        dOmega
  X:03D0H         SYMBOL        dSin_EclipticLongitude
  X:03D0H         SYMBOL        dGreenwichMeanSiderealTime
  X:03D4H         SYMBOL        dLocalMeanSiderealTime
  X:03D8H         SYMBOL        dLatitudeInRadians
  X:03DCH         SYMBOL        dHourAngle
  X:03E0H         SYMBOL        dCos_Latitude
  X:03E4H         SYMBOL        dSin_Latitude
  X:03E8H         SYMBOL        dCos_HourAngle
  X:03ECH         SYMBOL        dParallax
  -------         ENDDO         
  -------         DO            
  X:03D0H         SYMBOL        dMeanLongitude
  X:03D4H         SYMBOL        dMeanAnomaly
BL51 BANKED LINKER/LOCATER V6.22                                                      03/29/2019  13:49:34  PAGE 36


  X:03D8H         SYMBOL        dOmega
  X:03D0H         SYMBOL        dSin_EclipticLongitude
  X:03D0H         SYMBOL        dGreenwichMeanSiderealTime
  X:03D4H         SYMBOL        dLocalMeanSiderealTime
  X:03D8H         SYMBOL        dLatitudeInRadians
  X:03DCH         SYMBOL        dHourAngle
  X:03E0H         SYMBOL        dCos_Latitude
  X:03E4H         SYMBOL        dSin_Latitude
  X:03E8H         SYMBOL        dCos_HourAngle
  X:03ECH         SYMBOL        dParallax
  -------         ENDDO         
  -------         DO            
  X:03D0H         SYMBOL        dSin_EclipticLongitude
  X:03D0H         SYMBOL        dGreenwichMeanSiderealTime
  X:03D4H         SYMBOL        dLocalMeanSiderealTime
  X:03D8H         SYMBOL        dLatitudeInRadians
  X:03DCH         SYMBOL        dHourAngle
  X:03E0H         SYMBOL        dCos_Latitude
  X:03E4H         SYMBOL        dSin_Latitude
  X:03E8H         SYMBOL        dCos_HourAngle
  X:03ECH         SYMBOL        dParallax
  -------         ENDDO         
  -------         DO            
  X:03D0H         SYMBOL        dGreenwichMeanSiderealTime
  X:03D4H         SYMBOL        dLocalMeanSiderealTime
  X:03D8H         SYMBOL        dLatitudeInRadians
  X:03DCH         SYMBOL        dHourAngle
  X:03E0H         SYMBOL        dCos_Latitude
  X:03E4H         SYMBOL        dSin_Latitude
  X:03E8H         SYMBOL        dCos_HourAngle
  X:03ECH         SYMBOL        dParallax
  -------         ENDDO         
  -------         ENDDO         
  C:1B7CH         LINE#         6
  C:1B7CH         LINE#         7
  C:1B7CH         LINE#         9
  C:1B7CH         LINE#         27
  C:1BC6H         LINE#         30
  C:1BE7H         LINE#         31
  C:1D2EH         LINE#         34
  C:1D7AH         LINE#         36
  C:1D99H         LINE#         37
  C:1D99H         LINE#         42
  C:1D99H         LINE#         46
  C:1DCBH         LINE#         47
  C:1DF5H         LINE#         48
  C:1E1FH         LINE#         49
  C:1ECCH         LINE#         52
  C:1F2DH         LINE#         54
  C:1F2DH         LINE#         59
  C:1F2DH         LINE#         61
  C:1F44H         LINE#         62
  C:1F6CH         LINE#         63
  C:1F83H         LINE#         64
  C:1FAEH         LINE#         65
  C:1FE5H         LINE#         66
  C:2010H         LINE#         67
BL51 BANKED LINKER/LOCATER V6.22                                                      03/29/2019  13:49:34  PAGE 37


  C:2010H         LINE#         70
  C:2010H         LINE#         79
  C:204BH         LINE#         82
  C:2085H         LINE#         84
  C:20AAH         LINE#         85
  C:20C9H         LINE#         86
  C:20E0H         LINE#         87
  C:20F7H         LINE#         88
  C:210EH         LINE#         89
  C:2197H         LINE#         91
  C:21B1H         LINE#         92
  C:2213H         LINE#         93
  C:2249H         LINE#         94
  C:225BH         LINE#         95
  C:2288H         LINE#         96
  C:22B5H         LINE#         98
  C:22D7H         LINE#         100
  C:230FH         LINE#         103
  C:230FH         LINE#         104
  C:231DH         LINE#         105
  -------         ENDPROC       SUNPOS
  -------         ENDMOD        SUNPOS

  -------         MODULE        ?C_STARTUP
  C:37A6H         SEGMENT       ?C_C51STARTUP
  I:0022H         SEGMENT       ?STACK
  C:0000H         PUBLIC        ?C_STARTUP
  D:00E0H         SYMBOL        ACC
  D:00F0H         SYMBOL        B
  D:0083H         SYMBOL        DPH
  D:0082H         SYMBOL        DPL
  N:0000H         SYMBOL        IBPSTACK
  N:0100H         SYMBOL        IBPSTACKTOP
  N:0080H         SYMBOL        IDATALEN
  C:37A9H         SYMBOL        IDATALOOP
  N:0000H         SYMBOL        PBPSTACK
  N:0100H         SYMBOL        PBPSTACKTOP
  N:0000H         SYMBOL        PDATALEN
  N:0000H         SYMBOL        PDATASTART
  N:0000H         SYMBOL        PPAGE
  N:0000H         SYMBOL        PPAGEENABLE
  D:00A0H         SYMBOL        PPAGE_SFR
  D:0081H         SYMBOL        SP
  C:37A6H         SYMBOL        STARTUP1
  N:0000H         SYMBOL        XBPSTACK
  N:0000H         SYMBOL        XBPSTACKTOP
  N:0000H         SYMBOL        XDATALEN
  N:0000H         SYMBOL        XDATASTART
  C:0000H         LINE#         126
  C:37A6H         LINE#         133
  C:37A8H         LINE#         134
  C:37A9H         LINE#         135
  C:37AAH         LINE#         136
  C:37ACH         LINE#         185
  C:37AFH         LINE#         196
  -------         ENDMOD        ?C_STARTUP

BL51 BANKED LINKER/LOCATER V6.22                                                      03/29/2019  13:49:34  PAGE 38


  -------         MODULE        ?C?FPADD
  C:0A78H         PUBLIC        ?C?FPADD
  C:0A74H         PUBLIC        ?C?FPSUB
  -------         ENDMOD        ?C?FPADD

  -------         MODULE        ?C?FPMUL
  C:0B69H         PUBLIC        ?C?FPMUL
  -------         ENDMOD        ?C?FPMUL

  -------         MODULE        ?C?FPDIV
  C:0C72H         PUBLIC        ?C?FPDIV
  -------         ENDMOD        ?C?FPDIV

  -------         MODULE        ?C?FPCMP
  C:0D11H         PUBLIC        ?C?FPCMP
  C:0D0FH         PUBLIC        ?C?FPCMP3
  -------         ENDMOD        ?C?FPCMP

  -------         MODULE        ?C?FPNEG
  C:0D88H         PUBLIC        ?C?FPNEG
  -------         ENDMOD        ?C?FPNEG

  -------         MODULE        ?C?FCAST
  C:0DA3H         PUBLIC        ?C?FCASTC
  C:0D9EH         PUBLIC        ?C?FCASTI
  C:0D99H         PUBLIC        ?C?FCASTL
  -------         ENDMOD        ?C?FCAST

  -------         MODULE        ?C?CASTF
  C:0DD7H         PUBLIC        ?C?CASTF
  -------         ENDMOD        ?C?CASTF

  -------         MODULE        ATAN2
  X:03F0H         PUBLIC        ?_atan2?BYTE
  C:35DAH         PUBLIC        _atan2
  -------         ENDMOD        ATAN2

  -------         MODULE        SIN
  C:312EH         PUBLIC        _COS
  C:3144H         PUBLIC        _SIN
  C:3180H         PUBLIC        _TAN
  -------         ENDMOD        SIN

  -------         MODULE        ACOS
  C:3A3DH         PUBLIC        _ACOS
  -------         ENDMOD        ACOS

  -------         MODULE        ASIN
  C:3B94H         PUBLIC        _ASIN
  -------         ENDMOD        ASIN

  -------         MODULE        SQRT
  C:3532H         PUBLIC        _SQRT
  -------         ENDMOD        SQRT

  -------         MODULE        ATAN
  C:328EH         PUBLIC        _ATAN
BL51 BANKED LINKER/LOCATER V6.22                                                      03/29/2019  13:49:34  PAGE 39


  -------         ENDMOD        ATAN

  -------         MODULE        ?C?COPY
  C:0F75H         PUBLIC        ?C?COPY
  -------         ENDMOD        ?C?COPY

  -------         MODULE        ?C?CLDPTR
  C:0F9BH         PUBLIC        ?C?CLDPTR
  -------         ENDMOD        ?C?CLDPTR

  -------         MODULE        ?C?CSTPTR
  C:0FB4H         PUBLIC        ?C?CSTPTR
  -------         ENDMOD        ?C?CSTPTR

  -------         MODULE        ?C?IMUL
  C:0FC6H         PUBLIC        ?C?IMUL
  -------         ENDMOD        ?C?IMUL

  -------         MODULE        ?C?UIDIV
  C:0FD8H         PUBLIC        ?C?UIDIV
  -------         ENDMOD        ?C?UIDIV

  -------         MODULE        ?C?SIDIV
  C:102DH         PUBLIC        ?C?SIDIV
  -------         ENDMOD        ?C?SIDIV

  -------         MODULE        ?C?ILDIX
  C:1063H         PUBLIC        ?C?ILDIX
  -------         ENDMOD        ?C?ILDIX

  -------         MODULE        ?C?LMUL
  C:1079H         PUBLIC        ?C?LMUL
  -------         ENDMOD        ?C?LMUL

  -------         MODULE        ?C?SLDIV
  C:3AD0H         PUBLIC        ?C?SLDIV
  -------         ENDMOD        ?C?SLDIV

  -------         MODULE        ?C?LNEG
  C:10C8H         PUBLIC        ?C?LNEG
  -------         ENDMOD        ?C?LNEG

  -------         MODULE        ?C?LLDPTR
  C:10D6H         PUBLIC        ?C?LLDPTR
  -------         ENDMOD        ?C?LLDPTR

  -------         MODULE        ?C?LLDOPTR
  C:10F6H         PUBLIC        ?C?LLDOPTR
  -------         ENDMOD        ?C?LLDOPTR

  -------         MODULE        ?C?LSTPTR
  C:1126H         PUBLIC        ?C?LSTPTR
  -------         ENDMOD        ?C?LSTPTR

  -------         MODULE        ?C?LSTOPTR
  C:1140H         PUBLIC        ?C?LSTOPTR
  -------         ENDMOD        ?C?LSTOPTR
BL51 BANKED LINKER/LOCATER V6.22                                                      03/29/2019  13:49:34  PAGE 40



  -------         MODULE        ?C?LLDXDATA
  C:1164H         PUBLIC        ?C?LLDXDATA
  -------         ENDMOD        ?C?LLDXDATA

  -------         MODULE        ?C?LLDCODE
  C:1170H         PUBLIC        ?C?LLDCODE
  -------         ENDMOD        ?C?LLDCODE

  -------         MODULE        ?C?LLDXDATA0
  C:1180H         PUBLIC        ?C?LLDXDATA0
  -------         ENDMOD        ?C?LLDXDATA0

  -------         MODULE        ?C?LLDCODE0
  C:118CH         PUBLIC        ?C?LLDCODE0
  -------         ENDMOD        ?C?LLDCODE0

  -------         MODULE        ?C?LLDPTR0
  C:119CH         PUBLIC        ?C?LLDPTR0
  -------         ENDMOD        ?C?LLDPTR0

  -------         MODULE        ?C?LSTXDATA
  C:11BCH         PUBLIC        ?C?LSTXDATA
  -------         ENDMOD        ?C?LSTXDATA

  -------         MODULE        ?C?LSTKXDATA
  C:11C8H         PUBLIC        ?C?LSTKXDATA
  -------         ENDMOD        ?C?LSTKXDATA

  -------         MODULE        ?C?OFFXADD
  C:11F9H         PUBLIC        ?C?OFFXADD
  -------         ENDMOD        ?C?OFFXADD

  -------         MODULE        ABS
  C:3EABH         PUBLIC        _ABS
  -------         ENDMOD        ABS

  -------         MODULE        ATOI
  C:3390H         PUBLIC        _atoi
  -------         ENDMOD        ATOI

  -------         MODULE        ?C?IILDX
  C:1205H         PUBLIC        ?C?IILDX
  -------         ENDMOD        ?C?IILDX

  -------         MODULE        ?C?ULDIV
  C:1257H         PUBLIC        ?C?ULDIV
  -------         ENDMOD        ?C?ULDIV

  -------         MODULE        ?C?LLDIDATA
  C:12E9H         PUBLIC        ?C?LLDIDATA
  -------         ENDMOD        ?C?LLDIDATA

  -------         MODULE        ?C?LLDPDATA
  C:12F5H         PUBLIC        ?C?LLDPDATA
  -------         ENDMOD        ?C?LLDPDATA

BL51 BANKED LINKER/LOCATER V6.22                                                      03/29/2019  13:49:34  PAGE 41


  -------         MODULE        ?C?LLDIDATA0
  C:1301H         PUBLIC        ?C?LLDIDATA0
  -------         ENDMOD        ?C?LLDIDATA0

  -------         MODULE        ?C?LLDPDATA0
  C:130EH         PUBLIC        ?C?LLDPDATA0
  -------         ENDMOD        ?C?LLDPDATA0

  -------         MODULE        ?C?LSTIDATA
  C:131BH         PUBLIC        ?C?LSTIDATA
  -------         ENDMOD        ?C?LSTIDATA

  -------         MODULE        ?C?LSTPDATA
  C:1327H         PUBLIC        ?C?LSTPDATA
  -------         ENDMOD        ?C?LSTPDATA

  -------         MODULE        ISDIGIT
  C:3E83H         PUBLIC        _isdigit
  -------         ENDMOD        ISDIGIT

  -------         MODULE        ISSPACE
  C:3E1AH         PUBLIC        _isspace
  -------         ENDMOD        ISSPACE

*** WARNING L16: UNCALLED SEGMENT, IGNORED FOR OVERLAY PROCESS
    SEGMENT: ?PR?_DISPLAY_PROX?MAIN

*** WARNING L16: UNCALLED SEGMENT, IGNORED FOR OVERLAY PROCESS
    SEGMENT: ?PR?_DAY_OF_YEAR?PCF85063BTL

*** WARNING L16: UNCALLED SEGMENT, IGNORED FOR OVERLAY PROCESS
    SEGMENT: ?PR?INITUART1?UART1

*** WARNING L16: UNCALLED SEGMENT, IGNORED FOR OVERLAY PROCESS
    SEGMENT: ?PR?_SENDSTRING?UART1

*** WARNING L16: UNCALLED SEGMENT, IGNORED FOR OVERLAY PROCESS
    SEGMENT: ?PR?_TEN?UART1

*** WARNING L16: UNCALLED SEGMENT, IGNORED FOR OVERLAY PROCESS
    SEGMENT: ?PR?_UNIT?UART1

*** WARNING L16: UNCALLED SEGMENT, IGNORED FOR OVERLAY PROCESS
    SEGMENT: ?PR?_DECTOBCD?UART1

*** WARNING L16: UNCALLED SEGMENT, IGNORED FOR OVERLAY PROCESS
    SEGMENT: ?PR?_ASCII_LETTER?UART1

*** WARNING L16: UNCALLED SEGMENT, IGNORED FOR OVERLAY PROCESS
    SEGMENT: ?PR?_ASCIITOBCD?UART1

*** WARNING L16: UNCALLED SEGMENT, IGNORED FOR OVERLAY PROCESS
    SEGMENT: ?PR?NOP?VCNL4035

*** WARNING L16: UNCALLED SEGMENT, IGNORED FOR OVERLAY PROCESS
    SEGMENT: ?PR?I2C_INIT?VCNL4035

BL51 BANKED LINKER/LOCATER V6.22                                                      03/29/2019  13:49:34  PAGE 42


*** WARNING L16: UNCALLED SEGMENT, IGNORED FOR OVERLAY PROCESS
    SEGMENT: ?PR?_READ_VCNL4035?VCNL4035

*** WARNING L16: UNCALLED SEGMENT, IGNORED FOR OVERLAY PROCESS
    SEGMENT: ?PR?_DISPLAYLCD_VCNL4035?VCNL4035

*** WARNING L16: UNCALLED SEGMENT, IGNORED FOR OVERLAY PROCESS
    SEGMENT: ?PR?WAIT?BIPOLARMOTOR

*** WARNING L16: UNCALLED SEGMENT, IGNORED FOR OVERLAY PROCESS
    SEGMENT: ?PR?_MOVE?BIPOLARMOTOR

*** WARNING L16: UNCALLED SEGMENT, IGNORED FOR OVERLAY PROCESS
    SEGMENT: ?PR?_FINDDET4X4?BIPOLARMOTOR

*** WARNING L1: UNRESOLVED EXTERNAL SYMBOL
    SYMBOL:  _CALIBRATION
    MODULE:  .\Obj\main.obj (MAIN)

*** WARNING L1: UNRESOLVED EXTERNAL SYMBOL
    SYMBOL:  ?_CALIBRATION?BYTE
    MODULE:  .\Obj\main.obj (MAIN)

*** WARNING L1: UNRESOLVED EXTERNAL SYMBOL
    SYMBOL:  ADC_INIT
    MODULE:  .\Obj\main.obj (MAIN)

*** WARNING L1: UNRESOLVED EXTERNAL SYMBOL
    SYMBOL:  AUTO_MODE
    MODULE:  .\Obj\main.obj (MAIN)

*** WARNING L2: REFERENCE MADE TO UNRESOLVED EXTERNAL
    SYMBOL:  AUTO_MODE
    MODULE:  .\Obj\main.obj (MAIN)
    ADDRESS: 134DH

*** WARNING L2: REFERENCE MADE TO UNRESOLVED EXTERNAL
    SYMBOL:  ADC_INIT
    MODULE:  .\Obj\main.obj (MAIN)
    ADDRESS: 1364H

*** WARNING L2: REFERENCE MADE TO UNRESOLVED EXTERNAL
    SYMBOL:  AUTO_MODE
    MODULE:  .\Obj\main.obj (MAIN)
    ADDRESS: 14B8H

*** WARNING L2: REFERENCE MADE TO UNRESOLVED EXTERNAL
    SYMBOL:  AUTO_MODE
    MODULE:  .\Obj\main.obj (MAIN)
    ADDRESS: 14C6H

*** WARNING L2: REFERENCE MADE TO UNRESOLVED EXTERNAL
    SYMBOL:  AUTO_MODE
    MODULE:  .\Obj\main.obj (MAIN)
    ADDRESS: 14D8H

*** WARNING L2: REFERENCE MADE TO UNRESOLVED EXTERNAL
BL51 BANKED LINKER/LOCATER V6.22                                                      03/29/2019  13:49:34  PAGE 43


    SYMBOL:  AUTO_MODE
    MODULE:  .\Obj\main.obj (MAIN)
    ADDRESS: 151AH

*** WARNING L2: REFERENCE MADE TO UNRESOLVED EXTERNAL
    SYMBOL:  AUTO_MODE
    MODULE:  .\Obj\main.obj (MAIN)
    ADDRESS: 15EDH

*** WARNING L2: REFERENCE MADE TO UNRESOLVED EXTERNAL
    SYMBOL:  ?_CALIBRATION?BYTE
    MODULE:  .\Obj\main.obj (MAIN)
    ADDRESS: 1709H

*** WARNING L2: REFERENCE MADE TO UNRESOLVED EXTERNAL
    SYMBOL:  ?_CALIBRATION?BYTE
    MODULE:  .\Obj\main.obj (MAIN)
    ADDRESS: 1711H

*** WARNING L2: REFERENCE MADE TO UNRESOLVED EXTERNAL
    SYMBOL:  _CALIBRATION
    MODULE:  .\Obj\main.obj (MAIN)
    ADDRESS: 1726H

*** WARNING L2: REFERENCE MADE TO UNRESOLVED EXTERNAL
    SYMBOL:  ?_CALIBRATION?BYTE
    MODULE:  .\Obj\main.obj (MAIN)
    ADDRESS: 1922H

*** WARNING L2: REFERENCE MADE TO UNRESOLVED EXTERNAL
    SYMBOL:  ?_CALIBRATION?BYTE
    MODULE:  .\Obj\main.obj (MAIN)
    ADDRESS: 192AH

*** WARNING L2: REFERENCE MADE TO UNRESOLVED EXTERNAL
    SYMBOL:  _CALIBRATION
    MODULE:  .\Obj\main.obj (MAIN)
    ADDRESS: 193FH

*** WARNING L1: UNRESOLVED EXTERNAL SYMBOL
    SYMBOL:  _SENDUART1
    MODULE:  .\Obj\UART1.obj (UART1)

*** WARNING L2: REFERENCE MADE TO UNRESOLVED EXTERNAL
    SYMBOL:  _SENDUART1
    MODULE:  .\Obj\UART1.obj (UART1)
    ADDRESS: 3BFDH

*** WARNING L1: UNRESOLVED EXTERNAL SYMBOL
    SYMBOL:  AUTO_MODE
    MODULE:  .\Obj\KeyPad.obj (KEYPAD)

*** WARNING L2: REFERENCE MADE TO UNRESOLVED EXTERNAL
    SYMBOL:  AUTO_MODE
    MODULE:  .\Obj\KeyPad.obj (KEYPAD)
    ADDRESS: 2980H

BL51 BANKED LINKER/LOCATER V6.22                                                      03/29/2019  13:49:34  PAGE 44


*** WARNING L2: REFERENCE MADE TO UNRESOLVED EXTERNAL
    SYMBOL:  AUTO_MODE
    MODULE:  .\Obj\KeyPad.obj (KEYPAD)
    ADDRESS: 298BH

*** WARNING L2: REFERENCE MADE TO UNRESOLVED EXTERNAL
    SYMBOL:  AUTO_MODE
    MODULE:  .\Obj\KeyPad.obj (KEYPAD)
    ADDRESS: 2992H

*** WARNING L1: UNRESOLVED EXTERNAL SYMBOL
    SYMBOL:  _WRITE_PI4IOE5V96248
    MODULE:  .\Obj\BipolarMotor.obj (BIPOLARMOTOR)

*** WARNING L2: REFERENCE MADE TO UNRESOLVED EXTERNAL
    SYMBOL:  _WRITE_PI4IOE5V96248
    MODULE:  .\Obj\BipolarMotor.obj (BIPOLARMOTOR)
    ADDRESS: 3A03H

*** WARNING L2: REFERENCE MADE TO UNRESOLVED EXTERNAL
    SYMBOL:  _WRITE_PI4IOE5V96248
    MODULE:  .\Obj\BipolarMotor.obj (BIPOLARMOTOR)
    ADDRESS: 3A1DH

*** WARNING L2: REFERENCE MADE TO UNRESOLVED EXTERNAL
    SYMBOL:  _WRITE_PI4IOE5V96248
    MODULE:  .\Obj\BipolarMotor.obj (BIPOLARMOTOR)
    ADDRESS: 3A33H

Program Size: data=10.2 xdata=1372 code=16099
LINK/LOCATE RUN COMPLETE.  43 WARNING(S),  0 ERROR(S)
