BL51 BANKED LINKER/LOCATER V6.22                                                        05/16/2018  15:25:43  PAGE 1


BL51 BANKED LINKER/LOCATER V6.22, INVOKED BY:
C:\KEIL_V5\C51\BIN\BL51.EXE .\Obj\main.obj, .\Obj\PCF85063BTL.obj, .\Obj\UART1.obj, .\Obj\LCd_Driver_SPLC780D.obj, .\Obj
>> \KeyPad.obj, .\Obj\STARTUP.obj TO .\Obj\GPIO_RTC_Test PRINT (.\Lis\GPIO_RTC_Test.m51) RAMSIZE (256)


MEMORY MODEL: LARGE


INPUT MODULES INCLUDED:
  .\Obj\main.obj (MAIN)
  .\Obj\PCF85063BTL.obj (PCF85063BTL)
  .\Obj\UART1.obj (UART1)
  .\Obj\LCd_Driver_SPLC780D.obj (LCD_DRIVER_SPLC780D)
  .\Obj\KeyPad.obj (KEYPAD)
  .\Obj\STARTUP.obj (?C_STARTUP)
  C:\KEIL_V5\C51\LIB\C51L.LIB (?C_INIT)
  C:\KEIL_V5\C51\LIB\C51L.LIB (?C?CLDPTR)
  C:\KEIL_V5\C51\LIB\C51L.LIB (?C?CSTPTR)
  C:\KEIL_V5\C51\LIB\C51L.LIB (?C?ILDIX)
  C:\KEIL_V5\C51\LIB\C51L.LIB (ATOI)
  C:\KEIL_V5\C51\LIB\C51L.LIB (?C?IMUL)
  C:\KEIL_V5\C51\LIB\C51L.LIB (?C?IILDX)
  C:\KEIL_V5\C51\LIB\C51L.LIB (ISDIGIT)
  C:\KEIL_V5\C51\LIB\C51L.LIB (ISSPACE)


LINK MAP OF MODULE:  .\Obj\GPIO_RTC_Test (MAIN)


            TYPE    BASE      LENGTH    RELOCATION   SEGMENT NAME
            -----------------------------------------------------

            * * * * * * *   D A T A   M E M O R Y   * * * * * * *
            REG     0000H     0008H     ABSOLUTE     "REG BANK 0"
            REG     0008H     0008H     ABSOLUTE     "REG BANK 1"
                    0010H     0010H                  *** GAP ***
            BIT     0020H.0   0000H.1   UNIT         ?BI?MAIN
            BIT     0020H.1   0000H.1   UNIT         _BIT_GROUP_
                    0020H.2   0000H.6                *** GAP ***
            IDATA   0021H     0001H     UNIT         ?STACK

            * * * * * * *  X D A T A   M E M O R Y  * * * * * * *
            XDATA   0000H     0020H     UNIT         _XDATA_GROUP_
            XDATA   0020H     001CH     UNIT         ?XD?MAIN
            XDATA   003CH     0009H     UNIT         ?XD?KEYPAD
            XDATA   0045H     0003H     UNIT         ?XD?_SENDSTRING?UART1

            * * * * * * *   C O D E   M E M O R Y   * * * * * * *
            CODE    0000H     0003H     ABSOLUTE     
            CODE    0003H     0007H     UNIT         ?PR?KEYPAD_IO_INIT?KEYPAD
            CODE    000AH     0001H     UNIT         ?PR?TM0_ISR?MAIN
            CODE    000BH     0003H     ABSOLUTE     
            CODE    000EH     0015H     UNIT         ?PR?_DISPLAY_LINE?LCD_DRIVER_SPLC780D
            CODE    0023H     0003H     ABSOLUTE     
            CODE    0026H     0145H     UNIT         ?PR?KEY_PROCESS?KEYPAD
            CODE    016BH     0143H     UNIT         ?PR?MAIN?MAIN
            CODE    02AEH     013AH     UNIT         ?PR?KEY_SCAN?KEYPAD
            CODE    03E8H     00DBH     UNIT         ?PR?_ATOI?ATOI
BL51 BANKED LINKER/LOCATER V6.22                                                      05/16/2018  15:25:43  PAGE 2


            CODE    04C3H     009BH     UNIT         ?PR?UART?MAIN
            CODE    055EH     008CH     UNIT         ?C_C51STARTUP
            CODE    05EAH     0075H     UNIT         ?PR?_WRITEDATA?LCD_DRIVER_SPLC780D
            CODE    065FH     006FH     UNIT         ?PR?_DISPLAY_TIME?UART1
            CODE    06CEH     0069H     UNIT         ?C?LIB_CODE
            CODE    0737H     0054H     UNIT         ?PR?LCD_INIT?LCD_DRIVER_SPLC780D
            CODE    078BH     0040H     UNIT         ?PR?_COMMAND?LCD_DRIVER_SPLC780D
            CODE    07CBH     003CH     UNIT         ?C_INITSEG
            CODE    0807H     0033H     UNIT         ?PR?_SENDSTRING?UART1
            CODE    083AH     0024H     UNIT         ?PR?_WAIT_MS?LCD_DRIVER_SPLC780D
            CODE    085EH     0020H     UNIT         ?PR?_SPI_SENDBYTE?PCF85063BTL
            CODE    087EH     0020H     UNIT         ?PR?SPI_RECEIVEBYTE?PCF85063BTL
            CODE    089EH     001EH     UNIT         ?PR?_DELAY_MS?KEYPAD
            CODE    08BCH     001DH     UNIT         ?PR?_DISPLAYLCD?LCD_DRIVER_SPLC780D
            CODE    08D9H     0018H     UNIT         ?PR?_SPI_WRITETIME?PCF85063BTL
            CODE    08F1H     0017H     UNIT         ?PR?_ASCIITOBCD?UART1
            CODE    0908H     0014H     UNIT         ?PR?_PCF85063BTL_DELAY?PCF85063BTL
            CODE    091CH     0014H     UNIT         ?PR?_ISSPACE?ISSPACE
            CODE    0930H     0011H     UNIT         ?PR?_SPI_READTIME?PCF85063BTL
            CODE    0941H     0011H     UNIT         ?PR?INITUART1?UART1
            CODE    0952H     000FH     UNIT         ?PR?_ISDIGIT?ISDIGIT
            CODE    0961H     000DH     UNIT         ?PR?SPI_INIT?PCF85063BTL
            CODE    096EH     000AH     UNIT         ?PR?LCD_RETURN_HOME?LCD_DRIVER_SPLC780D
            CODE    0978H     000AH     UNIT         ?PR?LCD_CLEAR?LCD_DRIVER_SPLC780D
            CODE    0982H     0009H     UNIT         ?PR?_SENDUART1?MAIN
            CODE    098BH     0006H     UNIT         ?PR?_TEN?UART1
            CODE    0991H     0005H     UNIT         ?PR?_UNIT?UART1
            CODE    0996H     0005H     UNIT         ?PR?_ASCII_LETTER?UART1
            CODE    099BH     0001H     UNIT         ?PR?_DECTOBCD?UART1



OVERLAY MAP OF MODULE:   .\Obj\GPIO_RTC_Test (MAIN)


SEGMENT                                            BIT_GROUP          XDATA_GROUP
  +--> CALLED SEGMENT                           START    LENGTH     START    LENGTH
-----------------------------------------------------------------------------------
?PR?UART?MAIN                                   -----    -----      -----    -----
  +--> ?PR?_ASCIITOBCD?UART1

?PR?_ASCIITOBCD?UART1                           -----    -----      -----    -----
  +--> ?PR?_ATOI?ATOI

?PR?_ATOI?ATOI                                  0020H.1  0000H.1    0000H    0005H
  +--> ?PR?_ISSPACE?ISSPACE
  +--> ?PR?_ISDIGIT?ISDIGIT

*** NEW ROOT ***************************************************

?C_C51STARTUP                                   -----    -----      -----    -----
  +--> ?PR?MAIN?MAIN
  +--> ?C_INITSEG

?PR?MAIN?MAIN                                   -----    -----      0005H    000CH
  +--> ?PR?LCD_INIT?LCD_DRIVER_SPLC780D
  +--> ?PR?SPI_INIT?PCF85063BTL
BL51 BANKED LINKER/LOCATER V6.22                                                      05/16/2018  15:25:43  PAGE 3


  +--> ?PR?KEYPAD_IO_INIT?KEYPAD
  +--> ?PR?INITUART1?UART1
  +--> ?PR?_SPI_WRITETIME?PCF85063BTL
  +--> ?PR?_DELAY_MS?KEYPAD
  +--> ?PR?_DISPLAY_LINE?LCD_DRIVER_SPLC780D
  +--> ?PR?_WRITEDATA?LCD_DRIVER_SPLC780D
  +--> ?PR?KEY_PROCESS?KEYPAD
  +--> ?PR?_DISPLAYLCD?LCD_DRIVER_SPLC780D
  +--> ?PR?LCD_RETURN_HOME?LCD_DRIVER_SPLC780D
  +--> ?PR?_DISPLAY_TIME?UART1
  +--> ?PR?_SENDUART1?MAIN

?PR?LCD_INIT?LCD_DRIVER_SPLC780D                -----    -----      -----    -----
  +--> ?PR?_WAIT_MS?LCD_DRIVER_SPLC780D
  +--> ?PR?_COMMAND?LCD_DRIVER_SPLC780D

?PR?_COMMAND?LCD_DRIVER_SPLC780D                -----    -----      -----    -----
  +--> ?PR?_WAIT_MS?LCD_DRIVER_SPLC780D

?PR?_SPI_WRITETIME?PCF85063BTL                  -----    -----      -----    -----
  +--> ?PR?_SPI_SENDBYTE?PCF85063BTL

?PR?_SPI_SENDBYTE?PCF85063BTL                   -----    -----      -----    -----
  +--> ?PR?_PCF85063BTL_DELAY?PCF85063BTL

?PR?_DISPLAY_LINE?LCD_DRIVER_SPLC780D           -----    -----      -----    -----
  +--> ?PR?_COMMAND?LCD_DRIVER_SPLC780D

?PR?_WRITEDATA?LCD_DRIVER_SPLC780D              -----    -----      0013H    0001H
  +--> ?PR?_WAIT_MS?LCD_DRIVER_SPLC780D

?PR?KEY_PROCESS?KEYPAD                          -----    -----      0011H    0002H
  +--> ?PR?KEY_SCAN?KEYPAD
  +--> ?PR?_SPI_WRITETIME?PCF85063BTL
  +--> ?PR?LCD_CLEAR?LCD_DRIVER_SPLC780D
  +--> ?PR?_COMMAND?LCD_DRIVER_SPLC780D
  +--> ?PR?_WRITEDATA?LCD_DRIVER_SPLC780D

?PR?KEY_SCAN?KEYPAD                             -----    -----      0013H    0003H
  +--> ?PR?_DELAY_MS?KEYPAD

?PR?LCD_CLEAR?LCD_DRIVER_SPLC780D               -----    -----      -----    -----
  +--> ?PR?_COMMAND?LCD_DRIVER_SPLC780D

?PR?_DISPLAYLCD?LCD_DRIVER_SPLC780D             -----    -----      0011H    0001H
  +--> ?PR?_WRITEDATA?LCD_DRIVER_SPLC780D

?PR?LCD_RETURN_HOME?LCD_DRIVER_SPLC780D         -----    -----      -----    -----
  +--> ?PR?_COMMAND?LCD_DRIVER_SPLC780D

?PR?_DISPLAY_TIME?UART1                         -----    -----      0011H    000FH
  +--> ?PR?_SPI_READTIME?PCF85063BTL

?PR?_SPI_READTIME?PCF85063BTL                   -----    -----      -----    -----
  +--> ?PR?_SPI_SENDBYTE?PCF85063BTL
  +--> ?PR?SPI_RECEIVEBYTE?PCF85063BTL

BL51 BANKED LINKER/LOCATER V6.22                                                      05/16/2018  15:25:43  PAGE 4


?PR?SPI_RECEIVEBYTE?PCF85063BTL                 -----    -----      -----    -----
  +--> ?PR?_PCF85063BTL_DELAY?PCF85063BTL



SYMBOL TABLE OF MODULE:  .\Obj\GPIO_RTC_Test (MAIN)

  VALUE           TYPE          NAME
  ----------------------------------

  -------         MODULE        MAIN
  C:0000H         SYMBOL        _ICE_DUMMY_
  D:0080H         PUBLIC        P0
  D:0090H         PUBLIC        P1
  D:00A0H         PUBLIC        P2
  D:00B0H         PUBLIC        P3
  D:00C0H         PUBLIC        P4
  D:00C8H         PUBLIC        P5
  X:0028H         SYMBOL        PressedKey
  B:00A8H.7       PUBLIC        EA
  D:00E8H         PUBLIC        P6
  D:00F8H         PUBLIC        P7
  X:002CH         PUBLIC        RX_Data_Uart_Cnt
  D:00A8H         PUBLIC        IE
  D:00B8H         PUBLIC        IP
  B:0098H.0       PUBLIC        RI
  B:0098H.1       PUBLIC        TI
  C:04C3H         PUBLIC        Uart
  D:00D8H         PUBLIC        CCON
  C:016BH         PUBLIC        main
  D:0099H         PUBLIC        SBUF
  D:0098H         PUBLIC        SCON
  D:0089H         PUBLIC        TMOD
  D:0088H         PUBLIC        TCON
  X:002EH         SYMBOL        KeyCount
  X:0030H         PUBLIC        Rec_data_hour
  X:0033H         PUBLIC        Rec_data_min
  D:008EH         PUBLIC        AUXR
  C:000AH         PUBLIC        tm0_isr
  B:0020H.0       PUBLIC        busy
  D:00E0H         PUBLIC        ACC
  B:00A8H.1       PUBLIC        ET0
  D:008CH         PUBLIC        TH0
  X:0036H         PUBLIC        hour_count
  D:008AH         PUBLIC        TL0
  X:0037H         PUBLIC        min_count
  B:0088H.4       PUBLIC        TR0
  X:0038H         SYMBOL        KeyNum
  X:0039H         SYMBOL        KeyNum_Old
  X:003AH         PUBLIC        st_time
  D:00D0H         PUBLIC        PSW
  C:0982H         PUBLIC        _SendUART1
  -------         PROC          TM0_ISR
  C:000AH         LINE#         44
  C:000AH         LINE#         47
  -------         ENDPROC       TM0_ISR
  -------         PROC          MAIN
BL51 BANKED LINKER/LOCATER V6.22                                                      05/16/2018  15:25:43  PAGE 5


  -------         DO            
  X:0005H         SYMBOL        seconds
  X:0006H         SYMBOL        mins
  X:0007H         SYMBOL        hours
  X:0008H         SYMBOL        days
  X:0009H         SYMBOL        months
  X:0020H         SYMBOL        KeyCount
  X:0022H         SYMBOL        KeyNum_Old
  X:0023H         SYMBOL        KeyNum
  X:0024H         SYMBOL        PressedKey
  X:000AH         SYMBOL        count
  X:000CH         SYMBOL        numStr
  -------         ENDDO         
  C:016BH         LINE#         49
  C:016BH         LINE#         50
  C:016BH         LINE#         55
  C:0172H         LINE#         57
  C:0175H         LINE#         58
  C:0178H         LINE#         59
  C:017BH         LINE#         60
  C:017EH         LINE#         62
  C:0181H         LINE#         63
  C:0184H         LINE#         64
  C:0187H         LINE#         65
  C:0189H         LINE#         66
  C:018BH         LINE#         67
  C:018DH         LINE#         69
  C:018FH         LINE#         70
  C:0196H         LINE#         71
  C:019DH         LINE#         72
  C:01A4H         LINE#         73
  C:01ABH         LINE#         77
  C:01B2H         LINE#         78
  C:01B7H         LINE#         79
  C:01BCH         LINE#         80
  C:01C1H         LINE#         81
  C:01C6H         LINE#         82
  C:01CBH         LINE#         83
  C:01CBH         LINE#         84
  C:01CBH         LINE#         88
  C:01CEH         LINE#         107
  C:01DCH         LINE#         108
  C:01EAH         LINE#         109
  C:01EAH         LINE#         110
  C:01F0H         LINE#         111
  C:01F8H         LINE#         112
  C:01FDH         LINE#         113
  C:0205H         LINE#         114
  C:020AH         LINE#         115
  C:0214H         LINE#         116
  C:0219H         LINE#         117
  C:0221H         LINE#         118
  C:0226H         LINE#         119
  C:022EH         LINE#         121
  C:0235H         LINE#         124
  C:0238H         LINE#         127
  C:0238H         LINE#         128
BL51 BANKED LINKER/LOCATER V6.22                                                      05/16/2018  15:25:43  PAGE 6


  C:0273H         LINE#         132
  C:0280H         LINE#         133
  C:0280H         LINE#         134
  C:028AH         LINE#         135
  C:0294H         LINE#         136
  C:029BH         LINE#         137
  C:02A3H         LINE#         138
  C:02ABH         LINE#         139
  -------         ENDPROC       MAIN
  -------         PROC          UART
  C:04C3H         LINE#         152
  C:04D0H         LINE#         154
  C:04D3H         LINE#         155
  C:04D3H         LINE#         156
  C:04E1H         LINE#         157
  C:04E3H         LINE#         158
  C:04F5H         LINE#         159
  C:0504H         LINE#         160
  C:050FH         LINE#         161
  C:050FH         LINE#         164
  C:051CH         LINE#         165
  C:0522H         LINE#         166
  C:0522H         LINE#         167
  C:0528H         LINE#         168
  C:0536H         LINE#         169
  C:0544H         LINE#         170
  C:054CH         LINE#         175
  C:054CH         LINE#         176
  C:054CH         LINE#         179
  C:054CH         LINE#         180
  C:054FH         LINE#         181
  C:054FH         LINE#         182
  C:0551H         LINE#         183
  C:0553H         LINE#         184
  C:0553H         LINE#         185
  -------         ENDPROC       UART
  -------         PROC          _SENDUART1
  D:0007H         SYMBOL        dat
  C:0982H         LINE#         188
  C:0982H         LINE#         189
  C:0982H         LINE#         190
  C:0985H         LINE#         191
  C:0987H         LINE#         192
  C:0988H         LINE#         193
  C:098AH         LINE#         194
  -------         ENDPROC       _SENDUART1
  -------         ENDMOD        MAIN

  -------         MODULE        PCF85063BTL
  C:0000H         SYMBOL        _ICE_DUMMY_
  D:0096H         PUBLIC        P2M0
  D:0080H         PUBLIC        P0
  D:0095H         PUBLIC        P2M1
  D:0090H         PUBLIC        P1
  D:00A0H         PUBLIC        P2
  D:00B0H         PUBLIC        P3
  D:00C0H         PUBLIC        P4
BL51 BANKED LINKER/LOCATER V6.22                                                      05/16/2018  15:25:43  PAGE 7


  D:00C8H         PUBLIC        P5
  D:00E8H         PUBLIC        P6
  B:00A0H.2       PUBLIC        PCF85063BTL_SDI
  D:00F8H         PUBLIC        P7
  B:00A0H.1       PUBLIC        PCF85063BTL_SCK
  B:00A0H.2       PUBLIC        PCF85063BTL_SDO
  D:00A8H         PUBLIC        IE
  C:090EH         PUBLIC        _PCF85063BTL_Delay
  D:00B8H         PUBLIC        IP
  D:00D8H         PUBLIC        CCON
  C:087EH         PUBLIC        SPI_ReceiveByte
  D:0098H         PUBLIC        SCON
  D:0088H         PUBLIC        TCON
  B:00A0H.0       PUBLIC        PCF85063BTL_CS
  C:0930H         PUBLIC        _SPI_ReadTime
  C:0961H         PUBLIC        SPI_Init
  C:08D9H         PUBLIC        _SPI_WriteTime
  C:085EH         PUBLIC        _SPI_SendByte
  D:00D0H         PUBLIC        PSW
  C:090AH         SYMBOL        L?0020
  -------         PROC          L?0019
  -------         ENDPROC       L?0019
  C:090AH         SYMBOL        L?0020
  -------         PROC          _PCF85063BTL_DELAY
  D:0006H         SYMBOL        us
  C:090EH         LINE#         8
  C:090EH         LINE#         9
  C:090EH         LINE#         10
  C:0918H         LINE#         11
  C:0918H         LINE#         12
  C:0919H         LINE#         13
  C:091BH         LINE#         14
  -------         ENDPROC       _PCF85063BTL_DELAY
  -------         PROC          _SPI_SENDBYTE
  D:0005H         SYMBOL        dat
  -------         DO            
  D:0003H         SYMBOL        i
  -------         ENDDO         
  C:085EH         LINE#         17
  C:0860H         LINE#         18
  C:0860H         LINE#         20
  C:0862H         LINE#         21
  C:0862H         LINE#         22
  C:0864H         LINE#         23
  C:0868H         LINE#         24
  C:0868H         LINE#         25
  C:086AH         LINE#         26
  C:086CH         LINE#         28
  C:086CH         LINE#         29
  C:086EH         LINE#         30
  C:086EH         LINE#         31
  C:0871H         LINE#         32
  C:0871H         LINE#         33
  C:0874H         LINE#         34
  C:0878H         LINE#         35
  C:087DH         LINE#         36
  -------         ENDPROC       _SPI_SENDBYTE
BL51 BANKED LINKER/LOCATER V6.22                                                      05/16/2018  15:25:43  PAGE 8


  -------         PROC          SPI_RECEIVEBYTE
  -------         DO            
  D:0003H         SYMBOL        i
  D:0005H         SYMBOL        dat
  -------         ENDDO         
  C:087EH         LINE#         39
  C:087EH         LINE#         40
  C:087EH         LINE#         42
  C:0880H         LINE#         44
  C:0882H         LINE#         45
  C:0883H         LINE#         46
  C:0883H         LINE#         47
  C:0887H         LINE#         48
  C:0889H         LINE#         49
  C:088CH         LINE#         51
  C:088FH         LINE#         52
  C:088FH         LINE#         53
  C:0893H         LINE#         54
  C:0893H         LINE#         55
  C:0893H         LINE#         56
  C:0896H         LINE#         57
  C:089BH         LINE#         58
  C:089DH         LINE#         59
  -------         ENDPROC       SPI_RECEIVEBYTE
  -------         PROC          _SPI_READTIME
  D:0007H         SYMBOL        addr
  -------         DO            
  D:0006H         SYMBOL        dat
  -------         ENDDO         
  C:0930H         LINE#         61
  C:0930H         LINE#         62
  C:0930H         LINE#         64
  C:0932H         LINE#         65
  C:0934H         LINE#         66
  C:093BH         LINE#         67
  C:093EH         LINE#         68
  C:0940H         LINE#         69
  C:0940H         LINE#         70
  -------         ENDPROC       _SPI_READTIME
  -------         PROC          _SPI_WRITETIME
  D:0002H         SYMBOL        val
  D:0005H         SYMBOL        addr
  C:08D9H         LINE#         71
  C:08DBH         LINE#         72
  C:08DBH         LINE#         74
  C:08DDH         LINE#         75
  C:08E4H         LINE#         76
  C:08E9H         LINE#         77
  C:08EEH         LINE#         78
  C:08F0H         LINE#         79
  -------         ENDPROC       _SPI_WRITETIME
  -------         PROC          SPI_INIT
  C:0961H         LINE#         83
  C:0961H         LINE#         84
  C:0961H         LINE#         89
  C:0964H         LINE#         90
  C:0967H         LINE#         91
BL51 BANKED LINKER/LOCATER V6.22                                                      05/16/2018  15:25:43  PAGE 9


  C:0969H         LINE#         92
  C:096BH         LINE#         93
  C:096DH         LINE#         94
  -------         ENDPROC       SPI_INIT
  -------         ENDMOD        PCF85063BTL

  -------         MODULE        UART1
  C:0000H         SYMBOL        _ICE_DUMMY_
  D:0080H         PUBLIC        P0
  D:0090H         PUBLIC        P1
  D:00A0H         PUBLIC        P2
  D:00B0H         PUBLIC        P3
  D:00C0H         PUBLIC        P4
  D:00C8H         PUBLIC        P5
  B:00A8H.7       PUBLIC        EA
  D:00E8H         PUBLIC        P6
  D:00F8H         PUBLIC        P7
  C:0807H         PUBLIC        _SendString
  D:00A8H         PUBLIC        IE
  B:00A8H.4       PUBLIC        ES
  D:00B8H         PUBLIC        IP
  C:08F1H         PUBLIC        _ASCIItoBCD
  D:00D8H         PUBLIC        CCON
  C:0941H         PUBLIC        initUART1
  D:0098H         PUBLIC        SCON
  D:0088H         PUBLIC        TCON
  C:099BH         PUBLIC        _DectoBCD
  C:0996H         PUBLIC        _ASCII_Letter
  D:008EH         PUBLIC        AUXR
  C:0991H         PUBLIC        _unit
  C:098BH         PUBLIC        _ten
  D:00D6H         PUBLIC        T2H
  D:00D7H         PUBLIC        T2L
  C:065FH         PUBLIC        _Display_time
  D:00D0H         PUBLIC        PSW
  -------         PROC          INITUART1
  C:0941H         LINE#         21
  C:0941H         LINE#         22
  C:0941H         LINE#         23
  C:0944H         LINE#         24
  C:0947H         LINE#         25
  C:094AH         LINE#         26
  C:094DH         LINE#         27
  C:094FH         LINE#         28
  C:0951H         LINE#         30
  -------         ENDPROC       INITUART1
  -------         PROC          _SENDSTRING
  X:0045H         SYMBOL        s
  C:0807H         LINE#         35
  C:0812H         LINE#         36
  C:0812H         LINE#         37
  C:0822H         LINE#         38
  C:0822H         LINE#         39
  C:0837H         LINE#         40
  C:0839H         LINE#         41
  -------         ENDPROC       _SENDSTRING
  -------         PROC          _TEN
BL51 BANKED LINKER/LOCATER V6.22                                                      05/16/2018  15:25:43  PAGE 10


  D:0007H         SYMBOL        BCD
  C:098BH         LINE#         43
  C:098BH         LINE#         44
  C:098BH         LINE#         45
  C:0990H         LINE#         46
  -------         ENDPROC       _TEN
  -------         PROC          _UNIT
  D:0007H         SYMBOL        BCD
  C:0991H         LINE#         47
  C:0991H         LINE#         48
  C:0991H         LINE#         52
  C:0995H         LINE#         53
  -------         ENDPROC       _UNIT
  -------         PROC          _DECTOBCD
  D:0007H         SYMBOL        dec
  C:099BH         LINE#         54
  C:099BH         LINE#         55
  C:099BH         LINE#         57
  C:099BH         LINE#         58
  -------         ENDPROC       _DECTOBCD
  -------         PROC          _ASCII_LETTER
  D:0007H         SYMBOL        dat
  C:0996H         LINE#         60
  C:0996H         LINE#         61
  C:0996H         LINE#         63
  C:099AH         LINE#         64
  -------         ENDPROC       _ASCII_LETTER
  -------         PROC          _ASCIITOBCD
  D:0001H         SYMBOL        ascii
  -------         DO            
  D:0007H         SYMBOL        dec_val
  D:0006H         SYMBOL        ten
  D:0007H         SYMBOL        unit
  -------         ENDDO         
  C:08F1H         LINE#         66
  C:08F1H         LINE#         67
  C:08F1H         LINE#         69
  C:08F4H         LINE#         70
  C:08FAH         LINE#         71
  C:0901H         LINE#         72
  C:0907H         LINE#         74
  -------         ENDPROC       _ASCIITOBCD
  -------         PROC          _DISPLAY_TIME
  X:0011H         SYMBOL        months
  X:0014H         SYMBOL        days
  X:0017H         SYMBOL        hours
  X:001AH         SYMBOL        mins
  X:001DH         SYMBOL        seconds
  C:065FH         LINE#         75
  C:066AH         LINE#         76
  C:066AH         LINE#         78
  C:067EH         LINE#         80
  C:0692H         LINE#         82
  C:06A6H         LINE#         87
  C:06BAH         LINE#         92
  -------         ENDPROC       _DISPLAY_TIME
  -------         ENDMOD        UART1
BL51 BANKED LINKER/LOCATER V6.22                                                      05/16/2018  15:25:43  PAGE 11



  -------         MODULE        LCD_DRIVER_SPLC780D
  C:0000H         SYMBOL        _ICE_DUMMY_
  D:0080H         PUBLIC        P0
  D:0090H         PUBLIC        P1
  D:00A0H         PUBLIC        P2
  D:00B0H         PUBLIC        P3
  D:00C0H         PUBLIC        P4
  D:00C8H         PUBLIC        P5
  D:00E8H         PUBLIC        P6
  D:00F8H         PUBLIC        P7
  C:05EAH         PUBLIC        _WriteData
  D:00A8H         PUBLIC        IE
  D:00B8H         PUBLIC        IP
  D:00D8H         PUBLIC        CCON
  B:0090H.4       PUBLIC        LCD_D4
  B:0090H.5       PUBLIC        LCD_D5
  B:0090H.6       PUBLIC        LCD_D6
  C:08BCH         PUBLIC        _DisplayLCD
  B:0090H.7       PUBLIC        LCD_D7
  D:0098H         PUBLIC        SCON
  D:0088H         PUBLIC        TCON
  C:0978H         PUBLIC        LCD_clear
  C:078BH         PUBLIC        _Command
  C:000EH         PUBLIC        _Display_Line
  C:0737H         PUBLIC        LCD_Init
  C:0840H         PUBLIC        _Wait_ms
  B:0090H.1       PUBLIC        LCD_RS
  B:0090H.2       PUBLIC        LCD_RW
  C:096EH         PUBLIC        LCD_return_home
  B:0090H.3       PUBLIC        LCD_E
  D:00D0H         PUBLIC        PSW
  -------         PROC          LCD_INIT
  C:0737H         LINE#         9
  C:0737H         LINE#         10
  C:0737H         LINE#         12
  C:073EH         LINE#         13
  C:0743H         LINE#         15
  C:074AH         LINE#         16
  C:074FH         LINE#         18
  C:0752H         LINE#         19
  C:0757H         LINE#         21
  C:075AH         LINE#         22
  C:075FH         LINE#         24
  C:0766H         LINE#         27
  C:076BH         LINE#         28
  C:0770H         LINE#         30
  C:0775H         LINE#         31
  C:077AH         LINE#         33
  C:077FH         LINE#         34
  C:0784H         LINE#         35
  -------         ENDPROC       LCD_INIT
  -------         PROC          _WRITEDATA
  X:0013H         SYMBOL        dat
  C:05EAH         LINE#         38
  C:05EFH         LINE#         39
  C:05EFH         LINE#         44
BL51 BANKED LINKER/LOCATER V6.22                                                      05/16/2018  15:25:43  PAGE 12


  C:05F1H         LINE#         45
  C:05F3H         LINE#         47
  C:0601H         LINE#         48
  C:060DH         LINE#         49
  C:0619H         LINE#         50
  C:0623H         LINE#         51
  C:0625H         LINE#         52
  C:062CH         LINE#         53
  C:062EH         LINE#         55
  C:063EH         LINE#         56
  C:0649H         LINE#         57
  C:0653H         LINE#         58
  C:0657H         LINE#         60
  C:0657H         LINE#         61
  C:065AH         LINE#         62
  C:065CH         LINE#         63
  C:065EH         LINE#         65
  -------         ENDPROC       _WRITEDATA
  -------         PROC          _COMMAND
  D:0007H         SYMBOL        dat
  C:078BH         LINE#         67
  C:078BH         LINE#         68
  C:078BH         LINE#         69
  C:078DH         LINE#         70
  C:078FH         LINE#         75
  C:0799H         LINE#         76
  C:079DH         LINE#         78
  C:079FH         LINE#         79
  C:07A8H         LINE#         80
  C:07ACH         LINE#         82
  C:07AEH         LINE#         83
  C:07B5H         LINE#         84
  C:07B9H         LINE#         86
  C:07BBH         LINE#         87
  C:07BFH         LINE#         88
  C:07C3H         LINE#         90
  C:07C5H         LINE#         94
  C:07C5H         LINE#         95
  C:07C8H         LINE#         96
  C:07CAH         LINE#         97
  -------         ENDPROC       _COMMAND
  C:083CH         SYMBOL        L?0028
  -------         PROC          L?0027
  -------         ENDPROC       L?0027
  C:083CH         SYMBOL        L?0028
  -------         PROC          _WAIT_MS
  D:0006H         SYMBOL        ms
  -------         DO            
  D:0004H         SYMBOL        De_Cnt
  -------         ENDDO         
  C:0840H         LINE#         99
  C:0840H         LINE#         100
  C:0840H         LINE#         102
  C:084AH         LINE#         103
  C:084AH         LINE#         104
  C:085DH         LINE#         105
  C:085DH         LINE#         106
BL51 BANKED LINKER/LOCATER V6.22                                                      05/16/2018  15:25:43  PAGE 13


  -------         ENDPROC       _WAIT_MS
  -------         PROC          _DISPLAYLCD
  D:0007H         SYMBOL        BCD
  -------         DO            
  D:0006H         SYMBOL        first_digit
  X:0011H         SYMBOL        second_digit
  -------         ENDDO         
  C:08BCH         LINE#         107
  C:08BCH         LINE#         108
  C:08BCH         LINE#         110
  C:08C3H         LINE#         111
  C:08CCH         LINE#         113
  C:08D1H         LINE#         115
  -------         ENDPROC       _DISPLAYLCD
  -------         PROC          LCD_RETURN_HOME
  C:096EH         LINE#         119
  C:096EH         LINE#         120
  C:096EH         LINE#         121
  C:0973H         LINE#         122
  -------         ENDPROC       LCD_RETURN_HOME
  -------         PROC          LCD_CLEAR
  C:0978H         LINE#         125
  C:0978H         LINE#         126
  C:0978H         LINE#         127
  C:097DH         LINE#         128
  -------         ENDPROC       LCD_CLEAR
  -------         PROC          _DISPLAY_LINE
  D:0006H         SYMBOL        line
  C:000EH         LINE#         132
  C:000EH         LINE#         133
  C:000EH         LINE#         134
  C:0014H         LINE#         135
  C:0014H         LINE#         136
  C:0016H         LINE#         137
  C:0016H         LINE#         138
  C:0018H         LINE#         140
  C:0018H         LINE#         141
  C:001DH         LINE#         142
  C:0022H         LINE#         143
  C:0022H         LINE#         144
  -------         ENDPROC       _DISPLAY_LINE
  -------         ENDMOD        LCD_DRIVER_SPLC780D

  -------         MODULE        KEYPAD
  C:0000H         SYMBOL        _ICE_DUMMY_
  D:0093H         PUBLIC        P0M1
  D:0080H         PUBLIC        P0
  D:0090H         PUBLIC        P1
  D:00A0H         PUBLIC        P2
  D:00B0H         PUBLIC        P3
  D:00C0H         PUBLIC        P4
  D:00C8H         PUBLIC        P5
  D:00E8H         PUBLIC        P6
  D:00F8H         PUBLIC        P7
  D:00A8H         PUBLIC        IE
  C:02AEH         PUBLIC        Key_Scan
  D:00B8H         PUBLIC        IP
BL51 BANKED LINKER/LOCATER V6.22                                                      05/16/2018  15:25:43  PAGE 14


  D:00D8H         PUBLIC        CCON
  C:0003H         PUBLIC        KeyPad_IO_Init
  C:089EH         PUBLIC        _Delay_ms
  D:0098H         PUBLIC        SCON
  D:0088H         PUBLIC        TCON
  C:0026H         PUBLIC        Key_Process
  D:00D0H         PUBLIC        PSW
  D:0094H         PUBLIC        P0M0
  -------         PROC          _DELAY_MS
  D:0006H         SYMBOL        ms
  -------         DO            
  D:0004H         SYMBOL        De_Cnt
  -------         ENDDO         
  C:089EH         LINE#         13
  C:089EH         LINE#         14
  C:089EH         LINE#         16
  C:08A8H         LINE#         17
  C:08A8H         LINE#         18
  C:08BBH         LINE#         19
  C:08BBH         LINE#         20
  -------         ENDPROC       _DELAY_MS
  -------         PROC          KEY_SCAN
  -------         DO            
  X:0013H         SYMBOL        KeyTemp1
  X:0014H         SYMBOL        KeyTemp2
  X:0015H         SYMBOL        KeyValue
  -------         ENDDO         
  C:02AEH         LINE#         21
  C:02AEH         LINE#         22
  C:02AEH         LINE#         27
  C:02B1H         LINE#         30
  C:02B4H         LINE#         32
  C:02BCH         LINE#         33
  C:02C3H         LINE#         34
  C:02C3H         LINE#         35
  C:02CAH         LINE#         36
  C:02CFH         LINE#         37
  C:02D6H         LINE#         38
  C:02D6H         LINE#         41
  C:02D9H         LINE#         42
  C:02DCH         LINE#         43
  C:02E1H         LINE#         44
  C:02E5H         LINE#         45
  C:02E5H         LINE#         46
  C:02EDH         LINE#         47
  C:02EDH         LINE#         48
  C:02F0H         LINE#         49
  C:02F8H         LINE#         50
  C:02FAH         LINE#         52
  C:030EH         LINE#         53
  C:030EH         LINE#         54
  C:030EH         LINE#         55
  C:030EH         LINE#         56
  C:0314H         LINE#         58
  C:0316H         LINE#         59
  C:0316H         LINE#         60
  C:0316H         LINE#         61
BL51 BANKED LINKER/LOCATER V6.22                                                      05/16/2018  15:25:43  PAGE 15


  C:031CH         LINE#         63
  C:031EH         LINE#         64
  C:031EH         LINE#         65
  C:031EH         LINE#         66
  C:0324H         LINE#         68
  C:0326H         LINE#         69
  C:0326H         LINE#         70
  C:0326H         LINE#         71
  C:032BH         LINE#         73
  C:032BH         LINE#         74
  C:032BH         LINE#         75
  C:032BH         LINE#         78
  C:032EH         LINE#         79
  C:0331H         LINE#         80
  C:0339H         LINE#         81
  C:033DH         LINE#         82
  C:033DH         LINE#         83
  C:0345H         LINE#         84
  C:0345H         LINE#         85
  C:0348H         LINE#         86
  C:0350H         LINE#         87
  C:0352H         LINE#         88
  C:0366H         LINE#         89
  C:0366H         LINE#         90
  C:0366H         LINE#         91
  C:0366H         LINE#         92
  C:036CH         LINE#         94
  C:036EH         LINE#         95
  C:036EH         LINE#         96
  C:036EH         LINE#         97
  C:0374H         LINE#         99
  C:0376H         LINE#         100
  C:0376H         LINE#         101
  C:0376H         LINE#         102
  C:037CH         LINE#         104
  C:037EH         LINE#         105
  C:037EH         LINE#         106
  C:037EH         LINE#         107
  C:0383H         LINE#         109
  C:0383H         LINE#         110
  C:0383H         LINE#         111
  C:0383H         LINE#         114
  C:0386H         LINE#         115
  C:0389H         LINE#         116
  C:0391H         LINE#         117
  C:0395H         LINE#         118
  C:0395H         LINE#         119
  C:039DH         LINE#         120
  C:039DH         LINE#         121
  C:03A0H         LINE#         122
  C:03A8H         LINE#         123
  C:03AAH         LINE#         124
  C:03BEH         LINE#         125
  C:03BEH         LINE#         126
  C:03BEH         LINE#         127
  C:03BEH         LINE#         128
  C:03C4H         LINE#         130
BL51 BANKED LINKER/LOCATER V6.22                                                      05/16/2018  15:25:43  PAGE 16


  C:03C6H         LINE#         131
  C:03C6H         LINE#         132
  C:03C6H         LINE#         133
  C:03CCH         LINE#         135
  C:03CEH         LINE#         136
  C:03CEH         LINE#         137
  C:03CEH         LINE#         138
  C:03D4H         LINE#         140
  C:03D6H         LINE#         141
  C:03D6H         LINE#         142
  C:03D6H         LINE#         143
  C:03DCH         LINE#         145
  C:03DCH         LINE#         146
  C:03DCH         LINE#         147
  C:03DCH         LINE#         148
  C:03E2H         LINE#         149
  C:03E2H         LINE#         151
  C:03E2H         LINE#         152
  C:03E5H         LINE#         153
  C:03E5H         LINE#         154
  C:03E5H         LINE#         156
  C:03E5H         LINE#         157
  C:03E7H         LINE#         158
  C:03E7H         LINE#         159
  -------         ENDPROC       KEY_SCAN
  -------         PROC          KEY_PROCESS
  -------         DO            
  X:003CH         SYMBOL        KeyCount
  X:003EH         SYMBOL        KeyNum_Old
  X:003FH         SYMBOL        KeyNum
  X:0040H         SYMBOL        PressedKey
  X:0011H         SYMBOL        d
  D:0004H         SYMBOL        hours
  D:0006H         SYMBOL        mins
  -------         ENDDO         
  C:0026H         LINE#         160
  C:0026H         LINE#         161
  C:0026H         LINE#         165
  C:002EH         LINE#         166
  C:0036H         LINE#         168
  C:004BH         LINE#         169
  C:004BH         LINE#         170
  C:005DH         LINE#         171
  C:006BH         LINE#         172
  C:007AH         LINE#         173
  C:007AH         LINE#         175
  C:0080H         LINE#         176
  C:0096H         LINE#         177
  C:00A7H         LINE#         178
  C:00C2H         LINE#         179
  C:00C2H         LINE#         181
  C:00D2H         LINE#         182
  C:00E3H         LINE#         183
  C:00E3H         LINE#         184
  C:00E6H         LINE#         185
  C:00EBH         LINE#         186
  C:00F0H         LINE#         187
BL51 BANKED LINKER/LOCATER V6.22                                                      05/16/2018  15:25:43  PAGE 17


  C:00F5H         LINE#         188
  C:00FAH         LINE#         189
  C:00FFH         LINE#         190
  C:0104H         LINE#         191
  C:0109H         LINE#         192
  C:0109H         LINE#         193
  C:0109H         LINE#         195
  C:012BH         LINE#         196
  C:012BH         LINE#         197
  C:0135H         LINE#         198
  C:0135H         LINE#         199
  C:013AH         LINE#         200
  C:0143H         LINE#         201
  C:015AH         LINE#         202
  C:015AH         LINE#         203
  C:016AH         LINE#         205
  -------         ENDPROC       KEY_PROCESS
  -------         PROC          KEYPAD_IO_INIT
  C:0003H         LINE#         208
  C:0003H         LINE#         209
  C:0003H         LINE#         210
  C:0006H         LINE#         211
  C:0009H         LINE#         213
  -------         ENDPROC       KEYPAD_IO_INIT
  -------         ENDMOD        KEYPAD

  -------         MODULE        ?C_STARTUP
  C:055EH         SEGMENT       ?C_C51STARTUP
  I:0021H         SEGMENT       ?STACK
  C:0000H         PUBLIC        ?C_STARTUP
  D:00E0H         SYMBOL        ACC
  D:00F0H         SYMBOL        B
  D:0083H         SYMBOL        DPH
  D:0082H         SYMBOL        DPL
  N:0000H         SYMBOL        IBPSTACK
  N:0100H         SYMBOL        IBPSTACKTOP
  N:0080H         SYMBOL        IDATALEN
  C:0561H         SYMBOL        IDATALOOP
  N:0000H         SYMBOL        PBPSTACK
  N:0100H         SYMBOL        PBPSTACKTOP
  N:0000H         SYMBOL        PDATALEN
  N:0000H         SYMBOL        PDATASTART
  N:0000H         SYMBOL        PPAGE
  N:0000H         SYMBOL        PPAGEENABLE
  D:00A0H         SYMBOL        PPAGE_SFR
  D:0081H         SYMBOL        SP
  C:055EH         SYMBOL        STARTUP1
  N:0000H         SYMBOL        XBPSTACK
  N:0000H         SYMBOL        XBPSTACKTOP
  N:0000H         SYMBOL        XDATALEN
  N:0000H         SYMBOL        XDATASTART
  C:0000H         LINE#         126
  C:055EH         LINE#         133
  C:0560H         LINE#         134
  C:0561H         LINE#         135
  C:0562H         LINE#         136
  C:0564H         LINE#         185
BL51 BANKED LINKER/LOCATER V6.22                                                      05/16/2018  15:25:43  PAGE 18


  C:0567H         LINE#         196
  -------         ENDMOD        ?C_STARTUP

  -------         MODULE        ?C?CLDPTR
  C:06CEH         PUBLIC        ?C?CLDPTR
  -------         ENDMOD        ?C?CLDPTR

  -------         MODULE        ?C?CSTPTR
  C:06E7H         PUBLIC        ?C?CSTPTR
  -------         ENDMOD        ?C?CSTPTR

  -------         MODULE        ?C?ILDIX
  C:06F9H         PUBLIC        ?C?ILDIX
  -------         ENDMOD        ?C?ILDIX

  -------         MODULE        ATOI
  C:03E8H         PUBLIC        _atoi
  -------         ENDMOD        ATOI

  -------         MODULE        ?C?IMUL
  C:070FH         PUBLIC        ?C?IMUL
  -------         ENDMOD        ?C?IMUL

  -------         MODULE        ?C?IILDX
  C:0721H         PUBLIC        ?C?IILDX
  -------         ENDMOD        ?C?IILDX

  -------         MODULE        ISDIGIT
  C:0952H         PUBLIC        _isdigit
  -------         ENDMOD        ISDIGIT

  -------         MODULE        ISSPACE
  C:091CH         PUBLIC        _isspace
  -------         ENDMOD        ISSPACE

*** WARNING L16: UNCALLED SEGMENT, IGNORED FOR OVERLAY PROCESS
    SEGMENT: ?PR?_SENDSTRING?UART1

*** WARNING L16: UNCALLED SEGMENT, IGNORED FOR OVERLAY PROCESS
    SEGMENT: ?PR?_TEN?UART1

*** WARNING L16: UNCALLED SEGMENT, IGNORED FOR OVERLAY PROCESS
    SEGMENT: ?PR?_UNIT?UART1

*** WARNING L16: UNCALLED SEGMENT, IGNORED FOR OVERLAY PROCESS
    SEGMENT: ?PR?_DECTOBCD?UART1

*** WARNING L16: UNCALLED SEGMENT, IGNORED FOR OVERLAY PROCESS
    SEGMENT: ?PR?_ASCII_LETTER?UART1

Program Size: data=17.2 xdata=72 code=2460
LINK/LOCATE RUN COMPLETE.  5 WARNING(S),  0 ERROR(S)
