BL51 BANKED LINKER/LOCATER V6.22                                                        02/01/2019  11:01:00  PAGE 1


BL51 BANKED LINKER/LOCATER V6.22, INVOKED BY:
C:\KEIL_V5\C51\BIN\BL51.EXE .\Obj\main.obj, .\Obj\PCF85063BTL.obj, .\Obj\UART1.obj, .\Obj\LCd_Driver_SPLC780D.obj, .\Obj
>> \KeyPad.obj, .\Obj\BipolarMotor.obj, .\Obj\SunPos.obj, .\Obj\ADC.obj, .\Obj\Calibration.obj, .\Obj\IOExpander_PI4IOE5
>> V96248.obj, .\Obj\STARTUP.obj TO .\Obj\GPIO_RTC_Test PRINT (.\Lis\GPIO_RTC_Test.m51) RAMSIZE (256)


MEMORY MODEL: LARGE WITH FLOATING POINT ARITHMETIC


INPUT MODULES INCLUDED:
  .\Obj\main.obj (MAIN)
  .\Obj\PCF85063BTL.obj (PCF85063BTL)
  .\Obj\UART1.obj (UART1)
  .\Obj\LCd_Driver_SPLC780D.obj (LCD_DRIVER_SPLC780D)
  .\Obj\KeyPad.obj (KEYPAD)
  .\Obj\BipolarMotor.obj (BIPOLARMOTOR)
  .\Obj\SunPos.obj (SUNPOS)
  .\Obj\ADC.obj (ADC)
  .\Obj\Calibration.obj (CALIBRATION)
  .\Obj\IOExpander_PI4IOE5V96248.obj (IOEXPANDER_PI4IOE5V96248)
  .\Obj\STARTUP.obj (?C_STARTUP)
  C:\KEIL_V5\C51\LIB\C51FPL.LIB (?C?FPADD)
  C:\KEIL_V5\C51\LIB\C51FPL.LIB (?C?FPMUL)
  C:\KEIL_V5\C51\LIB\C51FPL.LIB (?C?FPDIV)
  C:\KEIL_V5\C51\LIB\C51FPL.LIB (?C?FPCMP)
  C:\KEIL_V5\C51\LIB\C51FPL.LIB (?C?FPNEG)
  C:\KEIL_V5\C51\LIB\C51FPL.LIB (?C?FCAST)
  C:\KEIL_V5\C51\LIB\C51FPL.LIB (?C?CASTF)
  C:\KEIL_V5\C51\LIB\C51FPL.LIB (ATAN2)
  C:\KEIL_V5\C51\LIB\C51FPL.LIB (SIN)
  C:\KEIL_V5\C51\LIB\C51FPL.LIB (ACOS)
  C:\KEIL_V5\C51\LIB\C51FPL.LIB (ASIN)
  C:\KEIL_V5\C51\LIB\C51FPL.LIB (?C?FPGETOPN)
  C:\KEIL_V5\C51\LIB\C51FPL.LIB (?C?FPSERIES)
  C:\KEIL_V5\C51\LIB\C51FPL.LIB (SQRT)
  C:\KEIL_V5\C51\LIB\C51FPL.LIB (ATAN)
  C:\KEIL_V5\C51\LIB\C51L.LIB (?C_INIT)
  C:\KEIL_V5\C51\LIB\C51L.LIB (?C?COPY)
  C:\KEIL_V5\C51\LIB\C51L.LIB (?C?CLDPTR)
  C:\KEIL_V5\C51\LIB\C51L.LIB (?C?CLDOPTR)
  C:\KEIL_V5\C51\LIB\C51L.LIB (?C?CSTPTR)
  C:\KEIL_V5\C51\LIB\C51L.LIB (?C?IMUL)
  C:\KEIL_V5\C51\LIB\C51L.LIB (?C?UIDIV)
  C:\KEIL_V5\C51\LIB\C51L.LIB (?C?SIDIV)
  C:\KEIL_V5\C51\LIB\C51L.LIB (?C?ILDIX)
  C:\KEIL_V5\C51\LIB\C51L.LIB (?C?ILDOPTR)
  C:\KEIL_V5\C51\LIB\C51L.LIB (?C?LMUL)
  C:\KEIL_V5\C51\LIB\C51L.LIB (?C?SLDIV)
  C:\KEIL_V5\C51\LIB\C51L.LIB (?C?LNEG)
  C:\KEIL_V5\C51\LIB\C51L.LIB (?C?LLDPTR)
  C:\KEIL_V5\C51\LIB\C51L.LIB (?C?LLDOPTR)
  C:\KEIL_V5\C51\LIB\C51L.LIB (?C?LSTPTR)
  C:\KEIL_V5\C51\LIB\C51L.LIB (?C?LSTOPTR)
  C:\KEIL_V5\C51\LIB\C51L.LIB (?C?LLDXDATA)
  C:\KEIL_V5\C51\LIB\C51L.LIB (?C?LLDCODE)
  C:\KEIL_V5\C51\LIB\C51L.LIB (?C?LLDXDATA0)
  C:\KEIL_V5\C51\LIB\C51L.LIB (?C?LLDCODE0)
  C:\KEIL_V5\C51\LIB\C51L.LIB (?C?LLDPTR0)
BL51 BANKED LINKER/LOCATER V6.22                                                      02/01/2019  11:01:00  PAGE 2


  C:\KEIL_V5\C51\LIB\C51L.LIB (?C?LSTXDATA)
  C:\KEIL_V5\C51\LIB\C51L.LIB (?C?LSTKXDATA)
  C:\KEIL_V5\C51\LIB\C51L.LIB (?C?OFFXADD)
  C:\KEIL_V5\C51\LIB\C51L.LIB (ABS)
  C:\KEIL_V5\C51\LIB\C51L.LIB (ATOI)
  C:\KEIL_V5\C51\LIB\C51L.LIB (?C?IILDX)
  C:\KEIL_V5\C51\LIB\C51L.LIB (?C?ULDIV)
  C:\KEIL_V5\C51\LIB\C51L.LIB (?C?LLDIDATA)
  C:\KEIL_V5\C51\LIB\C51L.LIB (?C?LLDPDATA)
  C:\KEIL_V5\C51\LIB\C51L.LIB (?C?LLDIDATA0)
  C:\KEIL_V5\C51\LIB\C51L.LIB (?C?LLDPDATA0)
  C:\KEIL_V5\C51\LIB\C51L.LIB (?C?LSTIDATA)
  C:\KEIL_V5\C51\LIB\C51L.LIB (?C?LSTPDATA)
  C:\KEIL_V5\C51\LIB\C51L.LIB (ISDIGIT)
  C:\KEIL_V5\C51\LIB\C51L.LIB (ISSPACE)


LINK MAP OF MODULE:  .\Obj\GPIO_RTC_Test (MAIN)


            TYPE    BASE      LENGTH    RELOCATION   SEGMENT NAME
            -----------------------------------------------------

            * * * * * * *   D A T A   M E M O R Y   * * * * * * *
            REG     0000H     0008H     ABSOLUTE     "REG BANK 0"
                    0008H     0018H                  *** GAP ***
            BIT     0020H.0   0000H.5   UNIT         ?BI?KEYPAD
            BIT     0020H.5   0000H.2   UNIT         ?BI?ATAN?ATAN
            BIT     0020H.7   0000H.1   UNIT         ?BI?MAIN
            BIT     0021H.0   0000H.1   UNIT         ?BI?VONESTEPMOVE?BIPOLARMOTOR
            BIT     0021H.1   0000H.1   UNIT         ?BI?_STEP_MOVE?BIPOLARMOTOR
            BIT     0021H.2   0000H.1   UNIT         ?BI?_MOVE?BIPOLARMOTOR
            BIT     0021H.3   0000H.1   UNIT         ?BI?SIN?SIN
            BIT     0021H.4   0000H.1   UNIT         ?BI?_ATOI?ATOI
                    0021H.5   0000H.3                *** GAP ***
            IDATA   0022H     0001H     UNIT         ?STACK

            * * * * * * *  X D A T A   M E M O R Y  * * * * * * *
            XDATA   0000H     039FH     UNIT         ?XD?BIPOLARMOTOR
            XDATA   039FH     00D4H     UNIT         ?XD?MAIN
            XDATA   0473H     009FH     UNIT         ?XD?_UPDATE_POSITION?BIPOLARMOTOR
            XDATA   0512H     0084H     UNIT         ?XD?_FIND_REAL_MAX?CALIBRATION
            XDATA   0596H     005DH     UNIT         ?XD?SUNPOS?SUNPOS
            XDATA   05F3H     0040H     UNIT         ?XD?_FINDDET4X4?BIPOLARMOTOR
            XDATA   0633H     0024H     UNIT         ?XD?_FINDDET3X3?BIPOLARMOTOR
            XDATA   0657H     0024H     UNIT         _XDATA_GROUP_
            XDATA   067BH     0018H     UNIT         ?XD?VOLTAGE_IS_STABLE?CALIBRATION
            XDATA   0693H     0014H     UNIT         ?XD?LINEAR_INTERPOLATE?BIPOLARMOTOR
            XDATA   06A7H     0014H     UNIT         ?XD?_CALIBRATION?CALIBRATION
            XDATA   06BBH     000FH     UNIT         ?XD?_READ_TIME?PCF85063BTL
            XDATA   06CAH     0009H     UNIT         ?XD?KEYPAD
            XDATA   06D3H     0008H     UNIT         ?XD?_ATAN2?ATAN2
            XDATA   06DBH     0005H     UNIT         ?XD?_ATOI?ATOI
            XDATA   06E0H     0004H     UNIT         ?XD?_DISPLAY_PROX?MAIN
            XDATA   06E4H     0004H     UNIT         ?XD?_STEP_MOVE?BIPOLARMOTOR
            XDATA   06E8H     0004H     UNIT         ?XD?_MOVE?BIPOLARMOTOR
            XDATA   06ECH     0004H     UNIT         ?XD?_MAX_VALUE?CALIBRATION
BL51 BANKED LINKER/LOCATER V6.22                                                      02/01/2019  11:01:00  PAGE 3


            XDATA   06F0H     0004H     UNIT         ?XD?SIN?SIN
            XDATA   06F4H     0004H     UNIT         ?XD?SQRT?SQRT
            XDATA   06F8H     0004H     UNIT         ?XD?ATAN?ATAN
            XDATA   06FCH     0003H     UNIT         ?XD?_SENDSTRING?UART1
            XDATA   06FFH     0003H     UNIT         ?XD?_WRITE_PI4IOE5V96248?IOEXPANDER_PI4IOE5V96248
            XDATA   0702H     0001H     UNIT         ?XD?I2C_ACK?IOEXPANDER_PI4IOE5V96248
            XDATA   0703H     0001H     UNIT         ?XD?UC_ACK?IOEXPANDER_PI4IOE5V96248
            XDATA   0704H     0001H     UNIT         ?XD?UC_NACK?IOEXPANDER_PI4IOE5V96248

            * * * * * * *   C O D E   M E M O R Y   * * * * * * *
            CODE    0000H     0003H     ABSOLUTE     
            CODE    0003H     0006H     UNIT         ?PR?_TEN?UART1
            CODE    0009H     0001H     UNIT         ?PR?TM0_ISR?MAIN
            CODE    000AH     0001H     UNIT         ?PR?_DECTOBCD?UART1
            CODE    000BH     0003H     ABSOLUTE     
            CODE    000EH     0B00H     UNIT         ?PR?_UPDATE_POSITION?BIPOLARMOTOR
            CODE    0B0EH     0927H     UNIT         ?C?LIB_CODE
            CODE    1435H     07A2H     UNIT         ?PR?SUNPOS?SUNPOS
            CODE    1BD7H     0405H     UNIT         ?C_INITSEG
            CODE    1FDCH     02C0H     UNIT         ?PR?_FINDDET4X4?BIPOLARMOTOR
            CODE    229CH     02A0H     UNIT         ?PR?KEY_PROCESS?KEYPAD
            CODE    253CH     01D1H     UNIT         ?PR?_FINDDET3X3?BIPOLARMOTOR
            CODE    270DH     01B5H     UNIT         ?PR?_DISPLAY_POS?MAIN
            CODE    28C2H     01AFH     UNIT         ?PR?MAIN?MAIN
            CODE    2A71H     018DH     UNIT         ?PR?KEY_SCAN?KEYPAD
            CODE    2BFEH     0188H     UNIT         ?PR?SIN?SIN
            CODE    2D86H     013EH     UNIT         ?PR?_FIND_REAL_MAX?CALIBRATION
            CODE    2EC4H     0122H     UNIT         ?PR?ATAN?ATAN
            CODE    2FE6H     00E4H     UNIT         ?PR?_CALIBRATION?CALIBRATION
            CODE    30CAH     00DBH     UNIT         ?PR?_ATOI?ATOI
            CODE    31A5H     00C3H     UNIT         ?PR?LINEAR_INTERPOLATE?BIPOLARMOTOR
            CODE    3268H     00BBH     UNIT         ?PR?VOLTAGE_IS_STABLE?CALIBRATION
            CODE    3323H     00ADH     UNIT         ?PR?_WRITE_PI4IOE5V96248?IOEXPANDER_PI4IOE5V96248
            CODE    33D0H     00ACH     UNIT         ?PR?SQRT?SQRT
            CODE    347CH     009DH     UNIT         ?PR?_ATAN2?ATAN2
            CODE    3519H     0096H     UNIT         ?PR?_MAX_VALUE?CALIBRATION
            CODE    35AFH     0095H     UNIT         ?PR?_DISPLAY_PROX?MAIN
            CODE    3644H     008CH     UNIT         ?C_C51STARTUP
            CODE    36D0H     0084H     UNIT         ?PR?_DAY_OF_YEAR?PCF85063BTL
            CODE    3754H     0075H     UNIT         ?PR?_WRITEDATA?LCD_DRIVER_SPLC780D
            CODE    37C9H     006FH     UNIT         ?PR?_READ_TIME?PCF85063BTL
            CODE    3838H     0059H     UNIT         ?PR?LCD_INIT?LCD_DRIVER_SPLC780D
            CODE    3891H     004AH     UNIT         ?PR?VONESTEPMOVE?BIPOLARMOTOR
            CODE    38DBH     004AH     UNIT         ?PR?ACOS?ACOS
            CODE    3925H     0044H     UNIT         ?C?LDIV
            CODE    3969H     0040H     UNIT         ?PR?_COMMAND?LCD_DRIVER_SPLC780D
            CODE    39A9H     0040H     UNIT         ?PR?_STEP_MOVE?BIPOLARMOTOR
            CODE    39E9H     003BH     UNIT         ?PR?ASIN?ASIN
            CODE    3A24H     0033H     UNIT         ?PR?_SENDSTRING?UART1
            CODE    3A57H     002CH     UNIT         ?PR?_ADC_GETRESULT?ADC
            CODE    3A83H     002BH     UNIT         ?PR?_WAIT_MS_I2C?IOEXPANDER_PI4IOE5V96248
            CODE    3AAEH     0028H     UNIT         ?PR?_MOVE?BIPOLARMOTOR
            CODE    3AD6H     0027H     UNIT         ?PR?_I2C_SENDBYTE?IOEXPANDER_PI4IOE5V96248
            CODE    3AFDH     0024H     UNIT         ?PR?_WAIT_MS?LCD_DRIVER_SPLC780D
            CODE    3B21H     0020H     UNIT         ?PR?_SPI_SENDBYTE?PCF85063BTL
            CODE    3B41H     0020H     UNIT         ?PR?SPI_RECEIVEBYTE?PCF85063BTL
            CODE    3B61H     001FH     UNIT         ?PR?ADC_INIT?ADC
BL51 BANKED LINKER/LOCATER V6.22                                                      02/01/2019  11:01:00  PAGE 4


            CODE    3B80H     001EH     UNIT         ?PR?_DELAY_MS?KEYPAD
            CODE    3B9EH     001DH     UNIT         ?PR?_DISPLAYLCD?LCD_DRIVER_SPLC780D
            CODE    3BBBH     001BH     UNIT         ?PR?_BCDTODEC1?BIPOLARMOTOR
            CODE    3BD6H     0018H     UNIT         ?PR?_SPI_WRITETIME?PCF85063BTL
            CODE    3BEEH     0017H     UNIT         ?PR?_ASCIITOBCD?UART1
            CODE    3C05H     0016H     UNIT         ?PR?I2C_ACK?IOEXPANDER_PI4IOE5V96248
            CODE    3C1BH     0015H     UNIT         ?PR?_DISPLAY_LINE?LCD_DRIVER_SPLC780D
            CODE    3C30H     0015H     UNIT         ?PR?I2C_STOP?IOEXPANDER_PI4IOE5V96248
            CODE    3C45H     0014H     UNIT         ?PR?_PCF85063BTL_DELAY?PCF85063BTL
            CODE    3C59H     0014H     UNIT         ?PR?_ISSPACE?ISSPACE
            CODE    3C6DH     0011H     UNIT         ?PR?_SPI_READTIME?PCF85063BTL
            CODE    3C7EH     0011H     UNIT         ?PR?_BCDTODEC?PCF85063BTL
            CODE    3C8FH     0011H     UNIT         ?PR?INITUART1?UART1
            CODE    3CA0H     000FH     UNIT         ?PR?I2C_START?IOEXPANDER_PI4IOE5V96248
            CODE    3CAFH     000FH     UNIT         ?PR?UC_NACK?IOEXPANDER_PI4IOE5V96248
            CODE    3CBEH     000FH     UNIT         ?PR?_ISDIGIT?ISDIGIT
            CODE    3CCDH     000DH     UNIT         ?PR?SPI_INIT?PCF85063BTL
            CODE    3CDAH     000CH     UNIT         ?PR?KEYPAD_IO_INIT?KEYPAD
            CODE    3CE6H     000CH     UNIT         ?PR?_ABS?ABS
            CODE    3CF2H     000AH     UNIT         ?PR?LCD_RETURN_HOME?LCD_DRIVER_SPLC780D
            CODE    3CFCH     000AH     UNIT         ?PR?LCD_CLEAR?LCD_DRIVER_SPLC780D
            CODE    3D06H     0006H     UNIT         ?PR?UC_ACK?IOEXPANDER_PI4IOE5V96248
            CODE    3D0CH     0005H     UNIT         ?PR?_UNIT?UART1
            CODE    3D11H     0005H     UNIT         ?PR?_ASCII_LETTER?UART1
            CODE    3D16H     0001H     UNIT         ?PR?WAIT?BIPOLARMOTOR
            CODE    3D17H     0001H     UNIT         ?PR?NOP?IOEXPANDER_PI4IOE5V96248



OVERLAY MAP OF MODULE:   .\Obj\GPIO_RTC_Test (MAIN)


SEGMENT                                            XDATA_GROUP
  +--> CALLED SEGMENT                            START    LENGTH
----------------------------------------------------------------
?C_C51STARTUP                                    -----    -----
  +--> ?PR?MAIN?MAIN
  +--> ?C_INITSEG

?PR?MAIN?MAIN                                    0657H    0019H
  +--> ?PR?LCD_INIT?LCD_DRIVER_SPLC780D
  +--> ?PR?SPI_INIT?PCF85063BTL
  +--> ?PR?KEYPAD_IO_INIT?KEYPAD
  +--> ?PR?ADC_INIT?ADC
  +--> ?PR?_SPI_WRITETIME?PCF85063BTL
  +--> ?PR?_DELAY_MS?KEYPAD
  +--> ?PR?_DISPLAY_LINE?LCD_DRIVER_SPLC780D
  +--> ?PR?_WRITEDATA?LCD_DRIVER_SPLC780D
  +--> ?PR?KEY_PROCESS?KEYPAD
  +--> ?PR?_COMMAND?LCD_DRIVER_SPLC780D
  +--> ?PR?_DISPLAY_POS?MAIN
  +--> ?PR?_DISPLAYLCD?LCD_DRIVER_SPLC780D
  +--> ?PR?_ADC_GETRESULT?ADC

?PR?LCD_INIT?LCD_DRIVER_SPLC780D                 -----    -----
  +--> ?PR?_WAIT_MS?LCD_DRIVER_SPLC780D
  +--> ?PR?_COMMAND?LCD_DRIVER_SPLC780D
BL51 BANKED LINKER/LOCATER V6.22                                                      02/01/2019  11:01:00  PAGE 5



?PR?_COMMAND?LCD_DRIVER_SPLC780D                 -----    -----
  +--> ?PR?_WAIT_MS?LCD_DRIVER_SPLC780D

?PR?ADC_INIT?ADC                                 -----    -----
  +--> ?PR?_WAIT_MS?LCD_DRIVER_SPLC780D

?PR?_SPI_WRITETIME?PCF85063BTL                   -----    -----
  +--> ?PR?_SPI_SENDBYTE?PCF85063BTL

?PR?_SPI_SENDBYTE?PCF85063BTL                    -----    -----
  +--> ?PR?_PCF85063BTL_DELAY?PCF85063BTL

?PR?_DISPLAY_LINE?LCD_DRIVER_SPLC780D            -----    -----
  +--> ?PR?_COMMAND?LCD_DRIVER_SPLC780D

?PR?_WRITEDATA?LCD_DRIVER_SPLC780D               067AH    0001H
  +--> ?PR?_WAIT_MS?LCD_DRIVER_SPLC780D

?PR?KEY_PROCESS?KEYPAD                           0670H    0006H
  +--> ?PR?KEY_SCAN?KEYPAD
  +--> ?PR?_SPI_WRITETIME?PCF85063BTL
  +--> ?PR?LCD_CLEAR?LCD_DRIVER_SPLC780D
  +--> ?PR?_COMMAND?LCD_DRIVER_SPLC780D
  +--> ?PR?_WRITEDATA?LCD_DRIVER_SPLC780D

?PR?KEY_SCAN?KEYPAD                              0676H    0003H

?PR?LCD_CLEAR?LCD_DRIVER_SPLC780D                -----    -----
  +--> ?PR?_COMMAND?LCD_DRIVER_SPLC780D

?PR?_DISPLAY_POS?MAIN                            0670H    000AH
  +--> ?PR?_ABS?ABS
  +--> ?PR?_WRITEDATA?LCD_DRIVER_SPLC780D

?PR?_DISPLAYLCD?LCD_DRIVER_SPLC780D              0670H    0001H
  +--> ?PR?_WRITEDATA?LCD_DRIVER_SPLC780D



UNRESOLVED EXTERNAL SYMBOLS:
   AUTO_MODE
   _SENDUART1



SYMBOL TABLE OF MODULE:  .\Obj\GPIO_RTC_Test (MAIN)

  VALUE           TYPE          NAME
  ----------------------------------

  -------         MODULE        MAIN
  C:0000H         SYMBOL        _ICE_DUMMY_
  X:03A7H         PUBLIC        calib_value
  D:0080H         PUBLIC        P0
  D:00B2H         PUBLIC        P3M0
  D:0090H         PUBLIC        P1
BL51 BANKED LINKER/LOCATER V6.22                                                      02/01/2019  11:01:00  PAGE 6


  D:00B1H         PUBLIC        P3M1
  D:00A0H         PUBLIC        P2
  D:00B0H         PUBLIC        P3
  D:00C0H         PUBLIC        P4
  D:00C8H         PUBLIC        P5
  X:03FBH         SYMBOL        PressedKey
  B:00A8H.7       PUBLIC        EA
  D:00E8H         PUBLIC        P6
  X:03FFH         PUBLIC        calib_stamp
  D:00F8H         PUBLIC        P7
  X:0400H         PUBLIC        RX_Data_Uart_Cnt
  D:00A8H         PUBLIC        IE
  X:0402H         PUBLIC        calib_time
  D:00B8H         PUBLIC        IP
  X:0456H         PUBLIC        months
  D:00D8H         PUBLIC        CCON
  C:28C2H         PUBLIC        main
  X:0457H         PUBLIC        count
  X:0459H         PUBLIC        days
  X:045AH         PUBLIC        hours
  D:0098H         PUBLIC        SCON
  D:0089H         PUBLIC        TMOD
  D:0088H         PUBLIC        TCON
  X:045BH         SYMBOL        KeyCount
  X:045DH         PUBLIC        mins
  X:045EH         PUBLIC        Rec_data_hour
  B:00C8H.5       PUBLIC        P55
  X:0461H         PUBLIC        Rec_data_min
  D:008EH         PUBLIC        AUXR
  C:0009H         PUBLIC        tm0_isr
  B:0020H.7       PUBLIC        busy
  B:00A8H.1       PUBLIC        ET0
  D:008CH         PUBLIC        TH0
  X:0464H         PUBLIC        hour_count
  D:008AH         PUBLIC        TL0
  X:0465H         PUBLIC        min_count
  B:0088H.4       PUBLIC        TR0
  X:0466H         SYMBOL        KeyNum
  X:0467H         SYMBOL        KeyNum_Old
  X:0468H         PUBLIC        current_position
  X:046CH         PUBLIC        hours1
  X:046DH         PUBLIC        hours2
  C:35AFH         PUBLIC        _Display_Prox
  X:046EH         PUBLIC        mins1
  X:046FH         PUBLIC        mins2
  C:270DH         PUBLIC        _Display_Pos
  X:0470H         PUBLIC        seconds
  X:0471H         PUBLIC        st_time
  D:00D0H         PUBLIC        PSW
  -------         PROC          TM0_ISR
  C:0009H         LINE#         88
  C:0009H         LINE#         90
  -------         ENDPROC       TM0_ISR
  -------         PROC          MAIN
  -------         DO            
  X:0657H         SYMBOL        ADC_data
  X:039FH         SYMBOL        KeyCount
BL51 BANKED LINKER/LOCATER V6.22                                                      02/01/2019  11:01:00  PAGE 7


  X:03A1H         SYMBOL        KeyNum_Old
  X:03A2H         SYMBOL        KeyNum
  X:03A3H         SYMBOL        PressedKey
  X:0659H         SYMBOL        prox_flag
  X:065AH         SYMBOL        iUse_prevday_calib_value
  X:065CH         SYMBOL        calib_point1
  X:0664H         SYMBOL        calib_point2
  X:066CH         SYMBOL        calib_day
  X:066EH         SYMBOL        calib_count
  -------         ENDDO         
  C:28C2H         LINE#         92
  C:28C2H         LINE#         93
  C:28C2H         LINE#         98
  C:28C8H         LINE#         99
  C:28CDH         LINE#         102
  C:28D3H         LINE#         106
  C:28D5H         LINE#         107
  C:28D7H         LINE#         108
  C:28D9H         LINE#         109
  C:28DBH         LINE#         111
  C:28E1H         LINE#         120
  C:28E3H         LINE#         121
  C:28E6H         LINE#         122
  C:28E9H         LINE#         123
  C:28ECH         LINE#         124
  C:28EFH         LINE#         125
  C:28F2H         LINE#         128
  C:28F5H         LINE#         130
  C:28F8H         LINE#         131
  C:28FBH         LINE#         132
  C:28FEH         LINE#         133
  C:2900H         LINE#         134
  C:2902H         LINE#         135
  C:2904H         LINE#         137
  C:2906H         LINE#         138
  C:290DH         LINE#         139
  C:2914H         LINE#         140
  C:291BH         LINE#         141
  C:2922H         LINE#         145
  C:2929H         LINE#         146
  C:292EH         LINE#         147
  C:2933H         LINE#         148
  C:2938H         LINE#         149
  C:293DH         LINE#         150
  C:2942H         LINE#         153
  C:295BH         LINE#         154
  C:295BH         LINE#         155
  C:2977H         LINE#         156
  C:29BEH         LINE#         157
  C:29CFH         LINE#         158
  C:29CFH         LINE#         159
  C:29CFH         LINE#         160
  C:29D2H         LINE#         163
  C:29D2H         LINE#         166
  C:29D7H         LINE#         167
  C:29DCH         LINE#         169
  C:29E1H         LINE#         170
BL51 BANKED LINKER/LOCATER V6.22                                                      02/01/2019  11:01:00  PAGE 8


  C:29E6H         LINE#         171
  C:29EBH         LINE#         172
  C:29F0H         LINE#         174
  C:29FFH         LINE#         176
  C:2A06H         LINE#         177
  C:2A0EH         LINE#         178
  C:2A13H         LINE#         179
  C:2A1BH         LINE#         180
  C:2A20H         LINE#         181
  C:2A2AH         LINE#         182
  C:2A2FH         LINE#         183
  C:2A37H         LINE#         185
  C:2A3FH         LINE#         186
  C:2A44H         LINE#         187
  C:2A4EH         LINE#         188
  C:2A4EH         LINE#         189
  C:2A50H         LINE#         190
  C:2A52H         LINE#         191
  C:2A5CH         LINE#         192
  C:2A5CH         LINE#         193
  C:2A61H         LINE#         194
  C:2A61H         LINE#         195
  C:2A6EH         LINE#         335
  C:2A6EH         LINE#         337
  -------         ENDPROC       MAIN
  -------         PROC          _DISPLAY_PROX
  D:0002H         SYMBOL        dat
  -------         DO            
  X:06E0H         SYMBOL        unit
  X:06E1H         SYMBOL        ten
  X:06E2H         SYMBOL        hundred
  X:06E3H         SYMBOL        thousand
  -------         ENDDO         
  C:35AFH         LINE#         426
  C:35B3H         LINE#         427
  C:35B3H         LINE#         429
  C:35BFH         LINE#         430
  C:35CFH         LINE#         431
  C:35EBH         LINE#         432
  C:361BH         LINE#         433
  C:3625H         LINE#         434
  C:362FH         LINE#         435
  C:3639H         LINE#         436
  C:3643H         LINE#         438
  -------         ENDPROC       _DISPLAY_PROX
  -------         PROC          _DISPLAY_POS
  X:0670H         SYMBOL        sign_dat
  -------         DO            
  X:0674H         SYMBOL        unit
  X:0675H         SYMBOL        ten
  X:0676H         SYMBOL        hundred
  D:0003H         SYMBOL        thousand
  X:0677H         SYMBOL        after_dot
  X:0678H         SYMBOL        dat
  -------         ENDDO         
  C:270DH         LINE#         441
  C:2713H         LINE#         442
BL51 BANKED LINKER/LOCATER V6.22                                                      02/01/2019  11:01:00  PAGE 9


  C:2713H         LINE#         446
  C:272FH         LINE#         447
  C:2749H         LINE#         448
  C:276DH         LINE#         450
  C:27B7H         LINE#         452
  C:27CEH         LINE#         453
  C:27DBH         LINE#         454
  C:27FDH         LINE#         455
  C:2832H         LINE#         456
  C:284AH         LINE#         457
  C:284AH         LINE#         459
  C:2854H         LINE#         460
  C:285EH         LINE#         461
  C:2868H         LINE#         462
  C:286DH         LINE#         463
  C:2877H         LINE#         464
  C:287CH         LINE#         465
  C:2881H         LINE#         466
  C:2883H         LINE#         467
  C:2885H         LINE#         469
  C:2885H         LINE#         471
  C:288AH         LINE#         472
  C:2894H         LINE#         473
  C:289EH         LINE#         474
  C:28A8H         LINE#         475
  C:28ADH         LINE#         476
  C:28B7H         LINE#         477
  C:28BCH         LINE#         478
  C:28C1H         LINE#         480
  C:28C1H         LINE#         482
  -------         ENDPROC       _DISPLAY_POS
  -------         ENDMOD        MAIN

  -------         MODULE        PCF85063BTL
  C:0000H         SYMBOL        _ICE_DUMMY_
  D:0096H         PUBLIC        P2M0
  D:0080H         PUBLIC        P0
  D:0095H         PUBLIC        P2M1
  D:0090H         PUBLIC        P1
  D:00A0H         PUBLIC        P2
  D:00B0H         PUBLIC        P3
  D:00C0H         PUBLIC        P4
  D:00C8H         PUBLIC        P5
  D:00E8H         PUBLIC        P6
  B:00A0H.1       PUBLIC        PCF85063BTL_SDI
  D:00F8H         PUBLIC        P7
  B:00A0H.2       PUBLIC        PCF85063BTL_SCK
  B:00A0H.1       PUBLIC        PCF85063BTL_SDO
  D:00A8H         PUBLIC        IE
  C:37C9H         PUBLIC        _Read_time
  C:3C4BH         PUBLIC        _PCF85063BTL_Delay
  D:00B8H         PUBLIC        IP
  D:00D8H         PUBLIC        CCON
  C:36D0H         PUBLIC        _Day_Of_Year
  C:3B41H         PUBLIC        SPI_ReceiveByte
  D:0098H         PUBLIC        SCON
  D:0088H         PUBLIC        TCON
BL51 BANKED LINKER/LOCATER V6.22                                                      02/01/2019  11:01:00  PAGE 10


  C:3C7EH         PUBLIC        _BCDtoDec
  B:00A0H.0       PUBLIC        PCF85063BTL_CS
  C:3C6DH         PUBLIC        _SPI_ReadTime
  C:3CCDH         PUBLIC        SPI_Init
  C:3BD6H         PUBLIC        _SPI_WriteTime
  C:3B21H         PUBLIC        _SPI_SendByte
  D:00D0H         PUBLIC        PSW
  C:3C47H         SYMBOL        L?0047
  -------         PROC          L?0046
  -------         ENDPROC       L?0046
  C:3C47H         SYMBOL        L?0047
  -------         PROC          _PCF85063BTL_DELAY
  D:0006H         SYMBOL        us
  C:3C4BH         LINE#         8
  C:3C4BH         LINE#         9
  C:3C4BH         LINE#         10
  C:3C55H         LINE#         11
  C:3C55H         LINE#         12
  C:3C56H         LINE#         13
  C:3C58H         LINE#         14
  -------         ENDPROC       _PCF85063BTL_DELAY
  -------         PROC          _SPI_SENDBYTE
  D:0005H         SYMBOL        dat
  -------         DO            
  D:0003H         SYMBOL        i
  -------         ENDDO         
  C:3B21H         LINE#         17
  C:3B23H         LINE#         18
  C:3B23H         LINE#         20
  C:3B25H         LINE#         21
  C:3B25H         LINE#         22
  C:3B27H         LINE#         23
  C:3B2BH         LINE#         24
  C:3B2BH         LINE#         25
  C:3B2DH         LINE#         26
  C:3B2FH         LINE#         28
  C:3B2FH         LINE#         29
  C:3B31H         LINE#         30
  C:3B31H         LINE#         31
  C:3B34H         LINE#         32
  C:3B34H         LINE#         33
  C:3B37H         LINE#         34
  C:3B3BH         LINE#         35
  C:3B40H         LINE#         36
  -------         ENDPROC       _SPI_SENDBYTE
  -------         PROC          SPI_RECEIVEBYTE
  -------         DO            
  D:0003H         SYMBOL        i
  D:0005H         SYMBOL        dat
  -------         ENDDO         
  C:3B41H         LINE#         39
  C:3B41H         LINE#         40
  C:3B41H         LINE#         42
  C:3B43H         LINE#         44
  C:3B45H         LINE#         45
  C:3B46H         LINE#         46
  C:3B46H         LINE#         47
BL51 BANKED LINKER/LOCATER V6.22                                                      02/01/2019  11:01:00  PAGE 11


  C:3B4AH         LINE#         48
  C:3B4CH         LINE#         49
  C:3B4FH         LINE#         51
  C:3B52H         LINE#         52
  C:3B52H         LINE#         53
  C:3B56H         LINE#         54
  C:3B56H         LINE#         55
  C:3B56H         LINE#         56
  C:3B59H         LINE#         57
  C:3B5EH         LINE#         58
  C:3B60H         LINE#         59
  -------         ENDPROC       SPI_RECEIVEBYTE
  -------         PROC          _SPI_READTIME
  D:0007H         SYMBOL        addr
  -------         DO            
  D:0006H         SYMBOL        dat
  -------         ENDDO         
  C:3C6DH         LINE#         61
  C:3C6DH         LINE#         62
  C:3C6DH         LINE#         64
  C:3C6FH         LINE#         65
  C:3C71H         LINE#         66
  C:3C78H         LINE#         67
  C:3C7BH         LINE#         68
  C:3C7DH         LINE#         69
  C:3C7DH         LINE#         70
  -------         ENDPROC       _SPI_READTIME
  -------         PROC          _SPI_WRITETIME
  D:0002H         SYMBOL        val
  D:0005H         SYMBOL        addr
  C:3BD6H         LINE#         71
  C:3BD8H         LINE#         72
  C:3BD8H         LINE#         74
  C:3BDAH         LINE#         75
  C:3BE1H         LINE#         76
  C:3BE6H         LINE#         77
  C:3BEBH         LINE#         78
  C:3BEDH         LINE#         79
  -------         ENDPROC       _SPI_WRITETIME
  -------         PROC          SPI_INIT
  C:3CCDH         LINE#         83
  C:3CCDH         LINE#         84
  C:3CCDH         LINE#         89
  C:3CD0H         LINE#         90
  C:3CD3H         LINE#         91
  C:3CD5H         LINE#         92
  C:3CD7H         LINE#         93
  C:3CD9H         LINE#         94
  -------         ENDPROC       SPI_INIT
  -------         PROC          _READ_TIME
  X:06BBH         SYMBOL        months
  X:06BEH         SYMBOL        days
  X:06C1H         SYMBOL        hours
  X:06C4H         SYMBOL        mins
  X:06C7H         SYMBOL        seconds
  C:37C9H         LINE#         96
  C:37D4H         LINE#         97
BL51 BANKED LINKER/LOCATER V6.22                                                      02/01/2019  11:01:00  PAGE 12


  C:37D4H         LINE#         99
  C:37E8H         LINE#         101
  C:37FCH         LINE#         103
  C:3810H         LINE#         108
  C:3824H         LINE#         113
  -------         ENDPROC       _READ_TIME
  -------         PROC          _BCDTODEC
  D:0007H         SYMBOL        bcd
  -------         DO            
  D:0006H         SYMBOL        hi
  D:0007H         SYMBOL        lo
  -------         ENDDO         
  C:3C7EH         LINE#         119
  C:3C7EH         LINE#         120
  C:3C7EH         LINE#         122
  C:3C83H         LINE#         123
  C:3C87H         LINE#         124
  C:3C8EH         LINE#         125
  -------         ENDPROC       _BCDTODEC
  -------         PROC          _DAY_OF_YEAR
  D:0007H         SYMBOL        months_bcd
  D:0005H         SYMBOL        days_bcd
  -------         DO            
  D:0004H         SYMBOL        months
  D:0007H         SYMBOL        days
  -------         ENDDO         
  C:36D0H         LINE#         126
  C:36D0H         LINE#         127
  C:36D0H         LINE#         130
  C:36D5H         LINE#         132
  C:36DAH         LINE#         134
  C:3713H         LINE#         135
  C:3713H         LINE#         136
  C:3713H         LINE#         137
  C:3716H         LINE#         138
  C:3716H         LINE#         139
  C:3716H         LINE#         140
  C:371BH         LINE#         141
  C:371BH         LINE#         142
  C:371BH         LINE#         143
  C:3720H         LINE#         144
  C:3720H         LINE#         145
  C:3720H         LINE#         146
  C:3725H         LINE#         147
  C:3725H         LINE#         148
  C:3725H         LINE#         149
  C:372AH         LINE#         150
  C:372AH         LINE#         151
  C:372AH         LINE#         152
  C:372FH         LINE#         153
  C:372FH         LINE#         154
  C:372FH         LINE#         155
  C:3734H         LINE#         156
  C:3734H         LINE#         157
  C:3734H         LINE#         158
  C:3739H         LINE#         159
  C:3739H         LINE#         160
BL51 BANKED LINKER/LOCATER V6.22                                                      02/01/2019  11:01:00  PAGE 13


  C:3739H         LINE#         161
  C:3741H         LINE#         162
  C:3741H         LINE#         163
  C:3741H         LINE#         164
  C:3746H         LINE#         165
  C:3746H         LINE#         166
  C:3746H         LINE#         167
  C:374BH         LINE#         168
  C:374BH         LINE#         169
  C:374BH         LINE#         170
  C:3753H         LINE#         171
  C:3753H         LINE#         172
  C:3753H         LINE#         173
  -------         ENDPROC       _DAY_OF_YEAR
  -------         ENDMOD        PCF85063BTL

  -------         MODULE        UART1
  C:0000H         SYMBOL        _ICE_DUMMY_
  D:0080H         PUBLIC        P0
  D:0090H         PUBLIC        P1
  D:00A0H         PUBLIC        P2
  D:00B0H         PUBLIC        P3
  D:00C0H         PUBLIC        P4
  D:00C8H         PUBLIC        P5
  B:00A8H.7       PUBLIC        EA
  D:00E8H         PUBLIC        P6
  D:00F8H         PUBLIC        P7
  C:3A24H         PUBLIC        _SendString
  D:00A8H         PUBLIC        IE
  B:00A8H.4       PUBLIC        ES
  D:00B8H         PUBLIC        IP
  C:3BEEH         PUBLIC        _ASCIItoBCD
  D:00D8H         PUBLIC        CCON
  C:3C8FH         PUBLIC        initUART1
  D:0098H         PUBLIC        SCON
  D:0088H         PUBLIC        TCON
  C:000AH         PUBLIC        _DectoBCD
  C:3D11H         PUBLIC        _ASCII_Letter
  D:008EH         PUBLIC        AUXR
  C:3D0CH         PUBLIC        _unit
  C:0003H         PUBLIC        _ten
  D:00D6H         PUBLIC        T2H
  D:00D7H         PUBLIC        T2L
  D:00D0H         PUBLIC        PSW
  -------         PROC          INITUART1
  C:3C8FH         LINE#         21
  C:3C8FH         LINE#         22
  C:3C8FH         LINE#         23
  C:3C92H         LINE#         24
  C:3C95H         LINE#         25
  C:3C98H         LINE#         26
  C:3C9BH         LINE#         27
  C:3C9DH         LINE#         28
  C:3C9FH         LINE#         30
  -------         ENDPROC       INITUART1
  -------         PROC          _SENDSTRING
  X:06FCH         SYMBOL        s
BL51 BANKED LINKER/LOCATER V6.22                                                      02/01/2019  11:01:00  PAGE 14


  C:3A24H         LINE#         35
  C:3A2FH         LINE#         36
  C:3A2FH         LINE#         37
  C:3A3FH         LINE#         38
  C:3A3FH         LINE#         39
  C:3A54H         LINE#         40
  C:3A56H         LINE#         41
  -------         ENDPROC       _SENDSTRING
  -------         PROC          _TEN
  D:0007H         SYMBOL        BCD
  C:0003H         LINE#         43
  C:0003H         LINE#         44
  C:0003H         LINE#         45
  C:0008H         LINE#         46
  -------         ENDPROC       _TEN
  -------         PROC          _UNIT
  D:0007H         SYMBOL        BCD
  C:3D0CH         LINE#         47
  C:3D0CH         LINE#         48
  C:3D0CH         LINE#         52
  C:3D10H         LINE#         53
  -------         ENDPROC       _UNIT
  -------         PROC          _DECTOBCD
  D:0007H         SYMBOL        dec
  C:000AH         LINE#         54
  C:000AH         LINE#         55
  C:000AH         LINE#         57
  C:000AH         LINE#         58
  -------         ENDPROC       _DECTOBCD
  -------         PROC          _ASCII_LETTER
  D:0007H         SYMBOL        dat
  C:3D11H         LINE#         60
  C:3D11H         LINE#         61
  C:3D11H         LINE#         63
  C:3D15H         LINE#         64
  -------         ENDPROC       _ASCII_LETTER
  -------         PROC          _ASCIITOBCD
  D:0001H         SYMBOL        ascii
  -------         DO            
  D:0007H         SYMBOL        dec_val
  D:0006H         SYMBOL        ten
  D:0007H         SYMBOL        unit
  -------         ENDDO         
  C:3BEEH         LINE#         66
  C:3BEEH         LINE#         67
  C:3BEEH         LINE#         69
  C:3BF1H         LINE#         70
  C:3BF7H         LINE#         71
  C:3BFEH         LINE#         72
  C:3C04H         LINE#         74
  -------         ENDPROC       _ASCIITOBCD
  -------         ENDMOD        UART1

  -------         MODULE        LCD_DRIVER_SPLC780D
  C:0000H         SYMBOL        _ICE_DUMMY_
  D:0092H         PUBLIC        P1M0
  D:0091H         PUBLIC        P1M1
BL51 BANKED LINKER/LOCATER V6.22                                                      02/01/2019  11:01:00  PAGE 15


  D:0080H         PUBLIC        P0
  D:0090H         PUBLIC        P1
  D:00A0H         PUBLIC        P2
  D:00B0H         PUBLIC        P3
  D:00C0H         PUBLIC        P4
  D:00C8H         PUBLIC        P5
  D:00E8H         PUBLIC        P6
  D:00F8H         PUBLIC        P7
  C:3754H         PUBLIC        _WriteData
  D:00A8H         PUBLIC        IE
  D:00B8H         PUBLIC        IP
  D:00D8H         PUBLIC        CCON
  B:00B0H.4       PUBLIC        LCD_D4
  B:00B0H.5       PUBLIC        LCD_D5
  B:00B0H.6       PUBLIC        LCD_D6
  C:3B9EH         PUBLIC        _DisplayLCD
  B:00B0H.7       PUBLIC        LCD_D7
  D:0098H         PUBLIC        SCON
  D:0088H         PUBLIC        TCON
  C:3CFCH         PUBLIC        LCD_clear
  C:3969H         PUBLIC        _Command
  C:3C1BH         PUBLIC        _Display_Line
  C:3838H         PUBLIC        LCD_Init
  C:3B03H         PUBLIC        _Wait_ms
  B:00C0H.0       PUBLIC        LCD_RS
  B:00B0H.2       PUBLIC        LCD_RW
  C:3CF2H         PUBLIC        LCD_return_home
  B:00B0H.3       PUBLIC        LCD_E
  D:00D0H         PUBLIC        PSW
  -------         PROC          LCD_INIT
  C:3838H         LINE#         9
  C:3838H         LINE#         10
  C:3838H         LINE#         11
  C:383BH         LINE#         12
  C:383EH         LINE#         14
  C:3844H         LINE#         15
  C:3849H         LINE#         17
  C:3850H         LINE#         18
  C:3855H         LINE#         20
  C:3858H         LINE#         21
  C:385DH         LINE#         23
  C:3860H         LINE#         24
  C:3865H         LINE#         26
  C:386CH         LINE#         29
  C:3871H         LINE#         30
  C:3876H         LINE#         32
  C:387BH         LINE#         33
  C:3880H         LINE#         35
  C:3885H         LINE#         36
  C:388AH         LINE#         37
  -------         ENDPROC       LCD_INIT
  -------         PROC          _WRITEDATA
  X:067AH         SYMBOL        dat
  C:3754H         LINE#         40
  C:3759H         LINE#         41
  C:3759H         LINE#         46
  C:375BH         LINE#         47
BL51 BANKED LINKER/LOCATER V6.22                                                      02/01/2019  11:01:00  PAGE 16


  C:375DH         LINE#         49
  C:376BH         LINE#         50
  C:3777H         LINE#         51
  C:3783H         LINE#         52
  C:378DH         LINE#         53
  C:378FH         LINE#         54
  C:3796H         LINE#         55
  C:3798H         LINE#         57
  C:37A8H         LINE#         58
  C:37B3H         LINE#         59
  C:37BDH         LINE#         60
  C:37C1H         LINE#         62
  C:37C1H         LINE#         63
  C:37C4H         LINE#         64
  C:37C6H         LINE#         65
  C:37C8H         LINE#         67
  -------         ENDPROC       _WRITEDATA
  -------         PROC          _COMMAND
  D:0007H         SYMBOL        dat
  C:3969H         LINE#         69
  C:3969H         LINE#         70
  C:3969H         LINE#         71
  C:396BH         LINE#         72
  C:396DH         LINE#         74
  C:3977H         LINE#         75
  C:397BH         LINE#         77
  C:397DH         LINE#         78
  C:3986H         LINE#         79
  C:398AH         LINE#         81
  C:398CH         LINE#         82
  C:3993H         LINE#         83
  C:3997H         LINE#         85
  C:3999H         LINE#         86
  C:399DH         LINE#         87
  C:39A1H         LINE#         89
  C:39A3H         LINE#         90
  C:39A3H         LINE#         91
  C:39A6H         LINE#         92
  C:39A8H         LINE#         93
  -------         ENDPROC       _COMMAND
  C:3AFFH         SYMBOL        L?0028
  -------         PROC          L?0027
  -------         ENDPROC       L?0027
  C:3AFFH         SYMBOL        L?0028
  -------         PROC          _WAIT_MS
  D:0006H         SYMBOL        ms
  -------         DO            
  D:0004H         SYMBOL        De_Cnt
  -------         ENDDO         
  C:3B03H         LINE#         95
  C:3B03H         LINE#         96
  C:3B03H         LINE#         98
  C:3B0DH         LINE#         99
  C:3B0DH         LINE#         100
  C:3B20H         LINE#         101
  C:3B20H         LINE#         102
  -------         ENDPROC       _WAIT_MS
BL51 BANKED LINKER/LOCATER V6.22                                                      02/01/2019  11:01:00  PAGE 17


  -------         PROC          _DISPLAYLCD
  D:0007H         SYMBOL        BCD
  -------         DO            
  D:0006H         SYMBOL        first_digit
  X:0670H         SYMBOL        second_digit
  -------         ENDDO         
  C:3B9EH         LINE#         103
  C:3B9EH         LINE#         104
  C:3B9EH         LINE#         106
  C:3BA5H         LINE#         107
  C:3BAEH         LINE#         109
  C:3BB3H         LINE#         111
  -------         ENDPROC       _DISPLAYLCD
  -------         PROC          LCD_RETURN_HOME
  C:3CF2H         LINE#         115
  C:3CF2H         LINE#         116
  C:3CF2H         LINE#         117
  C:3CF7H         LINE#         118
  -------         ENDPROC       LCD_RETURN_HOME
  -------         PROC          LCD_CLEAR
  C:3CFCH         LINE#         121
  C:3CFCH         LINE#         122
  C:3CFCH         LINE#         123
  C:3D01H         LINE#         124
  -------         ENDPROC       LCD_CLEAR
  -------         PROC          _DISPLAY_LINE
  D:0006H         SYMBOL        line
  C:3C1BH         LINE#         128
  C:3C1BH         LINE#         129
  C:3C1BH         LINE#         130
  C:3C21H         LINE#         131
  C:3C21H         LINE#         132
  C:3C23H         LINE#         133
  C:3C23H         LINE#         134
  C:3C25H         LINE#         136
  C:3C25H         LINE#         137
  C:3C2AH         LINE#         138
  C:3C2FH         LINE#         139
  C:3C2FH         LINE#         140
  -------         ENDPROC       _DISPLAY_LINE
  -------         ENDMOD        LCD_DRIVER_SPLC780D

  -------         MODULE        KEYPAD
  C:0000H         SYMBOL        _ICE_DUMMY_
  D:0093H         PUBLIC        P0M1
  D:0080H         PUBLIC        P0
  D:0090H         PUBLIC        P1
  D:00A0H         PUBLIC        P2
  D:00B0H         PUBLIC        P3
  D:00C0H         PUBLIC        P4
  D:00C8H         PUBLIC        P5
  B:0020H.0       PUBLIC        calib_mode
  D:00E8H         PUBLIC        P6
  D:00F8H         PUBLIC        P7
  D:00A8H         PUBLIC        IE
  C:2A71H         PUBLIC        Key_Scan
  D:00B8H         PUBLIC        IP
BL51 BANKED LINKER/LOCATER V6.22                                                      02/01/2019  11:01:00  PAGE 18


  D:00D8H         PUBLIC        CCON
  C:3CDAH         PUBLIC        KeyPad_IO_Init
  C:3B80H         PUBLIC        _Delay_ms
  D:0098H         PUBLIC        SCON
  D:0088H         PUBLIC        TCON
  B:0020H.1       PUBLIC        small_move
  B:0020H.2       PUBLIC        move
  B:0020H.3       PUBLIC        direction
  B:0020H.4       PUBLIC        auto_move
  C:229CH         PUBLIC        Key_Process
  D:00D0H         PUBLIC        PSW
  D:0094H         PUBLIC        P0M0
  -------         PROC          _DELAY_MS
  D:0006H         SYMBOL        ms
  -------         DO            
  D:0004H         SYMBOL        De_Cnt
  -------         ENDDO         
  C:3B80H         LINE#         19
  C:3B80H         LINE#         20
  C:3B80H         LINE#         22
  C:3B8AH         LINE#         23
  C:3B8AH         LINE#         24
  C:3B9DH         LINE#         25
  C:3B9DH         LINE#         26
  -------         ENDPROC       _DELAY_MS
  -------         PROC          KEY_SCAN
  -------         DO            
  X:0676H         SYMBOL        KeyTemp1
  X:0677H         SYMBOL        KeyTemp2
  X:0678H         SYMBOL        KeyValue
  -------         ENDDO         
  C:2A71H         LINE#         27
  C:2A71H         LINE#         28
  C:2A71H         LINE#         33
  C:2A74H         LINE#         36
  C:2A77H         LINE#         38
  C:2A7FH         LINE#         39
  C:2A86H         LINE#         40
  C:2A86H         LINE#         42
  C:2A8BH         LINE#         43
  C:2A92H         LINE#         44
  C:2A92H         LINE#         47
  C:2A95H         LINE#         48
  C:2A98H         LINE#         49
  C:2A9DH         LINE#         50
  C:2AA1H         LINE#         51
  C:2AA1H         LINE#         52
  C:2AA9H         LINE#         53
  C:2AA9H         LINE#         54
  C:2AACH         LINE#         55
  C:2AB4H         LINE#         56
  C:2AB6H         LINE#         58
  C:2ACAH         LINE#         59
  C:2ACAH         LINE#         60
  C:2ACAH         LINE#         61
  C:2ACAH         LINE#         62
  C:2AD0H         LINE#         64
BL51 BANKED LINKER/LOCATER V6.22                                                      02/01/2019  11:01:00  PAGE 19


  C:2AD2H         LINE#         65
  C:2AD2H         LINE#         66
  C:2AD2H         LINE#         67
  C:2AD8H         LINE#         69
  C:2ADAH         LINE#         70
  C:2ADAH         LINE#         71
  C:2ADAH         LINE#         72
  C:2AE0H         LINE#         74
  C:2AE2H         LINE#         75
  C:2AE2H         LINE#         76
  C:2AE2H         LINE#         77
  C:2AE8H         LINE#         79
  C:2AE8H         LINE#         80
  C:2AE8H         LINE#         81
  C:2AE8H         LINE#         84
  C:2AEBH         LINE#         85
  C:2AEEH         LINE#         86
  C:2AF6H         LINE#         87
  C:2AFAH         LINE#         88
  C:2AFAH         LINE#         89
  C:2B02H         LINE#         90
  C:2B02H         LINE#         91
  C:2B05H         LINE#         92
  C:2B0DH         LINE#         93
  C:2B0FH         LINE#         94
  C:2B23H         LINE#         95
  C:2B23H         LINE#         96
  C:2B23H         LINE#         97
  C:2B23H         LINE#         98
  C:2B29H         LINE#         100
  C:2B2BH         LINE#         101
  C:2B2BH         LINE#         102
  C:2B2BH         LINE#         103
  C:2B31H         LINE#         105
  C:2B33H         LINE#         106
  C:2B33H         LINE#         107
  C:2B33H         LINE#         108
  C:2B39H         LINE#         110
  C:2B3BH         LINE#         111
  C:2B3BH         LINE#         112
  C:2B3BH         LINE#         113
  C:2B40H         LINE#         115
  C:2B40H         LINE#         116
  C:2B40H         LINE#         117
  C:2B40H         LINE#         120
  C:2B43H         LINE#         121
  C:2B46H         LINE#         122
  C:2B4EH         LINE#         123
  C:2B52H         LINE#         124
  C:2B52H         LINE#         125
  C:2B5AH         LINE#         126
  C:2B5AH         LINE#         127
  C:2B5DH         LINE#         128
  C:2B65H         LINE#         129
  C:2B67H         LINE#         130
  C:2B7BH         LINE#         131
  C:2B7BH         LINE#         132
BL51 BANKED LINKER/LOCATER V6.22                                                      02/01/2019  11:01:00  PAGE 20


  C:2B7BH         LINE#         133
  C:2B7BH         LINE#         134
  C:2B81H         LINE#         136
  C:2B83H         LINE#         137
  C:2B83H         LINE#         138
  C:2B83H         LINE#         139
  C:2B89H         LINE#         141
  C:2B8BH         LINE#         142
  C:2B8BH         LINE#         143
  C:2B8BH         LINE#         144
  C:2B91H         LINE#         146
  C:2B93H         LINE#         147
  C:2B93H         LINE#         148
  C:2B93H         LINE#         149
  C:2B99H         LINE#         151
  C:2B99H         LINE#         152
  C:2B99H         LINE#         153
  C:2B99H         LINE#         157
  C:2B9CH         LINE#         158
  C:2B9FH         LINE#         159
  C:2BA7H         LINE#         160
  C:2BABH         LINE#         161
  C:2BABH         LINE#         162
  C:2BB3H         LINE#         163
  C:2BB3H         LINE#         164
  C:2BB6H         LINE#         165
  C:2BBEH         LINE#         166
  C:2BC0H         LINE#         167
  C:2BD4H         LINE#         168
  C:2BD4H         LINE#         169
  C:2BD4H         LINE#         170
  C:2BD4H         LINE#         171
  C:2BDAH         LINE#         173
  C:2BDCH         LINE#         174
  C:2BDCH         LINE#         175
  C:2BDCH         LINE#         176
  C:2BE2H         LINE#         178
  C:2BE4H         LINE#         179
  C:2BE4H         LINE#         180
  C:2BE4H         LINE#         181
  C:2BEAH         LINE#         183
  C:2BECH         LINE#         184
  C:2BECH         LINE#         185
  C:2BECH         LINE#         186
  C:2BF2H         LINE#         188
  C:2BF2H         LINE#         189
  C:2BF2H         LINE#         190
  C:2BF2H         LINE#         192
  C:2BF8H         LINE#         193
  C:2BF8H         LINE#         195
  C:2BF8H         LINE#         196
  C:2BFBH         LINE#         197
  C:2BFBH         LINE#         198
  C:2BFBH         LINE#         200
  C:2BFBH         LINE#         201
  C:2BFDH         LINE#         202
  C:2BFDH         LINE#         203
BL51 BANKED LINKER/LOCATER V6.22                                                      02/01/2019  11:01:00  PAGE 21


  -------         ENDPROC       KEY_SCAN
  -------         PROC          KEY_PROCESS
  -------         DO            
  X:06CAH         SYMBOL        KeyCount
  X:06CCH         SYMBOL        KeyNum_Old
  X:06CDH         SYMBOL        KeyNum
  X:06CEH         SYMBOL        PressedKey
  X:0670H         SYMBOL        d
  D:0004H         SYMBOL        hours
  D:0006H         SYMBOL        mins
  X:0672H         SYMBOL        months
  X:0674H         SYMBOL        days
  -------         ENDDO         
  C:229CH         LINE#         204
  C:229CH         LINE#         205
  C:229CH         LINE#         209
  C:22A4H         LINE#         210
  C:22ACH         LINE#         212
  C:22AFH         LINE#         213
  C:22AFH         LINE#         214
  C:22B2H         LINE#         216
  C:22B2H         LINE#         217
  C:22BFH         LINE#         218
  C:22BFH         LINE#         219
  C:22C2H         LINE#         220
  C:22C5H         LINE#         222
  C:22C8H         LINE#         224
  C:22C8H         LINE#         225
  C:22D3H         LINE#         226
  C:22D3H         LINE#         227
  C:22D6H         LINE#         229
  C:22D6H         LINE#         230
  C:22DDH         LINE#         231
  C:22DDH         LINE#         232
  C:22E0H         LINE#         234
  C:22E0H         LINE#         235
  C:22E8H         LINE#         236
  C:22E8H         LINE#         237
  C:22F2H         LINE#         238
  C:22FAH         LINE#         240
  C:2303H         LINE#         242
  C:2303H         LINE#         251
  C:2318H         LINE#         252
  C:2318H         LINE#         253
  C:232AH         LINE#         254
  C:2338H         LINE#         255
  C:2347H         LINE#         256
  C:2347H         LINE#         258
  C:234DH         LINE#         262
  C:2363H         LINE#         263
  C:2374H         LINE#         264
  C:238FH         LINE#         265
  C:238FH         LINE#         266
  C:239FH         LINE#         267
  C:23B0H         LINE#         268
  C:23B0H         LINE#         272
  C:23C9H         LINE#         273
BL51 BANKED LINKER/LOCATER V6.22                                                      02/01/2019  11:01:00  PAGE 22


  C:23E0H         LINE#         274
  C:2400H         LINE#         275
  C:2400H         LINE#         276
  C:240AH         LINE#         277
  C:240AH         LINE#         278
  C:2413H         LINE#         279
  C:2413H         LINE#         280
  C:2427H         LINE#         281
  C:2427H         LINE#         282
  C:2427H         LINE#         283
  C:2427H         LINE#         284
  C:2427H         LINE#         285
  C:2429H         LINE#         287
  C:2429H         LINE#         288
  C:2435H         LINE#         289
  C:2435H         LINE#         290
  C:2446H         LINE#         291
  C:2446H         LINE#         292
  C:2446H         LINE#         293
  C:2446H         LINE#         294
  C:2446H         LINE#         296
  C:2448H         LINE#         298
  C:2448H         LINE#         299
  C:2459H         LINE#         300
  C:2459H         LINE#         301
  C:2459H         LINE#         302
  C:2459H         LINE#         303
  C:2459H         LINE#         305
  C:2459H         LINE#         307
  C:2459H         LINE#         308
  C:245BH         LINE#         310
  C:245BH         LINE#         311
  C:246EH         LINE#         312
  C:246EH         LINE#         313
  C:247FH         LINE#         314
  C:247FH         LINE#         315
  C:247FH         LINE#         316
  C:247FH         LINE#         317
  C:247FH         LINE#         318
  C:2481H         LINE#         320
  C:2481H         LINE#         321
  C:2492H         LINE#         322
  C:2492H         LINE#         323
  C:24A3H         LINE#         324
  C:24B4H         LINE#         325
  C:24B4H         LINE#         326
  C:24B4H         LINE#         327
  C:24B4H         LINE#         328
  C:24B4H         LINE#         329
  C:24B7H         LINE#         330
  C:24BCH         LINE#         331
  C:24C1H         LINE#         332
  C:24C6H         LINE#         333
  C:24CBH         LINE#         334
  C:24D0H         LINE#         335
  C:24D5H         LINE#         336
  C:24DAH         LINE#         337
BL51 BANKED LINKER/LOCATER V6.22                                                      02/01/2019  11:01:00  PAGE 23


  C:24DAH         LINE#         339
  C:24FCH         LINE#         340
  C:24FCH         LINE#         341
  C:2506H         LINE#         342
  C:2506H         LINE#         343
  C:250BH         LINE#         344
  C:2514H         LINE#         345
  C:252BH         LINE#         346
  C:252BH         LINE#         347
  C:253BH         LINE#         349
  C:253BH         LINE#         353
  -------         ENDPROC       KEY_PROCESS
  -------         PROC          KEYPAD_IO_INIT
  C:3CDAH         LINE#         356
  C:3CDAH         LINE#         357
  C:3CDAH         LINE#         358
  C:3CDDH         LINE#         359
  C:3CE0H         LINE#         360
  C:3CE3H         LINE#         361
  C:3CE5H         LINE#         362
  -------         ENDPROC       KEYPAD_IO_INIT
  -------         ENDMOD        KEYPAD

  -------         MODULE        BIPOLARMOTOR
  C:0000H         SYMBOL        _ICE_DUMMY_
  D:0080H         PUBLIC        P0
  D:0090H         PUBLIC        P1
  X:0000H         PUBLIC        RX_pos_test
  D:00A0H         PUBLIC        P2
  D:00B0H         PUBLIC        P3
  D:00C0H         PUBLIC        P4
  D:00C8H         PUBLIC        P5
  D:00E8H         PUBLIC        P6
  D:00F8H         PUBLIC        P7
  X:00A0H         PUBLIC        low_date_azimuth_mapping
  D:00A8H         PUBLIC        IE
  C:31C8H         PUBLIC        linear_interpolate
  C:3AAEH         PUBLIC        _Move
  D:00B8H         PUBLIC        IP
  C:256FH         PUBLIC        _findDet3x3
  C:1FDCH         PUBLIC        _findDet4x4
  D:00D8H         PUBLIC        CCON
  X:00C8H         PUBLIC        previous_move_time
  D:0098H         PUBLIC        SCON
  D:0088H         PUBLIC        TCON
  C:3D16H         PUBLIC        wait
  C:39A9H         PUBLIC        _Step_move
  X:00C9H         PUBLIC        dat
  C:000EH         PUBLIC        _Update_position
  C:3891H         PUBLIC        vOneStepMove
  X:00CFH         PUBLIC        elevation_stamp
  X:010BH         PUBLIC        date_azimuth_mapping
  X:0133H         PUBLIC        RX_pos
  C:3BC5H         PUBLIC        _BCDtoDec1
  X:038BH         PUBLIC        degree
  X:038FH         PUBLIC        elevation_stamp_test
  D:00D0H         PUBLIC        PSW
BL51 BANKED LINKER/LOCATER V6.22                                                      02/01/2019  11:01:00  PAGE 24


  -------         PROC          L?0062
  -------         ENDPROC       L?0062
  -------         PROC          _BCDTODEC1
  D:0007H         SYMBOL        bcd
  -------         DO            
  D:0006H         SYMBOL        hi
  D:0007H         SYMBOL        lo
  -------         ENDDO         
  C:3BC5H         LINE#         28
  C:3BC5H         LINE#         29
  C:3BC5H         LINE#         31
  C:3BCAH         LINE#         32
  C:3BCEH         LINE#         33
  C:3BD5H         LINE#         34
  -------         ENDPROC       _BCDTODEC1
  -------         PROC          WAIT
  C:3D16H         LINE#         36
  C:3D16H         LINE#         38
  -------         ENDPROC       WAIT
  -------         PROC          VONESTEPMOVE
  B:0021H.0       SYMBOL        bDir
  C:3891H         LINE#         40
  C:3891H         LINE#         41
  C:3891H         LINE#         43
  C:3897H         LINE#         44
  C:3897H         LINE#         45
  C:389AH         LINE#         46
  C:38A3H         LINE#         47
  C:38AAH         LINE#         48
  C:38AFH         LINE#         49
  C:38AFH         LINE#         50
  C:38AFH         LINE#         52
  C:38B1H         LINE#         55
  C:38B1H         LINE#         56
  C:38B4H         LINE#         57
  C:38BDH         LINE#         58
  C:38C4H         LINE#         59
  C:38CAH         LINE#         60
  C:38D3H         LINE#         61
  C:38DAH         LINE#         62
  C:38DAH         LINE#         66
  -------         ENDPROC       VONESTEPMOVE
  -------         PROC          _STEP_MOVE
  X:06E4H         SYMBOL        step
  B:0021H.1       SYMBOL        dir
  -------         DO            
  X:06E6H         SYMBOL        i
  -------         ENDDO         
  C:39A9H         LINE#         68
  C:39B1H         LINE#         69
  C:39B1H         LINE#         71
  C:39B6H         LINE#         74
  C:39D1H         LINE#         75
  C:39D1H         LINE#         76
  C:39D8H         LINE#         78
  C:39E8H         LINE#         80
  -------         ENDPROC       _STEP_MOVE
BL51 BANKED LINKER/LOCATER V6.22                                                      02/01/2019  11:01:00  PAGE 25


  -------         PROC          _MOVE
  X:06E8H         SYMBOL        distance
  B:0021H.2       SYMBOL        direction
  -------         DO            
  D:0006H         SYMBOL        step
  -------         ENDDO         
  C:3AAEH         LINE#         82
  C:3AB4H         LINE#         83
  C:3AB4H         LINE#         86
  C:3ACFH         LINE#         87
  -------         ENDPROC       _MOVE
  C:2550H         SYMBOL        L?0058
  C:2564H         SYMBOL        L?0059
  -------         PROC          L?0057
  -------         ENDPROC       L?0057
  C:2550H         SYMBOL        L?0058
  C:2564H         SYMBOL        L?0059
  -------         PROC          _FINDDET3X3
  X:0633H         SYMBOL        a11
  X:0637H         SYMBOL        a12
  X:063BH         SYMBOL        a13
  X:063FH         SYMBOL        a21
  X:0643H         SYMBOL        a22
  X:0647H         SYMBOL        a23
  X:064BH         SYMBOL        a31
  X:064FH         SYMBOL        a32
  X:0653H         SYMBOL        a33
  C:256FH         LINE#         91
  C:2575H         LINE#         95
  C:2575H         LINE#         96
  C:270CH         LINE#         98
  -------         ENDPROC       _FINDDET3X3
  -------         PROC          _FINDDET4X4
  X:05F3H         SYMBOL        a11
  X:05F7H         SYMBOL        a12
  X:05FBH         SYMBOL        a13
  X:05FFH         SYMBOL        a14
  X:0603H         SYMBOL        a21
  X:0607H         SYMBOL        a22
  X:060BH         SYMBOL        a23
  X:060FH         SYMBOL        a24
  X:0613H         SYMBOL        a31
  X:0617H         SYMBOL        a32
  X:061BH         SYMBOL        a33
  X:061FH         SYMBOL        a34
  X:0623H         SYMBOL        a41
  X:0627H         SYMBOL        a42
  X:062BH         SYMBOL        a43
  X:062FH         SYMBOL        a44
  C:1FDCH         LINE#         99
  C:1FE2H         LINE#         103
  C:1FE2H         LINE#         110
  C:229BH         LINE#         114
  -------         ENDPROC       _FINDDET4X4
  C:31B7H         SYMBOL        L?0061
  -------         PROC          L?0060
  -------         ENDPROC       L?0060
BL51 BANKED LINKER/LOCATER V6.22                                                      02/01/2019  11:01:00  PAGE 26


  C:31B7H         SYMBOL        L?0061
  -------         PROC          LINEAR_INTERPOLATE
  X:0693H         SYMBOL        p1
  X:069BH         SYMBOL        p2
  X:06A3H         SYMBOL        x
  -------         DO            
  D:0004H         SYMBOL        fx
  -------         ENDDO         
  C:31C8H         LINE#         120
  C:31C8H         LINE#         121
  C:31C8H         LINE#         124
  C:3267H         LINE#         126
  C:3267H         LINE#         127
  -------         ENDPROC       LINEAR_INTERPOLATE
  -------         PROC          _UPDATE_POSITION
  D:0001H         SYMBOL        mnths
  D:0002H         SYMBOL        dys
  X:0475H         SYMBOL        hurs
  X:0476H         SYMBOL        mns
  X:0477H         SYMBOL        sconds
  X:0478H         SYMBOL        currnt_pos
  X:047BH         SYMBOL        offset_calib
  -------         DO            
  X:047FH         SYMBOL        date
  X:0481H         SYMBOL        i
  X:0483H         SYMBOL        yy
  X:0485H         SYMBOL        desired_distance
  X:0489H         SYMBOL        distance
  X:048DH         SYMBOL        JP_pos
  X:0491H         SYMBOL        pos_interpolate_azimuth
  X:04CDH         SYMBOL        current_local_sun_time
  X:04D1H         SYMBOL        azimuth
  X:04D5H         SYMBOL        elevation
  X:04D9H         SYMBOL        time_offset
  X:04DDH         SYMBOL        UTC_time
  X:04E1H         SYMBOL        declination
  X:04E5H         SYMBOL        p1
  X:04EDH         SYMBOL        p2
  X:04F5H         SYMBOL        time
  X:0507H         SYMBOL        location
  X:050FH         SYMBOL        sunCoord
  -------         ENDDO         
  C:000EH         LINE#         131
  C:0017H         LINE#         134
  C:0017H         LINE#         135
  C:0022H         LINE#         137
  C:003EH         LINE#         138
  C:0048H         LINE#         146
  C:0052H         LINE#         147
  C:005CH         LINE#         148
  C:0066H         LINE#         149
  C:0071H         LINE#         150
  C:007CH         LINE#         151
  C:0095H         LINE#         152
  C:00A6H         LINE#         153
  C:00B5H         LINE#         156
  C:00C9H         LINE#         160
BL51 BANKED LINKER/LOCATER V6.22                                                      02/01/2019  11:01:00  PAGE 27


  C:011BH         LINE#         161
  C:027FH         LINE#         162
  C:02CFH         LINE#         164
  C:03F7H         LINE#         166
  C:04C6H         LINE#         173
  C:050DH         LINE#         174
  C:050DH         LINE#         176
  C:0527H         LINE#         177
  C:0527H         LINE#         178
  C:0597H         LINE#         179
  C:0597H         LINE#         180
  C:059EH         LINE#         181
  C:059EH         LINE#         182
  C:05CBH         LINE#         183
  C:05E6H         LINE#         185
  C:062DH         LINE#         186
  C:0661H         LINE#         188
  C:06A7H         LINE#         189
  C:06CAH         LINE#         191
  C:06CAH         LINE#         193
  C:0740H         LINE#         194
  C:0740H         LINE#         195
  C:0747H         LINE#         196
  C:0747H         LINE#         197
  C:0774H         LINE#         198
  C:078FH         LINE#         200
  C:07D6H         LINE#         201
  C:080AH         LINE#         203
  C:0850H         LINE#         204
  C:0870H         LINE#         206
  C:0870H         LINE#         207
  C:0881H         LINE#         210
  C:089BH         LINE#         211
  C:089BH         LINE#         212
  C:090BH         LINE#         213
  C:090BH         LINE#         214
  C:0938H         LINE#         215
  C:0953H         LINE#         217
  C:0980H         LINE#         218
  C:099BH         LINE#         220
  C:09CDH         LINE#         223
  C:09CDH         LINE#         225
  C:09DEH         LINE#         227
  C:0A0DH         LINE#         229
  C:0A32H         LINE#         230
  C:0A97H         LINE#         231
  C:0A97H         LINE#         232
  C:0AB1H         LINE#         233
  C:0AC3H         LINE#         234
  C:0ADBH         LINE#         235
  C:0AF1H         LINE#         237
  C:0B0DH         LINE#         238
  C:0B0DH         LINE#         239
  C:0B0DH         LINE#         242
  -------         ENDPROC       _UPDATE_POSITION
  -------         ENDMOD        BIPOLARMOTOR

BL51 BANKED LINKER/LOCATER V6.22                                                      02/01/2019  11:01:00  PAGE 28


  -------         MODULE        SUNPOS
  C:0000H         SYMBOL        _ICE_DUMMY_
  C:1435H         PUBLIC        sunpos
  -------         PROC          SUNPOS
  X:0596H         SYMBOL        udtTime
  X:05A8H         SYMBOL        udtLocation
  X:05B0H         SYMBOL        udtSunCoordinates
  -------         DO            
  X:05B3H         SYMBOL        dElapsedJulianDays
  X:05B7H         SYMBOL        dDecimalHours
  X:05BBH         SYMBOL        dEclipticLongitude
  X:05BFH         SYMBOL        dEclipticObliquity
  X:05C3H         SYMBOL        dRightAscension
  X:05C7H         SYMBOL        dDeclination
  X:05CBH         SYMBOL        dY
  X:05CFH         SYMBOL        dX
  -------         DO            
  X:05D3H         SYMBOL        dJulianDate
  X:05D7H         SYMBOL        liAux1
  X:05DBH         SYMBOL        liAux2
  X:05D3H         SYMBOL        dMeanLongitude
  X:05D7H         SYMBOL        dMeanAnomaly
  X:05DBH         SYMBOL        dOmega
  X:05D3H         SYMBOL        dSin_EclipticLongitude
  X:05D3H         SYMBOL        dGreenwichMeanSiderealTime
  X:05D7H         SYMBOL        dLocalMeanSiderealTime
  X:05DBH         SYMBOL        dLatitudeInRadians
  X:05DFH         SYMBOL        dHourAngle
  X:05E3H         SYMBOL        dCos_Latitude
  X:05E7H         SYMBOL        dSin_Latitude
  X:05EBH         SYMBOL        dCos_HourAngle
  X:05EFH         SYMBOL        dParallax
  -------         ENDDO         
  -------         DO            
  X:05D3H         SYMBOL        dMeanLongitude
  X:05D7H         SYMBOL        dMeanAnomaly
  X:05DBH         SYMBOL        dOmega
  X:05D3H         SYMBOL        dSin_EclipticLongitude
  X:05D3H         SYMBOL        dGreenwichMeanSiderealTime
  X:05D7H         SYMBOL        dLocalMeanSiderealTime
  X:05DBH         SYMBOL        dLatitudeInRadians
  X:05DFH         SYMBOL        dHourAngle
  X:05E3H         SYMBOL        dCos_Latitude
  X:05E7H         SYMBOL        dSin_Latitude
  X:05EBH         SYMBOL        dCos_HourAngle
  X:05EFH         SYMBOL        dParallax
  -------         ENDDO         
  -------         DO            
  X:05D3H         SYMBOL        dSin_EclipticLongitude
  X:05D3H         SYMBOL        dGreenwichMeanSiderealTime
  X:05D7H         SYMBOL        dLocalMeanSiderealTime
  X:05DBH         SYMBOL        dLatitudeInRadians
  X:05DFH         SYMBOL        dHourAngle
  X:05E3H         SYMBOL        dCos_Latitude
  X:05E7H         SYMBOL        dSin_Latitude
  X:05EBH         SYMBOL        dCos_HourAngle
  X:05EFH         SYMBOL        dParallax
BL51 BANKED LINKER/LOCATER V6.22                                                      02/01/2019  11:01:00  PAGE 29


  -------         ENDDO         
  -------         DO            
  X:05D3H         SYMBOL        dGreenwichMeanSiderealTime
  X:05D7H         SYMBOL        dLocalMeanSiderealTime
  X:05DBH         SYMBOL        dLatitudeInRadians
  X:05DFH         SYMBOL        dHourAngle
  X:05E3H         SYMBOL        dCos_Latitude
  X:05E7H         SYMBOL        dSin_Latitude
  X:05EBH         SYMBOL        dCos_HourAngle
  X:05EFH         SYMBOL        dParallax
  -------         ENDDO         
  -------         ENDDO         
  C:1435H         LINE#         6
  C:1435H         LINE#         7
  C:1435H         LINE#         9
  C:1435H         LINE#         27
  C:147FH         LINE#         30
  C:14A0H         LINE#         31
  C:15E7H         LINE#         34
  C:1633H         LINE#         36
  C:1652H         LINE#         37
  C:1652H         LINE#         42
  C:1652H         LINE#         46
  C:1684H         LINE#         47
  C:16AEH         LINE#         48
  C:16D8H         LINE#         49
  C:1785H         LINE#         52
  C:17E6H         LINE#         54
  C:17E6H         LINE#         59
  C:17E6H         LINE#         61
  C:17FDH         LINE#         62
  C:1825H         LINE#         63
  C:183CH         LINE#         64
  C:1867H         LINE#         65
  C:189EH         LINE#         66
  C:18C9H         LINE#         67
  C:18C9H         LINE#         70
  C:18C9H         LINE#         79
  C:1904H         LINE#         82
  C:193EH         LINE#         84
  C:1963H         LINE#         85
  C:1982H         LINE#         86
  C:1999H         LINE#         87
  C:19B0H         LINE#         88
  C:19C7H         LINE#         89
  C:1A50H         LINE#         91
  C:1A6AH         LINE#         92
  C:1ACCH         LINE#         93
  C:1B02H         LINE#         94
  C:1B14H         LINE#         95
  C:1B41H         LINE#         96
  C:1B6EH         LINE#         98
  C:1B90H         LINE#         100
  C:1BC8H         LINE#         103
  C:1BC8H         LINE#         104
  C:1BD6H         LINE#         105
  -------         ENDPROC       SUNPOS
BL51 BANKED LINKER/LOCATER V6.22                                                      02/01/2019  11:01:00  PAGE 30


  -------         ENDMOD        SUNPOS

  -------         MODULE        ADC
  C:0000H         SYMBOL        _ICE_DUMMY_
  D:0092H         PUBLIC        P1M0
  D:0091H         PUBLIC        P1M1
  D:0080H         PUBLIC        P0
  D:0090H         PUBLIC        P1
  D:00A0H         PUBLIC        P2
  D:00B0H         PUBLIC        P3
  D:00C0H         PUBLIC        P4
  D:00C8H         PUBLIC        P5
  D:00E8H         PUBLIC        P6
  D:00F8H         PUBLIC        P7
  D:00A8H         PUBLIC        IE
  D:00BDH         PUBLIC        ADC_RES
  D:00B8H         PUBLIC        IP
  D:0097H         PUBLIC        CLK_DIV
  D:00D8H         PUBLIC        CCON
  D:00BCH         PUBLIC        ADC_CONTR
  D:0098H         PUBLIC        SCON
  D:0088H         PUBLIC        TCON
  B:00A0H.4       PUBLIC        P24
  B:00A0H.5       PUBLIC        P25
  B:00A0H.6       PUBLIC        P26
  C:3B61H         PUBLIC        ADC_Init
  C:3A57H         PUBLIC        _ADC_GetResult
  D:009DH         PUBLIC        P1ASF
  D:00BEH         PUBLIC        ADC_RESL
  D:00D0H         PUBLIC        PSW
  -------         PROC          ADC_INIT
  C:3B61H         LINE#         7
  C:3B61H         LINE#         8
  C:3B61H         LINE#         10
  C:3B63H         LINE#         11
  C:3B65H         LINE#         12
  C:3B67H         LINE#         13
  C:3B6AH         LINE#         14
  C:3B6DH         LINE#         15
  C:3B70H         LINE#         16
  C:3B73H         LINE#         18
  C:3B75H         LINE#         19
  C:3B77H         LINE#         20
  C:3B7AH         LINE#         22
  -------         ENDPROC       ADC_INIT
  -------         PROC          _ADC_GETRESULT
  D:0007H         SYMBOL        ch
  -------         DO            
  D:0006H         SYMBOL        ADC_Value_H
  D:0004H         SYMBOL        ADC_Value_L
  D:0006H         SYMBOL        ADC_Value
  -------         ENDDO         
  C:3A57H         LINE#         27
  C:3A57H         LINE#         28
  C:3A57H         LINE#         30
  C:3A5CH         LINE#         31
  C:3A5DH         LINE#         32
BL51 BANKED LINKER/LOCATER V6.22                                                      02/01/2019  11:01:00  PAGE 31


  C:3A5EH         LINE#         33
  C:3A5FH         LINE#         34
  C:3A60H         LINE#         35
  C:3A65H         LINE#         36
  C:3A68H         LINE#         37
  C:3A6CH         LINE#         38
  C:3A70H         LINE#         40
  C:3A82H         LINE#         41
  C:3A82H         LINE#         42
  -------         ENDPROC       _ADC_GETRESULT
  -------         ENDMOD        ADC

  -------         MODULE        CALIBRATION
  C:0000H         SYMBOL        _ICE_DUMMY_
  D:0080H         PUBLIC        P0
  D:0090H         PUBLIC        P1
  D:00A0H         PUBLIC        P2
  D:00B0H         PUBLIC        P3
  D:00C0H         PUBLIC        P4
  D:00C8H         PUBLIC        P5
  D:00E8H         PUBLIC        P6
  D:00F8H         PUBLIC        P7
  C:3519H         PUBLIC        _Max_Value
  D:00A8H         PUBLIC        IE
  C:2FE6H         PUBLIC        _calibration
  C:3268H         PUBLIC        voltage_is_stable
  D:00B8H         PUBLIC        IP
  D:00D8H         PUBLIC        CCON
  D:0098H         PUBLIC        SCON
  D:0088H         PUBLIC        TCON
  C:2D86H         PUBLIC        _Find_Real_Max
  D:00D0H         PUBLIC        PSW
  -------         PROC          VOLTAGE_IS_STABLE
  -------         DO            
  X:067BH         SYMBOL        sample_voltage
  X:068FH         SYMBOL        i
  X:0691H         SYMBOL        ch
  -------         ENDDO         
  C:3268H         LINE#         17
  C:3268H         LINE#         18
  C:3268H         LINE#         20
  C:326FH         LINE#         21
  C:3275H         LINE#         22
  C:3275H         LINE#         23
  C:329EH         LINE#         24
  C:32BDH         LINE#         26
  C:32D7H         LINE#         27
  C:32D7H         LINE#         28
  C:330AH         LINE#         29
  C:330EH         LINE#         30
  C:331EH         LINE#         31
  C:3322H         LINE#         32
  -------         ENDPROC       VOLTAGE_IS_STABLE
  -------         PROC          _FIND_REAL_MAX
  X:0512H         SYMBOL        current_position
  -------         DO            
  X:0515H         SYMBOL        ch
BL51 BANKED LINKER/LOCATER V6.22                                                      02/01/2019  11:01:00  PAGE 32


  X:0516H         SYMBOL        calib_step_move
  X:051AH         SYMBOL        voltage_at_scanned_pos
  X:0592H         SYMBOL        max_location
  X:0594H         SYMBOL        i
  -------         ENDDO         
  C:2D86H         LINE#         33
  C:2D91H         LINE#         34
  C:2D91H         LINE#         35
  C:2D94H         LINE#         36
  C:2D9CH         LINE#         40
  C:2DA3H         LINE#         41
  C:2DA3H         LINE#         42
  C:2DB6H         LINE#         43
  C:2DDCH         LINE#         44
  C:2E04H         LINE#         45
  C:2E0BH         LINE#         46
  C:2E2DH         LINE#         61
  C:2E3EH         LINE#         63
  C:2E60H         LINE#         64
  C:2EBDH         LINE#         65
  -------         ENDPROC       _FIND_REAL_MAX
  -------         PROC          _MAX_VALUE
  D:0001H         SYMBOL        input
  -------         DO            
  D:0004H         SYMBOL        max
  X:06ECH         SYMBOL        max_location
  X:06EEH         SYMBOL        i
  -------         ENDDO         
  C:3519H         LINE#         70
  C:3519H         LINE#         71
  C:3519H         LINE#         72
  C:3522H         LINE#         74
  C:3537H         LINE#         75
  C:3537H         LINE#         76
  C:356DH         LINE#         77
  C:3587H         LINE#         78
  C:3596H         LINE#         79
  C:35A6H         LINE#         80
  C:35AEH         LINE#         82
  -------         ENDPROC       _MAX_VALUE
  -------         PROC          _CALIBRATION
  X:06A7H         SYMBOL        mnths
  X:06A8H         SYMBOL        dys
  X:06A9H         SYMBOL        hurs
  X:06AAH         SYMBOL        mns
  X:06ABH         SYMBOL        sconds
  X:06ACH         SYMBOL        currnt_pos
  -------         DO            
  X:06AFH         SYMBOL        calib_value
  X:06B3H         SYMBOL        theorical_max_pos
  X:06B7H         SYMBOL        JP_max_pos
  -------         ENDDO         
  C:2FE6H         LINE#         84
  C:2FF1H         LINE#         87
  C:2FF1H         LINE#         88
  C:2FFBH         LINE#         89
  C:300FH         LINE#         91
BL51 BANKED LINKER/LOCATER V6.22                                                      02/01/2019  11:01:00  PAGE 33


  C:3019H         LINE#         92
  C:3019H         LINE#         94
  C:304FH         LINE#         95
  C:306DH         LINE#         97
  C:3076H         LINE#         98
  C:3099H         LINE#         99
  C:30B5H         LINE#         100
  C:30C4H         LINE#         101
  C:30C4H         LINE#         103
  C:30C9H         LINE#         104
  -------         ENDPROC       _CALIBRATION
  -------         ENDMOD        CALIBRATION

  -------         MODULE        IOEXPANDER_PI4IOE5V96248
  C:0000H         SYMBOL        _ICE_DUMMY_
  D:0080H         PUBLIC        P0
  B:00C8H.4       PUBLIC        I2C_SCK
  D:0090H         PUBLIC        P1
  D:00A0H         PUBLIC        P2
  D:00B0H         PUBLIC        P3
  D:00C0H         PUBLIC        P4
  D:00C8H         PUBLIC        P5
  D:00E8H         PUBLIC        P6
  D:00F8H         PUBLIC        P7
  D:00A8H         PUBLIC        IE
  D:00B8H         PUBLIC        IP
  D:00D8H         PUBLIC        CCON
  C:3CA0H         PUBLIC        I2C_Start
  D:0098H         PUBLIC        SCON
  D:0088H         PUBLIC        TCON
  C:3323H         PUBLIC        _Write_PI4IOE5V96248
  C:3CAFH         PUBLIC        uC_NACK
  C:3A90H         PUBLIC        _Wait_ms_i2c
  C:3ADBH         PUBLIC        _I2C_SendByte
  C:3C30H         PUBLIC        I2C_Stop
  C:3D17H         PUBLIC        nop
  C:3D06H         PUBLIC        uC_ACK
  C:3C05H         PUBLIC        I2C_ACK
  B:00C0H.7       PUBLIC        I2C_SDA
  D:00D0H         PUBLIC        PSW
  C:3A8AH         SYMBOL        L?0031
  C:3A8CH         SYMBOL        L?0032
  -------         PROC          L?0030
  -------         ENDPROC       L?0030
  C:3A8AH         SYMBOL        L?0031
  C:3A8CH         SYMBOL        L?0032
  -------         PROC          _WAIT_MS_I2C
  D:0006H         SYMBOL        ms
  -------         DO            
  D:0004H         SYMBOL        De_Cnt
  -------         ENDDO         
  C:3A90H         LINE#         7
  C:3A90H         LINE#         8
  C:3A90H         LINE#         10
  C:3A9AH         LINE#         11
  C:3A9AH         LINE#         12
  C:3AADH         LINE#         13
BL51 BANKED LINKER/LOCATER V6.22                                                      02/01/2019  11:01:00  PAGE 34


  C:3AADH         LINE#         14
  -------         ENDPROC       _WAIT_MS_I2C
  -------         PROC          NOP
  C:3D17H         LINE#         16
  C:3D17H         LINE#         17
  C:3D17H         LINE#         19
  -------         ENDPROC       NOP
  -------         PROC          I2C_START
  C:3CA0H         LINE#         20
  C:3CA0H         LINE#         21
  C:3CA0H         LINE#         23
  C:3CA2H         LINE#         24
  C:3CA4H         LINE#         25
  C:3CA7H         LINE#         26
  C:3CA9H         LINE#         27
  C:3CACH         LINE#         28
  C:3CAEH         LINE#         31
  -------         ENDPROC       I2C_START
  -------         PROC          I2C_STOP
  C:3C30H         LINE#         33
  C:3C30H         LINE#         34
  C:3C30H         LINE#         35
  C:3C32H         LINE#         36
  C:3C34H         LINE#         37
  C:3C37H         LINE#         38
  C:3C39H         LINE#         39
  C:3C3BH         LINE#         40
  C:3C42H         LINE#         41
  C:3C44H         LINE#         44
  -------         ENDPROC       I2C_STOP
  -------         PROC          I2C_ACK
  -------         DO            
  X:0702H         SYMBOL        i
  D:0003H         SYMBOL        dat
  -------         ENDDO         
  C:3C05H         LINE#         46
  C:3C05H         LINE#         47
  C:3C05H         LINE#         49
  C:3C06H         LINE#         54
  C:3C09H         LINE#         55
  C:3C0BH         LINE#         56
  C:3C0EH         LINE#         58
  C:3C11H         LINE#         59
  C:3C11H         LINE#         60
  C:3C15H         LINE#         61
  C:3C15H         LINE#         64
  C:3C15H         LINE#         65
  C:3C18H         LINE#         66
  C:3C18H         LINE#         67
  C:3C1AH         LINE#         68
  -------         ENDPROC       I2C_ACK
  -------         PROC          UC_ACK
  -------         DO            
  X:0703H         SYMBOL        i
  -------         ENDDO         
  C:3D06H         LINE#         69
  C:3D06H         LINE#         70
BL51 BANKED LINKER/LOCATER V6.22                                                      02/01/2019  11:01:00  PAGE 35


  C:3D06H         LINE#         72
  C:3D06H         LINE#         79
  C:3D06H         LINE#         81
  C:3D06H         LINE#         83
  C:3D06H         LINE#         84
  C:3D06H         LINE#         87
  C:3D09H         LINE#         88
  C:3D0BH         LINE#         89
  C:3D0BH         LINE#         93
  -------         ENDPROC       UC_ACK
  -------         PROC          UC_NACK
  -------         DO            
  X:0704H         SYMBOL        i
  -------         ENDDO         
  C:3CAFH         LINE#         95
  C:3CAFH         LINE#         96
  C:3CAFH         LINE#         98
  C:3CAFH         LINE#         102
  C:3CB1H         LINE#         105
  C:3CB1H         LINE#         106
  C:3CB3H         LINE#         107
  C:3CB3H         LINE#         109
  C:3CB3H         LINE#         110
  C:3CB3H         LINE#         113
  C:3CB6H         LINE#         114
  C:3CB8H         LINE#         115
  C:3CBBH         LINE#         116
  C:3CBDH         LINE#         117
  C:3CBDH         LINE#         121
  -------         ENDPROC       UC_NACK
  C:3AD7H         SYMBOL        L?0034
  -------         PROC          L?0033
  -------         ENDPROC       L?0033
  C:3AD7H         SYMBOL        L?0034
  -------         PROC          _I2C_SENDBYTE
  D:0001H         SYMBOL        dat
  -------         DO            
  D:0003H         SYMBOL        i
  -------         ENDDO         
  C:3ADBH         LINE#         125
  C:3ADDH         LINE#         126
  C:3ADDH         LINE#         129
  C:3ADFH         LINE#         130
  C:3ADFH         LINE#         131
  C:3AE1H         LINE#         133
  C:3AE5H         LINE#         134
  C:3AE5H         LINE#         135
  C:3AE7H         LINE#         136
  C:3AE9H         LINE#         138
  C:3AE9H         LINE#         139
  C:3AEBH         LINE#         140
  C:3AEBH         LINE#         141
  C:3AEEH         LINE#         142
  C:3AF0H         LINE#         144
  C:3AF4H         LINE#         145
  C:3AF7H         LINE#         146
  C:3AFCH         LINE#         147
BL51 BANKED LINKER/LOCATER V6.22                                                      02/01/2019  11:01:00  PAGE 36


  -------         ENDPROC       _I2C_SENDBYTE
  -------         PROC          _WRITE_PI4IOE5V96248
  X:06FFH         SYMBOL        xdat
  C:3323H         LINE#         148
  C:332EH         LINE#         149
  C:332EH         LINE#         150
  C:3331H         LINE#         151
  C:3338H         LINE#         152
  C:333DH         LINE#         153
  C:3343H         LINE#         154
  C:3343H         LINE#         155
  C:3355H         LINE#         156
  C:3355H         LINE#         158
  C:335BH         LINE#         159
  C:335BH         LINE#         160
  C:336BH         LINE#         161
  C:336BH         LINE#         162
  C:3371H         LINE#         163
  C:3371H         LINE#         164
  C:3381H         LINE#         165
  C:3381H         LINE#         166
  C:3387H         LINE#         167
  C:3387H         LINE#         168
  C:3398H         LINE#         169
  C:3398H         LINE#         171
  C:339EH         LINE#         172
  C:339EH         LINE#         173
  C:33AFH         LINE#         174
  C:33AFH         LINE#         175
  C:33B5H         LINE#         176
  C:33B5H         LINE#         177
  C:33C6H         LINE#         178
  C:33C6H         LINE#         180
  C:33CCH         LINE#         181
  C:33CFH         LINE#         182
  -------         ENDPROC       _WRITE_PI4IOE5V96248
  -------         ENDMOD        IOEXPANDER_PI4IOE5V96248

  -------         MODULE        ?C_STARTUP
  C:3644H         SEGMENT       ?C_C51STARTUP
  I:0022H         SEGMENT       ?STACK
  C:0000H         PUBLIC        ?C_STARTUP
  D:00E0H         SYMBOL        ACC
  D:00F0H         SYMBOL        B
  D:0083H         SYMBOL        DPH
  D:0082H         SYMBOL        DPL
  N:0000H         SYMBOL        IBPSTACK
  N:0100H         SYMBOL        IBPSTACKTOP
  N:0080H         SYMBOL        IDATALEN
  C:3647H         SYMBOL        IDATALOOP
  N:0000H         SYMBOL        PBPSTACK
  N:0100H         SYMBOL        PBPSTACKTOP
  N:0000H         SYMBOL        PDATALEN
  N:0000H         SYMBOL        PDATASTART
  N:0000H         SYMBOL        PPAGE
  N:0000H         SYMBOL        PPAGEENABLE
  D:00A0H         SYMBOL        PPAGE_SFR
BL51 BANKED LINKER/LOCATER V6.22                                                      02/01/2019  11:01:00  PAGE 37


  D:0081H         SYMBOL        SP
  C:3644H         SYMBOL        STARTUP1
  N:0000H         SYMBOL        XBPSTACK
  N:0000H         SYMBOL        XBPSTACKTOP
  N:0000H         SYMBOL        XDATALEN
  N:0000H         SYMBOL        XDATASTART
  C:0000H         LINE#         126
  C:3644H         LINE#         133
  C:3646H         LINE#         134
  C:3647H         LINE#         135
  C:3648H         LINE#         136
  C:364AH         LINE#         185
  C:364DH         LINE#         196
  -------         ENDMOD        ?C_STARTUP

  -------         MODULE        ?C?FPADD
  C:0B15H         PUBLIC        ?C?FPADD
  C:0B11H         PUBLIC        ?C?FPSUB
  -------         ENDMOD        ?C?FPADD

  -------         MODULE        ?C?FPMUL
  C:0C06H         PUBLIC        ?C?FPMUL
  -------         ENDMOD        ?C?FPMUL

  -------         MODULE        ?C?FPDIV
  C:0D0FH         PUBLIC        ?C?FPDIV
  -------         ENDMOD        ?C?FPDIV

  -------         MODULE        ?C?FPCMP
  C:0DAEH         PUBLIC        ?C?FPCMP
  C:0DACH         PUBLIC        ?C?FPCMP3
  -------         ENDMOD        ?C?FPCMP

  -------         MODULE        ?C?FPNEG
  C:0E25H         PUBLIC        ?C?FPNEG
  -------         ENDMOD        ?C?FPNEG

  -------         MODULE        ?C?FCAST
  C:0E40H         PUBLIC        ?C?FCASTC
  C:0E3BH         PUBLIC        ?C?FCASTI
  C:0E36H         PUBLIC        ?C?FCASTL
  -------         ENDMOD        ?C?FCAST

  -------         MODULE        ?C?CASTF
  C:0E74H         PUBLIC        ?C?CASTF
  -------         ENDMOD        ?C?CASTF

  -------         MODULE        ATAN2
  X:06D3H         PUBLIC        ?_atan2?BYTE
  C:347CH         PUBLIC        _atan2
  -------         ENDMOD        ATAN2

  -------         MODULE        SIN
  C:2C46H         PUBLIC        _COS
  C:2C5CH         PUBLIC        _SIN
  C:2C98H         PUBLIC        _TAN
  -------         ENDMOD        SIN
BL51 BANKED LINKER/LOCATER V6.22                                                      02/01/2019  11:01:00  PAGE 38



  -------         MODULE        ACOS
  C:38DBH         PUBLIC        _ACOS
  -------         ENDMOD        ACOS

  -------         MODULE        ASIN
  C:39E9H         PUBLIC        _ASIN
  -------         ENDMOD        ASIN

  -------         MODULE        SQRT
  C:33D4H         PUBLIC        _SQRT
  -------         ENDMOD        SQRT

  -------         MODULE        ATAN
  C:2EE4H         PUBLIC        _ATAN
  -------         ENDMOD        ATAN

  -------         MODULE        ?C?COPY
  C:1012H         PUBLIC        ?C?COPY
  -------         ENDMOD        ?C?COPY

  -------         MODULE        ?C?CLDPTR
  C:1038H         PUBLIC        ?C?CLDPTR
  -------         ENDMOD        ?C?CLDPTR

  -------         MODULE        ?C?CLDOPTR
  C:1051H         PUBLIC        ?C?CLDOPTR
  -------         ENDMOD        ?C?CLDOPTR

  -------         MODULE        ?C?CSTPTR
  C:107EH         PUBLIC        ?C?CSTPTR
  -------         ENDMOD        ?C?CSTPTR

  -------         MODULE        ?C?IMUL
  C:1090H         PUBLIC        ?C?IMUL
  -------         ENDMOD        ?C?IMUL

  -------         MODULE        ?C?UIDIV
  C:10A2H         PUBLIC        ?C?UIDIV
  -------         ENDMOD        ?C?UIDIV

  -------         MODULE        ?C?SIDIV
  C:10F7H         PUBLIC        ?C?SIDIV
  -------         ENDMOD        ?C?SIDIV

  -------         MODULE        ?C?ILDIX
  C:112DH         PUBLIC        ?C?ILDIX
  -------         ENDMOD        ?C?ILDIX

  -------         MODULE        ?C?ILDOPTR
  C:1143H         PUBLIC        ?C?ILDOPTR
  -------         ENDMOD        ?C?ILDOPTR

  -------         MODULE        ?C?LMUL
  C:117BH         PUBLIC        ?C?LMUL
  -------         ENDMOD        ?C?LMUL

BL51 BANKED LINKER/LOCATER V6.22                                                      02/01/2019  11:01:00  PAGE 39


  -------         MODULE        ?C?SLDIV
  C:3925H         PUBLIC        ?C?SLDIV
  -------         ENDMOD        ?C?SLDIV

  -------         MODULE        ?C?LNEG
  C:11CAH         PUBLIC        ?C?LNEG
  -------         ENDMOD        ?C?LNEG

  -------         MODULE        ?C?LLDPTR
  C:11D8H         PUBLIC        ?C?LLDPTR
  -------         ENDMOD        ?C?LLDPTR

  -------         MODULE        ?C?LLDOPTR
  C:11F8H         PUBLIC        ?C?LLDOPTR
  -------         ENDMOD        ?C?LLDOPTR

  -------         MODULE        ?C?LSTPTR
  C:1228H         PUBLIC        ?C?LSTPTR
  -------         ENDMOD        ?C?LSTPTR

  -------         MODULE        ?C?LSTOPTR
  C:1242H         PUBLIC        ?C?LSTOPTR
  -------         ENDMOD        ?C?LSTOPTR

  -------         MODULE        ?C?LLDXDATA
  C:1266H         PUBLIC        ?C?LLDXDATA
  -------         ENDMOD        ?C?LLDXDATA

  -------         MODULE        ?C?LLDCODE
  C:1272H         PUBLIC        ?C?LLDCODE
  -------         ENDMOD        ?C?LLDCODE

  -------         MODULE        ?C?LLDXDATA0
  C:1282H         PUBLIC        ?C?LLDXDATA0
  -------         ENDMOD        ?C?LLDXDATA0

  -------         MODULE        ?C?LLDCODE0
  C:128EH         PUBLIC        ?C?LLDCODE0
  -------         ENDMOD        ?C?LLDCODE0

  -------         MODULE        ?C?LLDPTR0
  C:129EH         PUBLIC        ?C?LLDPTR0
  -------         ENDMOD        ?C?LLDPTR0

  -------         MODULE        ?C?LSTXDATA
  C:12BEH         PUBLIC        ?C?LSTXDATA
  -------         ENDMOD        ?C?LSTXDATA

  -------         MODULE        ?C?LSTKXDATA
  C:12CAH         PUBLIC        ?C?LSTKXDATA
  -------         ENDMOD        ?C?LSTKXDATA

  -------         MODULE        ?C?OFFXADD
  C:12FBH         PUBLIC        ?C?OFFXADD
  -------         ENDMOD        ?C?OFFXADD

  -------         MODULE        ABS
BL51 BANKED LINKER/LOCATER V6.22                                                      02/01/2019  11:01:00  PAGE 40


  C:3CE6H         PUBLIC        _ABS
  -------         ENDMOD        ABS

  -------         MODULE        ATOI
  C:30CAH         PUBLIC        _atoi
  -------         ENDMOD        ATOI

  -------         MODULE        ?C?IILDX
  C:1307H         PUBLIC        ?C?IILDX
  -------         ENDMOD        ?C?IILDX

  -------         MODULE        ?C?ULDIV
  C:1359H         PUBLIC        ?C?ULDIV
  -------         ENDMOD        ?C?ULDIV

  -------         MODULE        ?C?LLDIDATA
  C:13EBH         PUBLIC        ?C?LLDIDATA
  -------         ENDMOD        ?C?LLDIDATA

  -------         MODULE        ?C?LLDPDATA
  C:13F7H         PUBLIC        ?C?LLDPDATA
  -------         ENDMOD        ?C?LLDPDATA

  -------         MODULE        ?C?LLDIDATA0
  C:1403H         PUBLIC        ?C?LLDIDATA0
  -------         ENDMOD        ?C?LLDIDATA0

  -------         MODULE        ?C?LLDPDATA0
  C:1410H         PUBLIC        ?C?LLDPDATA0
  -------         ENDMOD        ?C?LLDPDATA0

  -------         MODULE        ?C?LSTIDATA
  C:141DH         PUBLIC        ?C?LSTIDATA
  -------         ENDMOD        ?C?LSTIDATA

  -------         MODULE        ?C?LSTPDATA
  C:1429H         PUBLIC        ?C?LSTPDATA
  -------         ENDMOD        ?C?LSTPDATA

  -------         MODULE        ISDIGIT
  C:3CBEH         PUBLIC        _isdigit
  -------         ENDMOD        ISDIGIT

  -------         MODULE        ISSPACE
  C:3C59H         PUBLIC        _isspace
  -------         ENDMOD        ISSPACE

*** WARNING L16: UNCALLED SEGMENT, IGNORED FOR OVERLAY PROCESS
    SEGMENT: ?PR?_DISPLAY_PROX?MAIN

*** WARNING L16: UNCALLED SEGMENT, IGNORED FOR OVERLAY PROCESS
    SEGMENT: ?PR?_READ_TIME?PCF85063BTL

*** WARNING L16: UNCALLED SEGMENT, IGNORED FOR OVERLAY PROCESS
    SEGMENT: ?PR?_DAY_OF_YEAR?PCF85063BTL

*** WARNING L16: UNCALLED SEGMENT, IGNORED FOR OVERLAY PROCESS
BL51 BANKED LINKER/LOCATER V6.22                                                      02/01/2019  11:01:00  PAGE 41


    SEGMENT: ?PR?INITUART1?UART1

*** WARNING L16: UNCALLED SEGMENT, IGNORED FOR OVERLAY PROCESS
    SEGMENT: ?PR?_SENDSTRING?UART1

*** WARNING L16: UNCALLED SEGMENT, IGNORED FOR OVERLAY PROCESS
    SEGMENT: ?PR?_TEN?UART1

*** WARNING L16: UNCALLED SEGMENT, IGNORED FOR OVERLAY PROCESS
    SEGMENT: ?PR?_UNIT?UART1

*** WARNING L16: UNCALLED SEGMENT, IGNORED FOR OVERLAY PROCESS
    SEGMENT: ?PR?_DECTOBCD?UART1

*** WARNING L16: UNCALLED SEGMENT, IGNORED FOR OVERLAY PROCESS
    SEGMENT: ?PR?_ASCII_LETTER?UART1

*** WARNING L16: UNCALLED SEGMENT, IGNORED FOR OVERLAY PROCESS
    SEGMENT: ?PR?_ASCIITOBCD?UART1

*** WARNING L16: UNCALLED SEGMENT, IGNORED FOR OVERLAY PROCESS
    SEGMENT: ?PR?LCD_RETURN_HOME?LCD_DRIVER_SPLC780D

*** WARNING L16: UNCALLED SEGMENT, IGNORED FOR OVERLAY PROCESS
    SEGMENT: ?PR?WAIT?BIPOLARMOTOR

*** WARNING L16: UNCALLED SEGMENT, IGNORED FOR OVERLAY PROCESS
    SEGMENT: ?PR?_FINDDET4X4?BIPOLARMOTOR

*** WARNING L16: UNCALLED SEGMENT, IGNORED FOR OVERLAY PROCESS
    SEGMENT: ?PR?_CALIBRATION?CALIBRATION

*** WARNING L16: UNCALLED SEGMENT, IGNORED FOR OVERLAY PROCESS
    SEGMENT: ?PR?NOP?IOEXPANDER_PI4IOE5V96248

*** WARNING L16: UNCALLED SEGMENT, IGNORED FOR OVERLAY PROCESS
    SEGMENT: ?PR?UC_ACK?IOEXPANDER_PI4IOE5V96248

*** WARNING L16: UNCALLED SEGMENT, IGNORED FOR OVERLAY PROCESS
    SEGMENT: ?PR?UC_NACK?IOEXPANDER_PI4IOE5V96248

*** WARNING L1: UNRESOLVED EXTERNAL SYMBOL
    SYMBOL:  AUTO_MODE
    MODULE:  .\Obj\main.obj (MAIN)

*** WARNING L2: REFERENCE MADE TO UNRESOLVED EXTERNAL
    SYMBOL:  AUTO_MODE
    MODULE:  .\Obj\main.obj (MAIN)
    ADDRESS: 28DCH

*** WARNING L2: REFERENCE MADE TO UNRESOLVED EXTERNAL
    SYMBOL:  AUTO_MODE
    MODULE:  .\Obj\main.obj (MAIN)
    ADDRESS: 2A45H

*** WARNING L2: REFERENCE MADE TO UNRESOLVED EXTERNAL
    SYMBOL:  AUTO_MODE
BL51 BANKED LINKER/LOCATER V6.22                                                      02/01/2019  11:01:00  PAGE 42


    MODULE:  .\Obj\main.obj (MAIN)
    ADDRESS: 2A53H

*** WARNING L1: UNRESOLVED EXTERNAL SYMBOL
    SYMBOL:  _SENDUART1
    MODULE:  .\Obj\UART1.obj (UART1)

*** WARNING L2: REFERENCE MADE TO UNRESOLVED EXTERNAL
    SYMBOL:  _SENDUART1
    MODULE:  .\Obj\UART1.obj (UART1)
    ADDRESS: 3A52H

*** WARNING L1: UNRESOLVED EXTERNAL SYMBOL
    SYMBOL:  AUTO_MODE
    MODULE:  .\Obj\KeyPad.obj (KEYPAD)

*** WARNING L2: REFERENCE MADE TO UNRESOLVED EXTERNAL
    SYMBOL:  AUTO_MODE
    MODULE:  .\Obj\KeyPad.obj (KEYPAD)
    ADDRESS: 22E9H

*** WARNING L2: REFERENCE MADE TO UNRESOLVED EXTERNAL
    SYMBOL:  AUTO_MODE
    MODULE:  .\Obj\KeyPad.obj (KEYPAD)
    ADDRESS: 22F4H

*** WARNING L2: REFERENCE MADE TO UNRESOLVED EXTERNAL
    SYMBOL:  AUTO_MODE
    MODULE:  .\Obj\KeyPad.obj (KEYPAD)
    ADDRESS: 22FBH

Program Size: data=10.5 xdata=1797 code=15640
LINK/LOCATE RUN COMPLETE.  27 WARNING(S),  0 ERROR(S)
