BL51 BANKED LINKER/LOCATER V6.22                                                        07/10/2018  16:10:56  PAGE 1


BL51 BANKED LINKER/LOCATER V6.22, INVOKED BY:
C:\KEIL_V5\C51\BIN\BL51.EXE .\Obj\main.obj, .\Obj\PCF85063BTL.obj, .\Obj\UART1.obj, .\Obj\LCd_Driver_SPLC780D.obj, .\Obj
>> \KeyPad.obj, .\Obj\STARTUP.obj TO .\Obj\GPIO_RTC_Test PRINT (.\Lis\GPIO_RTC_Test.m51) RAMSIZE (256)


MEMORY MODEL: LARGE


INPUT MODULES INCLUDED:
  .\Obj\main.obj (MAIN)
  .\Obj\PCF85063BTL.obj (PCF85063BTL)
  .\Obj\UART1.obj (UART1)
  .\Obj\LCd_Driver_SPLC780D.obj (LCD_DRIVER_SPLC780D)
  .\Obj\KeyPad.obj (KEYPAD)
  .\Obj\STARTUP.obj (?C_STARTUP)
  C:\KEIL_V5\C51\LIB\C51L.LIB (?C_INIT)
  C:\KEIL_V5\C51\LIB\C51L.LIB (?C?CLDPTR)
  C:\KEIL_V5\C51\LIB\C51L.LIB (?C?CSTPTR)
  C:\KEIL_V5\C51\LIB\C51L.LIB (?C?IMUL)
  C:\KEIL_V5\C51\LIB\C51L.LIB (?C?UIDIV)
  C:\KEIL_V5\C51\LIB\C51L.LIB (?C?SIDIV)
  C:\KEIL_V5\C51\LIB\C51L.LIB (?C?ILDIX)
  C:\KEIL_V5\C51\LIB\C51L.LIB (ATOI)
  C:\KEIL_V5\C51\LIB\C51L.LIB (?C?IILDX)
  C:\KEIL_V5\C51\LIB\C51L.LIB (ISDIGIT)
  C:\KEIL_V5\C51\LIB\C51L.LIB (ISSPACE)


LINK MAP OF MODULE:  .\Obj\GPIO_RTC_Test (MAIN)


            TYPE    BASE      LENGTH    RELOCATION   SEGMENT NAME
            -----------------------------------------------------

            * * * * * * *   D A T A   M E M O R Y   * * * * * * *
            REG     0000H     0008H     ABSOLUTE     "REG BANK 0"
            REG     0008H     0008H     ABSOLUTE     "REG BANK 1"
                    0010H     0010H                  *** GAP ***
            BIT     0020H.0   0000H.1   UNIT         ?BI?MAIN
            BIT     0020H.1   0000H.1   UNIT         _BIT_GROUP_
                    0020H.2   0000H.6                *** GAP ***
            IDATA   0021H     0001H     UNIT         ?STACK

            * * * * * * *  X D A T A   M E M O R Y  * * * * * * *
            XDATA   0000H     0022H     UNIT         _XDATA_GROUP_
            XDATA   0022H     001CH     UNIT         ?XD?MAIN
            XDATA   003EH     0009H     UNIT         ?XD?KEYPAD
            XDATA   0047H     0003H     UNIT         ?XD?_SENDSTRING?UART1

            * * * * * * *   C O D E   M E M O R Y   * * * * * * *
            CODE    0000H     0003H     ABSOLUTE     
            CODE    0003H     0007H     UNIT         ?PR?KEYPAD_IO_INIT?KEYPAD
            CODE    000AH     0001H     UNIT         ?PR?TM0_ISR?MAIN
            CODE    000BH     0003H     ABSOLUTE     
            CODE    000EH     0015H     UNIT         ?PR?_DISPLAY_LINE?LCD_DRIVER_SPLC780D
            CODE    0023H     0003H     ABSOLUTE     
            CODE    0026H     0249H     UNIT         ?PR?KEY_PROCESS?KEYPAD
            CODE    026FH     013BH     UNIT         ?PR?KEY_SCAN?KEYPAD
BL51 BANKED LINKER/LOCATER V6.22                                                      07/10/2018  16:10:56  PAGE 2


            CODE    03AAH     013AH     UNIT         ?PR?MAIN?MAIN
            CODE    04E4H     00F4H     UNIT         ?C?LIB_CODE
            CODE    05D8H     00DBH     UNIT         ?PR?_ATOI?ATOI
            CODE    06B3H     009BH     UNIT         ?PR?UART?MAIN
            CODE    074EH     0095H     UNIT         ?PR?_DISPLAY_PROX?MAIN
            CODE    07E3H     008CH     UNIT         ?C_C51STARTUP
            CODE    086FH     007CH     UNIT         ?PR?_DAY_OF_YEAR?PCF85063BTL
            CODE    08EBH     0075H     UNIT         ?PR?_WRITEDATA?LCD_DRIVER_SPLC780D
            CODE    0960H     006FH     UNIT         ?PR?_READ_TIME?PCF85063BTL
            CODE    09CFH     0054H     UNIT         ?PR?LCD_INIT?LCD_DRIVER_SPLC780D
            CODE    0A23H     0040H     UNIT         ?PR?_COMMAND?LCD_DRIVER_SPLC780D
            CODE    0A63H     003CH     UNIT         ?C_INITSEG
            CODE    0A9FH     0033H     UNIT         ?PR?_SENDSTRING?UART1
            CODE    0AD2H     0024H     UNIT         ?PR?_WAIT_MS?LCD_DRIVER_SPLC780D
            CODE    0AF6H     0020H     UNIT         ?PR?_SPI_SENDBYTE?PCF85063BTL
            CODE    0B16H     0020H     UNIT         ?PR?SPI_RECEIVEBYTE?PCF85063BTL
            CODE    0B36H     001EH     UNIT         ?PR?_DELAY_MS?KEYPAD
            CODE    0B54H     001DH     UNIT         ?PR?_DISPLAYLCD?LCD_DRIVER_SPLC780D
            CODE    0B71H     0018H     UNIT         ?PR?_SPI_WRITETIME?PCF85063BTL
            CODE    0B89H     0017H     UNIT         ?PR?_ASCIITOBCD?UART1
            CODE    0BA0H     0014H     UNIT         ?PR?_PCF85063BTL_DELAY?PCF85063BTL
            CODE    0BB4H     0014H     UNIT         ?PR?_ISSPACE?ISSPACE
            CODE    0BC8H     0011H     UNIT         ?PR?_SPI_READTIME?PCF85063BTL
            CODE    0BD9H     0011H     UNIT         ?PR?INITUART1?UART1
            CODE    0BEAH     000FH     UNIT         ?PR?_ISDIGIT?ISDIGIT
            CODE    0BF9H     000DH     UNIT         ?PR?SPI_INIT?PCF85063BTL
            CODE    0C06H     000AH     UNIT         ?PR?LCD_RETURN_HOME?LCD_DRIVER_SPLC780D
            CODE    0C10H     000AH     UNIT         ?PR?LCD_CLEAR?LCD_DRIVER_SPLC780D
            CODE    0C1AH     0009H     UNIT         ?PR?_SENDUART1?MAIN
            CODE    0C23H     0006H     UNIT         ?PR?_TEN?UART1
            CODE    0C29H     0005H     UNIT         ?PR?_UNIT?UART1
            CODE    0C2EH     0005H     UNIT         ?PR?_ASCII_LETTER?UART1
            CODE    0C33H     0001H     UNIT         ?PR?_DECTOBCD?UART1



OVERLAY MAP OF MODULE:   .\Obj\GPIO_RTC_Test (MAIN)


SEGMENT                                            BIT_GROUP          XDATA_GROUP
  +--> CALLED SEGMENT                           START    LENGTH     START    LENGTH
-----------------------------------------------------------------------------------
?PR?UART?MAIN                                   -----    -----      -----    -----
  +--> ?PR?_ASCIITOBCD?UART1

?PR?_ASCIITOBCD?UART1                           -----    -----      -----    -----
  +--> ?PR?_ATOI?ATOI

?PR?_ATOI?ATOI                                  0020H.1  0000H.1    0000H    0005H
  +--> ?PR?_ISSPACE?ISSPACE
  +--> ?PR?_ISDIGIT?ISDIGIT

*** NEW ROOT ***************************************************

?C_C51STARTUP                                   -----    -----      -----    -----
  +--> ?PR?MAIN?MAIN
  +--> ?C_INITSEG
BL51 BANKED LINKER/LOCATER V6.22                                                      07/10/2018  16:10:56  PAGE 3



?PR?MAIN?MAIN                                   -----    -----      0005H    000EH
  +--> ?PR?LCD_INIT?LCD_DRIVER_SPLC780D
  +--> ?PR?SPI_INIT?PCF85063BTL
  +--> ?PR?KEYPAD_IO_INIT?KEYPAD
  +--> ?PR?INITUART1?UART1
  +--> ?PR?_SPI_WRITETIME?PCF85063BTL
  +--> ?PR?_DELAY_MS?KEYPAD
  +--> ?PR?_DISPLAY_LINE?LCD_DRIVER_SPLC780D
  +--> ?PR?_WRITEDATA?LCD_DRIVER_SPLC780D
  +--> ?PR?KEY_PROCESS?KEYPAD
  +--> ?PR?_DISPLAYLCD?LCD_DRIVER_SPLC780D
  +--> ?PR?_DISPLAY_PROX?MAIN
  +--> ?PR?LCD_RETURN_HOME?LCD_DRIVER_SPLC780D
  +--> ?PR?_READ_TIME?PCF85063BTL
  +--> ?PR?_SENDUART1?MAIN

?PR?LCD_INIT?LCD_DRIVER_SPLC780D                -----    -----      -----    -----
  +--> ?PR?_WAIT_MS?LCD_DRIVER_SPLC780D
  +--> ?PR?_COMMAND?LCD_DRIVER_SPLC780D

?PR?_COMMAND?LCD_DRIVER_SPLC780D                -----    -----      -----    -----
  +--> ?PR?_WAIT_MS?LCD_DRIVER_SPLC780D

?PR?_SPI_WRITETIME?PCF85063BTL                  -----    -----      -----    -----
  +--> ?PR?_SPI_SENDBYTE?PCF85063BTL

?PR?_SPI_SENDBYTE?PCF85063BTL                   -----    -----      -----    -----
  +--> ?PR?_PCF85063BTL_DELAY?PCF85063BTL

?PR?_DISPLAY_LINE?LCD_DRIVER_SPLC780D           -----    -----      -----    -----
  +--> ?PR?_COMMAND?LCD_DRIVER_SPLC780D

?PR?_WRITEDATA?LCD_DRIVER_SPLC780D              -----    -----      0019H    0001H
  +--> ?PR?_WAIT_MS?LCD_DRIVER_SPLC780D

?PR?KEY_PROCESS?KEYPAD                          -----    -----      0013H    0006H
  +--> ?PR?KEY_SCAN?KEYPAD
  +--> ?PR?_SPI_WRITETIME?PCF85063BTL
  +--> ?PR?LCD_CLEAR?LCD_DRIVER_SPLC780D
  +--> ?PR?_COMMAND?LCD_DRIVER_SPLC780D
  +--> ?PR?_WRITEDATA?LCD_DRIVER_SPLC780D

?PR?KEY_SCAN?KEYPAD                             -----    -----      0019H    0003H
  +--> ?PR?_DELAY_MS?KEYPAD

?PR?LCD_CLEAR?LCD_DRIVER_SPLC780D               -----    -----      -----    -----
  +--> ?PR?_COMMAND?LCD_DRIVER_SPLC780D

?PR?_DISPLAYLCD?LCD_DRIVER_SPLC780D             -----    -----      0013H    0001H
  +--> ?PR?_WRITEDATA?LCD_DRIVER_SPLC780D

?PR?_DISPLAY_PROX?MAIN                          -----    -----      0013H    0004H
  +--> ?PR?_WRITEDATA?LCD_DRIVER_SPLC780D

?PR?LCD_RETURN_HOME?LCD_DRIVER_SPLC780D         -----    -----      -----    -----
  +--> ?PR?_COMMAND?LCD_DRIVER_SPLC780D
BL51 BANKED LINKER/LOCATER V6.22                                                      07/10/2018  16:10:56  PAGE 4



?PR?_READ_TIME?PCF85063BTL                      -----    -----      0013H    000FH
  +--> ?PR?_SPI_READTIME?PCF85063BTL

?PR?_SPI_READTIME?PCF85063BTL                   -----    -----      -----    -----
  +--> ?PR?_SPI_SENDBYTE?PCF85063BTL
  +--> ?PR?SPI_RECEIVEBYTE?PCF85063BTL

?PR?SPI_RECEIVEBYTE?PCF85063BTL                 -----    -----      -----    -----
  +--> ?PR?_PCF85063BTL_DELAY?PCF85063BTL



UNRESOLVED EXTERNAL SYMBOLS:
   I2C_INIT
   _READ_VCNL4035



SYMBOL TABLE OF MODULE:  .\Obj\GPIO_RTC_Test (MAIN)

  VALUE           TYPE          NAME
  ----------------------------------

  -------         MODULE        MAIN
  C:0000H         SYMBOL        _ICE_DUMMY_
  D:0080H         PUBLIC        P0
  D:0090H         PUBLIC        P1
  D:00A0H         PUBLIC        P2
  D:00B0H         PUBLIC        P3
  D:00C0H         PUBLIC        P4
  D:00C8H         PUBLIC        P5
  X:002AH         SYMBOL        PressedKey
  B:00A8H.7       PUBLIC        EA
  D:00E8H         PUBLIC        P6
  D:00F8H         PUBLIC        P7
  X:002EH         PUBLIC        RX_Data_Uart_Cnt
  D:00A8H         PUBLIC        IE
  D:00B8H         PUBLIC        IP
  B:0098H.0       PUBLIC        RI
  B:0098H.1       PUBLIC        TI
  C:06B3H         PUBLIC        Uart
  D:00D8H         PUBLIC        CCON
  C:03AAH         PUBLIC        main
  D:0099H         PUBLIC        SBUF
  D:0098H         PUBLIC        SCON
  D:0089H         PUBLIC        TMOD
  D:0088H         PUBLIC        TCON
  X:0030H         SYMBOL        KeyCount
  X:0032H         PUBLIC        Rec_data_hour
  X:0035H         PUBLIC        Rec_data_min
  D:008EH         PUBLIC        AUXR
  C:000AH         PUBLIC        tm0_isr
  B:0020H.0       PUBLIC        busy
  D:00E0H         PUBLIC        ACC
  B:00A8H.1       PUBLIC        ET0
  D:008CH         PUBLIC        TH0
BL51 BANKED LINKER/LOCATER V6.22                                                      07/10/2018  16:10:56  PAGE 5


  X:0038H         PUBLIC        hour_count
  D:008AH         PUBLIC        TL0
  X:0039H         PUBLIC        min_count
  B:0088H.4       PUBLIC        TR0
  X:003AH         SYMBOL        KeyNum
  X:003BH         SYMBOL        KeyNum_Old
  C:074EH         PUBLIC        _Display_Prox
  X:003CH         PUBLIC        st_time
  D:00D0H         PUBLIC        PSW
  C:0C1AH         PUBLIC        _SendUART1
  -------         PROC          TM0_ISR
  C:000AH         LINE#         52
  C:000AH         LINE#         55
  -------         ENDPROC       TM0_ISR
  -------         PROC          MAIN
  -------         DO            
  X:0005H         SYMBOL        seconds
  X:0006H         SYMBOL        mins
  X:0007H         SYMBOL        hours
  X:0008H         SYMBOL        days
  X:0009H         SYMBOL        months
  X:000AH         SYMBOL        prox_data
  X:0022H         SYMBOL        KeyCount
  X:0024H         SYMBOL        KeyNum_Old
  X:0025H         SYMBOL        KeyNum
  X:0026H         SYMBOL        PressedKey
  X:000CH         SYMBOL        count
  X:000EH         SYMBOL        numStr
  -------         ENDDO         
  C:03AAH         LINE#         57
  C:03AAH         LINE#         58
  C:03AAH         LINE#         64
  C:03B1H         LINE#         74
  C:03B4H         LINE#         75
  C:03B7H         LINE#         76
  C:03BAH         LINE#         77
  C:03BDH         LINE#         78
  C:03C0H         LINE#         80
  C:03C3H         LINE#         81
  C:03C6H         LINE#         82
  C:03C9H         LINE#         83
  C:03CBH         LINE#         84
  C:03CDH         LINE#         85
  C:03CFH         LINE#         87
  C:03D1H         LINE#         88
  C:03D8H         LINE#         89
  C:03DFH         LINE#         90
  C:03E6H         LINE#         91
  C:03EDH         LINE#         95
  C:03F4H         LINE#         96
  C:03F9H         LINE#         97
  C:03FEH         LINE#         98
  C:0403H         LINE#         99
  C:0408H         LINE#         100
  C:040DH         LINE#         103
  C:040DH         LINE#         104
  C:040DH         LINE#         105
BL51 BANKED LINKER/LOCATER V6.22                                                      07/10/2018  16:10:56  PAGE 6


  C:0410H         LINE#         106
  C:041EH         LINE#         108
  C:041EH         LINE#         109
  C:0425H         LINE#         110
  C:042DH         LINE#         111
  C:0432H         LINE#         112
  C:043AH         LINE#         113
  C:043FH         LINE#         114
  C:0449H         LINE#         116
  C:0451H         LINE#         118
  C:0459H         LINE#         120
  C:0468H         LINE#         121
  C:046BH         LINE#         129
  C:046EH         LINE#         131
  C:046EH         LINE#         132
  C:04A9H         LINE#         137
  C:04B6H         LINE#         138
  C:04B6H         LINE#         139
  C:04C0H         LINE#         140
  C:04CAH         LINE#         141
  C:04D1H         LINE#         142
  C:04D9H         LINE#         143
  C:04E1H         LINE#         144
  -------         ENDPROC       MAIN
  -------         PROC          UART
  C:06B3H         LINE#         157
  C:06C0H         LINE#         159
  C:06C3H         LINE#         160
  C:06C3H         LINE#         161
  C:06D1H         LINE#         162
  C:06D3H         LINE#         163
  C:06E5H         LINE#         164
  C:06F4H         LINE#         165
  C:06FFH         LINE#         166
  C:06FFH         LINE#         169
  C:070CH         LINE#         170
  C:0712H         LINE#         171
  C:0712H         LINE#         172
  C:0718H         LINE#         173
  C:0726H         LINE#         174
  C:0734H         LINE#         175
  C:073CH         LINE#         180
  C:073CH         LINE#         181
  C:073CH         LINE#         184
  C:073CH         LINE#         185
  C:073FH         LINE#         186
  C:073FH         LINE#         187
  C:0741H         LINE#         188
  C:0743H         LINE#         189
  C:0743H         LINE#         190
  -------         ENDPROC       UART
  -------         PROC          _SENDUART1
  D:0007H         SYMBOL        dat
  C:0C1AH         LINE#         193
  C:0C1AH         LINE#         194
  C:0C1AH         LINE#         195
  C:0C1DH         LINE#         196
BL51 BANKED LINKER/LOCATER V6.22                                                      07/10/2018  16:10:56  PAGE 7


  C:0C1FH         LINE#         197
  C:0C20H         LINE#         198
  C:0C22H         LINE#         199
  -------         ENDPROC       _SENDUART1
  -------         PROC          _DISPLAY_PROX
  D:0002H         SYMBOL        dat
  -------         DO            
  X:0013H         SYMBOL        unit
  X:0014H         SYMBOL        ten
  X:0015H         SYMBOL        hundred
  X:0016H         SYMBOL        thousand
  -------         ENDDO         
  C:074EH         LINE#         202
  C:0752H         LINE#         203
  C:0752H         LINE#         205
  C:075EH         LINE#         206
  C:076EH         LINE#         207
  C:078AH         LINE#         208
  C:07BAH         LINE#         209
  C:07C4H         LINE#         210
  C:07CEH         LINE#         211
  C:07D8H         LINE#         212
  C:07E2H         LINE#         214
  -------         ENDPROC       _DISPLAY_PROX
  -------         ENDMOD        MAIN

  -------         MODULE        PCF85063BTL
  C:0000H         SYMBOL        _ICE_DUMMY_
  D:0096H         PUBLIC        P2M0
  D:0080H         PUBLIC        P0
  D:0095H         PUBLIC        P2M1
  D:0090H         PUBLIC        P1
  D:00A0H         PUBLIC        P2
  D:00B0H         PUBLIC        P3
  D:00C0H         PUBLIC        P4
  D:00C8H         PUBLIC        P5
  D:00E8H         PUBLIC        P6
  B:00A0H.2       PUBLIC        PCF85063BTL_SDI
  D:00F8H         PUBLIC        P7
  B:00A0H.1       PUBLIC        PCF85063BTL_SCK
  B:00A0H.2       PUBLIC        PCF85063BTL_SDO
  D:00A8H         PUBLIC        IE
  C:0960H         PUBLIC        _Read_time
  C:0BA6H         PUBLIC        _PCF85063BTL_Delay
  D:00B8H         PUBLIC        IP
  D:00D8H         PUBLIC        CCON
  C:086FH         PUBLIC        _Day_Of_Year
  C:0B16H         PUBLIC        SPI_ReceiveByte
  D:0098H         PUBLIC        SCON
  D:0088H         PUBLIC        TCON
  B:00A0H.0       PUBLIC        PCF85063BTL_CS
  C:0BC8H         PUBLIC        _SPI_ReadTime
  C:0BF9H         PUBLIC        SPI_Init
  C:0B71H         PUBLIC        _SPI_WriteTime
  C:0AF6H         PUBLIC        _SPI_SendByte
  D:00D0H         PUBLIC        PSW
  C:0BA2H         SYMBOL        L?0046
BL51 BANKED LINKER/LOCATER V6.22                                                      07/10/2018  16:10:56  PAGE 8


  -------         PROC          L?0045
  -------         ENDPROC       L?0045
  C:0BA2H         SYMBOL        L?0046
  -------         PROC          _PCF85063BTL_DELAY
  D:0006H         SYMBOL        us
  C:0BA6H         LINE#         8
  C:0BA6H         LINE#         9
  C:0BA6H         LINE#         10
  C:0BB0H         LINE#         11
  C:0BB0H         LINE#         12
  C:0BB1H         LINE#         13
  C:0BB3H         LINE#         14
  -------         ENDPROC       _PCF85063BTL_DELAY
  -------         PROC          _SPI_SENDBYTE
  D:0005H         SYMBOL        dat
  -------         DO            
  D:0003H         SYMBOL        i
  -------         ENDDO         
  C:0AF6H         LINE#         17
  C:0AF8H         LINE#         18
  C:0AF8H         LINE#         20
  C:0AFAH         LINE#         21
  C:0AFAH         LINE#         22
  C:0AFCH         LINE#         23
  C:0B00H         LINE#         24
  C:0B00H         LINE#         25
  C:0B02H         LINE#         26
  C:0B04H         LINE#         28
  C:0B04H         LINE#         29
  C:0B06H         LINE#         30
  C:0B06H         LINE#         31
  C:0B09H         LINE#         32
  C:0B09H         LINE#         33
  C:0B0CH         LINE#         34
  C:0B10H         LINE#         35
  C:0B15H         LINE#         36
  -------         ENDPROC       _SPI_SENDBYTE
  -------         PROC          SPI_RECEIVEBYTE
  -------         DO            
  D:0003H         SYMBOL        i
  D:0005H         SYMBOL        dat
  -------         ENDDO         
  C:0B16H         LINE#         39
  C:0B16H         LINE#         40
  C:0B16H         LINE#         42
  C:0B18H         LINE#         44
  C:0B1AH         LINE#         45
  C:0B1BH         LINE#         46
  C:0B1BH         LINE#         47
  C:0B1FH         LINE#         48
  C:0B21H         LINE#         49
  C:0B24H         LINE#         51
  C:0B27H         LINE#         52
  C:0B27H         LINE#         53
  C:0B2BH         LINE#         54
  C:0B2BH         LINE#         55
  C:0B2BH         LINE#         56
BL51 BANKED LINKER/LOCATER V6.22                                                      07/10/2018  16:10:56  PAGE 9


  C:0B2EH         LINE#         57
  C:0B33H         LINE#         58
  C:0B35H         LINE#         59
  -------         ENDPROC       SPI_RECEIVEBYTE
  -------         PROC          _SPI_READTIME
  D:0007H         SYMBOL        addr
  -------         DO            
  D:0006H         SYMBOL        dat
  -------         ENDDO         
  C:0BC8H         LINE#         61
  C:0BC8H         LINE#         62
  C:0BC8H         LINE#         64
  C:0BCAH         LINE#         65
  C:0BCCH         LINE#         66
  C:0BD3H         LINE#         67
  C:0BD6H         LINE#         68
  C:0BD8H         LINE#         69
  C:0BD8H         LINE#         70
  -------         ENDPROC       _SPI_READTIME
  -------         PROC          _SPI_WRITETIME
  D:0002H         SYMBOL        val
  D:0005H         SYMBOL        addr
  C:0B71H         LINE#         71
  C:0B73H         LINE#         72
  C:0B73H         LINE#         74
  C:0B75H         LINE#         75
  C:0B7CH         LINE#         76
  C:0B81H         LINE#         77
  C:0B86H         LINE#         78
  C:0B88H         LINE#         79
  -------         ENDPROC       _SPI_WRITETIME
  -------         PROC          SPI_INIT
  C:0BF9H         LINE#         83
  C:0BF9H         LINE#         84
  C:0BF9H         LINE#         89
  C:0BFCH         LINE#         90
  C:0BFFH         LINE#         91
  C:0C01H         LINE#         92
  C:0C03H         LINE#         93
  C:0C05H         LINE#         94
  -------         ENDPROC       SPI_INIT
  -------         PROC          _READ_TIME
  X:0013H         SYMBOL        months
  X:0016H         SYMBOL        days
  X:0019H         SYMBOL        hours
  X:001CH         SYMBOL        mins
  X:001FH         SYMBOL        seconds
  C:0960H         LINE#         96
  C:096BH         LINE#         97
  C:096BH         LINE#         99
  C:097FH         LINE#         101
  C:0993H         LINE#         103
  C:09A7H         LINE#         108
  C:09BBH         LINE#         113
  -------         ENDPROC       _READ_TIME
  -------         PROC          _DAY_OF_YEAR
  D:0007H         SYMBOL        months
BL51 BANKED LINKER/LOCATER V6.22                                                      07/10/2018  16:10:56  PAGE 10


  D:0005H         SYMBOL        days
  C:086FH         LINE#         120
  C:086FH         LINE#         121
  C:086FH         LINE#         123
  C:08A8H         LINE#         124
  C:08A8H         LINE#         125
  C:08A8H         LINE#         126
  C:08ADH         LINE#         127
  C:08ADH         LINE#         128
  C:08ADH         LINE#         129
  C:08B2H         LINE#         130
  C:08B2H         LINE#         131
  C:08B2H         LINE#         132
  C:08B7H         LINE#         133
  C:08B7H         LINE#         134
  C:08B7H         LINE#         135
  C:08BCH         LINE#         136
  C:08BCH         LINE#         137
  C:08BCH         LINE#         138
  C:08C1H         LINE#         139
  C:08C1H         LINE#         140
  C:08C1H         LINE#         141
  C:08C6H         LINE#         142
  C:08C6H         LINE#         143
  C:08C6H         LINE#         144
  C:08CBH         LINE#         145
  C:08CBH         LINE#         146
  C:08CBH         LINE#         147
  C:08D0H         LINE#         148
  C:08D0H         LINE#         149
  C:08D0H         LINE#         150
  C:08D8H         LINE#         151
  C:08D8H         LINE#         152
  C:08D8H         LINE#         153
  C:08DDH         LINE#         154
  C:08DDH         LINE#         155
  C:08DDH         LINE#         156
  C:08E2H         LINE#         157
  C:08E2H         LINE#         158
  C:08E2H         LINE#         159
  C:08EAH         LINE#         160
  C:08EAH         LINE#         161
  C:08EAH         LINE#         162
  -------         ENDPROC       _DAY_OF_YEAR
  -------         ENDMOD        PCF85063BTL

  -------         MODULE        UART1
  C:0000H         SYMBOL        _ICE_DUMMY_
  D:0080H         PUBLIC        P0
  D:0090H         PUBLIC        P1
  D:00A0H         PUBLIC        P2
  D:00B0H         PUBLIC        P3
  D:00C0H         PUBLIC        P4
  D:00C8H         PUBLIC        P5
  B:00A8H.7       PUBLIC        EA
  D:00E8H         PUBLIC        P6
  D:00F8H         PUBLIC        P7
BL51 BANKED LINKER/LOCATER V6.22                                                      07/10/2018  16:10:56  PAGE 11


  C:0A9FH         PUBLIC        _SendString
  D:00A8H         PUBLIC        IE
  B:00A8H.4       PUBLIC        ES
  D:00B8H         PUBLIC        IP
  C:0B89H         PUBLIC        _ASCIItoBCD
  D:00D8H         PUBLIC        CCON
  C:0BD9H         PUBLIC        initUART1
  D:0098H         PUBLIC        SCON
  D:0088H         PUBLIC        TCON
  C:0C33H         PUBLIC        _DectoBCD
  C:0C2EH         PUBLIC        _ASCII_Letter
  D:008EH         PUBLIC        AUXR
  C:0C29H         PUBLIC        _unit
  C:0C23H         PUBLIC        _ten
  D:00D6H         PUBLIC        T2H
  D:00D7H         PUBLIC        T2L
  D:00D0H         PUBLIC        PSW
  -------         PROC          INITUART1
  C:0BD9H         LINE#         21
  C:0BD9H         LINE#         22
  C:0BD9H         LINE#         23
  C:0BDCH         LINE#         24
  C:0BDFH         LINE#         25
  C:0BE2H         LINE#         26
  C:0BE5H         LINE#         27
  C:0BE7H         LINE#         28
  C:0BE9H         LINE#         30
  -------         ENDPROC       INITUART1
  -------         PROC          _SENDSTRING
  X:0047H         SYMBOL        s
  C:0A9FH         LINE#         35
  C:0AAAH         LINE#         36
  C:0AAAH         LINE#         37
  C:0ABAH         LINE#         38
  C:0ABAH         LINE#         39
  C:0ACFH         LINE#         40
  C:0AD1H         LINE#         41
  -------         ENDPROC       _SENDSTRING
  -------         PROC          _TEN
  D:0007H         SYMBOL        BCD
  C:0C23H         LINE#         43
  C:0C23H         LINE#         44
  C:0C23H         LINE#         45
  C:0C28H         LINE#         46
  -------         ENDPROC       _TEN
  -------         PROC          _UNIT
  D:0007H         SYMBOL        BCD
  C:0C29H         LINE#         47
  C:0C29H         LINE#         48
  C:0C29H         LINE#         52
  C:0C2DH         LINE#         53
  -------         ENDPROC       _UNIT
  -------         PROC          _DECTOBCD
  D:0007H         SYMBOL        dec
  C:0C33H         LINE#         54
  C:0C33H         LINE#         55
  C:0C33H         LINE#         57
BL51 BANKED LINKER/LOCATER V6.22                                                      07/10/2018  16:10:56  PAGE 12


  C:0C33H         LINE#         58
  -------         ENDPROC       _DECTOBCD
  -------         PROC          _ASCII_LETTER
  D:0007H         SYMBOL        dat
  C:0C2EH         LINE#         60
  C:0C2EH         LINE#         61
  C:0C2EH         LINE#         63
  C:0C32H         LINE#         64
  -------         ENDPROC       _ASCII_LETTER
  -------         PROC          _ASCIITOBCD
  D:0001H         SYMBOL        ascii
  -------         DO            
  D:0007H         SYMBOL        dec_val
  D:0006H         SYMBOL        ten
  D:0007H         SYMBOL        unit
  -------         ENDDO         
  C:0B89H         LINE#         66
  C:0B89H         LINE#         67
  C:0B89H         LINE#         69
  C:0B8CH         LINE#         70
  C:0B92H         LINE#         71
  C:0B99H         LINE#         72
  C:0B9FH         LINE#         74
  -------         ENDPROC       _ASCIITOBCD
  -------         ENDMOD        UART1

  -------         MODULE        LCD_DRIVER_SPLC780D
  C:0000H         SYMBOL        _ICE_DUMMY_
  D:0080H         PUBLIC        P0
  D:0090H         PUBLIC        P1
  D:00A0H         PUBLIC        P2
  D:00B0H         PUBLIC        P3
  D:00C0H         PUBLIC        P4
  D:00C8H         PUBLIC        P5
  D:00E8H         PUBLIC        P6
  D:00F8H         PUBLIC        P7
  C:08EBH         PUBLIC        _WriteData
  D:00A8H         PUBLIC        IE
  D:00B8H         PUBLIC        IP
  D:00D8H         PUBLIC        CCON
  B:0090H.4       PUBLIC        LCD_D4
  B:0090H.5       PUBLIC        LCD_D5
  B:0090H.6       PUBLIC        LCD_D6
  C:0B54H         PUBLIC        _DisplayLCD
  B:0090H.7       PUBLIC        LCD_D7
  D:0098H         PUBLIC        SCON
  D:0088H         PUBLIC        TCON
  C:0C10H         PUBLIC        LCD_clear
  C:0A23H         PUBLIC        _Command
  C:000EH         PUBLIC        _Display_Line
  C:09CFH         PUBLIC        LCD_Init
  C:0AD8H         PUBLIC        _Wait_ms
  B:0090H.1       PUBLIC        LCD_RS
  B:0090H.2       PUBLIC        LCD_RW
  C:0C06H         PUBLIC        LCD_return_home
  B:0090H.3       PUBLIC        LCD_E
  D:00D0H         PUBLIC        PSW
BL51 BANKED LINKER/LOCATER V6.22                                                      07/10/2018  16:10:56  PAGE 13


  -------         PROC          LCD_INIT
  C:09CFH         LINE#         9
  C:09CFH         LINE#         10
  C:09CFH         LINE#         12
  C:09D6H         LINE#         13
  C:09DBH         LINE#         15
  C:09E2H         LINE#         16
  C:09E7H         LINE#         18
  C:09EAH         LINE#         19
  C:09EFH         LINE#         21
  C:09F2H         LINE#         22
  C:09F7H         LINE#         24
  C:09FEH         LINE#         27
  C:0A03H         LINE#         28
  C:0A08H         LINE#         30
  C:0A0DH         LINE#         31
  C:0A12H         LINE#         33
  C:0A17H         LINE#         34
  C:0A1CH         LINE#         35
  -------         ENDPROC       LCD_INIT
  -------         PROC          _WRITEDATA
  X:0019H         SYMBOL        dat
  C:08EBH         LINE#         38
  C:08F0H         LINE#         39
  C:08F0H         LINE#         44
  C:08F2H         LINE#         45
  C:08F4H         LINE#         47
  C:0902H         LINE#         48
  C:090EH         LINE#         49
  C:091AH         LINE#         50
  C:0924H         LINE#         51
  C:0926H         LINE#         52
  C:092DH         LINE#         53
  C:092FH         LINE#         55
  C:093FH         LINE#         56
  C:094AH         LINE#         57
  C:0954H         LINE#         58
  C:0958H         LINE#         60
  C:0958H         LINE#         61
  C:095BH         LINE#         62
  C:095DH         LINE#         63
  C:095FH         LINE#         65
  -------         ENDPROC       _WRITEDATA
  -------         PROC          _COMMAND
  D:0007H         SYMBOL        dat
  C:0A23H         LINE#         67
  C:0A23H         LINE#         68
  C:0A23H         LINE#         69
  C:0A25H         LINE#         70
  C:0A27H         LINE#         72
  C:0A31H         LINE#         73
  C:0A35H         LINE#         75
  C:0A37H         LINE#         76
  C:0A40H         LINE#         77
  C:0A44H         LINE#         79
  C:0A46H         LINE#         80
  C:0A4DH         LINE#         81
BL51 BANKED LINKER/LOCATER V6.22                                                      07/10/2018  16:10:56  PAGE 14


  C:0A51H         LINE#         83
  C:0A53H         LINE#         84
  C:0A57H         LINE#         85
  C:0A5BH         LINE#         87
  C:0A5DH         LINE#         88
  C:0A5DH         LINE#         89
  C:0A60H         LINE#         90
  C:0A62H         LINE#         91
  -------         ENDPROC       _COMMAND
  C:0AD4H         SYMBOL        L?0028
  -------         PROC          L?0027
  -------         ENDPROC       L?0027
  C:0AD4H         SYMBOL        L?0028
  -------         PROC          _WAIT_MS
  D:0006H         SYMBOL        ms
  -------         DO            
  D:0004H         SYMBOL        De_Cnt
  -------         ENDDO         
  C:0AD8H         LINE#         93
  C:0AD8H         LINE#         94
  C:0AD8H         LINE#         96
  C:0AE2H         LINE#         97
  C:0AE2H         LINE#         98
  C:0AF5H         LINE#         99
  C:0AF5H         LINE#         100
  -------         ENDPROC       _WAIT_MS
  -------         PROC          _DISPLAYLCD
  D:0007H         SYMBOL        BCD
  -------         DO            
  D:0006H         SYMBOL        first_digit
  X:0013H         SYMBOL        second_digit
  -------         ENDDO         
  C:0B54H         LINE#         101
  C:0B54H         LINE#         102
  C:0B54H         LINE#         104
  C:0B5BH         LINE#         105
  C:0B64H         LINE#         107
  C:0B69H         LINE#         109
  -------         ENDPROC       _DISPLAYLCD
  -------         PROC          LCD_RETURN_HOME
  C:0C06H         LINE#         113
  C:0C06H         LINE#         114
  C:0C06H         LINE#         115
  C:0C0BH         LINE#         116
  -------         ENDPROC       LCD_RETURN_HOME
  -------         PROC          LCD_CLEAR
  C:0C10H         LINE#         119
  C:0C10H         LINE#         120
  C:0C10H         LINE#         121
  C:0C15H         LINE#         122
  -------         ENDPROC       LCD_CLEAR
  -------         PROC          _DISPLAY_LINE
  D:0006H         SYMBOL        line
  C:000EH         LINE#         126
  C:000EH         LINE#         127
  C:000EH         LINE#         128
  C:0014H         LINE#         129
BL51 BANKED LINKER/LOCATER V6.22                                                      07/10/2018  16:10:56  PAGE 15


  C:0014H         LINE#         130
  C:0016H         LINE#         131
  C:0016H         LINE#         132
  C:0018H         LINE#         134
  C:0018H         LINE#         135
  C:001DH         LINE#         136
  C:0022H         LINE#         137
  C:0022H         LINE#         138
  -------         ENDPROC       _DISPLAY_LINE
  -------         ENDMOD        LCD_DRIVER_SPLC780D

  -------         MODULE        KEYPAD
  C:0000H         SYMBOL        _ICE_DUMMY_
  D:0093H         PUBLIC        P0M1
  D:0080H         PUBLIC        P0
  D:0090H         PUBLIC        P1
  D:00A0H         PUBLIC        P2
  D:00B0H         PUBLIC        P3
  D:00C0H         PUBLIC        P4
  D:00C8H         PUBLIC        P5
  D:00E8H         PUBLIC        P6
  D:00F8H         PUBLIC        P7
  D:00A8H         PUBLIC        IE
  C:026FH         PUBLIC        Key_Scan
  D:00B8H         PUBLIC        IP
  D:00D8H         PUBLIC        CCON
  C:0003H         PUBLIC        KeyPad_IO_Init
  C:0B36H         PUBLIC        _Delay_ms
  D:0098H         PUBLIC        SCON
  D:0088H         PUBLIC        TCON
  C:0026H         PUBLIC        Key_Process
  D:00D0H         PUBLIC        PSW
  D:0094H         PUBLIC        P0M0
  -------         PROC          _DELAY_MS
  D:0006H         SYMBOL        ms
  -------         DO            
  D:0004H         SYMBOL        De_Cnt
  -------         ENDDO         
  C:0B36H         LINE#         13
  C:0B36H         LINE#         14
  C:0B36H         LINE#         16
  C:0B40H         LINE#         17
  C:0B40H         LINE#         18
  C:0B53H         LINE#         19
  C:0B53H         LINE#         20
  -------         ENDPROC       _DELAY_MS
  -------         PROC          KEY_SCAN
  -------         DO            
  X:0019H         SYMBOL        KeyTemp1
  X:001AH         SYMBOL        KeyTemp2
  X:001BH         SYMBOL        KeyValue
  -------         ENDDO         
  C:026FH         LINE#         21
  C:026FH         LINE#         22
  C:026FH         LINE#         27
  C:0272H         LINE#         30
  C:0275H         LINE#         32
BL51 BANKED LINKER/LOCATER V6.22                                                      07/10/2018  16:10:56  PAGE 16


  C:027DH         LINE#         33
  C:0284H         LINE#         34
  C:0284H         LINE#         35
  C:028BH         LINE#         36
  C:0290H         LINE#         37
  C:0297H         LINE#         38
  C:0297H         LINE#         41
  C:029AH         LINE#         42
  C:029DH         LINE#         43
  C:02A2H         LINE#         44
  C:02A6H         LINE#         45
  C:02A6H         LINE#         46
  C:02AEH         LINE#         47
  C:02AEH         LINE#         48
  C:02B1H         LINE#         49
  C:02B9H         LINE#         50
  C:02BBH         LINE#         52
  C:02CFH         LINE#         53
  C:02CFH         LINE#         54
  C:02CFH         LINE#         55
  C:02CFH         LINE#         56
  C:02D5H         LINE#         58
  C:02D7H         LINE#         59
  C:02D7H         LINE#         60
  C:02D7H         LINE#         61
  C:02DDH         LINE#         63
  C:02DFH         LINE#         64
  C:02DFH         LINE#         65
  C:02DFH         LINE#         66
  C:02E5H         LINE#         68
  C:02E7H         LINE#         69
  C:02E7H         LINE#         70
  C:02E7H         LINE#         71
  C:02EDH         LINE#         73
  C:02EDH         LINE#         74
  C:02EDH         LINE#         75
  C:02EDH         LINE#         78
  C:02F0H         LINE#         79
  C:02F3H         LINE#         80
  C:02FBH         LINE#         81
  C:02FFH         LINE#         82
  C:02FFH         LINE#         83
  C:0307H         LINE#         84
  C:0307H         LINE#         85
  C:030AH         LINE#         86
  C:0312H         LINE#         87
  C:0314H         LINE#         88
  C:0328H         LINE#         89
  C:0328H         LINE#         90
  C:0328H         LINE#         91
  C:0328H         LINE#         92
  C:032EH         LINE#         94
  C:0330H         LINE#         95
  C:0330H         LINE#         96
  C:0330H         LINE#         97
  C:0336H         LINE#         99
  C:0338H         LINE#         100
BL51 BANKED LINKER/LOCATER V6.22                                                      07/10/2018  16:10:56  PAGE 17


  C:0338H         LINE#         101
  C:0338H         LINE#         102
  C:033EH         LINE#         104
  C:0340H         LINE#         105
  C:0340H         LINE#         106
  C:0340H         LINE#         107
  C:0345H         LINE#         109
  C:0345H         LINE#         110
  C:0345H         LINE#         111
  C:0345H         LINE#         114
  C:0348H         LINE#         115
  C:034BH         LINE#         116
  C:0353H         LINE#         117
  C:0357H         LINE#         118
  C:0357H         LINE#         119
  C:035FH         LINE#         120
  C:035FH         LINE#         121
  C:0362H         LINE#         122
  C:036AH         LINE#         123
  C:036CH         LINE#         124
  C:0380H         LINE#         125
  C:0380H         LINE#         126
  C:0380H         LINE#         127
  C:0380H         LINE#         128
  C:0386H         LINE#         130
  C:0388H         LINE#         131
  C:0388H         LINE#         132
  C:0388H         LINE#         133
  C:038EH         LINE#         135
  C:0390H         LINE#         136
  C:0390H         LINE#         137
  C:0390H         LINE#         138
  C:0396H         LINE#         140
  C:0398H         LINE#         141
  C:0398H         LINE#         142
  C:0398H         LINE#         143
  C:039EH         LINE#         145
  C:039EH         LINE#         146
  C:039EH         LINE#         147
  C:039EH         LINE#         148
  C:03A4H         LINE#         149
  C:03A4H         LINE#         151
  C:03A4H         LINE#         152
  C:03A7H         LINE#         153
  C:03A7H         LINE#         154
  C:03A7H         LINE#         156
  C:03A7H         LINE#         157
  C:03A9H         LINE#         158
  C:03A9H         LINE#         159
  -------         ENDPROC       KEY_SCAN
  -------         PROC          KEY_PROCESS
  -------         DO            
  X:003EH         SYMBOL        KeyCount
  X:0040H         SYMBOL        KeyNum_Old
  X:0041H         SYMBOL        KeyNum
  X:0042H         SYMBOL        PressedKey
  X:0013H         SYMBOL        d
BL51 BANKED LINKER/LOCATER V6.22                                                      07/10/2018  16:10:56  PAGE 18


  D:0004H         SYMBOL        hours
  D:0006H         SYMBOL        mins
  X:0015H         SYMBOL        months
  X:0017H         SYMBOL        days
  -------         ENDDO         
  C:0026H         LINE#         160
  C:0026H         LINE#         161
  C:0026H         LINE#         165
  C:002EH         LINE#         166
  C:0036H         LINE#         168
  C:004BH         LINE#         169
  C:004BH         LINE#         170
  C:005DH         LINE#         171
  C:006BH         LINE#         172
  C:007AH         LINE#         173
  C:007AH         LINE#         175
  C:0080H         LINE#         179
  C:0096H         LINE#         180
  C:00A7H         LINE#         181
  C:00C2H         LINE#         182
  C:00C2H         LINE#         183
  C:00D2H         LINE#         184
  C:00E3H         LINE#         185
  C:00E3H         LINE#         189
  C:00FCH         LINE#         190
  C:0113H         LINE#         191
  C:0133H         LINE#         192
  C:0133H         LINE#         193
  C:013DH         LINE#         194
  C:013DH         LINE#         195
  C:0146H         LINE#         196
  C:0146H         LINE#         197
  C:015AH         LINE#         198
  C:015AH         LINE#         199
  C:015AH         LINE#         200
  C:015AH         LINE#         201
  C:015AH         LINE#         202
  C:015CH         LINE#         204
  C:015CH         LINE#         205
  C:0168H         LINE#         206
  C:0168H         LINE#         207
  C:0179H         LINE#         208
  C:0179H         LINE#         209
  C:0179H         LINE#         210
  C:0179H         LINE#         211
  C:0179H         LINE#         213
  C:017BH         LINE#         215
  C:017BH         LINE#         216
  C:018CH         LINE#         217
  C:018CH         LINE#         218
  C:018CH         LINE#         219
  C:018CH         LINE#         220
  C:018CH         LINE#         222
  C:018CH         LINE#         224
  C:018CH         LINE#         225
  C:018EH         LINE#         227
  C:018EH         LINE#         228
BL51 BANKED LINKER/LOCATER V6.22                                                      07/10/2018  16:10:56  PAGE 19


  C:01A1H         LINE#         229
  C:01A1H         LINE#         230
  C:01B2H         LINE#         231
  C:01B2H         LINE#         232
  C:01B2H         LINE#         233
  C:01B2H         LINE#         234
  C:01B2H         LINE#         235
  C:01B4H         LINE#         237
  C:01B4H         LINE#         238
  C:01C5H         LINE#         239
  C:01C5H         LINE#         240
  C:01D6H         LINE#         241
  C:01E7H         LINE#         242
  C:01E7H         LINE#         243
  C:01E7H         LINE#         244
  C:01E7H         LINE#         245
  C:01E7H         LINE#         246
  C:01EAH         LINE#         247
  C:01EFH         LINE#         248
  C:01F4H         LINE#         249
  C:01F9H         LINE#         250
  C:01FEH         LINE#         251
  C:0203H         LINE#         252
  C:0208H         LINE#         253
  C:020DH         LINE#         254
  C:020DH         LINE#         256
  C:022FH         LINE#         257
  C:022FH         LINE#         258
  C:0239H         LINE#         259
  C:0239H         LINE#         260
  C:023EH         LINE#         261
  C:0247H         LINE#         262
  C:025EH         LINE#         263
  C:025EH         LINE#         264
  C:026EH         LINE#         266
  C:026EH         LINE#         270
  -------         ENDPROC       KEY_PROCESS
  -------         PROC          KEYPAD_IO_INIT
  C:0003H         LINE#         273
  C:0003H         LINE#         274
  C:0003H         LINE#         275
  C:0006H         LINE#         276
  C:0009H         LINE#         277
  -------         ENDPROC       KEYPAD_IO_INIT
  -------         ENDMOD        KEYPAD

  -------         MODULE        ?C_STARTUP
  C:07E3H         SEGMENT       ?C_C51STARTUP
  I:0021H         SEGMENT       ?STACK
  C:0000H         PUBLIC        ?C_STARTUP
  D:00E0H         SYMBOL        ACC
  D:00F0H         SYMBOL        B
  D:0083H         SYMBOL        DPH
  D:0082H         SYMBOL        DPL
  N:0000H         SYMBOL        IBPSTACK
  N:0100H         SYMBOL        IBPSTACKTOP
  N:0080H         SYMBOL        IDATALEN
BL51 BANKED LINKER/LOCATER V6.22                                                      07/10/2018  16:10:56  PAGE 20


  C:07E6H         SYMBOL        IDATALOOP
  N:0000H         SYMBOL        PBPSTACK
  N:0100H         SYMBOL        PBPSTACKTOP
  N:0000H         SYMBOL        PDATALEN
  N:0000H         SYMBOL        PDATASTART
  N:0000H         SYMBOL        PPAGE
  N:0000H         SYMBOL        PPAGEENABLE
  D:00A0H         SYMBOL        PPAGE_SFR
  D:0081H         SYMBOL        SP
  C:07E3H         SYMBOL        STARTUP1
  N:0000H         SYMBOL        XBPSTACK
  N:0000H         SYMBOL        XBPSTACKTOP
  N:0000H         SYMBOL        XDATALEN
  N:0000H         SYMBOL        XDATASTART
  C:0000H         LINE#         126
  C:07E3H         LINE#         133
  C:07E5H         LINE#         134
  C:07E6H         LINE#         135
  C:07E7H         LINE#         136
  C:07E9H         LINE#         185
  C:07ECH         LINE#         196
  -------         ENDMOD        ?C_STARTUP

  -------         MODULE        ?C?CLDPTR
  C:04E4H         PUBLIC        ?C?CLDPTR
  -------         ENDMOD        ?C?CLDPTR

  -------         MODULE        ?C?CSTPTR
  C:04FDH         PUBLIC        ?C?CSTPTR
  -------         ENDMOD        ?C?CSTPTR

  -------         MODULE        ?C?IMUL
  C:050FH         PUBLIC        ?C?IMUL
  -------         ENDMOD        ?C?IMUL

  -------         MODULE        ?C?UIDIV
  C:0521H         PUBLIC        ?C?UIDIV
  -------         ENDMOD        ?C?UIDIV

  -------         MODULE        ?C?SIDIV
  C:0576H         PUBLIC        ?C?SIDIV
  -------         ENDMOD        ?C?SIDIV

  -------         MODULE        ?C?ILDIX
  C:05ACH         PUBLIC        ?C?ILDIX
  -------         ENDMOD        ?C?ILDIX

  -------         MODULE        ATOI
  C:05D8H         PUBLIC        _atoi
  -------         ENDMOD        ATOI

  -------         MODULE        ?C?IILDX
  C:05C2H         PUBLIC        ?C?IILDX
  -------         ENDMOD        ?C?IILDX

  -------         MODULE        ISDIGIT
  C:0BEAH         PUBLIC        _isdigit
BL51 BANKED LINKER/LOCATER V6.22                                                      07/10/2018  16:10:56  PAGE 21


  -------         ENDMOD        ISDIGIT

  -------         MODULE        ISSPACE
  C:0BB4H         PUBLIC        _isspace
  -------         ENDMOD        ISSPACE

*** WARNING L16: UNCALLED SEGMENT, IGNORED FOR OVERLAY PROCESS
    SEGMENT: ?PR?_DAY_OF_YEAR?PCF85063BTL

*** WARNING L16: UNCALLED SEGMENT, IGNORED FOR OVERLAY PROCESS
    SEGMENT: ?PR?_SENDSTRING?UART1

*** WARNING L16: UNCALLED SEGMENT, IGNORED FOR OVERLAY PROCESS
    SEGMENT: ?PR?_TEN?UART1

*** WARNING L16: UNCALLED SEGMENT, IGNORED FOR OVERLAY PROCESS
    SEGMENT: ?PR?_UNIT?UART1

*** WARNING L16: UNCALLED SEGMENT, IGNORED FOR OVERLAY PROCESS
    SEGMENT: ?PR?_DECTOBCD?UART1

*** WARNING L16: UNCALLED SEGMENT, IGNORED FOR OVERLAY PROCESS
    SEGMENT: ?PR?_ASCII_LETTER?UART1

*** WARNING L1: UNRESOLVED EXTERNAL SYMBOL
    SYMBOL:  I2C_INIT
    MODULE:  .\Obj\main.obj (MAIN)

*** WARNING L1: UNRESOLVED EXTERNAL SYMBOL
    SYMBOL:  _READ_VCNL4035
    MODULE:  .\Obj\main.obj (MAIN)

*** WARNING L2: REFERENCE MADE TO UNRESOLVED EXTERNAL
    SYMBOL:  I2C_INIT
    MODULE:  .\Obj\main.obj (MAIN)
    ADDRESS: 03BEH

*** WARNING L2: REFERENCE MADE TO UNRESOLVED EXTERNAL
    SYMBOL:  _READ_VCNL4035
    MODULE:  .\Obj\main.obj (MAIN)
    ADDRESS: 045EH

Program Size: data=17.2 xdata=74 code=3124
LINK/LOCATE RUN COMPLETE.  10 WARNING(S),  0 ERROR(S)
