BL51 BANKED LINKER/LOCATER V6.22                                                        08/23/2018  17:19:26  PAGE 1


BL51 BANKED LINKER/LOCATER V6.22, INVOKED BY:
C:\KEIL_V5\C51\BIN\BL51.EXE .\Obj\main.obj, .\Obj\PCF85063BTL.obj, .\Obj\UART1.obj, .\Obj\LCd_Driver_SPLC780D.obj, .\Obj
>> \KeyPad.obj, .\Obj\VCNL4035.obj, .\Obj\BipolarMotor.obj, .\Obj\SunPos.obj, .\Obj\STARTUP.obj TO .\Obj\GPIO_RTC_Test P
>> RINT (.\Lis\GPIO_RTC_Test.m51) RAMSIZE (256)


MEMORY MODEL: LARGE WITH FLOATING POINT ARITHMETIC


INPUT MODULES INCLUDED:
  .\Obj\main.obj (MAIN)
  .\Obj\PCF85063BTL.obj (PCF85063BTL)
  .\Obj\UART1.obj (UART1)
  .\Obj\LCd_Driver_SPLC780D.obj (LCD_DRIVER_SPLC780D)
  .\Obj\KeyPad.obj (KEYPAD)
  .\Obj\VCNL4035.obj (VCNL4035)
  .\Obj\BipolarMotor.obj (BIPOLARMOTOR)
  .\Obj\SunPos.obj (SUNPOS)
  .\Obj\STARTUP.obj (?C_STARTUP)
  C:\KEIL_V5\C51\LIB\C51FPL.LIB (?C?FPADD)
  C:\KEIL_V5\C51\LIB\C51FPL.LIB (?C?FPMUL)
  C:\KEIL_V5\C51\LIB\C51FPL.LIB (?C?FPDIV)
  C:\KEIL_V5\C51\LIB\C51FPL.LIB (?C?FPCMP)
  C:\KEIL_V5\C51\LIB\C51FPL.LIB (?C?FPNEG)
  C:\KEIL_V5\C51\LIB\C51FPL.LIB (?C?FCAST)
  C:\KEIL_V5\C51\LIB\C51FPL.LIB (?C?CASTF)
  C:\KEIL_V5\C51\LIB\C51FPL.LIB (ATAN2)
  C:\KEIL_V5\C51\LIB\C51FPL.LIB (SIN)
  C:\KEIL_V5\C51\LIB\C51FPL.LIB (ACOS)
  C:\KEIL_V5\C51\LIB\C51FPL.LIB (ASIN)
  C:\KEIL_V5\C51\LIB\C51FPL.LIB (?C?FPGETOPN)
  C:\KEIL_V5\C51\LIB\C51FPL.LIB (?C?FPSERIES)
  C:\KEIL_V5\C51\LIB\C51FPL.LIB (SQRT)
  C:\KEIL_V5\C51\LIB\C51FPL.LIB (ATAN)
  C:\KEIL_V5\C51\LIB\C51L.LIB (?C_INIT)
  C:\KEIL_V5\C51\LIB\C51L.LIB (?C?COPY)
  C:\KEIL_V5\C51\LIB\C51L.LIB (?C?CLDPTR)
  C:\KEIL_V5\C51\LIB\C51L.LIB (?C?CSTPTR)
  C:\KEIL_V5\C51\LIB\C51L.LIB (?C?IMUL)
  C:\KEIL_V5\C51\LIB\C51L.LIB (?C?UIDIV)
  C:\KEIL_V5\C51\LIB\C51L.LIB (?C?SIDIV)
  C:\KEIL_V5\C51\LIB\C51L.LIB (?C?ILDIX)
  C:\KEIL_V5\C51\LIB\C51L.LIB (?C?LMUL)
  C:\KEIL_V5\C51\LIB\C51L.LIB (?C?SLDIV)
  C:\KEIL_V5\C51\LIB\C51L.LIB (?C?LNEG)
  C:\KEIL_V5\C51\LIB\C51L.LIB (?C?LLDPTR)
  C:\KEIL_V5\C51\LIB\C51L.LIB (?C?LLDOPTR)
  C:\KEIL_V5\C51\LIB\C51L.LIB (?C?LSTPTR)
  C:\KEIL_V5\C51\LIB\C51L.LIB (?C?LSTOPTR)
  C:\KEIL_V5\C51\LIB\C51L.LIB (?C?LLDXDATA)
  C:\KEIL_V5\C51\LIB\C51L.LIB (?C?LLDCODE)
  C:\KEIL_V5\C51\LIB\C51L.LIB (?C?LLDXDATA0)
  C:\KEIL_V5\C51\LIB\C51L.LIB (?C?LLDCODE0)
  C:\KEIL_V5\C51\LIB\C51L.LIB (?C?LLDPTR0)
  C:\KEIL_V5\C51\LIB\C51L.LIB (?C?LSTXDATA)
  C:\KEIL_V5\C51\LIB\C51L.LIB (?C?LSTKXDATA)
  C:\KEIL_V5\C51\LIB\C51L.LIB (?C?OFFXADD)
  C:\KEIL_V5\C51\LIB\C51L.LIB (ABS)
BL51 BANKED LINKER/LOCATER V6.22                                                      08/23/2018  17:19:26  PAGE 2


  C:\KEIL_V5\C51\LIB\C51L.LIB (ATOI)
  C:\KEIL_V5\C51\LIB\C51L.LIB (?C?IILDX)
  C:\KEIL_V5\C51\LIB\C51L.LIB (?C?ULDIV)
  C:\KEIL_V5\C51\LIB\C51L.LIB (?C?LLDIDATA)
  C:\KEIL_V5\C51\LIB\C51L.LIB (?C?LLDPDATA)
  C:\KEIL_V5\C51\LIB\C51L.LIB (?C?LLDIDATA0)
  C:\KEIL_V5\C51\LIB\C51L.LIB (?C?LLDPDATA0)
  C:\KEIL_V5\C51\LIB\C51L.LIB (?C?LSTIDATA)
  C:\KEIL_V5\C51\LIB\C51L.LIB (?C?LSTPDATA)
  C:\KEIL_V5\C51\LIB\C51L.LIB (ISDIGIT)
  C:\KEIL_V5\C51\LIB\C51L.LIB (ISSPACE)


LINK MAP OF MODULE:  .\Obj\GPIO_RTC_Test (MAIN)


            TYPE    BASE      LENGTH    RELOCATION   SEGMENT NAME
            -----------------------------------------------------

            * * * * * * *   D A T A   M E M O R Y   * * * * * * *
            REG     0000H     0008H     ABSOLUTE     "REG BANK 0"
            REG     0008H     0008H     ABSOLUTE     "REG BANK 1"
                    0010H     0010H                  *** GAP ***
            BIT     0020H.0   0000H.4   UNIT         ?BI?KEYPAD
            BIT     0020H.4   0000H.3   UNIT         _BIT_GROUP_
            BIT     0020H.7   0000H.1   UNIT         ?BI?MAIN
            IDATA   0021H     0001H     UNIT         ?STACK

            * * * * * * *  X D A T A   M E M O R Y  * * * * * * *
            XDATA   0000H     03C8H     UNIT         ?XD?BIPOLARMOTOR
            XDATA   03C8H     0128H     UNIT         _XDATA_GROUP_
            XDATA   04F0H     0040H     UNIT         ?XD?_FINDDET4X4?BIPOLARMOTOR
            XDATA   0530H     0024H     UNIT         ?XD?_FINDDET3X3?BIPOLARMOTOR
            XDATA   0554H     001CH     UNIT         ?XD?MAIN
            XDATA   0570H     0009H     UNIT         ?XD?KEYPAD
            XDATA   0579H     0008H     UNIT         ?XD?_READ_VCNL4035?VCNL4035
            XDATA   0581H     0004H     UNIT         ?XD?_DISPLAY_PROX?MAIN
            XDATA   0585H     0003H     UNIT         ?XD?_SENDSTRING?UART1
            XDATA   0588H     0001H     UNIT         ?XD?UC_ACK?VCNL4035
            XDATA   0589H     0001H     UNIT         ?XD?UC_NACK?VCNL4035
            XDATA   058AH     0001H     UNIT         ?XD?_DISPLAYLCD_VCNL4035?VCNL4035

            * * * * * * *   C O D E   M E M O R Y   * * * * * * *
            CODE    0000H     0003H     ABSOLUTE     
            CODE    0003H     0006H     UNIT         ?PR?_TEN?UART1
            CODE    0009H     0001H     UNIT         ?PR?TM0_ISR?MAIN
            CODE    000AH     0001H     UNIT         ?PR?_DECTOBCD?UART1
            CODE    000BH     0003H     ABSOLUTE     
            CODE    000EH     0015H     UNIT         ?PR?_DISPLAY_LINE?LCD_DRIVER_SPLC780D
            CODE    0023H     0003H     ABSOLUTE     
            CODE    0026H     08C2H     UNIT         ?C?LIB_CODE
            CODE    08E8H     07A2H     UNIT         ?PR?SUNPOS?SUNPOS
            CODE    108AH     0549H     UNIT         ?PR?_UPDATE_POSITION?BIPOLARMOTOR
            CODE    15D3H     0414H     UNIT         ?C_INITSEG
            CODE    19E7H     02C0H     UNIT         ?PR?_FINDDET4X4?BIPOLARMOTOR
            CODE    1CA7H     02A0H     UNIT         ?PR?KEY_PROCESS?KEYPAD
            CODE    1F47H     0286H     UNIT         ?PR?MAIN?MAIN
BL51 BANKED LINKER/LOCATER V6.22                                                      08/23/2018  17:19:26  PAGE 3


            CODE    21CDH     01D1H     UNIT         ?PR?_FINDDET3X3?BIPOLARMOTOR
            CODE    239EH     01B5H     UNIT         ?PR?_DISPLAY_POS?MAIN
            CODE    2553H     018DH     UNIT         ?PR?KEY_SCAN?KEYPAD
            CODE    26E0H     0188H     UNIT         ?PR?SIN?SIN
            CODE    2868H     0122H     UNIT         ?PR?ATAN?ATAN
            CODE    298AH     00DBH     UNIT         ?PR?_ATOI?ATOI
            CODE    2A65H     00B1H     UNIT         ?PR?LINEAR_INTERPOLATE?BIPOLARMOTOR
            CODE    2B16H     00ACH     UNIT         ?PR?SQRT?SQRT
            CODE    2BC2H     009DH     UNIT         ?PR?_ATAN2?ATAN2
            CODE    2C5FH     009BH     UNIT         ?PR?UART?MAIN
            CODE    2CFAH     009AH     UNIT         ?PR?_READ_VCNL4035?VCNL4035
            CODE    2D94H     0095H     UNIT         ?PR?_DISPLAY_PROX?MAIN
            CODE    2E29H     008CH     UNIT         ?C_C51STARTUP
            CODE    2EB5H     0084H     UNIT         ?PR?_DAY_OF_YEAR?PCF85063BTL
            CODE    2F39H     0075H     UNIT         ?PR?_WRITEDATA?LCD_DRIVER_SPLC780D
            CODE    2FAEH     006FH     UNIT         ?PR?_READ_TIME?PCF85063BTL
            CODE    301DH     0059H     UNIT         ?PR?LCD_INIT?LCD_DRIVER_SPLC780D
            CODE    3076H     0059H     UNIT         ?PR?_STEP_MOVE?BIPOLARMOTOR
            CODE    30CFH     004AH     UNIT         ?PR?ACOS?ACOS
            CODE    3119H     0049H     UNIT         ?PR?_WRITE_VCNL4035X?VCNL4035
            CODE    3162H     0044H     UNIT         ?C?LDIV
            CODE    31A6H     0040H     UNIT         ?PR?_COMMAND?LCD_DRIVER_SPLC780D
            CODE    31E6H     003BH     UNIT         ?PR?ASIN?ASIN
            CODE    3221H     0034H     UNIT         ?PR?_MOVE?BIPOLARMOTOR
            CODE    3255H     0033H     UNIT         ?PR?_SENDSTRING?UART1
            CODE    3288H     002CH     UNIT         ?PR?I2C_RECEIVEBYTE?VCNL4035
            CODE    32B4H     002BH     UNIT         ?PR?_WAIT_MS_I2C?VCNL4035
            CODE    32DFH     0024H     UNIT         ?PR?_WAIT_MS?LCD_DRIVER_SPLC780D
            CODE    3303H     0022H     UNIT         ?PR?_I2C_SENDBYTE?VCNL4035
            CODE    3325H     0020H     UNIT         ?PR?_SPI_SENDBYTE?PCF85063BTL
            CODE    3345H     0020H     UNIT         ?PR?SPI_RECEIVEBYTE?PCF85063BTL
            CODE    3365H     001EH     UNIT         ?PR?_DELAY_MS?KEYPAD
            CODE    3383H     001EH     UNIT         ?PR?_WAIT_MS_IIC?VCNL4035
            CODE    33A1H     001DH     UNIT         ?PR?_DISPLAYLCD?LCD_DRIVER_SPLC780D
            CODE    33BEH     001BH     UNIT         ?PR?I2C_ACK?VCNL4035
            CODE    33D9H     001BH     UNIT         ?PR?_BCDTODEC1?BIPOLARMOTOR
            CODE    33F4H     0018H     UNIT         ?PR?_SPI_WRITETIME?PCF85063BTL
            CODE    340CH     0017H     UNIT         ?PR?_ASCIITOBCD?UART1
            CODE    3423H     0017H     UNIT         ?PR?I2C_INIT?VCNL4035
            CODE    343AH     0015H     UNIT         ?PR?I2C_STOP?VCNL4035
            CODE    344FH     0014H     UNIT         ?PR?_PCF85063BTL_DELAY?PCF85063BTL
            CODE    3463H     0014H     UNIT         ?PR?_ISSPACE?ISSPACE
            CODE    3477H     0013H     UNIT         ?PR?I2C_START?VCNL4035
            CODE    348AH     0011H     UNIT         ?PR?_SPI_READTIME?PCF85063BTL
            CODE    349BH     0011H     UNIT         ?PR?_BCDTODEC?PCF85063BTL
            CODE    34ACH     0011H     UNIT         ?PR?INITUART1?UART1
            CODE    34BDH     000FH     UNIT         ?PR?UC_NACK?VCNL4035
            CODE    34CCH     000FH     UNIT         ?PR?_ISDIGIT?ISDIGIT
            CODE    34DBH     000DH     UNIT         ?PR?SPI_INIT?PCF85063BTL
            CODE    34E8H     000CH     UNIT         ?PR?KEYPAD_IO_INIT?KEYPAD
            CODE    34F4H     000CH     UNIT         ?PR?_ABS?ABS
            CODE    3500H     000AH     UNIT         ?PR?LCD_RETURN_HOME?LCD_DRIVER_SPLC780D
            CODE    350AH     000AH     UNIT         ?PR?LCD_CLEAR?LCD_DRIVER_SPLC780D
            CODE    3514H     0009H     UNIT         ?PR?_SENDUART1?MAIN
            CODE    351DH     0006H     UNIT         ?PR?UC_ACK?VCNL4035
            CODE    3523H     0006H     UNIT         ?PR?_DISPLAYLCD_VCNL4035?VCNL4035
            CODE    3529H     0005H     UNIT         ?PR?_UNIT?UART1
BL51 BANKED LINKER/LOCATER V6.22                                                      08/23/2018  17:19:26  PAGE 4


            CODE    352EH     0005H     UNIT         ?PR?_ASCII_LETTER?UART1
            CODE    3533H     0001H     UNIT         ?PR?NOP?VCNL4035



OVERLAY MAP OF MODULE:   .\Obj\GPIO_RTC_Test (MAIN)


SEGMENT                                            BIT_GROUP          XDATA_GROUP
  +--> CALLED SEGMENT                           START    LENGTH     START    LENGTH
-----------------------------------------------------------------------------------
?PR?UART?MAIN                                   -----    -----      -----    -----
  +--> ?PR?_ASCIITOBCD?UART1

?PR?_ASCIITOBCD?UART1                           -----    -----      -----    -----
  +--> ?PR?_ATOI?ATOI

?PR?_ATOI?ATOI                                  0020H.4  0000H.1    03C8H    0005H
  +--> ?PR?_ISSPACE?ISSPACE
  +--> ?PR?_ISDIGIT?ISDIGIT

*** NEW ROOT ***************************************************

?C_C51STARTUP                                   -----    -----      -----    -----
  +--> ?PR?MAIN?MAIN
  +--> ?C_INITSEG

?PR?MAIN?MAIN                                   -----    -----      03CDH    0017H
  +--> ?PR?LCD_INIT?LCD_DRIVER_SPLC780D
  +--> ?PR?SPI_INIT?PCF85063BTL
  +--> ?PR?KEYPAD_IO_INIT?KEYPAD
  +--> ?PR?I2C_INIT?VCNL4035
  +--> ?PR?_DELAY_MS?KEYPAD
  +--> ?PR?_DISPLAY_LINE?LCD_DRIVER_SPLC780D
  +--> ?PR?_WRITEDATA?LCD_DRIVER_SPLC780D
  +--> ?PR?KEY_PROCESS?KEYPAD
  +--> ?PR?_COMMAND?LCD_DRIVER_SPLC780D
  +--> ?PR?_DISPLAY_POS?MAIN
  +--> ?PR?_DISPLAYLCD?LCD_DRIVER_SPLC780D
  +--> ?PR?_STEP_MOVE?BIPOLARMOTOR
  +--> ?PR?LCD_RETURN_HOME?LCD_DRIVER_SPLC780D
  +--> ?PR?_READ_TIME?PCF85063BTL
  +--> ?PR?_UPDATE_POSITION?BIPOLARMOTOR

?PR?LCD_INIT?LCD_DRIVER_SPLC780D                -----    -----      -----    -----
  +--> ?PR?_WAIT_MS?LCD_DRIVER_SPLC780D
  +--> ?PR?_COMMAND?LCD_DRIVER_SPLC780D

?PR?_COMMAND?LCD_DRIVER_SPLC780D                -----    -----      -----    -----
  +--> ?PR?_WAIT_MS?LCD_DRIVER_SPLC780D

?PR?I2C_INIT?VCNL4035                           -----    -----      -----    -----
  +--> ?PR?_WRITE_VCNL4035X?VCNL4035

?PR?_WRITE_VCNL4035X?VCNL4035                   -----    -----      03E4H    0003H
  +--> ?PR?I2C_START?VCNL4035
  +--> ?PR?_WAIT_MS_I2C?VCNL4035
BL51 BANKED LINKER/LOCATER V6.22                                                      08/23/2018  17:19:26  PAGE 5


  +--> ?PR?I2C_ACK?VCNL4035
  +--> ?PR?_I2C_SENDBYTE?VCNL4035
  +--> ?PR?I2C_STOP?VCNL4035

?PR?I2C_START?VCNL4035                          -----    -----      -----    -----
  +--> ?PR?_WAIT_MS_IIC?VCNL4035
  +--> ?PR?_WAIT_MS_I2C?VCNL4035

?PR?I2C_ACK?VCNL4035                            -----    -----      03E7H    0001H
  +--> ?PR?_I2C_SENDBYTE?VCNL4035
  +--> ?PR?_WAIT_MS_I2C?VCNL4035

?PR?_I2C_SENDBYTE?VCNL4035                      -----    -----      -----    -----
  +--> ?PR?_WAIT_MS_I2C?VCNL4035

?PR?I2C_STOP?VCNL4035                           -----    -----      -----    -----
  +--> ?PR?_WAIT_MS_I2C?VCNL4035

?PR?_DISPLAY_LINE?LCD_DRIVER_SPLC780D           -----    -----      -----    -----
  +--> ?PR?_COMMAND?LCD_DRIVER_SPLC780D

?PR?_WRITEDATA?LCD_DRIVER_SPLC780D              -----    -----      03EEH    0001H
  +--> ?PR?_WAIT_MS?LCD_DRIVER_SPLC780D

?PR?KEY_PROCESS?KEYPAD                          -----    -----      03E4H    0006H
  +--> ?PR?KEY_SCAN?KEYPAD
  +--> ?PR?_SPI_WRITETIME?PCF85063BTL
  +--> ?PR?LCD_CLEAR?LCD_DRIVER_SPLC780D
  +--> ?PR?_COMMAND?LCD_DRIVER_SPLC780D
  +--> ?PR?_WRITEDATA?LCD_DRIVER_SPLC780D

?PR?KEY_SCAN?KEYPAD                             -----    -----      03EAH    0003H

?PR?_SPI_WRITETIME?PCF85063BTL                  -----    -----      -----    -----
  +--> ?PR?_SPI_SENDBYTE?PCF85063BTL

?PR?_SPI_SENDBYTE?PCF85063BTL                   -----    -----      -----    -----
  +--> ?PR?_PCF85063BTL_DELAY?PCF85063BTL

?PR?LCD_CLEAR?LCD_DRIVER_SPLC780D               -----    -----      -----    -----
  +--> ?PR?_COMMAND?LCD_DRIVER_SPLC780D

?PR?_DISPLAY_POS?MAIN                           -----    -----      03E4H    000AH
  +--> ?PR?_ABS?ABS
  +--> ?PR?_WRITEDATA?LCD_DRIVER_SPLC780D

?PR?_DISPLAYLCD?LCD_DRIVER_SPLC780D             -----    -----      03E4H    0001H
  +--> ?PR?_WRITEDATA?LCD_DRIVER_SPLC780D

?PR?_STEP_MOVE?BIPOLARMOTOR                     0020H.6  0000H.1    048BH    0004H
  +--> ?PR?_WAIT_MS?LCD_DRIVER_SPLC780D

?PR?LCD_RETURN_HOME?LCD_DRIVER_SPLC780D         -----    -----      -----    -----
  +--> ?PR?_COMMAND?LCD_DRIVER_SPLC780D

?PR?_READ_TIME?PCF85063BTL                      -----    -----      03E4H    000FH
  +--> ?PR?_SPI_READTIME?PCF85063BTL
BL51 BANKED LINKER/LOCATER V6.22                                                      08/23/2018  17:19:26  PAGE 6



?PR?_SPI_READTIME?PCF85063BTL                   -----    -----      -----    -----
  +--> ?PR?_SPI_SENDBYTE?PCF85063BTL
  +--> ?PR?SPI_RECEIVEBYTE?PCF85063BTL

?PR?SPI_RECEIVEBYTE?PCF85063BTL                 -----    -----      -----    -----
  +--> ?PR?_PCF85063BTL_DELAY?PCF85063BTL

?PR?_UPDATE_POSITION?BIPOLARMOTOR               -----    -----      03E4H    00A3H
  +--> ?PR?_BCDTODEC1?BIPOLARMOTOR
  +--> ?PR?_DAY_OF_YEAR?PCF85063BTL
  +--> ?PR?SUNPOS?SUNPOS
  +--> ?PR?LINEAR_INTERPOLATE?BIPOLARMOTOR
  +--> ?PR?_MOVE?BIPOLARMOTOR

?PR?_DAY_OF_YEAR?PCF85063BTL                    -----    -----      -----    -----
  +--> ?PR?_BCDTODEC?PCF85063BTL

?PR?SUNPOS?SUNPOS                               -----    -----      0487H    005DH
  +--> ?PR?SIN?SIN
  +--> ?PR?_ATAN2?ATAN2
  +--> ?PR?ASIN?ASIN
  +--> ?PR?ACOS?ACOS

?PR?SIN?SIN                                     0020H.5  0000H.1    04E4H    0004H

?PR?_ATAN2?ATAN2                                -----    -----      04E4H    0008H
  +--> ?PR?ATAN?ATAN

?PR?ATAN?ATAN                                   0020H.5  0000H.2    04ECH    0004H

?PR?ASIN?ASIN                                   -----    -----      -----    -----
  +--> ?PR?SQRT?SQRT
  +--> ?PR?ATAN?ATAN

?PR?SQRT?SQRT                                   -----    -----      04E4H    0004H

?PR?ACOS?ACOS                                   -----    -----      -----    -----
  +--> ?PR?SQRT?SQRT
  +--> ?PR?ATAN?ATAN

?PR?LINEAR_INTERPOLATE?BIPOLARMOTOR             -----    -----      0487H    0014H

?PR?_MOVE?BIPOLARMOTOR                          0020H.5  0000H.1    0487H    0004H
  +--> ?PR?_STEP_MOVE?BIPOLARMOTOR



UNRESOLVED EXTERNAL SYMBOLS:
   AUTO_MODE



SYMBOL TABLE OF MODULE:  .\Obj\GPIO_RTC_Test (MAIN)

  VALUE           TYPE          NAME
  ----------------------------------
BL51 BANKED LINKER/LOCATER V6.22                                                      08/23/2018  17:19:26  PAGE 7



  -------         MODULE        MAIN
  C:0000H         SYMBOL        _ICE_DUMMY_
  D:0080H         PUBLIC        P0
  D:0090H         PUBLIC        P1
  D:00A0H         PUBLIC        P2
  D:00B0H         PUBLIC        P3
  D:00C0H         PUBLIC        P4
  D:00C8H         PUBLIC        P5
  X:055CH         SYMBOL        PressedKey
  B:00A8H.7       PUBLIC        EA
  D:00E8H         PUBLIC        P6
  D:00F8H         PUBLIC        P7
  X:0560H         PUBLIC        RX_Data_Uart_Cnt
  D:00A8H         PUBLIC        IE
  D:00B8H         PUBLIC        IP
  B:0098H.0       PUBLIC        RI
  B:0098H.1       PUBLIC        TI
  C:2C5FH         PUBLIC        Uart
  D:00D8H         PUBLIC        CCON
  C:1F47H         PUBLIC        main
  D:0099H         PUBLIC        SBUF
  D:0098H         PUBLIC        SCON
  D:0089H         PUBLIC        TMOD
  D:0088H         PUBLIC        TCON
  B:00B0H.3       PUBLIC        P33
  X:0562H         SYMBOL        KeyCount
  X:0564H         PUBLIC        Rec_data_hour
  X:0567H         PUBLIC        Rec_data_min
  D:008EH         PUBLIC        AUXR
  C:0009H         PUBLIC        tm0_isr
  B:0020H.7       PUBLIC        busy
  D:00E0H         PUBLIC        ACC
  B:00A8H.1       PUBLIC        ET0
  D:008CH         PUBLIC        TH0
  X:056AH         PUBLIC        hour_count
  D:008AH         PUBLIC        TL0
  X:056BH         PUBLIC        min_count
  B:0088H.4       PUBLIC        TR0
  X:056CH         SYMBOL        KeyNum
  X:056DH         SYMBOL        KeyNum_Old
  C:2D94H         PUBLIC        _Display_Prox
  C:239EH         PUBLIC        _Display_Pos
  X:056EH         PUBLIC        st_time
  D:00D0H         PUBLIC        PSW
  C:3514H         PUBLIC        _SendUART1
  -------         PROC          TM0_ISR
  C:0009H         LINE#         53
  C:0009H         LINE#         56
  -------         ENDPROC       TM0_ISR
  -------         PROC          MAIN
  -------         DO            
  X:03CDH         SYMBOL        seconds
  X:03CEH         SYMBOL        mins
  X:03CFH         SYMBOL        hours
  X:03D0H         SYMBOL        days
  X:03D1H         SYMBOL        months
BL51 BANKED LINKER/LOCATER V6.22                                                      08/23/2018  17:19:26  PAGE 8


  X:03D2H         SYMBOL        mins1
  X:03D3H         SYMBOL        hours1
  X:03D4H         SYMBOL        mins2
  X:03D5H         SYMBOL        hours2
  X:03D6H         SYMBOL        prox_data
  X:0554H         SYMBOL        KeyCount
  X:0556H         SYMBOL        KeyNum_Old
  X:0557H         SYMBOL        KeyNum
  X:0558H         SYMBOL        PressedKey
  X:03D8H         SYMBOL        prox_flag
  X:03D9H         SYMBOL        count
  X:03DBH         SYMBOL        numStr
  X:03E0H         SYMBOL        current_position
  -------         ENDDO         
  C:1F47H         LINE#         58
  C:1F47H         LINE#         59
  C:1F47H         LINE#         64
  C:1F4DH         LINE#         66
  C:1F52H         LINE#         68
  C:1F5CH         LINE#         69
  C:1F5EH         LINE#         70
  C:1F60H         LINE#         71
  C:1F62H         LINE#         72
  C:1F69H         LINE#         81
  C:1F6CH         LINE#         82
  C:1F6FH         LINE#         83
  C:1F72H         LINE#         85
  C:1F75H         LINE#         87
  C:1F78H         LINE#         88
  C:1F7BH         LINE#         89
  C:1F7EH         LINE#         90
  C:1F80H         LINE#         91
  C:1F82H         LINE#         92
  C:1F84H         LINE#         94
  C:1F86H         LINE#         96
  C:1F8DH         LINE#         98
  C:1F94H         LINE#         102
  C:1F9BH         LINE#         103
  C:1FA0H         LINE#         104
  C:1FA5H         LINE#         105
  C:1FAAH         LINE#         106
  C:1FAFH         LINE#         107
  C:1FB4H         LINE#         110
  C:1FB4H         LINE#         111
  C:1FB4H         LINE#         112
  C:1FB7H         LINE#         115
  C:1FB7H         LINE#         118
  C:1FBCH         LINE#         119
  C:1FC1H         LINE#         121
  C:1FC6H         LINE#         122
  C:1FCBH         LINE#         123
  C:1FD0H         LINE#         124
  C:1FD5H         LINE#         126
  C:1FE6H         LINE#         128
  C:1FEDH         LINE#         129
  C:1FF5H         LINE#         130
  C:1FFAH         LINE#         131
BL51 BANKED LINKER/LOCATER V6.22                                                      08/23/2018  17:19:26  PAGE 9


  C:2002H         LINE#         132
  C:2007H         LINE#         133
  C:2011H         LINE#         134
  C:2016H         LINE#         135
  C:201EH         LINE#         137
  C:2026H         LINE#         138
  C:202BH         LINE#         139
  C:2035H         LINE#         140
  C:2035H         LINE#         141
  C:2037H         LINE#         142
  C:2039H         LINE#         143
  C:2043H         LINE#         144
  C:2043H         LINE#         145
  C:2048H         LINE#         146
  C:2048H         LINE#         158
  C:2055H         LINE#         159
  C:2055H         LINE#         160
  C:205FH         LINE#         161
  C:2076H         LINE#         162
  C:2076H         LINE#         163
  C:2078H         LINE#         164
  C:207AH         LINE#         166
  C:207AH         LINE#         167
  C:2085H         LINE#         168
  C:2085H         LINE#         169
  C:208AH         LINE#         170
  C:208AH         LINE#         171
  C:2097H         LINE#         172
  C:2097H         LINE#         175
  C:20A1H         LINE#         176
  C:20B8H         LINE#         177
  C:20B8H         LINE#         178
  C:20BAH         LINE#         179
  C:20BCH         LINE#         181
  C:20BCH         LINE#         182
  C:20C7H         LINE#         183
  C:20C7H         LINE#         184
  C:20CCH         LINE#         185
  C:20CEH         LINE#         186
  C:20CEH         LINE#         195
  C:20F0H         LINE#         196
  C:20F0H         LINE#         197
  C:20FAH         LINE#         198
  C:2100H         LINE#         199
  C:2102H         LINE#         200
  C:2104H         LINE#         201
  C:2106H         LINE#         202
  C:2106H         LINE#         203
  C:2109H         LINE#         205
  C:2109H         LINE#         206
  C:2111H         LINE#         207
  C:2119H         LINE#         208
  C:2121H         LINE#         209
  C:2129H         LINE#         210
  C:2164H         LINE#         214
  C:2171H         LINE#         215
  C:2171H         LINE#         216
BL51 BANKED LINKER/LOCATER V6.22                                                      08/23/2018  17:19:26  PAGE 10


  C:21A4H         LINE#         217
  C:21CAH         LINE#         219
  C:21CAH         LINE#         236
  -------         ENDPROC       MAIN
  -------         PROC          UART
  C:2C5FH         LINE#         243
  C:2C6CH         LINE#         245
  C:2C6FH         LINE#         246
  C:2C6FH         LINE#         247
  C:2C7DH         LINE#         248
  C:2C7FH         LINE#         249
  C:2C91H         LINE#         250
  C:2CA0H         LINE#         251
  C:2CABH         LINE#         252
  C:2CABH         LINE#         255
  C:2CB8H         LINE#         256
  C:2CBEH         LINE#         257
  C:2CBEH         LINE#         258
  C:2CC4H         LINE#         259
  C:2CD2H         LINE#         260
  C:2CE0H         LINE#         261
  C:2CE8H         LINE#         266
  C:2CE8H         LINE#         267
  C:2CE8H         LINE#         270
  C:2CE8H         LINE#         271
  C:2CEBH         LINE#         272
  C:2CEBH         LINE#         273
  C:2CEDH         LINE#         274
  C:2CEFH         LINE#         275
  C:2CEFH         LINE#         276
  -------         ENDPROC       UART
  -------         PROC          _SENDUART1
  D:0007H         SYMBOL        dat
  C:3514H         LINE#         279
  C:3514H         LINE#         280
  C:3514H         LINE#         281
  C:3517H         LINE#         282
  C:3519H         LINE#         283
  C:351AH         LINE#         284
  C:351CH         LINE#         285
  -------         ENDPROC       _SENDUART1
  -------         PROC          _DISPLAY_PROX
  D:0002H         SYMBOL        dat
  -------         DO            
  X:0581H         SYMBOL        unit
  X:0582H         SYMBOL        ten
  X:0583H         SYMBOL        hundred
  X:0584H         SYMBOL        thousand
  -------         ENDDO         
  C:2D94H         LINE#         288
  C:2D98H         LINE#         289
  C:2D98H         LINE#         291
  C:2DA4H         LINE#         292
  C:2DB4H         LINE#         293
  C:2DD0H         LINE#         294
  C:2E00H         LINE#         295
  C:2E0AH         LINE#         296
BL51 BANKED LINKER/LOCATER V6.22                                                      08/23/2018  17:19:26  PAGE 11


  C:2E14H         LINE#         297
  C:2E1EH         LINE#         298
  C:2E28H         LINE#         300
  -------         ENDPROC       _DISPLAY_PROX
  -------         PROC          _DISPLAY_POS
  X:03E4H         SYMBOL        sign_dat
  -------         DO            
  X:03E8H         SYMBOL        unit
  X:03E9H         SYMBOL        ten
  X:03EAH         SYMBOL        hundred
  D:0003H         SYMBOL        thousand
  X:03EBH         SYMBOL        after_dot
  X:03ECH         SYMBOL        dat
  -------         ENDDO         
  C:239EH         LINE#         303
  C:23A4H         LINE#         304
  C:23A4H         LINE#         308
  C:23C0H         LINE#         309
  C:23DAH         LINE#         310
  C:23FEH         LINE#         312
  C:2448H         LINE#         314
  C:245FH         LINE#         315
  C:246CH         LINE#         316
  C:248EH         LINE#         317
  C:24C3H         LINE#         318
  C:24DBH         LINE#         319
  C:24DBH         LINE#         321
  C:24E5H         LINE#         322
  C:24EFH         LINE#         323
  C:24F9H         LINE#         324
  C:24FEH         LINE#         325
  C:2508H         LINE#         326
  C:250DH         LINE#         327
  C:2512H         LINE#         328
  C:2514H         LINE#         329
  C:2516H         LINE#         331
  C:2516H         LINE#         333
  C:251BH         LINE#         334
  C:2525H         LINE#         335
  C:252FH         LINE#         336
  C:2539H         LINE#         337
  C:253EH         LINE#         338
  C:2548H         LINE#         339
  C:254DH         LINE#         340
  C:2552H         LINE#         342
  C:2552H         LINE#         344
  -------         ENDPROC       _DISPLAY_POS
  -------         ENDMOD        MAIN

  -------         MODULE        PCF85063BTL
  C:0000H         SYMBOL        _ICE_DUMMY_
  D:0096H         PUBLIC        P2M0
  D:0080H         PUBLIC        P0
  D:0095H         PUBLIC        P2M1
  D:0090H         PUBLIC        P1
  D:00A0H         PUBLIC        P2
  D:00B0H         PUBLIC        P3
BL51 BANKED LINKER/LOCATER V6.22                                                      08/23/2018  17:19:26  PAGE 12


  D:00C0H         PUBLIC        P4
  D:00C8H         PUBLIC        P5
  D:00E8H         PUBLIC        P6
  B:00A0H.2       PUBLIC        PCF85063BTL_SDI
  D:00F8H         PUBLIC        P7
  B:00A0H.1       PUBLIC        PCF85063BTL_SCK
  B:00A0H.2       PUBLIC        PCF85063BTL_SDO
  D:00A8H         PUBLIC        IE
  C:2FAEH         PUBLIC        _Read_time
  C:3455H         PUBLIC        _PCF85063BTL_Delay
  D:00B8H         PUBLIC        IP
  D:00D8H         PUBLIC        CCON
  C:2EB5H         PUBLIC        _Day_Of_Year
  C:3345H         PUBLIC        SPI_ReceiveByte
  D:0098H         PUBLIC        SCON
  D:0088H         PUBLIC        TCON
  C:349BH         PUBLIC        _BCDtoDec
  B:00A0H.0       PUBLIC        PCF85063BTL_CS
  C:348AH         PUBLIC        _SPI_ReadTime
  C:34DBH         PUBLIC        SPI_Init
  C:33F4H         PUBLIC        _SPI_WriteTime
  C:3325H         PUBLIC        _SPI_SendByte
  D:00D0H         PUBLIC        PSW
  C:3451H         SYMBOL        L?0047
  -------         PROC          L?0046
  -------         ENDPROC       L?0046
  C:3451H         SYMBOL        L?0047
  -------         PROC          _PCF85063BTL_DELAY
  D:0006H         SYMBOL        us
  C:3455H         LINE#         8
  C:3455H         LINE#         9
  C:3455H         LINE#         10
  C:345FH         LINE#         11
  C:345FH         LINE#         12
  C:3460H         LINE#         13
  C:3462H         LINE#         14
  -------         ENDPROC       _PCF85063BTL_DELAY
  -------         PROC          _SPI_SENDBYTE
  D:0005H         SYMBOL        dat
  -------         DO            
  D:0003H         SYMBOL        i
  -------         ENDDO         
  C:3325H         LINE#         17
  C:3327H         LINE#         18
  C:3327H         LINE#         20
  C:3329H         LINE#         21
  C:3329H         LINE#         22
  C:332BH         LINE#         23
  C:332FH         LINE#         24
  C:332FH         LINE#         25
  C:3331H         LINE#         26
  C:3333H         LINE#         28
  C:3333H         LINE#         29
  C:3335H         LINE#         30
  C:3335H         LINE#         31
  C:3338H         LINE#         32
  C:3338H         LINE#         33
BL51 BANKED LINKER/LOCATER V6.22                                                      08/23/2018  17:19:26  PAGE 13


  C:333BH         LINE#         34
  C:333FH         LINE#         35
  C:3344H         LINE#         36
  -------         ENDPROC       _SPI_SENDBYTE
  -------         PROC          SPI_RECEIVEBYTE
  -------         DO            
  D:0003H         SYMBOL        i
  D:0005H         SYMBOL        dat
  -------         ENDDO         
  C:3345H         LINE#         39
  C:3345H         LINE#         40
  C:3345H         LINE#         42
  C:3347H         LINE#         44
  C:3349H         LINE#         45
  C:334AH         LINE#         46
  C:334AH         LINE#         47
  C:334EH         LINE#         48
  C:3350H         LINE#         49
  C:3353H         LINE#         51
  C:3356H         LINE#         52
  C:3356H         LINE#         53
  C:335AH         LINE#         54
  C:335AH         LINE#         55
  C:335AH         LINE#         56
  C:335DH         LINE#         57
  C:3362H         LINE#         58
  C:3364H         LINE#         59
  -------         ENDPROC       SPI_RECEIVEBYTE
  -------         PROC          _SPI_READTIME
  D:0007H         SYMBOL        addr
  -------         DO            
  D:0006H         SYMBOL        dat
  -------         ENDDO         
  C:348AH         LINE#         61
  C:348AH         LINE#         62
  C:348AH         LINE#         64
  C:348CH         LINE#         65
  C:348EH         LINE#         66
  C:3495H         LINE#         67
  C:3498H         LINE#         68
  C:349AH         LINE#         69
  C:349AH         LINE#         70
  -------         ENDPROC       _SPI_READTIME
  -------         PROC          _SPI_WRITETIME
  D:0002H         SYMBOL        val
  D:0005H         SYMBOL        addr
  C:33F4H         LINE#         71
  C:33F6H         LINE#         72
  C:33F6H         LINE#         74
  C:33F8H         LINE#         75
  C:33FFH         LINE#         76
  C:3404H         LINE#         77
  C:3409H         LINE#         78
  C:340BH         LINE#         79
  -------         ENDPROC       _SPI_WRITETIME
  -------         PROC          SPI_INIT
  C:34DBH         LINE#         83
BL51 BANKED LINKER/LOCATER V6.22                                                      08/23/2018  17:19:26  PAGE 14


  C:34DBH         LINE#         84
  C:34DBH         LINE#         89
  C:34DEH         LINE#         90
  C:34E1H         LINE#         91
  C:34E3H         LINE#         92
  C:34E5H         LINE#         93
  C:34E7H         LINE#         94
  -------         ENDPROC       SPI_INIT
  -------         PROC          _READ_TIME
  X:03E4H         SYMBOL        months
  X:03E7H         SYMBOL        days
  X:03EAH         SYMBOL        hours
  X:03EDH         SYMBOL        mins
  X:03F0H         SYMBOL        seconds
  C:2FAEH         LINE#         96
  C:2FB9H         LINE#         97
  C:2FB9H         LINE#         99
  C:2FCDH         LINE#         101
  C:2FE1H         LINE#         103
  C:2FF5H         LINE#         108
  C:3009H         LINE#         113
  -------         ENDPROC       _READ_TIME
  -------         PROC          _BCDTODEC
  D:0007H         SYMBOL        bcd
  -------         DO            
  D:0006H         SYMBOL        hi
  D:0007H         SYMBOL        lo
  -------         ENDDO         
  C:349BH         LINE#         119
  C:349BH         LINE#         120
  C:349BH         LINE#         122
  C:34A0H         LINE#         123
  C:34A4H         LINE#         124
  C:34ABH         LINE#         125
  -------         ENDPROC       _BCDTODEC
  -------         PROC          _DAY_OF_YEAR
  D:0007H         SYMBOL        months_bcd
  D:0005H         SYMBOL        days_bcd
  -------         DO            
  D:0004H         SYMBOL        months
  D:0007H         SYMBOL        days
  -------         ENDDO         
  C:2EB5H         LINE#         126
  C:2EB5H         LINE#         127
  C:2EB5H         LINE#         130
  C:2EBAH         LINE#         132
  C:2EBFH         LINE#         134
  C:2EF8H         LINE#         135
  C:2EF8H         LINE#         136
  C:2EF8H         LINE#         137
  C:2EFBH         LINE#         138
  C:2EFBH         LINE#         139
  C:2EFBH         LINE#         140
  C:2F00H         LINE#         141
  C:2F00H         LINE#         142
  C:2F00H         LINE#         143
  C:2F05H         LINE#         144
BL51 BANKED LINKER/LOCATER V6.22                                                      08/23/2018  17:19:26  PAGE 15


  C:2F05H         LINE#         145
  C:2F05H         LINE#         146
  C:2F0AH         LINE#         147
  C:2F0AH         LINE#         148
  C:2F0AH         LINE#         149
  C:2F0FH         LINE#         150
  C:2F0FH         LINE#         151
  C:2F0FH         LINE#         152
  C:2F14H         LINE#         153
  C:2F14H         LINE#         154
  C:2F14H         LINE#         155
  C:2F19H         LINE#         156
  C:2F19H         LINE#         157
  C:2F19H         LINE#         158
  C:2F1EH         LINE#         159
  C:2F1EH         LINE#         160
  C:2F1EH         LINE#         161
  C:2F26H         LINE#         162
  C:2F26H         LINE#         163
  C:2F26H         LINE#         164
  C:2F2BH         LINE#         165
  C:2F2BH         LINE#         166
  C:2F2BH         LINE#         167
  C:2F30H         LINE#         168
  C:2F30H         LINE#         169
  C:2F30H         LINE#         170
  C:2F38H         LINE#         171
  C:2F38H         LINE#         172
  C:2F38H         LINE#         173
  -------         ENDPROC       _DAY_OF_YEAR
  -------         ENDMOD        PCF85063BTL

  -------         MODULE        UART1
  C:0000H         SYMBOL        _ICE_DUMMY_
  D:0080H         PUBLIC        P0
  D:0090H         PUBLIC        P1
  D:00A0H         PUBLIC        P2
  D:00B0H         PUBLIC        P3
  D:00C0H         PUBLIC        P4
  D:00C8H         PUBLIC        P5
  B:00A8H.7       PUBLIC        EA
  D:00E8H         PUBLIC        P6
  D:00F8H         PUBLIC        P7
  C:3255H         PUBLIC        _SendString
  D:00A8H         PUBLIC        IE
  B:00A8H.4       PUBLIC        ES
  D:00B8H         PUBLIC        IP
  C:340CH         PUBLIC        _ASCIItoBCD
  D:00D8H         PUBLIC        CCON
  C:34ACH         PUBLIC        initUART1
  D:0098H         PUBLIC        SCON
  D:0088H         PUBLIC        TCON
  C:000AH         PUBLIC        _DectoBCD
  C:352EH         PUBLIC        _ASCII_Letter
  D:008EH         PUBLIC        AUXR
  C:3529H         PUBLIC        _unit
  C:0003H         PUBLIC        _ten
BL51 BANKED LINKER/LOCATER V6.22                                                      08/23/2018  17:19:26  PAGE 16


  D:00D6H         PUBLIC        T2H
  D:00D7H         PUBLIC        T2L
  D:00D0H         PUBLIC        PSW
  -------         PROC          INITUART1
  C:34ACH         LINE#         21
  C:34ACH         LINE#         22
  C:34ACH         LINE#         23
  C:34AFH         LINE#         24
  C:34B2H         LINE#         25
  C:34B5H         LINE#         26
  C:34B8H         LINE#         27
  C:34BAH         LINE#         28
  C:34BCH         LINE#         30
  -------         ENDPROC       INITUART1
  -------         PROC          _SENDSTRING
  X:0585H         SYMBOL        s
  C:3255H         LINE#         35
  C:3260H         LINE#         36
  C:3260H         LINE#         37
  C:3270H         LINE#         38
  C:3270H         LINE#         39
  C:3285H         LINE#         40
  C:3287H         LINE#         41
  -------         ENDPROC       _SENDSTRING
  -------         PROC          _TEN
  D:0007H         SYMBOL        BCD
  C:0003H         LINE#         43
  C:0003H         LINE#         44
  C:0003H         LINE#         45
  C:0008H         LINE#         46
  -------         ENDPROC       _TEN
  -------         PROC          _UNIT
  D:0007H         SYMBOL        BCD
  C:3529H         LINE#         47
  C:3529H         LINE#         48
  C:3529H         LINE#         52
  C:352DH         LINE#         53
  -------         ENDPROC       _UNIT
  -------         PROC          _DECTOBCD
  D:0007H         SYMBOL        dec
  C:000AH         LINE#         54
  C:000AH         LINE#         55
  C:000AH         LINE#         57
  C:000AH         LINE#         58
  -------         ENDPROC       _DECTOBCD
  -------         PROC          _ASCII_LETTER
  D:0007H         SYMBOL        dat
  C:352EH         LINE#         60
  C:352EH         LINE#         61
  C:352EH         LINE#         63
  C:3532H         LINE#         64
  -------         ENDPROC       _ASCII_LETTER
  -------         PROC          _ASCIITOBCD
  D:0001H         SYMBOL        ascii
  -------         DO            
  D:0007H         SYMBOL        dec_val
  D:0006H         SYMBOL        ten
BL51 BANKED LINKER/LOCATER V6.22                                                      08/23/2018  17:19:26  PAGE 17


  D:0007H         SYMBOL        unit
  -------         ENDDO         
  C:340CH         LINE#         66
  C:340CH         LINE#         67
  C:340CH         LINE#         69
  C:340FH         LINE#         70
  C:3415H         LINE#         71
  C:341CH         LINE#         72
  C:3422H         LINE#         74
  -------         ENDPROC       _ASCIITOBCD
  -------         ENDMOD        UART1

  -------         MODULE        LCD_DRIVER_SPLC780D
  C:0000H         SYMBOL        _ICE_DUMMY_
  D:0092H         PUBLIC        P1M0
  D:0091H         PUBLIC        P1M1
  D:0080H         PUBLIC        P0
  D:0090H         PUBLIC        P1
  D:00A0H         PUBLIC        P2
  D:00B0H         PUBLIC        P3
  D:00C0H         PUBLIC        P4
  D:00C8H         PUBLIC        P5
  D:00E8H         PUBLIC        P6
  D:00F8H         PUBLIC        P7
  C:2F39H         PUBLIC        _WriteData
  D:00A8H         PUBLIC        IE
  D:00B8H         PUBLIC        IP
  D:00D8H         PUBLIC        CCON
  B:0090H.4       PUBLIC        LCD_D4
  B:0090H.5       PUBLIC        LCD_D5
  B:0090H.6       PUBLIC        LCD_D6
  C:33A1H         PUBLIC        _DisplayLCD
  B:0090H.7       PUBLIC        LCD_D7
  D:0098H         PUBLIC        SCON
  D:0088H         PUBLIC        TCON
  C:350AH         PUBLIC        LCD_clear
  C:31A6H         PUBLIC        _Command
  C:000EH         PUBLIC        _Display_Line
  C:301DH         PUBLIC        LCD_Init
  C:32E5H         PUBLIC        _Wait_ms
  B:0090H.1       PUBLIC        LCD_RS
  B:0090H.2       PUBLIC        LCD_RW
  C:3500H         PUBLIC        LCD_return_home
  B:0090H.3       PUBLIC        LCD_E
  D:00D0H         PUBLIC        PSW
  -------         PROC          LCD_INIT
  C:301DH         LINE#         9
  C:301DH         LINE#         10
  C:301DH         LINE#         11
  C:3020H         LINE#         12
  C:3023H         LINE#         14
  C:3029H         LINE#         15
  C:302EH         LINE#         17
  C:3035H         LINE#         18
  C:303AH         LINE#         20
  C:303DH         LINE#         21
  C:3042H         LINE#         23
BL51 BANKED LINKER/LOCATER V6.22                                                      08/23/2018  17:19:26  PAGE 18


  C:3045H         LINE#         24
  C:304AH         LINE#         26
  C:3051H         LINE#         29
  C:3056H         LINE#         30
  C:305BH         LINE#         32
  C:3060H         LINE#         33
  C:3065H         LINE#         35
  C:306AH         LINE#         36
  C:306FH         LINE#         37
  -------         ENDPROC       LCD_INIT
  -------         PROC          _WRITEDATA
  X:03EEH         SYMBOL        dat
  C:2F39H         LINE#         40
  C:2F3EH         LINE#         41
  C:2F3EH         LINE#         46
  C:2F40H         LINE#         47
  C:2F42H         LINE#         49
  C:2F50H         LINE#         50
  C:2F5CH         LINE#         51
  C:2F68H         LINE#         52
  C:2F72H         LINE#         53
  C:2F74H         LINE#         54
  C:2F7BH         LINE#         55
  C:2F7DH         LINE#         57
  C:2F8DH         LINE#         58
  C:2F98H         LINE#         59
  C:2FA2H         LINE#         60
  C:2FA6H         LINE#         62
  C:2FA6H         LINE#         63
  C:2FA9H         LINE#         64
  C:2FABH         LINE#         65
  C:2FADH         LINE#         67
  -------         ENDPROC       _WRITEDATA
  -------         PROC          _COMMAND
  D:0007H         SYMBOL        dat
  C:31A6H         LINE#         69
  C:31A6H         LINE#         70
  C:31A6H         LINE#         71
  C:31A8H         LINE#         72
  C:31AAH         LINE#         74
  C:31B4H         LINE#         75
  C:31B8H         LINE#         77
  C:31BAH         LINE#         78
  C:31C3H         LINE#         79
  C:31C7H         LINE#         81
  C:31C9H         LINE#         82
  C:31D0H         LINE#         83
  C:31D4H         LINE#         85
  C:31D6H         LINE#         86
  C:31DAH         LINE#         87
  C:31DEH         LINE#         89
  C:31E0H         LINE#         90
  C:31E0H         LINE#         91
  C:31E3H         LINE#         92
  C:31E5H         LINE#         93
  -------         ENDPROC       _COMMAND
  C:32E1H         SYMBOL        L?0028
BL51 BANKED LINKER/LOCATER V6.22                                                      08/23/2018  17:19:26  PAGE 19


  -------         PROC          L?0027
  -------         ENDPROC       L?0027
  C:32E1H         SYMBOL        L?0028
  -------         PROC          _WAIT_MS
  D:0006H         SYMBOL        ms
  -------         DO            
  D:0004H         SYMBOL        De_Cnt
  -------         ENDDO         
  C:32E5H         LINE#         95
  C:32E5H         LINE#         96
  C:32E5H         LINE#         98
  C:32EFH         LINE#         99
  C:32EFH         LINE#         100
  C:3302H         LINE#         101
  C:3302H         LINE#         102
  -------         ENDPROC       _WAIT_MS
  -------         PROC          _DISPLAYLCD
  D:0007H         SYMBOL        BCD
  -------         DO            
  D:0006H         SYMBOL        first_digit
  X:03E4H         SYMBOL        second_digit
  -------         ENDDO         
  C:33A1H         LINE#         103
  C:33A1H         LINE#         104
  C:33A1H         LINE#         106
  C:33A8H         LINE#         107
  C:33B1H         LINE#         109
  C:33B6H         LINE#         111
  -------         ENDPROC       _DISPLAYLCD
  -------         PROC          LCD_RETURN_HOME
  C:3500H         LINE#         115
  C:3500H         LINE#         116
  C:3500H         LINE#         117
  C:3505H         LINE#         118
  -------         ENDPROC       LCD_RETURN_HOME
  -------         PROC          LCD_CLEAR
  C:350AH         LINE#         121
  C:350AH         LINE#         122
  C:350AH         LINE#         123
  C:350FH         LINE#         124
  -------         ENDPROC       LCD_CLEAR
  -------         PROC          _DISPLAY_LINE
  D:0006H         SYMBOL        line
  C:000EH         LINE#         128
  C:000EH         LINE#         129
  C:000EH         LINE#         130
  C:0014H         LINE#         131
  C:0014H         LINE#         132
  C:0016H         LINE#         133
  C:0016H         LINE#         134
  C:0018H         LINE#         136
  C:0018H         LINE#         137
  C:001DH         LINE#         138
  C:0022H         LINE#         139
  C:0022H         LINE#         140
  -------         ENDPROC       _DISPLAY_LINE
  -------         ENDMOD        LCD_DRIVER_SPLC780D
BL51 BANKED LINKER/LOCATER V6.22                                                      08/23/2018  17:19:26  PAGE 20



  -------         MODULE        KEYPAD
  C:0000H         SYMBOL        _ICE_DUMMY_
  D:0093H         PUBLIC        P0M1
  D:0080H         PUBLIC        P0
  D:0090H         PUBLIC        P1
  D:00A0H         PUBLIC        P2
  D:00B0H         PUBLIC        P3
  D:00C0H         PUBLIC        P4
  D:00C8H         PUBLIC        P5
  D:00E8H         PUBLIC        P6
  D:00F8H         PUBLIC        P7
  D:00A8H         PUBLIC        IE
  C:2553H         PUBLIC        Key_Scan
  D:00B8H         PUBLIC        IP
  D:00D8H         PUBLIC        CCON
  C:34E8H         PUBLIC        KeyPad_IO_Init
  C:3365H         PUBLIC        _Delay_ms
  D:0098H         PUBLIC        SCON
  D:0088H         PUBLIC        TCON
  B:0020H.0       PUBLIC        small_move
  B:0020H.1       PUBLIC        move
  B:0020H.2       PUBLIC        direction
  B:0020H.3       PUBLIC        auto_move
  C:1CA7H         PUBLIC        Key_Process
  D:00D0H         PUBLIC        PSW
  D:0094H         PUBLIC        P0M0
  -------         PROC          _DELAY_MS
  D:0006H         SYMBOL        ms
  -------         DO            
  D:0004H         SYMBOL        De_Cnt
  -------         ENDDO         
  C:3365H         LINE#         19
  C:3365H         LINE#         20
  C:3365H         LINE#         22
  C:336FH         LINE#         23
  C:336FH         LINE#         24
  C:3382H         LINE#         25
  C:3382H         LINE#         26
  -------         ENDPROC       _DELAY_MS
  -------         PROC          KEY_SCAN
  -------         DO            
  X:03EAH         SYMBOL        KeyTemp1
  X:03EBH         SYMBOL        KeyTemp2
  X:03ECH         SYMBOL        KeyValue
  -------         ENDDO         
  C:2553H         LINE#         27
  C:2553H         LINE#         28
  C:2553H         LINE#         33
  C:2556H         LINE#         36
  C:2559H         LINE#         38
  C:2561H         LINE#         39
  C:2568H         LINE#         40
  C:2568H         LINE#         42
  C:256DH         LINE#         43
  C:2574H         LINE#         44
  C:2574H         LINE#         47
BL51 BANKED LINKER/LOCATER V6.22                                                      08/23/2018  17:19:26  PAGE 21


  C:2577H         LINE#         48
  C:257AH         LINE#         49
  C:257FH         LINE#         50
  C:2583H         LINE#         51
  C:2583H         LINE#         52
  C:258BH         LINE#         53
  C:258BH         LINE#         54
  C:258EH         LINE#         55
  C:2596H         LINE#         56
  C:2598H         LINE#         58
  C:25ACH         LINE#         59
  C:25ACH         LINE#         60
  C:25ACH         LINE#         61
  C:25ACH         LINE#         62
  C:25B2H         LINE#         64
  C:25B4H         LINE#         65
  C:25B4H         LINE#         66
  C:25B4H         LINE#         67
  C:25BAH         LINE#         69
  C:25BCH         LINE#         70
  C:25BCH         LINE#         71
  C:25BCH         LINE#         72
  C:25C2H         LINE#         74
  C:25C4H         LINE#         75
  C:25C4H         LINE#         76
  C:25C4H         LINE#         77
  C:25CAH         LINE#         79
  C:25CAH         LINE#         80
  C:25CAH         LINE#         81
  C:25CAH         LINE#         84
  C:25CDH         LINE#         85
  C:25D0H         LINE#         86
  C:25D8H         LINE#         87
  C:25DCH         LINE#         88
  C:25DCH         LINE#         89
  C:25E4H         LINE#         90
  C:25E4H         LINE#         91
  C:25E7H         LINE#         92
  C:25EFH         LINE#         93
  C:25F1H         LINE#         94
  C:2605H         LINE#         95
  C:2605H         LINE#         96
  C:2605H         LINE#         97
  C:2605H         LINE#         98
  C:260BH         LINE#         100
  C:260DH         LINE#         101
  C:260DH         LINE#         102
  C:260DH         LINE#         103
  C:2613H         LINE#         105
  C:2615H         LINE#         106
  C:2615H         LINE#         107
  C:2615H         LINE#         108
  C:261BH         LINE#         110
  C:261DH         LINE#         111
  C:261DH         LINE#         112
  C:261DH         LINE#         113
  C:2622H         LINE#         115
BL51 BANKED LINKER/LOCATER V6.22                                                      08/23/2018  17:19:26  PAGE 22


  C:2622H         LINE#         116
  C:2622H         LINE#         117
  C:2622H         LINE#         120
  C:2625H         LINE#         121
  C:2628H         LINE#         122
  C:2630H         LINE#         123
  C:2634H         LINE#         124
  C:2634H         LINE#         125
  C:263CH         LINE#         126
  C:263CH         LINE#         127
  C:263FH         LINE#         128
  C:2647H         LINE#         129
  C:2649H         LINE#         130
  C:265DH         LINE#         131
  C:265DH         LINE#         132
  C:265DH         LINE#         133
  C:265DH         LINE#         134
  C:2663H         LINE#         136
  C:2665H         LINE#         137
  C:2665H         LINE#         138
  C:2665H         LINE#         139
  C:266BH         LINE#         141
  C:266DH         LINE#         142
  C:266DH         LINE#         143
  C:266DH         LINE#         144
  C:2673H         LINE#         146
  C:2675H         LINE#         147
  C:2675H         LINE#         148
  C:2675H         LINE#         149
  C:267BH         LINE#         151
  C:267BH         LINE#         152
  C:267BH         LINE#         153
  C:267BH         LINE#         157
  C:267EH         LINE#         158
  C:2681H         LINE#         159
  C:2689H         LINE#         160
  C:268DH         LINE#         161
  C:268DH         LINE#         162
  C:2695H         LINE#         163
  C:2695H         LINE#         164
  C:2698H         LINE#         165
  C:26A0H         LINE#         166
  C:26A2H         LINE#         167
  C:26B6H         LINE#         168
  C:26B6H         LINE#         169
  C:26B6H         LINE#         170
  C:26B6H         LINE#         171
  C:26BCH         LINE#         173
  C:26BEH         LINE#         174
  C:26BEH         LINE#         175
  C:26BEH         LINE#         176
  C:26C4H         LINE#         178
  C:26C6H         LINE#         179
  C:26C6H         LINE#         180
  C:26C6H         LINE#         181
  C:26CCH         LINE#         183
  C:26CEH         LINE#         184
BL51 BANKED LINKER/LOCATER V6.22                                                      08/23/2018  17:19:26  PAGE 23


  C:26CEH         LINE#         185
  C:26CEH         LINE#         186
  C:26D4H         LINE#         188
  C:26D4H         LINE#         189
  C:26D4H         LINE#         190
  C:26D4H         LINE#         192
  C:26DAH         LINE#         193
  C:26DAH         LINE#         195
  C:26DAH         LINE#         196
  C:26DDH         LINE#         197
  C:26DDH         LINE#         198
  C:26DDH         LINE#         200
  C:26DDH         LINE#         201
  C:26DFH         LINE#         202
  C:26DFH         LINE#         203
  -------         ENDPROC       KEY_SCAN
  -------         PROC          KEY_PROCESS
  -------         DO            
  X:0570H         SYMBOL        KeyCount
  X:0572H         SYMBOL        KeyNum_Old
  X:0573H         SYMBOL        KeyNum
  X:0574H         SYMBOL        PressedKey
  X:03E4H         SYMBOL        d
  D:0004H         SYMBOL        hours
  D:0006H         SYMBOL        mins
  X:03E6H         SYMBOL        months
  X:03E8H         SYMBOL        days
  -------         ENDDO         
  C:1CA7H         LINE#         204
  C:1CA7H         LINE#         205
  C:1CA7H         LINE#         209
  C:1CAFH         LINE#         210
  C:1CB7H         LINE#         212
  C:1CBAH         LINE#         213
  C:1CBAH         LINE#         214
  C:1CBDH         LINE#         216
  C:1CBDH         LINE#         217
  C:1CCAH         LINE#         218
  C:1CCAH         LINE#         219
  C:1CCDH         LINE#         220
  C:1CD0H         LINE#         222
  C:1CD3H         LINE#         224
  C:1CD3H         LINE#         225
  C:1CDEH         LINE#         226
  C:1CDEH         LINE#         227
  C:1CE1H         LINE#         229
  C:1CE1H         LINE#         230
  C:1CE8H         LINE#         231
  C:1CE8H         LINE#         232
  C:1CEBH         LINE#         234
  C:1CEBH         LINE#         235
  C:1CF3H         LINE#         236
  C:1CF3H         LINE#         237
  C:1CFDH         LINE#         238
  C:1D05H         LINE#         240
  C:1D0EH         LINE#         242
  C:1D0EH         LINE#         251
BL51 BANKED LINKER/LOCATER V6.22                                                      08/23/2018  17:19:26  PAGE 24


  C:1D23H         LINE#         252
  C:1D23H         LINE#         253
  C:1D35H         LINE#         254
  C:1D43H         LINE#         255
  C:1D52H         LINE#         256
  C:1D52H         LINE#         258
  C:1D58H         LINE#         262
  C:1D6EH         LINE#         263
  C:1D7FH         LINE#         264
  C:1D9AH         LINE#         265
  C:1D9AH         LINE#         266
  C:1DAAH         LINE#         267
  C:1DBBH         LINE#         268
  C:1DBBH         LINE#         272
  C:1DD4H         LINE#         273
  C:1DEBH         LINE#         274
  C:1E0BH         LINE#         275
  C:1E0BH         LINE#         276
  C:1E15H         LINE#         277
  C:1E15H         LINE#         278
  C:1E1EH         LINE#         279
  C:1E1EH         LINE#         280
  C:1E32H         LINE#         281
  C:1E32H         LINE#         282
  C:1E32H         LINE#         283
  C:1E32H         LINE#         284
  C:1E32H         LINE#         285
  C:1E34H         LINE#         287
  C:1E34H         LINE#         288
  C:1E40H         LINE#         289
  C:1E40H         LINE#         290
  C:1E51H         LINE#         291
  C:1E51H         LINE#         292
  C:1E51H         LINE#         293
  C:1E51H         LINE#         294
  C:1E51H         LINE#         296
  C:1E53H         LINE#         298
  C:1E53H         LINE#         299
  C:1E64H         LINE#         300
  C:1E64H         LINE#         301
  C:1E64H         LINE#         302
  C:1E64H         LINE#         303
  C:1E64H         LINE#         305
  C:1E64H         LINE#         307
  C:1E64H         LINE#         308
  C:1E66H         LINE#         310
  C:1E66H         LINE#         311
  C:1E79H         LINE#         312
  C:1E79H         LINE#         313
  C:1E8AH         LINE#         314
  C:1E8AH         LINE#         315
  C:1E8AH         LINE#         316
  C:1E8AH         LINE#         317
  C:1E8AH         LINE#         318
  C:1E8CH         LINE#         320
  C:1E8CH         LINE#         321
  C:1E9DH         LINE#         322
BL51 BANKED LINKER/LOCATER V6.22                                                      08/23/2018  17:19:26  PAGE 25


  C:1E9DH         LINE#         323
  C:1EAEH         LINE#         324
  C:1EBFH         LINE#         325
  C:1EBFH         LINE#         326
  C:1EBFH         LINE#         327
  C:1EBFH         LINE#         328
  C:1EBFH         LINE#         329
  C:1EC2H         LINE#         330
  C:1EC7H         LINE#         331
  C:1ECCH         LINE#         332
  C:1ED1H         LINE#         333
  C:1ED6H         LINE#         334
  C:1EDBH         LINE#         335
  C:1EE0H         LINE#         336
  C:1EE5H         LINE#         337
  C:1EE5H         LINE#         339
  C:1F07H         LINE#         340
  C:1F07H         LINE#         341
  C:1F11H         LINE#         342
  C:1F11H         LINE#         343
  C:1F16H         LINE#         344
  C:1F1FH         LINE#         345
  C:1F36H         LINE#         346
  C:1F36H         LINE#         347
  C:1F46H         LINE#         349
  C:1F46H         LINE#         353
  -------         ENDPROC       KEY_PROCESS
  -------         PROC          KEYPAD_IO_INIT
  C:34E8H         LINE#         356
  C:34E8H         LINE#         357
  C:34E8H         LINE#         358
  C:34EBH         LINE#         359
  C:34EEH         LINE#         360
  C:34F1H         LINE#         361
  C:34F3H         LINE#         362
  -------         ENDPROC       KEYPAD_IO_INIT
  -------         ENDMOD        KEYPAD

  -------         MODULE        VCNL4035
  C:0000H         SYMBOL        _ICE_DUMMY_
  D:0080H         PUBLIC        P0
  B:00B0H.2       PUBLIC        I2C_SCK
  D:00B2H         PUBLIC        P3M0
  D:0090H         PUBLIC        P1
  D:00B1H         PUBLIC        P3M1
  D:00A0H         PUBLIC        P2
  D:00B0H         PUBLIC        P3
  D:00C0H         PUBLIC        P4
  D:00C8H         PUBLIC        P5
  D:00E8H         PUBLIC        P6
  D:00F8H         PUBLIC        P7
  D:00A8H         PUBLIC        IE
  C:3523H         PUBLIC        _DisplayLCD_VCNL4035
  D:00B8H         PUBLIC        IP
  D:00D8H         PUBLIC        CCON
  C:3477H         PUBLIC        I2C_Start
  D:0098H         PUBLIC        SCON
BL51 BANKED LINKER/LOCATER V6.22                                                      08/23/2018  17:19:26  PAGE 26


  C:3423H         PUBLIC        I2C_Init
  D:0088H         PUBLIC        TCON
  C:34BDH         PUBLIC        uC_NACK
  C:32C1H         PUBLIC        _Wait_ms_i2c
  C:3303H         PUBLIC        _I2C_SendByte
  C:343AH         PUBLIC        I2C_Stop
  C:3119H         PUBLIC        _Write_VCNL4035X
  C:3533H         PUBLIC        nop
  C:2CFAH         PUBLIC        _Read_VCNL4035
  C:351DH         PUBLIC        uC_ACK
  C:33C3H         PUBLIC        I2C_ACK
  C:3383H         PUBLIC        _Wait_ms_iic
  B:00B0H.1       PUBLIC        I2C_SDA
  D:00D0H         PUBLIC        PSW
  C:328EH         PUBLIC        I2C_ReceiveByte
  -------         PROC          _WAIT_MS_IIC
  D:0006H         SYMBOL        ms
  -------         DO            
  D:0004H         SYMBOL        De_Cnt
  -------         ENDDO         
  C:3383H         LINE#         5
  C:3383H         LINE#         6
  C:3383H         LINE#         8
  C:338DH         LINE#         9
  C:338DH         LINE#         10
  C:33A0H         LINE#         11
  C:33A0H         LINE#         12
  -------         ENDPROC       _WAIT_MS_IIC
  C:32BBH         SYMBOL        L?0048
  C:32BDH         SYMBOL        L?0049
  -------         PROC          L?0047
  -------         ENDPROC       L?0047
  C:32BBH         SYMBOL        L?0048
  C:32BDH         SYMBOL        L?0049
  -------         PROC          _WAIT_MS_I2C
  D:0006H         SYMBOL        ms
  -------         DO            
  D:0004H         SYMBOL        De_Cnt
  -------         ENDDO         
  C:32C1H         LINE#         14
  C:32C1H         LINE#         15
  C:32C1H         LINE#         17
  C:32CBH         LINE#         18
  C:32CBH         LINE#         19
  C:32DEH         LINE#         20
  C:32DEH         LINE#         21
  -------         ENDPROC       _WAIT_MS_I2C
  -------         PROC          NOP
  C:3533H         LINE#         22
  C:3533H         LINE#         23
  C:3533H         LINE#         25
  -------         ENDPROC       NOP
  -------         PROC          I2C_START
  C:3477H         LINE#         26
  C:3477H         LINE#         27
  C:3477H         LINE#         29
  C:3479H         LINE#         30
BL51 BANKED LINKER/LOCATER V6.22                                                      08/23/2018  17:19:26  PAGE 27


  C:347BH         LINE#         31
  C:3482H         LINE#         32
  C:3484H         LINE#         33
  C:3487H         LINE#         34
  C:3489H         LINE#         37
  -------         ENDPROC       I2C_START
  -------         PROC          I2C_STOP
  C:343AH         LINE#         39
  C:343AH         LINE#         40
  C:343AH         LINE#         41
  C:343CH         LINE#         42
  C:343EH         LINE#         43
  C:3441H         LINE#         44
  C:3443H         LINE#         45
  C:3445H         LINE#         46
  C:344CH         LINE#         47
  C:344EH         LINE#         50
  -------         ENDPROC       I2C_STOP
  -------         PROC          L?0050
  -------         ENDPROC       L?0050
  -------         PROC          I2C_ACK
  -------         DO            
  X:03E7H         SYMBOL        i
  D:0003H         SYMBOL        dat
  -------         ENDDO         
  C:33C3H         LINE#         52
  C:33C3H         LINE#         53
  C:33C3H         LINE#         55
  C:33C4H         LINE#         60
  C:33C7H         LINE#         61
  C:33C9H         LINE#         62
  C:33CCH         LINE#         64
  C:33CFH         LINE#         65
  C:33CFH         LINE#         66
  C:33D3H         LINE#         67
  C:33D3H         LINE#         70
  C:33D3H         LINE#         71
  C:33D6H         LINE#         72
  C:33D6H         LINE#         73
  C:33D8H         LINE#         74
  -------         ENDPROC       I2C_ACK
  -------         PROC          UC_ACK
  -------         DO            
  X:0588H         SYMBOL        i
  -------         ENDDO         
  C:351DH         LINE#         75
  C:351DH         LINE#         76
  C:351DH         LINE#         78
  C:351DH         LINE#         85
  C:351DH         LINE#         87
  C:351DH         LINE#         89
  C:351DH         LINE#         90
  C:351DH         LINE#         93
  C:3520H         LINE#         94
  C:3522H         LINE#         95
  C:3522H         LINE#         99
  -------         ENDPROC       UC_ACK
BL51 BANKED LINKER/LOCATER V6.22                                                      08/23/2018  17:19:26  PAGE 28


  -------         PROC          UC_NACK
  -------         DO            
  X:0589H         SYMBOL        i
  -------         ENDDO         
  C:34BDH         LINE#         101
  C:34BDH         LINE#         102
  C:34BDH         LINE#         104
  C:34BDH         LINE#         108
  C:34BFH         LINE#         111
  C:34BFH         LINE#         112
  C:34C1H         LINE#         113
  C:34C1H         LINE#         115
  C:34C1H         LINE#         116
  C:34C1H         LINE#         119
  C:34C4H         LINE#         120
  C:34C6H         LINE#         121
  C:34C9H         LINE#         122
  C:34CBH         LINE#         123
  C:34CBH         LINE#         127
  -------         ENDPROC       UC_NACK
  -------         PROC          I2C_INIT
  C:3423H         LINE#         129
  C:3423H         LINE#         130
  C:3423H         LINE#         133
  C:3426H         LINE#         134
  C:3429H         LINE#         139
  C:3431H         LINE#         141
  -------         ENDPROC       I2C_INIT
  -------         PROC          _I2C_SENDBYTE
  D:0001H         SYMBOL        dat
  -------         DO            
  D:0003H         SYMBOL        i
  -------         ENDDO         
  C:3303H         LINE#         145
  C:3305H         LINE#         146
  C:3305H         LINE#         149
  C:3307H         LINE#         150
  C:3307H         LINE#         151
  C:3309H         LINE#         153
  C:330DH         LINE#         154
  C:330DH         LINE#         155
  C:330FH         LINE#         156
  C:3311H         LINE#         158
  C:3311H         LINE#         159
  C:3313H         LINE#         160
  C:3313H         LINE#         161
  C:3316H         LINE#         162
  C:3318H         LINE#         164
  C:331CH         LINE#         165
  C:331FH         LINE#         166
  C:3324H         LINE#         167
  -------         ENDPROC       _I2C_SENDBYTE
  -------         PROC          L?0051
  -------         ENDPROC       L?0051
  -------         PROC          I2C_RECEIVEBYTE
  -------         DO            
  D:0003H         SYMBOL        i
BL51 BANKED LINKER/LOCATER V6.22                                                      08/23/2018  17:19:26  PAGE 29


  D:0001H         SYMBOL        dat
  -------         ENDDO         
  C:328EH         LINE#         171
  C:328EH         LINE#         172
  C:328EH         LINE#         174
  C:3290H         LINE#         178
  C:3291H         LINE#         179
  C:3291H         LINE#         180
  C:3295H         LINE#         181
  C:3297H         LINE#         182
  C:329AH         LINE#         184
  C:329DH         LINE#         185
  C:329DH         LINE#         186
  C:32A1H         LINE#         187
  C:32A1H         LINE#         188
  C:32A1H         LINE#         189
  C:32A4H         LINE#         190
  C:32A8H         LINE#         191
  C:32A8H         LINE#         192
  C:32AAH         LINE#         193
  C:32ACH         LINE#         194
  C:32ACH         LINE#         196
  C:32B1H         LINE#         197
  C:32B3H         LINE#         198
  -------         ENDPROC       I2C_RECEIVEBYTE
  -------         PROC          _WRITE_VCNL4035X
  X:03E4H         SYMBOL        command_code
  X:03E5H         SYMBOL        dat_h
  X:03E6H         SYMBOL        dat_l
  C:3119H         LINE#         199
  C:3124H         LINE#         200
  C:3124H         LINE#         201
  C:3127H         LINE#         202
  C:312EH         LINE#         203
  C:312EH         LINE#         204
  C:3134H         LINE#         205
  C:3134H         LINE#         206
  C:313CH         LINE#         207
  C:313CH         LINE#         208
  C:3142H         LINE#         209
  C:314AH         LINE#         211
  C:3150H         LINE#         212
  C:3158H         LINE#         214
  C:315EH         LINE#         215
  C:3161H         LINE#         216
  -------         ENDPROC       _WRITE_VCNL4035X
  -------         PROC          _READ_VCNL4035
  X:0579H         SYMBOL        command_code
  -------         DO            
  X:057BH         SYMBOL        temp_dat
  X:057DH         SYMBOL        temp_dat_l
  X:057FH         SYMBOL        temp_dat_h
  -------         ENDDO         
  C:2CFAH         LINE#         218
  C:2D02H         LINE#         219
  C:2D02H         LINE#         220
  C:2D0FH         LINE#         222
BL51 BANKED LINKER/LOCATER V6.22                                                      08/23/2018  17:19:26  PAGE 30


  C:2D12H         LINE#         223
  C:2D15H         LINE#         224
  C:2D1AH         LINE#         226
  C:2D20H         LINE#         227
  C:2D20H         LINE#         228
  C:2D20H         LINE#         229
  C:2D20H         LINE#         230
  C:2D2BH         LINE#         231
  C:2D2EH         LINE#         232
  C:2D31H         LINE#         233
  C:2D31H         LINE#         236
  C:2D34H         LINE#         238
  C:2D3BH         LINE#         239
  C:2D3BH         LINE#         240
  C:2D3BH         LINE#         241
  C:2D46H         LINE#         242
  C:2D49H         LINE#         243
  C:2D4CH         LINE#         244
  C:2D4FH         LINE#         245
  C:2D52H         LINE#         246
  C:2D55H         LINE#         247
  C:2D58H         LINE#         248
  C:2D5BH         LINE#         249
  C:2D5EH         LINE#         250
  C:2D5EH         LINE#         251
  C:2D64H         LINE#         252
  C:2D64H         LINE#         253
  C:2D6DH         LINE#         255
  C:2D6DH         LINE#         256
  C:2D73H         LINE#         257
  C:2D73H         LINE#         259
  C:2D75H         LINE#         260
  C:2D7BH         LINE#         261
  C:2D7EH         LINE#         262
  C:2D85H         LINE#         263
  C:2D85H         LINE#         264
  C:2D93H         LINE#         265
  -------         ENDPROC       _READ_VCNL4035
  -------         PROC          _DISPLAYLCD_VCNL4035
  X:058AH         SYMBOL        dat
  C:3523H         LINE#         267
  C:3528H         LINE#         268
  C:3528H         LINE#         270
  -------         ENDPROC       _DISPLAYLCD_VCNL4035
  -------         ENDMOD        VCNL4035

  -------         MODULE        BIPOLARMOTOR
  C:0000H         SYMBOL        _ICE_DUMMY_
  D:0080H         PUBLIC        P0
  D:0090H         PUBLIC        P1
  D:00A0H         PUBLIC        P2
  D:00B0H         PUBLIC        P3
  D:00C0H         PUBLIC        P4
  D:00C8H         PUBLIC        P5
  D:00E8H         PUBLIC        P6
  D:00F8H         PUBLIC        P7
  D:00A8H         PUBLIC        IE
BL51 BANKED LINKER/LOCATER V6.22                                                      08/23/2018  17:19:26  PAGE 31


  C:2A76H         PUBLIC        linear_interpolate
  X:0000H         PUBLIC        Time_stamp_PM
  C:3221H         PUBLIC        _Move
  D:00B8H         PUBLIC        IP
  C:2200H         PUBLIC        _findDet3x3
  C:19E7H         PUBLIC        _findDet4x4
  D:00D8H         PUBLIC        CCON
  D:0098H         PUBLIC        SCON
  D:0088H         PUBLIC        TCON
  C:3076H         PUBLIC        _Step_move
  C:108AH         PUBLIC        _Update_position
  X:0054H         PUBLIC        RX_pos
  X:039CH         PUBLIC        date_declination_mapping
  C:33E3H         PUBLIC        _BCDtoDec1
  X:03C4H         PUBLIC        degree
  D:00D0H         PUBLIC        PSW
  -------         PROC          L?0046
  -------         ENDPROC       L?0046
  -------         PROC          _BCDTODEC1
  D:0007H         SYMBOL        bcd
  -------         DO            
  D:0006H         SYMBOL        hi
  D:0007H         SYMBOL        lo
  -------         ENDDO         
  C:33E3H         LINE#         22
  C:33E3H         LINE#         23
  C:33E3H         LINE#         25
  C:33E8H         LINE#         26
  C:33ECH         LINE#         27
  C:33F3H         LINE#         28
  -------         ENDPROC       _BCDTODEC1
  -------         PROC          _STEP_MOVE
  X:048BH         SYMBOL        step
  B:0020H.6       SYMBOL        dir
  -------         DO            
  X:048DH         SYMBOL        i
  -------         ENDDO         
  C:3076H         LINE#         34
  C:307EH         LINE#         35
  C:307EH         LINE#         36
  C:3083H         LINE#         37
  C:3086H         LINE#         38
  C:308BH         LINE#         40
  C:308EH         LINE#         42
  C:30AAH         LINE#         43
  C:30AAH         LINE#         44
  C:30ADH         LINE#         45
  C:30B4H         LINE#         46
  C:30B7H         LINE#         47
  C:30BEH         LINE#         48
  C:30CEH         LINE#         49
  -------         ENDPROC       _STEP_MOVE
  -------         PROC          _MOVE
  X:0487H         SYMBOL        distance
  B:0020H.5       SYMBOL        direction
  -------         DO            
  D:0006H         SYMBOL        step
BL51 BANKED LINKER/LOCATER V6.22                                                      08/23/2018  17:19:26  PAGE 32


  -------         ENDDO         
  C:3221H         LINE#         51
  C:3227H         LINE#         52
  C:3227H         LINE#         54
  C:324EH         LINE#         55
  -------         ENDPROC       _MOVE
  C:21E1H         SYMBOL        L?0043
  C:21F5H         SYMBOL        L?0044
  -------         PROC          L?0042
  -------         ENDPROC       L?0042
  C:21E1H         SYMBOL        L?0043
  C:21F5H         SYMBOL        L?0044
  -------         PROC          _FINDDET3X3
  X:0530H         SYMBOL        a11
  X:0534H         SYMBOL        a12
  X:0538H         SYMBOL        a13
  X:053CH         SYMBOL        a21
  X:0540H         SYMBOL        a22
  X:0544H         SYMBOL        a23
  X:0548H         SYMBOL        a31
  X:054CH         SYMBOL        a32
  X:0550H         SYMBOL        a33
  C:2200H         LINE#         59
  C:2206H         LINE#         63
  C:2206H         LINE#         64
  C:239DH         LINE#         66
  -------         ENDPROC       _FINDDET3X3
  -------         PROC          _FINDDET4X4
  X:04F0H         SYMBOL        a11
  X:04F4H         SYMBOL        a12
  X:04F8H         SYMBOL        a13
  X:04FCH         SYMBOL        a14
  X:0500H         SYMBOL        a21
  X:0504H         SYMBOL        a22
  X:0508H         SYMBOL        a23
  X:050CH         SYMBOL        a24
  X:0510H         SYMBOL        a31
  X:0514H         SYMBOL        a32
  X:0518H         SYMBOL        a33
  X:051CH         SYMBOL        a34
  X:0520H         SYMBOL        a41
  X:0524H         SYMBOL        a42
  X:0528H         SYMBOL        a43
  X:052CH         SYMBOL        a44
  C:19E7H         LINE#         67
  C:19EDH         LINE#         71
  C:19EDH         LINE#         78
  C:1CA6H         LINE#         82
  -------         ENDPROC       _FINDDET4X4
  -------         PROC          L?0045
  -------         ENDPROC       L?0045
  -------         PROC          LINEAR_INTERPOLATE
  X:0487H         SYMBOL        p1
  X:048FH         SYMBOL        p2
  X:0497H         SYMBOL        x
  -------         DO            
  D:0004H         SYMBOL        fx
BL51 BANKED LINKER/LOCATER V6.22                                                      08/23/2018  17:19:26  PAGE 33


  -------         ENDDO         
  C:2A76H         LINE#         88
  C:2A76H         LINE#         89
  C:2A76H         LINE#         92
  C:2B15H         LINE#         94
  C:2B15H         LINE#         95
  -------         ENDPROC       LINEAR_INTERPOLATE
  -------         PROC          _UPDATE_POSITION
  X:03E4H         SYMBOL        mnths
  X:03E5H         SYMBOL        dys
  X:03E6H         SYMBOL        hurs
  X:03E7H         SYMBOL        mns
  X:03E8H         SYMBOL        sconds
  X:03E9H         SYMBOL        currnt_pos
  -------         DO            
  X:03ECH         SYMBOL        date
  X:03EEH         SYMBOL        i
  X:03F0H         SYMBOL        yy
  X:03F2H         SYMBOL        desired_distance
  X:03F6H         SYMBOL        distance
  X:03FAH         SYMBOL        JP_pos
  X:03FEH         SYMBOL        pos_interpolate_12_17h
  X:0452H         SYMBOL        current_time
  X:0456H         SYMBOL        declination
  X:045AH         SYMBOL        p1
  X:0462H         SYMBOL        p2
  X:046AH         SYMBOL        time
  X:047CH         SYMBOL        location
  X:0484H         SYMBOL        sunCoord
  -------         ENDDO         
  C:108AH         LINE#         98
  C:1098H         LINE#         101
  C:1098H         LINE#         102
  C:10A3H         LINE#         103
  C:10ADH         LINE#         110
  C:10B3H         LINE#         111
  C:10BAH         LINE#         112
  C:10C4H         LINE#         113
  C:10CFH         LINE#         114
  C:10DFH         LINE#         115
  C:10F3H         LINE#         116
  C:1104H         LINE#         117
  C:1113H         LINE#         120
  C:1127H         LINE#         121
  C:113AH         LINE#         123
  C:118CH         LINE#         125
  C:11C8H         LINE#         126
  C:11D7H         LINE#         127
  C:11D7H         LINE#         129
  C:11F0H         LINE#         130
  C:11F0H         LINE#         131
  C:1260H         LINE#         132
  C:1260H         LINE#         133
  C:1267H         LINE#         134
  C:1267H         LINE#         135
  C:1294H         LINE#         136
  C:12AFH         LINE#         138
BL51 BANKED LINKER/LOCATER V6.22                                                      08/23/2018  17:19:26  PAGE 34


  C:12F6H         LINE#         139
  C:132AH         LINE#         141
  C:1382H         LINE#         142
  C:13A2H         LINE#         144
  C:13A2H         LINE#         145
  C:13B3H         LINE#         148
  C:13CDH         LINE#         149
  C:13CDH         LINE#         150
  C:143DH         LINE#         151
  C:143DH         LINE#         152
  C:146AH         LINE#         153
  C:1485H         LINE#         155
  C:14B2H         LINE#         156
  C:14CDH         LINE#         158
  C:14FFH         LINE#         161
  C:14FFH         LINE#         163
  C:1510H         LINE#         165
  C:1537H         LINE#         167
  C:155CH         LINE#         169
  C:1576H         LINE#         170
  C:1588H         LINE#         171
  C:15A0H         LINE#         172
  C:15B6H         LINE#         173
  C:15B6H         LINE#         174
  C:15D2H         LINE#         177
  -------         ENDPROC       _UPDATE_POSITION
  -------         ENDMOD        BIPOLARMOTOR

  -------         MODULE        SUNPOS
  C:0000H         SYMBOL        _ICE_DUMMY_
  C:08E8H         PUBLIC        sunpos
  -------         PROC          SUNPOS
  X:0487H         SYMBOL        udtTime
  X:0499H         SYMBOL        udtLocation
  X:04A1H         SYMBOL        udtSunCoordinates
  -------         DO            
  X:04A4H         SYMBOL        dElapsedJulianDays
  X:04A8H         SYMBOL        dDecimalHours
  X:04ACH         SYMBOL        dEclipticLongitude
  X:04B0H         SYMBOL        dEclipticObliquity
  X:04B4H         SYMBOL        dRightAscension
  X:04B8H         SYMBOL        dDeclination
  X:04BCH         SYMBOL        dY
  X:04C0H         SYMBOL        dX
  -------         DO            
  X:04C4H         SYMBOL        dJulianDate
  X:04C8H         SYMBOL        liAux1
  X:04CCH         SYMBOL        liAux2
  X:04C4H         SYMBOL        dMeanLongitude
  X:04C8H         SYMBOL        dMeanAnomaly
  X:04CCH         SYMBOL        dOmega
  X:04C4H         SYMBOL        dSin_EclipticLongitude
  X:04C4H         SYMBOL        dGreenwichMeanSiderealTime
  X:04C8H         SYMBOL        dLocalMeanSiderealTime
  X:04CCH         SYMBOL        dLatitudeInRadians
  X:04D0H         SYMBOL        dHourAngle
  X:04D4H         SYMBOL        dCos_Latitude
BL51 BANKED LINKER/LOCATER V6.22                                                      08/23/2018  17:19:26  PAGE 35


  X:04D8H         SYMBOL        dSin_Latitude
  X:04DCH         SYMBOL        dCos_HourAngle
  X:04E0H         SYMBOL        dParallax
  -------         ENDDO         
  -------         DO            
  X:04C4H         SYMBOL        dMeanLongitude
  X:04C8H         SYMBOL        dMeanAnomaly
  X:04CCH         SYMBOL        dOmega
  X:04C4H         SYMBOL        dSin_EclipticLongitude
  X:04C4H         SYMBOL        dGreenwichMeanSiderealTime
  X:04C8H         SYMBOL        dLocalMeanSiderealTime
  X:04CCH         SYMBOL        dLatitudeInRadians
  X:04D0H         SYMBOL        dHourAngle
  X:04D4H         SYMBOL        dCos_Latitude
  X:04D8H         SYMBOL        dSin_Latitude
  X:04DCH         SYMBOL        dCos_HourAngle
  X:04E0H         SYMBOL        dParallax
  -------         ENDDO         
  -------         DO            
  X:04C4H         SYMBOL        dSin_EclipticLongitude
  X:04C4H         SYMBOL        dGreenwichMeanSiderealTime
  X:04C8H         SYMBOL        dLocalMeanSiderealTime
  X:04CCH         SYMBOL        dLatitudeInRadians
  X:04D0H         SYMBOL        dHourAngle
  X:04D4H         SYMBOL        dCos_Latitude
  X:04D8H         SYMBOL        dSin_Latitude
  X:04DCH         SYMBOL        dCos_HourAngle
  X:04E0H         SYMBOL        dParallax
  -------         ENDDO         
  -------         DO            
  X:04C4H         SYMBOL        dGreenwichMeanSiderealTime
  X:04C8H         SYMBOL        dLocalMeanSiderealTime
  X:04CCH         SYMBOL        dLatitudeInRadians
  X:04D0H         SYMBOL        dHourAngle
  X:04D4H         SYMBOL        dCos_Latitude
  X:04D8H         SYMBOL        dSin_Latitude
  X:04DCH         SYMBOL        dCos_HourAngle
  X:04E0H         SYMBOL        dParallax
  -------         ENDDO         
  -------         ENDDO         
  C:08E8H         LINE#         6
  C:08E8H         LINE#         7
  C:08E8H         LINE#         9
  C:08E8H         LINE#         27
  C:0932H         LINE#         30
  C:0953H         LINE#         31
  C:0A9AH         LINE#         34
  C:0AE6H         LINE#         36
  C:0B05H         LINE#         37
  C:0B05H         LINE#         42
  C:0B05H         LINE#         46
  C:0B37H         LINE#         47
  C:0B61H         LINE#         48
  C:0B8BH         LINE#         49
  C:0C38H         LINE#         52
  C:0C99H         LINE#         54
  C:0C99H         LINE#         59
BL51 BANKED LINKER/LOCATER V6.22                                                      08/23/2018  17:19:26  PAGE 36


  C:0C99H         LINE#         61
  C:0CB0H         LINE#         62
  C:0CD8H         LINE#         63
  C:0CEFH         LINE#         64
  C:0D1AH         LINE#         65
  C:0D51H         LINE#         66
  C:0D7CH         LINE#         67
  C:0D7CH         LINE#         70
  C:0D7CH         LINE#         79
  C:0DB7H         LINE#         82
  C:0DF1H         LINE#         84
  C:0E16H         LINE#         85
  C:0E35H         LINE#         86
  C:0E4CH         LINE#         87
  C:0E63H         LINE#         88
  C:0E7AH         LINE#         89
  C:0F03H         LINE#         91
  C:0F1DH         LINE#         92
  C:0F7FH         LINE#         93
  C:0FB5H         LINE#         94
  C:0FC7H         LINE#         95
  C:0FF4H         LINE#         96
  C:1021H         LINE#         98
  C:1043H         LINE#         100
  C:107BH         LINE#         103
  C:107BH         LINE#         104
  C:1089H         LINE#         105
  -------         ENDPROC       SUNPOS
  -------         ENDMOD        SUNPOS

  -------         MODULE        ?C_STARTUP
  C:2E29H         SEGMENT       ?C_C51STARTUP
  I:0021H         SEGMENT       ?STACK
  C:0000H         PUBLIC        ?C_STARTUP
  D:00E0H         SYMBOL        ACC
  D:00F0H         SYMBOL        B
  D:0083H         SYMBOL        DPH
  D:0082H         SYMBOL        DPL
  N:0000H         SYMBOL        IBPSTACK
  N:0100H         SYMBOL        IBPSTACKTOP
  N:0080H         SYMBOL        IDATALEN
  C:2E2CH         SYMBOL        IDATALOOP
  N:0000H         SYMBOL        PBPSTACK
  N:0100H         SYMBOL        PBPSTACKTOP
  N:0000H         SYMBOL        PDATALEN
  N:0000H         SYMBOL        PDATASTART
  N:0000H         SYMBOL        PPAGE
  N:0000H         SYMBOL        PPAGEENABLE
  D:00A0H         SYMBOL        PPAGE_SFR
  D:0081H         SYMBOL        SP
  C:2E29H         SYMBOL        STARTUP1
  N:0000H         SYMBOL        XBPSTACK
  N:0000H         SYMBOL        XBPSTACKTOP
  N:0000H         SYMBOL        XDATALEN
  N:0000H         SYMBOL        XDATASTART
  C:0000H         LINE#         126
  C:2E29H         LINE#         133
BL51 BANKED LINKER/LOCATER V6.22                                                      08/23/2018  17:19:26  PAGE 37


  C:2E2BH         LINE#         134
  C:2E2CH         LINE#         135
  C:2E2DH         LINE#         136
  C:2E2FH         LINE#         185
  C:2E32H         LINE#         196
  -------         ENDMOD        ?C_STARTUP

  -------         MODULE        ?C?FPADD
  C:002DH         PUBLIC        ?C?FPADD
  C:0029H         PUBLIC        ?C?FPSUB
  -------         ENDMOD        ?C?FPADD

  -------         MODULE        ?C?FPMUL
  C:011EH         PUBLIC        ?C?FPMUL
  -------         ENDMOD        ?C?FPMUL

  -------         MODULE        ?C?FPDIV
  C:0227H         PUBLIC        ?C?FPDIV
  -------         ENDMOD        ?C?FPDIV

  -------         MODULE        ?C?FPCMP
  C:02C6H         PUBLIC        ?C?FPCMP
  C:02C4H         PUBLIC        ?C?FPCMP3
  -------         ENDMOD        ?C?FPCMP

  -------         MODULE        ?C?FPNEG
  C:033DH         PUBLIC        ?C?FPNEG
  -------         ENDMOD        ?C?FPNEG

  -------         MODULE        ?C?FCAST
  C:0358H         PUBLIC        ?C?FCASTC
  C:0353H         PUBLIC        ?C?FCASTI
  C:034EH         PUBLIC        ?C?FCASTL
  -------         ENDMOD        ?C?FCAST

  -------         MODULE        ?C?CASTF
  C:038CH         PUBLIC        ?C?CASTF
  -------         ENDMOD        ?C?CASTF

  -------         MODULE        ATAN2
  X:04E4H         PUBLIC        ?_atan2?BYTE
  C:2BC2H         PUBLIC        _atan2
  -------         ENDMOD        ATAN2

  -------         MODULE        SIN
  C:2728H         PUBLIC        _COS
  C:273EH         PUBLIC        _SIN
  C:277AH         PUBLIC        _TAN
  -------         ENDMOD        SIN

  -------         MODULE        ACOS
  C:30CFH         PUBLIC        _ACOS
  -------         ENDMOD        ACOS

  -------         MODULE        ASIN
  C:31E6H         PUBLIC        _ASIN
  -------         ENDMOD        ASIN
BL51 BANKED LINKER/LOCATER V6.22                                                      08/23/2018  17:19:26  PAGE 38



  -------         MODULE        SQRT
  C:2B1AH         PUBLIC        _SQRT
  -------         ENDMOD        SQRT

  -------         MODULE        ATAN
  C:2888H         PUBLIC        _ATAN
  -------         ENDMOD        ATAN

  -------         MODULE        ?C?COPY
  C:052AH         PUBLIC        ?C?COPY
  -------         ENDMOD        ?C?COPY

  -------         MODULE        ?C?CLDPTR
  C:0550H         PUBLIC        ?C?CLDPTR
  -------         ENDMOD        ?C?CLDPTR

  -------         MODULE        ?C?CSTPTR
  C:0569H         PUBLIC        ?C?CSTPTR
  -------         ENDMOD        ?C?CSTPTR

  -------         MODULE        ?C?IMUL
  C:057BH         PUBLIC        ?C?IMUL
  -------         ENDMOD        ?C?IMUL

  -------         MODULE        ?C?UIDIV
  C:058DH         PUBLIC        ?C?UIDIV
  -------         ENDMOD        ?C?UIDIV

  -------         MODULE        ?C?SIDIV
  C:05E2H         PUBLIC        ?C?SIDIV
  -------         ENDMOD        ?C?SIDIV

  -------         MODULE        ?C?ILDIX
  C:0618H         PUBLIC        ?C?ILDIX
  -------         ENDMOD        ?C?ILDIX

  -------         MODULE        ?C?LMUL
  C:062EH         PUBLIC        ?C?LMUL
  -------         ENDMOD        ?C?LMUL

  -------         MODULE        ?C?SLDIV
  C:3162H         PUBLIC        ?C?SLDIV
  -------         ENDMOD        ?C?SLDIV

  -------         MODULE        ?C?LNEG
  C:067DH         PUBLIC        ?C?LNEG
  -------         ENDMOD        ?C?LNEG

  -------         MODULE        ?C?LLDPTR
  C:068BH         PUBLIC        ?C?LLDPTR
  -------         ENDMOD        ?C?LLDPTR

  -------         MODULE        ?C?LLDOPTR
  C:06ABH         PUBLIC        ?C?LLDOPTR
  -------         ENDMOD        ?C?LLDOPTR

BL51 BANKED LINKER/LOCATER V6.22                                                      08/23/2018  17:19:26  PAGE 39


  -------         MODULE        ?C?LSTPTR
  C:06DBH         PUBLIC        ?C?LSTPTR
  -------         ENDMOD        ?C?LSTPTR

  -------         MODULE        ?C?LSTOPTR
  C:06F5H         PUBLIC        ?C?LSTOPTR
  -------         ENDMOD        ?C?LSTOPTR

  -------         MODULE        ?C?LLDXDATA
  C:0719H         PUBLIC        ?C?LLDXDATA
  -------         ENDMOD        ?C?LLDXDATA

  -------         MODULE        ?C?LLDCODE
  C:0725H         PUBLIC        ?C?LLDCODE
  -------         ENDMOD        ?C?LLDCODE

  -------         MODULE        ?C?LLDXDATA0
  C:0735H         PUBLIC        ?C?LLDXDATA0
  -------         ENDMOD        ?C?LLDXDATA0

  -------         MODULE        ?C?LLDCODE0
  C:0741H         PUBLIC        ?C?LLDCODE0
  -------         ENDMOD        ?C?LLDCODE0

  -------         MODULE        ?C?LLDPTR0
  C:0751H         PUBLIC        ?C?LLDPTR0
  -------         ENDMOD        ?C?LLDPTR0

  -------         MODULE        ?C?LSTXDATA
  C:0771H         PUBLIC        ?C?LSTXDATA
  -------         ENDMOD        ?C?LSTXDATA

  -------         MODULE        ?C?LSTKXDATA
  C:077DH         PUBLIC        ?C?LSTKXDATA
  -------         ENDMOD        ?C?LSTKXDATA

  -------         MODULE        ?C?OFFXADD
  C:07AEH         PUBLIC        ?C?OFFXADD
  -------         ENDMOD        ?C?OFFXADD

  -------         MODULE        ABS
  C:34F4H         PUBLIC        _ABS
  -------         ENDMOD        ABS

  -------         MODULE        ATOI
  C:298AH         PUBLIC        _atoi
  -------         ENDMOD        ATOI

  -------         MODULE        ?C?IILDX
  C:07BAH         PUBLIC        ?C?IILDX
  -------         ENDMOD        ?C?IILDX

  -------         MODULE        ?C?ULDIV
  C:080CH         PUBLIC        ?C?ULDIV
  -------         ENDMOD        ?C?ULDIV

  -------         MODULE        ?C?LLDIDATA
BL51 BANKED LINKER/LOCATER V6.22                                                      08/23/2018  17:19:26  PAGE 40


  C:089EH         PUBLIC        ?C?LLDIDATA
  -------         ENDMOD        ?C?LLDIDATA

  -------         MODULE        ?C?LLDPDATA
  C:08AAH         PUBLIC        ?C?LLDPDATA
  -------         ENDMOD        ?C?LLDPDATA

  -------         MODULE        ?C?LLDIDATA0
  C:08B6H         PUBLIC        ?C?LLDIDATA0
  -------         ENDMOD        ?C?LLDIDATA0

  -------         MODULE        ?C?LLDPDATA0
  C:08C3H         PUBLIC        ?C?LLDPDATA0
  -------         ENDMOD        ?C?LLDPDATA0

  -------         MODULE        ?C?LSTIDATA
  C:08D0H         PUBLIC        ?C?LSTIDATA
  -------         ENDMOD        ?C?LSTIDATA

  -------         MODULE        ?C?LSTPDATA
  C:08DCH         PUBLIC        ?C?LSTPDATA
  -------         ENDMOD        ?C?LSTPDATA

  -------         MODULE        ISDIGIT
  C:34CCH         PUBLIC        _isdigit
  -------         ENDMOD        ISDIGIT

  -------         MODULE        ISSPACE
  C:3463H         PUBLIC        _isspace
  -------         ENDMOD        ISSPACE

*** WARNING L16: UNCALLED SEGMENT, IGNORED FOR OVERLAY PROCESS
    SEGMENT: ?PR?_DISPLAY_PROX?MAIN

*** WARNING L16: UNCALLED SEGMENT, IGNORED FOR OVERLAY PROCESS
    SEGMENT: ?PR?INITUART1?UART1

*** WARNING L16: UNCALLED SEGMENT, IGNORED FOR OVERLAY PROCESS
    SEGMENT: ?PR?_SENDSTRING?UART1

*** WARNING L16: UNCALLED SEGMENT, IGNORED FOR OVERLAY PROCESS
    SEGMENT: ?PR?_TEN?UART1

*** WARNING L16: UNCALLED SEGMENT, IGNORED FOR OVERLAY PROCESS
    SEGMENT: ?PR?_UNIT?UART1

*** WARNING L16: UNCALLED SEGMENT, IGNORED FOR OVERLAY PROCESS
    SEGMENT: ?PR?_DECTOBCD?UART1

*** WARNING L16: UNCALLED SEGMENT, IGNORED FOR OVERLAY PROCESS
    SEGMENT: ?PR?_ASCII_LETTER?UART1

*** WARNING L16: UNCALLED SEGMENT, IGNORED FOR OVERLAY PROCESS
    SEGMENT: ?PR?NOP?VCNL4035

*** WARNING L16: UNCALLED SEGMENT, IGNORED FOR OVERLAY PROCESS
    SEGMENT: ?PR?_READ_VCNL4035?VCNL4035
BL51 BANKED LINKER/LOCATER V6.22                                                      08/23/2018  17:19:26  PAGE 41



*** WARNING L16: UNCALLED SEGMENT, IGNORED FOR OVERLAY PROCESS
    SEGMENT: ?PR?_DISPLAYLCD_VCNL4035?VCNL4035

*** WARNING L16: UNCALLED SEGMENT, IGNORED FOR OVERLAY PROCESS
    SEGMENT: ?PR?_FINDDET4X4?BIPOLARMOTOR

*** WARNING L1: UNRESOLVED EXTERNAL SYMBOL
    SYMBOL:  AUTO_MODE
    MODULE:  .\Obj\main.obj (MAIN)

*** WARNING L2: REFERENCE MADE TO UNRESOLVED EXTERNAL
    SYMBOL:  AUTO_MODE
    MODULE:  .\Obj\main.obj (MAIN)
    ADDRESS: 1F64H

*** WARNING L2: REFERENCE MADE TO UNRESOLVED EXTERNAL
    SYMBOL:  AUTO_MODE
    MODULE:  .\Obj\main.obj (MAIN)
    ADDRESS: 202CH

*** WARNING L2: REFERENCE MADE TO UNRESOLVED EXTERNAL
    SYMBOL:  AUTO_MODE
    MODULE:  .\Obj\main.obj (MAIN)
    ADDRESS: 203AH

*** WARNING L2: REFERENCE MADE TO UNRESOLVED EXTERNAL
    SYMBOL:  AUTO_MODE
    MODULE:  .\Obj\main.obj (MAIN)
    ADDRESS: 204CH

*** WARNING L2: REFERENCE MADE TO UNRESOLVED EXTERNAL
    SYMBOL:  AUTO_MODE
    MODULE:  .\Obj\main.obj (MAIN)
    ADDRESS: 208EH

*** WARNING L2: REFERENCE MADE TO UNRESOLVED EXTERNAL
    SYMBOL:  AUTO_MODE
    MODULE:  .\Obj\main.obj (MAIN)
    ADDRESS: 2165H

*** WARNING L1: UNRESOLVED EXTERNAL SYMBOL
    SYMBOL:  AUTO_MODE
    MODULE:  .\Obj\KeyPad.obj (KEYPAD)

*** WARNING L2: REFERENCE MADE TO UNRESOLVED EXTERNAL
    SYMBOL:  AUTO_MODE
    MODULE:  .\Obj\KeyPad.obj (KEYPAD)
    ADDRESS: 1CF4H

*** WARNING L2: REFERENCE MADE TO UNRESOLVED EXTERNAL
    SYMBOL:  AUTO_MODE
    MODULE:  .\Obj\KeyPad.obj (KEYPAD)
    ADDRESS: 1CFFH

*** WARNING L2: REFERENCE MADE TO UNRESOLVED EXTERNAL
    SYMBOL:  AUTO_MODE
BL51 BANKED LINKER/LOCATER V6.22                                                      08/23/2018  17:19:26  PAGE 42


    MODULE:  .\Obj\KeyPad.obj (KEYPAD)
    ADDRESS: 1D06H

Program Size: data=18.0 xdata=1419 code=13620
LINK/LOCATE RUN COMPLETE.  22 WARNING(S),  0 ERROR(S)
