BL51 BANKED LINKER/LOCATER V6.22                                                        03/29/2019  11:07:55  PAGE 1


BL51 BANKED LINKER/LOCATER V6.22, INVOKED BY:
C:\KEIL\C51\BIN\BL51.EXE .\Obj\main.obj, .\Obj\PCF85063BTL.obj, .\Obj\UART1.obj, .\Obj\LCd_Driver_SPLC780D.obj, .\Obj\Ke
>> yPad.obj, .\Obj\VCNL4035.obj, .\Obj\BipolarMotor.obj, .\Obj\SunPos.obj, .\Obj\STARTUP.obj TO .\Obj\GPIO_RTC_Test PRIN
>> T (.\Lis\GPIO_RTC_Test.m51) RAMSIZE (256)


MEMORY MODEL: LARGE WITH FLOATING POINT ARITHMETIC


INPUT MODULES INCLUDED:
  .\Obj\main.obj (MAIN)
  .\Obj\PCF85063BTL.obj (PCF85063BTL)
  .\Obj\UART1.obj (UART1)
  .\Obj\LCd_Driver_SPLC780D.obj (LCD_DRIVER_SPLC780D)
  .\Obj\KeyPad.obj (KEYPAD)
  .\Obj\VCNL4035.obj (VCNL4035)
  .\Obj\BipolarMotor.obj (BIPOLARMOTOR)
  .\Obj\SunPos.obj (SUNPOS)
  .\Obj\STARTUP.obj (?C_STARTUP)
  C:\KEIL\C51\LIB\C51FPL.LIB (?C?FPADD)
  C:\KEIL\C51\LIB\C51FPL.LIB (?C?FPMUL)
  C:\KEIL\C51\LIB\C51FPL.LIB (?C?FPDIV)
  C:\KEIL\C51\LIB\C51FPL.LIB (?C?FPCMP)
  C:\KEIL\C51\LIB\C51FPL.LIB (?C?FPNEG)
  C:\KEIL\C51\LIB\C51FPL.LIB (?C?FCAST)
  C:\KEIL\C51\LIB\C51FPL.LIB (?C?CASTF)
  C:\KEIL\C51\LIB\C51FPL.LIB (ATAN2)
  C:\KEIL\C51\LIB\C51FPL.LIB (SIN)
  C:\KEIL\C51\LIB\C51FPL.LIB (ACOS)
  C:\KEIL\C51\LIB\C51FPL.LIB (ASIN)
  C:\KEIL\C51\LIB\C51FPL.LIB (?C?FPGETOPN)
  C:\KEIL\C51\LIB\C51FPL.LIB (?C?FPSERIES)
  C:\KEIL\C51\LIB\C51FPL.LIB (SQRT)
  C:\KEIL\C51\LIB\C51FPL.LIB (ATAN)
  C:\KEIL\C51\LIB\C51L.LIB (?C_INIT)
  C:\KEIL\C51\LIB\C51L.LIB (?C?COPY)
  C:\KEIL\C51\LIB\C51L.LIB (?C?CLDPTR)
  C:\KEIL\C51\LIB\C51L.LIB (?C?CSTPTR)
  C:\KEIL\C51\LIB\C51L.LIB (?C?IMUL)
  C:\KEIL\C51\LIB\C51L.LIB (?C?UIDIV)
  C:\KEIL\C51\LIB\C51L.LIB (?C?SIDIV)
  C:\KEIL\C51\LIB\C51L.LIB (?C?ILDIX)
  C:\KEIL\C51\LIB\C51L.LIB (?C?LMUL)
  C:\KEIL\C51\LIB\C51L.LIB (?C?SLDIV)
  C:\KEIL\C51\LIB\C51L.LIB (?C?LNEG)
  C:\KEIL\C51\LIB\C51L.LIB (?C?LLDPTR)
  C:\KEIL\C51\LIB\C51L.LIB (?C?LLDOPTR)
  C:\KEIL\C51\LIB\C51L.LIB (?C?LSTPTR)
  C:\KEIL\C51\LIB\C51L.LIB (?C?LSTOPTR)
  C:\KEIL\C51\LIB\C51L.LIB (?C?LLDXDATA)
  C:\KEIL\C51\LIB\C51L.LIB (?C?LLDCODE)
  C:\KEIL\C51\LIB\C51L.LIB (?C?LLDXDATA0)
  C:\KEIL\C51\LIB\C51L.LIB (?C?LLDCODE0)
  C:\KEIL\C51\LIB\C51L.LIB (?C?LLDPTR0)
  C:\KEIL\C51\LIB\C51L.LIB (?C?LSTXDATA)
  C:\KEIL\C51\LIB\C51L.LIB (?C?LSTKXDATA)
  C:\KEIL\C51\LIB\C51L.LIB (?C?OFFXADD)
  C:\KEIL\C51\LIB\C51L.LIB (ABS)
BL51 BANKED LINKER/LOCATER V6.22                                                      03/29/2019  11:07:55  PAGE 2


  C:\KEIL\C51\LIB\C51L.LIB (ATOI)
  C:\KEIL\C51\LIB\C51L.LIB (?C?IILDX)
  C:\KEIL\C51\LIB\C51L.LIB (?C?ULDIV)
  C:\KEIL\C51\LIB\C51L.LIB (?C?LLDIDATA)
  C:\KEIL\C51\LIB\C51L.LIB (?C?LLDPDATA)
  C:\KEIL\C51\LIB\C51L.LIB (?C?LLDIDATA0)
  C:\KEIL\C51\LIB\C51L.LIB (?C?LLDPDATA0)
  C:\KEIL\C51\LIB\C51L.LIB (?C?LSTIDATA)
  C:\KEIL\C51\LIB\C51L.LIB (?C?LSTPDATA)
  C:\KEIL\C51\LIB\C51L.LIB (ISDIGIT)
  C:\KEIL\C51\LIB\C51L.LIB (ISSPACE)


LINK MAP OF MODULE:  .\Obj\GPIO_RTC_Test (MAIN)


            TYPE    BASE      LENGTH    RELOCATION   SEGMENT NAME
            -----------------------------------------------------

            * * * * * * *   D A T A   M E M O R Y   * * * * * * *
            REG     0000H     0008H     ABSOLUTE     "REG BANK 0"
            REG     0008H     0008H     ABSOLUTE     "REG BANK 1"
                    0010H     0010H                  *** GAP ***
            BIT     0020H.0   0000H.5   UNIT         ?BI?KEYPAD
            BIT     0020H.5   0000H.3   UNIT         _BIT_GROUP_
            BIT     0021H.0   0000H.2   UNIT         ?BI?ATAN?ATAN
            BIT     0021H.2   0000H.1   UNIT         ?BI?MAIN
            BIT     0021H.3   0000H.1   UNIT         ?BI?_MOVE?BIPOLARMOTOR
            BIT     0021H.4   0000H.1   UNIT         ?BI?SIN?SIN
                    0021H.5   0000H.3                *** GAP ***
            IDATA   0022H     0001H     UNIT         ?STACK

            * * * * * * *  X D A T A   M E M O R Y  * * * * * * *
            XDATA   0000H     03C7H     UNIT         ?XD?BIPOLARMOTOR
            XDATA   03C7H     00EDH     UNIT         ?XD?MAIN
            XDATA   04B4H     00AFH     UNIT         ?XD?_UPDATE_POSITION?BIPOLARMOTOR
            XDATA   0563H     005DH     UNIT         ?XD?SUNPOS?SUNPOS
            XDATA   05C0H     0040H     UNIT         ?XD?_FINDDET4X4?BIPOLARMOTOR
            XDATA   0600H     0024H     UNIT         ?XD?_FINDDET3X3?BIPOLARMOTOR
            XDATA   0624H     001EH     UNIT         ?XD?_CALIB_INTERPOLATE?MAIN
            XDATA   0642H     001EH     UNIT         _XDATA_GROUP_
            XDATA   0660H     0014H     UNIT         ?XD?LINEAR_INTERPOLATE?BIPOLARMOTOR
            XDATA   0674H     0009H     UNIT         ?XD?KEYPAD
            XDATA   067DH     0008H     UNIT         ?XD?_READ_VCNL4035?VCNL4035
            XDATA   0685H     0008H     UNIT         ?XD?_ATAN2?ATAN2
            XDATA   068DH     0004H     UNIT         ?XD?_DISPLAY_PROX?MAIN
            XDATA   0691H     0004H     UNIT         ?XD?_MOVE?BIPOLARMOTOR
            XDATA   0695H     0004H     UNIT         ?XD?SIN?SIN
            XDATA   0699H     0004H     UNIT         ?XD?SQRT?SQRT
            XDATA   069DH     0004H     UNIT         ?XD?ATAN?ATAN
            XDATA   06A1H     0003H     UNIT         ?XD?_SENDSTRING?UART1
            XDATA   06A4H     0003H     UNIT         ?XD?_WRITE_VCNL4035X?VCNL4035
            XDATA   06A7H     0001H     UNIT         ?XD?I2C_ACK?VCNL4035
            XDATA   06A8H     0001H     UNIT         ?XD?UC_ACK?VCNL4035
            XDATA   06A9H     0001H     UNIT         ?XD?UC_NACK?VCNL4035
            XDATA   06AAH     0001H     UNIT         ?XD?_DISPLAYLCD_VCNL4035?VCNL4035

BL51 BANKED LINKER/LOCATER V6.22                                                      03/29/2019  11:07:55  PAGE 3


            * * * * * * *   C O D E   M E M O R Y   * * * * * * *
            CODE    0000H     0003H     ABSOLUTE     
            CODE    0003H     0006H     UNIT         ?PR?_TEN?UART1
            CODE    0009H     0001H     UNIT         ?PR?_DECTOBCD?UART1
            CODE    000AH     0001H     UNIT         ?PR?NOP?VCNL4035
            CODE    000BH     0003H     ABSOLUTE     
            CODE    000EH     0015H     UNIT         ?PR?_DISPLAY_LINE?LCD_DRIVER_SPLC780D
            CODE    0023H     0003H     ABSOLUTE     
            CODE    0026H     08C2H     UNIT         ?C?LIB_CODE
            CODE    08E8H     07D2H     UNIT         ?PR?_UPDATE_POSITION?BIPOLARMOTOR
            CODE    10BAH     07A2H     UNIT         ?PR?SUNPOS?SUNPOS
            CODE    185CH     0423H     UNIT         ?C_INITSEG
            CODE    1C7FH     03A7H     UNIT         ?PR?MAIN?MAIN
            CODE    2026H     02C0H     UNIT         ?PR?_FINDDET4X4?BIPOLARMOTOR
            CODE    22E6H     02A0H     UNIT         ?PR?KEY_PROCESS?KEYPAD
            CODE    2586H     01D1H     UNIT         ?PR?_FINDDET3X3?BIPOLARMOTOR
            CODE    2757H     01B5H     UNIT         ?PR?_DISPLAY_POS?MAIN
            CODE    290CH     01A1H     UNIT         ?PR?_CALIB_INTERPOLATE?MAIN
            CODE    2AADH     018DH     UNIT         ?PR?KEY_SCAN?KEYPAD
            CODE    2C3AH     0188H     UNIT         ?PR?SIN?SIN
            CODE    2DC2H     0122H     UNIT         ?PR?ATAN?ATAN
            CODE    2EE4H     00DBH     UNIT         ?PR?_ATOI?ATOI
            CODE    2FBFH     00B1H     UNIT         ?PR?LINEAR_INTERPOLATE?BIPOLARMOTOR
            CODE    3070H     00ACH     UNIT         ?PR?SQRT?SQRT
            CODE    311CH     009DH     UNIT         ?PR?_ATAN2?ATAN2
            CODE    31B9H     009BH     UNIT         ?PR?UART?MAIN
            CODE    3254H     009AH     UNIT         ?PR?_READ_VCNL4035?VCNL4035
            CODE    32EEH     0095H     UNIT         ?PR?_DISPLAY_PROX?MAIN
            CODE    3383H     008CH     UNIT         ?C_C51STARTUP
            CODE    340FH     0084H     UNIT         ?PR?_DAY_OF_YEAR?PCF85063BTL
            CODE    3493H     0075H     UNIT         ?PR?_WRITEDATA?LCD_DRIVER_SPLC780D
            CODE    3508H     006FH     UNIT         ?PR?_READ_TIME?PCF85063BTL
            CODE    3577H     0059H     UNIT         ?PR?LCD_INIT?LCD_DRIVER_SPLC780D
            CODE    35D0H     004AH     UNIT         ?PR?VONESTEPMOVE?BIPOLARMOTOR
            CODE    361AH     004AH     UNIT         ?PR?ACOS?ACOS
            CODE    3664H     0049H     UNIT         ?PR?_WRITE_VCNL4035X?VCNL4035
            CODE    36ADH     0044H     UNIT         ?C?LDIV
            CODE    36F1H     0040H     UNIT         ?PR?_COMMAND?LCD_DRIVER_SPLC780D
            CODE    3731H     0040H     UNIT         ?PR?_STEP_MOVE?BIPOLARMOTOR
            CODE    3771H     003BH     UNIT         ?PR?ASIN?ASIN
            CODE    37ACH     0033H     UNIT         ?PR?_SENDSTRING?UART1
            CODE    37DFH     002CH     UNIT         ?PR?I2C_RECEIVEBYTE?VCNL4035
            CODE    380BH     002BH     UNIT         ?PR?_WAIT_MS_I2C?VCNL4035
            CODE    3836H     0028H     UNIT         ?PR?_MOVE?BIPOLARMOTOR
            CODE    385EH     0024H     UNIT         ?PR?_WAIT_MS?LCD_DRIVER_SPLC780D
            CODE    3882H     0022H     UNIT         ?PR?_I2C_SENDBYTE?VCNL4035
            CODE    38A4H     0020H     UNIT         ?PR?_SPI_SENDBYTE?PCF85063BTL
            CODE    38C4H     0020H     UNIT         ?PR?SPI_RECEIVEBYTE?PCF85063BTL
            CODE    38E4H     001EH     UNIT         ?PR?_DELAY_MS?KEYPAD
            CODE    3902H     001EH     UNIT         ?PR?_WAIT_MS_IIC?VCNL4035
            CODE    3920H     001DH     UNIT         ?PR?_DISPLAYLCD?LCD_DRIVER_SPLC780D
            CODE    393DH     001BH     UNIT         ?PR?TM0_ISR?MAIN
            CODE    3958H     001BH     UNIT         ?PR?I2C_ACK?VCNL4035
            CODE    3973H     001BH     UNIT         ?PR?_BCDTODEC1?BIPOLARMOTOR
            CODE    398EH     0018H     UNIT         ?PR?_SPI_WRITETIME?PCF85063BTL
            CODE    39A6H     0017H     UNIT         ?PR?_ASCIITOBCD?UART1
            CODE    39BDH     0017H     UNIT         ?PR?I2C_INIT?VCNL4035
BL51 BANKED LINKER/LOCATER V6.22                                                      03/29/2019  11:07:55  PAGE 4


            CODE    39D4H     0015H     UNIT         ?PR?I2C_STOP?VCNL4035
            CODE    39E9H     0014H     UNIT         ?PR?_PCF85063BTL_DELAY?PCF85063BTL
            CODE    39FDH     0014H     UNIT         ?PR?_ISSPACE?ISSPACE
            CODE    3A11H     0013H     UNIT         ?PR?I2C_START?VCNL4035
            CODE    3A24H     0011H     UNIT         ?PR?_SPI_READTIME?PCF85063BTL
            CODE    3A35H     0011H     UNIT         ?PR?_BCDTODEC?PCF85063BTL
            CODE    3A46H     0011H     UNIT         ?PR?INITUART1?UART1
            CODE    3A57H     000FH     UNIT         ?PR?UC_NACK?VCNL4035
            CODE    3A66H     000FH     UNIT         ?PR?_ISDIGIT?ISDIGIT
            CODE    3A75H     000DH     UNIT         ?PR?SPI_INIT?PCF85063BTL
            CODE    3A82H     000CH     UNIT         ?PR?KEYPAD_IO_INIT?KEYPAD
            CODE    3A8EH     000CH     UNIT         ?PR?_ABS?ABS
            CODE    3A9AH     000AH     UNIT         ?PR?LCD_RETURN_HOME?LCD_DRIVER_SPLC780D
            CODE    3AA4H     000AH     UNIT         ?PR?LCD_CLEAR?LCD_DRIVER_SPLC780D
            CODE    3AAEH     0009H     UNIT         ?PR?_SENDUART1?MAIN
            CODE    3AB7H     0006H     UNIT         ?PR?UC_ACK?VCNL4035
            CODE    3ABDH     0006H     UNIT         ?PR?_DISPLAYLCD_VCNL4035?VCNL4035
            CODE    3AC3H     0005H     UNIT         ?PR?_UNIT?UART1
            CODE    3AC8H     0005H     UNIT         ?PR?_ASCII_LETTER?UART1
            CODE    3ACDH     0001H     UNIT         ?PR?WAIT?BIPOLARMOTOR



OVERLAY MAP OF MODULE:   .\Obj\GPIO_RTC_Test (MAIN)


SEGMENT                                            BIT_GROUP          XDATA_GROUP
  +--> CALLED SEGMENT                           START    LENGTH     START    LENGTH
-----------------------------------------------------------------------------------
?PR?UART?MAIN                                   -----    -----      -----    -----
  +--> ?PR?_ASCIITOBCD?UART1

?PR?_ASCIITOBCD?UART1                           -----    -----      -----    -----
  +--> ?PR?_ATOI?ATOI

?PR?_ATOI?ATOI                                  0020H.5  0000H.1    0642H    0005H
  +--> ?PR?_ISSPACE?ISSPACE
  +--> ?PR?_ISDIGIT?ISDIGIT

*** NEW ROOT ***************************************************

?C_C51STARTUP                                   -----    -----      -----    -----
  +--> ?PR?MAIN?MAIN
  +--> ?C_INITSEG

?PR?MAIN?MAIN                                   -----    -----      0647H    000AH
  +--> ?PR?LCD_INIT?LCD_DRIVER_SPLC780D
  +--> ?PR?SPI_INIT?PCF85063BTL
  +--> ?PR?KEYPAD_IO_INIT?KEYPAD
  +--> ?PR?_DELAY_MS?KEYPAD
  +--> ?PR?_DISPLAY_LINE?LCD_DRIVER_SPLC780D
  +--> ?PR?_WRITEDATA?LCD_DRIVER_SPLC780D
  +--> ?PR?KEY_PROCESS?KEYPAD
  +--> ?PR?_COMMAND?LCD_DRIVER_SPLC780D
  +--> ?PR?_DISPLAY_POS?MAIN
  +--> ?PR?_DISPLAYLCD?LCD_DRIVER_SPLC780D
  +--> ?PR?_STEP_MOVE?BIPOLARMOTOR
BL51 BANKED LINKER/LOCATER V6.22                                                      03/29/2019  11:07:55  PAGE 5


  +--> ?PR?LCD_RETURN_HOME?LCD_DRIVER_SPLC780D
  +--> ?PR?_READ_TIME?PCF85063BTL
  +--> ?PR?_DAY_OF_YEAR?PCF85063BTL
  +--> ?PR?_BCDTODEC1?BIPOLARMOTOR

?PR?LCD_INIT?LCD_DRIVER_SPLC780D                -----    -----      -----    -----
  +--> ?PR?_WAIT_MS?LCD_DRIVER_SPLC780D
  +--> ?PR?_COMMAND?LCD_DRIVER_SPLC780D

?PR?_COMMAND?LCD_DRIVER_SPLC780D                -----    -----      -----    -----
  +--> ?PR?_WAIT_MS?LCD_DRIVER_SPLC780D

?PR?_DISPLAY_LINE?LCD_DRIVER_SPLC780D           -----    -----      -----    -----
  +--> ?PR?_COMMAND?LCD_DRIVER_SPLC780D

?PR?_WRITEDATA?LCD_DRIVER_SPLC780D              -----    -----      065BH    0001H
  +--> ?PR?_WAIT_MS?LCD_DRIVER_SPLC780D

?PR?KEY_PROCESS?KEYPAD                          -----    -----      0651H    0006H
  +--> ?PR?KEY_SCAN?KEYPAD
  +--> ?PR?_SPI_WRITETIME?PCF85063BTL
  +--> ?PR?LCD_CLEAR?LCD_DRIVER_SPLC780D
  +--> ?PR?_COMMAND?LCD_DRIVER_SPLC780D
  +--> ?PR?_WRITEDATA?LCD_DRIVER_SPLC780D

?PR?KEY_SCAN?KEYPAD                             -----    -----      0657H    0003H

?PR?_SPI_WRITETIME?PCF85063BTL                  -----    -----      -----    -----
  +--> ?PR?_SPI_SENDBYTE?PCF85063BTL

?PR?_SPI_SENDBYTE?PCF85063BTL                   -----    -----      -----    -----
  +--> ?PR?_PCF85063BTL_DELAY?PCF85063BTL

?PR?LCD_CLEAR?LCD_DRIVER_SPLC780D               -----    -----      -----    -----
  +--> ?PR?_COMMAND?LCD_DRIVER_SPLC780D

?PR?_DISPLAY_POS?MAIN                           -----    -----      0651H    000AH
  +--> ?PR?_ABS?ABS
  +--> ?PR?_WRITEDATA?LCD_DRIVER_SPLC780D

?PR?_DISPLAYLCD?LCD_DRIVER_SPLC780D             -----    -----      0651H    0001H
  +--> ?PR?_WRITEDATA?LCD_DRIVER_SPLC780D

?PR?_STEP_MOVE?BIPOLARMOTOR                     0020H.6  0000H.1    0651H    0004H
  +--> ?PR?VONESTEPMOVE?BIPOLARMOTOR

?PR?VONESTEPMOVE?BIPOLARMOTOR                   0020H.7  0000H.1    -----    -----
  +--> ?PR?_DELAY_MS?KEYPAD

?PR?LCD_RETURN_HOME?LCD_DRIVER_SPLC780D         -----    -----      -----    -----
  +--> ?PR?_COMMAND?LCD_DRIVER_SPLC780D

?PR?_READ_TIME?PCF85063BTL                      -----    -----      0651H    000FH
  +--> ?PR?_SPI_READTIME?PCF85063BTL

?PR?_SPI_READTIME?PCF85063BTL                   -----    -----      -----    -----
  +--> ?PR?_SPI_SENDBYTE?PCF85063BTL
BL51 BANKED LINKER/LOCATER V6.22                                                      03/29/2019  11:07:55  PAGE 6


  +--> ?PR?SPI_RECEIVEBYTE?PCF85063BTL

?PR?SPI_RECEIVEBYTE?PCF85063BTL                 -----    -----      -----    -----
  +--> ?PR?_PCF85063BTL_DELAY?PCF85063BTL

?PR?_DAY_OF_YEAR?PCF85063BTL                    -----    -----      -----    -----
  +--> ?PR?_BCDTODEC?PCF85063BTL



UNRESOLVED EXTERNAL SYMBOLS:
   ?_CALIBRATION?BYTE
   ADC_INIT
   AUTO_MODE
   _CALIBRATION
   _WRITE_PI4IOE5V96248



SYMBOL TABLE OF MODULE:  .\Obj\GPIO_RTC_Test (MAIN)

  VALUE           TYPE          NAME
  ----------------------------------

  -------         MODULE        MAIN
  C:0000H         SYMBOL        _ICE_DUMMY_
  X:03CFH         PUBLIC        calib_value
  D:0080H         PUBLIC        P0
  D:00B2H         PUBLIC        P3M0
  D:0090H         PUBLIC        P1
  D:00B1H         PUBLIC        P3M1
  D:00A0H         PUBLIC        P2
  D:00B0H         PUBLIC        P3
  D:00C0H         PUBLIC        P4
  D:00C8H         PUBLIC        P5
  X:042FH         SYMBOL        PressedKey
  B:00A8H.7       PUBLIC        EA
  D:00E8H         PUBLIC        P6
  D:00F8H         PUBLIC        P7
  X:0433H         PUBLIC        RX_Data_Uart_Cnt
  C:290CH         PUBLIC        _calib_interpolate
  D:00A8H         PUBLIC        IE
  X:0435H         PUBLIC        calib_time
  D:00B8H         PUBLIC        IP
  B:0098H.0       PUBLIC        RI
  X:0495H         PUBLIC        months
  B:0098H.1       PUBLIC        TI
  C:31B9H         PUBLIC        Uart
  D:00D8H         PUBLIC        CCON
  C:1C7FH         PUBLIC        main
  X:0496H         PUBLIC        count
  D:0099H         PUBLIC        SBUF
  X:0498H         PUBLIC        days
  X:0499H         PUBLIC        lcd
  X:049BH         PUBLIC        hours
  D:0098H         PUBLIC        SCON
  D:0089H         PUBLIC        TMOD
BL51 BANKED LINKER/LOCATER V6.22                                                      03/29/2019  11:07:55  PAGE 7


  D:0088H         PUBLIC        TCON
  B:00A0H.3       PUBLIC        P23
  X:049CH         SYMBOL        KeyCount
  X:049EH         PUBLIC        mins
  X:049FH         PUBLIC        Rec_data_hour
  X:04A2H         PUBLIC        Rec_data_min
  D:008EH         PUBLIC        AUXR
  C:393DH         PUBLIC        tm0_isr
  B:0021H.2       PUBLIC        busy
  D:00E0H         PUBLIC        ACC
  B:00A8H.1       PUBLIC        ET0
  D:008CH         PUBLIC        TH0
  X:04A5H         PUBLIC        hour_count
  D:008AH         PUBLIC        TL0
  X:04A6H         PUBLIC        min_count
  B:0088H.4       PUBLIC        TR0
  X:04A7H         SYMBOL        KeyNum
  X:04A8H         SYMBOL        KeyNum_Old
  X:04A9H         PUBLIC        current_position
  X:04ADH         PUBLIC        hours1
  X:04AEH         PUBLIC        hours2
  C:32EEH         PUBLIC        _Display_Prox
  X:04AFH         PUBLIC        mins1
  X:04B0H         PUBLIC        mins2
  C:2757H         PUBLIC        _Display_Pos
  X:04B1H         PUBLIC        seconds
  X:04B2H         PUBLIC        st_time
  D:00D0H         PUBLIC        PSW
  C:3AAEH         PUBLIC        _SendUART1
  -------         PROC          TM0_ISR
  C:393DH         LINE#         85
  C:3943H         LINE#         88
  C:3951H         LINE#         132
  -------         ENDPROC       TM0_ISR
  -------         PROC          MAIN
  -------         DO            
  X:0647H         SYMBOL        prox_data
  X:03C7H         SYMBOL        KeyCount
  X:03C9H         SYMBOL        KeyNum_Old
  X:03CAH         SYMBOL        KeyNum
  X:03CBH         SYMBOL        PressedKey
  X:0649H         SYMBOL        prox_flag
  X:064AH         SYMBOL        calib_day
  X:064CH         SYMBOL        numStr
  -------         ENDDO         
  C:1C7FH         LINE#         134
  C:1C7FH         LINE#         135
  C:1C7FH         LINE#         140
  C:1C85H         LINE#         142
  C:1C8AH         LINE#         146
  C:1C8CH         LINE#         147
  C:1C8EH         LINE#         148
  C:1C90H         LINE#         149
  C:1C92H         LINE#         151
  C:1C98H         LINE#         161
  C:1C9AH         LINE#         162
  C:1C9DH         LINE#         163
BL51 BANKED LINKER/LOCATER V6.22                                                      03/29/2019  11:07:55  PAGE 8


  C:1CA0H         LINE#         164
  C:1CA3H         LINE#         165
  C:1CA6H         LINE#         166
  C:1CA9H         LINE#         169
  C:1CACH         LINE#         171
  C:1CAFH         LINE#         172
  C:1CB2H         LINE#         173
  C:1CB5H         LINE#         174
  C:1CB7H         LINE#         175
  C:1CB9H         LINE#         176
  C:1CBBH         LINE#         178
  C:1CBDH         LINE#         180
  C:1CC4H         LINE#         182
  C:1CCBH         LINE#         186
  C:1CD2H         LINE#         187
  C:1CD7H         LINE#         188
  C:1CDCH         LINE#         189
  C:1CE1H         LINE#         190
  C:1CE6H         LINE#         191
  C:1CEBH         LINE#         194
  C:1CEBH         LINE#         195
  C:1CEBH         LINE#         196
  C:1CEEH         LINE#         199
  C:1CEEH         LINE#         202
  C:1CF3H         LINE#         203
  C:1CF8H         LINE#         205
  C:1CFDH         LINE#         206
  C:1D02H         LINE#         207
  C:1D07H         LINE#         208
  C:1D0CH         LINE#         210
  C:1D1DH         LINE#         212
  C:1D24H         LINE#         213
  C:1D2CH         LINE#         214
  C:1D31H         LINE#         215
  C:1D39H         LINE#         216
  C:1D3EH         LINE#         217
  C:1D48H         LINE#         218
  C:1D4DH         LINE#         219
  C:1D55H         LINE#         221
  C:1D5DH         LINE#         222
  C:1D62H         LINE#         223
  C:1D6CH         LINE#         224
  C:1D6CH         LINE#         225
  C:1D6EH         LINE#         226
  C:1D70H         LINE#         227
  C:1D7AH         LINE#         228
  C:1D7AH         LINE#         229
  C:1D7FH         LINE#         230
  C:1D7FH         LINE#         242
  C:1D8CH         LINE#         243
  C:1D8CH         LINE#         244
  C:1D96H         LINE#         245
  C:1DADH         LINE#         246
  C:1DADH         LINE#         247
  C:1DAFH         LINE#         248
  C:1DB1H         LINE#         250
  C:1DB1H         LINE#         251
BL51 BANKED LINKER/LOCATER V6.22                                                      03/29/2019  11:07:55  PAGE 9


  C:1DBCH         LINE#         252
  C:1DBCH         LINE#         253
  C:1DC1H         LINE#         254
  C:1DC1H         LINE#         255
  C:1DCEH         LINE#         256
  C:1DCEH         LINE#         259
  C:1DD8H         LINE#         260
  C:1DEFH         LINE#         261
  C:1DEFH         LINE#         262
  C:1DF1H         LINE#         263
  C:1DF3H         LINE#         265
  C:1DF3H         LINE#         266
  C:1DFEH         LINE#         267
  C:1DFEH         LINE#         268
  C:1E03H         LINE#         269
  C:1E05H         LINE#         270
  C:1E05H         LINE#         279
  C:1E27H         LINE#         280
  C:1E27H         LINE#         281
  C:1E31H         LINE#         282
  C:1E37H         LINE#         283
  C:1E39H         LINE#         284
  C:1E3BH         LINE#         285
  C:1E3DH         LINE#         286
  C:1E3DH         LINE#         287
  C:1E40H         LINE#         289
  C:1E40H         LINE#         290
  C:1E46H         LINE#         291
  C:1E4EH         LINE#         292
  C:1E54H         LINE#         293
  C:1E5CH         LINE#         294
  C:1E97H         LINE#         298
  C:1EA1H         LINE#         299
  C:1EA1H         LINE#         301
  C:1EC8H         LINE#         302
  C:1EEFH         LINE#         303
  C:1EEFH         LINE#         306
  C:1EEFH         LINE#         308
  C:1EEFH         LINE#         309
  C:1F12H         LINE#         310
  C:1F12H         LINE#         311
  C:1F14H         LINE#         312
  C:1F1BH         LINE#         313
  C:1F1BH         LINE#         317
  C:1F45H         LINE#         318
  C:1F45H         LINE#         319
  C:1F9FH         LINE#         321
  C:1FF0H         LINE#         322
  C:1FFEH         LINE#         323
  C:1FFEH         LINE#         324
  C:2013H         LINE#         325
  C:2015H         LINE#         327
  C:2015H         LINE#         329
  C:2023H         LINE#         330
  C:2023H         LINE#         347
  -------         ENDPROC       MAIN
  -------         PROC          UART
BL51 BANKED LINKER/LOCATER V6.22                                                      03/29/2019  11:07:55  PAGE 10


  C:31B9H         LINE#         354
  C:31C6H         LINE#         356
  C:31C9H         LINE#         357
  C:31C9H         LINE#         358
  C:31D7H         LINE#         359
  C:31D9H         LINE#         360
  C:31EBH         LINE#         361
  C:31FAH         LINE#         362
  C:3205H         LINE#         363
  C:3205H         LINE#         366
  C:3212H         LINE#         367
  C:3218H         LINE#         368
  C:3218H         LINE#         369
  C:321EH         LINE#         370
  C:322CH         LINE#         371
  C:323AH         LINE#         372
  C:3242H         LINE#         377
  C:3242H         LINE#         378
  C:3242H         LINE#         381
  C:3242H         LINE#         382
  C:3245H         LINE#         383
  C:3245H         LINE#         384
  C:3247H         LINE#         385
  C:3249H         LINE#         386
  C:3249H         LINE#         387
  -------         ENDPROC       UART
  -------         PROC          _CALIB_INTERPOLATE
  X:0624H         SYMBOL        hours
  X:0628H         SYMBOL        mins
  -------         DO            
  X:062CH         SYMBOL        p_calib1
  X:0634H         SYMBOL        p_calib2
  X:063CH         SYMBOL        i
  X:063EH         SYMBOL        current_time
  -------         ENDDO         
  C:290CH         LINE#         390
  C:2912H         LINE#         391
  C:2912H         LINE#         395
  C:2969H         LINE#         397
  C:298FH         LINE#         398
  C:298FH         LINE#         399
  C:2A01H         LINE#         400
  C:2A01H         LINE#         401
  C:2A2EH         LINE#         402
  C:2A49H         LINE#         404
  C:2A76H         LINE#         405
  C:2A91H         LINE#         407
  C:2A93H         LINE#         408
  C:2A93H         LINE#         409
  C:2AA7H         LINE#         410
  C:2AACH         LINE#         412
  -------         ENDPROC       _CALIB_INTERPOLATE
  -------         PROC          _SENDUART1
  D:0007H         SYMBOL        dat
  C:3AAEH         LINE#         415
  C:3AAEH         LINE#         416
  C:3AAEH         LINE#         417
BL51 BANKED LINKER/LOCATER V6.22                                                      03/29/2019  11:07:55  PAGE 11


  C:3AB1H         LINE#         418
  C:3AB3H         LINE#         419
  C:3AB4H         LINE#         420
  C:3AB6H         LINE#         421
  -------         ENDPROC       _SENDUART1
  -------         PROC          _DISPLAY_PROX
  D:0002H         SYMBOL        dat
  -------         DO            
  X:068DH         SYMBOL        unit
  X:068EH         SYMBOL        ten
  X:068FH         SYMBOL        hundred
  X:0690H         SYMBOL        thousand
  -------         ENDDO         
  C:32EEH         LINE#         424
  C:32F2H         LINE#         425
  C:32F2H         LINE#         427
  C:32FEH         LINE#         428
  C:330EH         LINE#         429
  C:332AH         LINE#         430
  C:335AH         LINE#         431
  C:3364H         LINE#         432
  C:336EH         LINE#         433
  C:3378H         LINE#         434
  C:3382H         LINE#         436
  -------         ENDPROC       _DISPLAY_PROX
  -------         PROC          _DISPLAY_POS
  X:0651H         SYMBOL        sign_dat
  -------         DO            
  X:0655H         SYMBOL        unit
  X:0656H         SYMBOL        ten
  X:0657H         SYMBOL        hundred
  D:0003H         SYMBOL        thousand
  X:0658H         SYMBOL        after_dot
  X:0659H         SYMBOL        dat
  -------         ENDDO         
  C:2757H         LINE#         439
  C:275DH         LINE#         440
  C:275DH         LINE#         444
  C:2779H         LINE#         445
  C:2793H         LINE#         446
  C:27B7H         LINE#         448
  C:2801H         LINE#         450
  C:2818H         LINE#         451
  C:2825H         LINE#         452
  C:2847H         LINE#         453
  C:287CH         LINE#         454
  C:2894H         LINE#         455
  C:2894H         LINE#         457
  C:289EH         LINE#         458
  C:28A8H         LINE#         459
  C:28B2H         LINE#         460
  C:28B7H         LINE#         461
  C:28C1H         LINE#         462
  C:28C6H         LINE#         463
  C:28CBH         LINE#         464
  C:28CDH         LINE#         465
  C:28CFH         LINE#         467
BL51 BANKED LINKER/LOCATER V6.22                                                      03/29/2019  11:07:55  PAGE 12


  C:28CFH         LINE#         469
  C:28D4H         LINE#         470
  C:28DEH         LINE#         471
  C:28E8H         LINE#         472
  C:28F2H         LINE#         473
  C:28F7H         LINE#         474
  C:2901H         LINE#         475
  C:2906H         LINE#         476
  C:290BH         LINE#         478
  C:290BH         LINE#         480
  -------         ENDPROC       _DISPLAY_POS
  -------         ENDMOD        MAIN

  -------         MODULE        PCF85063BTL
  C:0000H         SYMBOL        _ICE_DUMMY_
  D:0096H         PUBLIC        P2M0
  D:0080H         PUBLIC        P0
  D:0095H         PUBLIC        P2M1
  D:0090H         PUBLIC        P1
  D:00A0H         PUBLIC        P2
  D:00B0H         PUBLIC        P3
  D:00C0H         PUBLIC        P4
  D:00C8H         PUBLIC        P5
  D:00E8H         PUBLIC        P6
  B:00A0H.1       PUBLIC        PCF85063BTL_SDI
  D:00F8H         PUBLIC        P7
  B:00A0H.2       PUBLIC        PCF85063BTL_SCK
  B:00A0H.1       PUBLIC        PCF85063BTL_SDO
  D:00A8H         PUBLIC        IE
  C:3508H         PUBLIC        _Read_time
  C:39EFH         PUBLIC        _PCF85063BTL_Delay
  D:00B8H         PUBLIC        IP
  D:00D8H         PUBLIC        CCON
  C:340FH         PUBLIC        _Day_Of_Year
  C:38C4H         PUBLIC        SPI_ReceiveByte
  D:0098H         PUBLIC        SCON
  D:0088H         PUBLIC        TCON
  C:3A35H         PUBLIC        _BCDtoDec
  B:00A0H.0       PUBLIC        PCF85063BTL_CS
  C:3A24H         PUBLIC        _SPI_ReadTime
  C:3A75H         PUBLIC        SPI_Init
  C:398EH         PUBLIC        _SPI_WriteTime
  C:38A4H         PUBLIC        _SPI_SendByte
  D:00D0H         PUBLIC        PSW
  C:39EBH         SYMBOL        L?0047
  -------         PROC          L?0046
  -------         ENDPROC       L?0046
  C:39EBH         SYMBOL        L?0047
  -------         PROC          _PCF85063BTL_DELAY
  D:0006H         SYMBOL        us
  C:39EFH         LINE#         8
  C:39EFH         LINE#         9
  C:39EFH         LINE#         10
  C:39F9H         LINE#         11
  C:39F9H         LINE#         12
  C:39FAH         LINE#         13
  C:39FCH         LINE#         14
BL51 BANKED LINKER/LOCATER V6.22                                                      03/29/2019  11:07:55  PAGE 13


  -------         ENDPROC       _PCF85063BTL_DELAY
  -------         PROC          _SPI_SENDBYTE
  D:0005H         SYMBOL        dat
  -------         DO            
  D:0003H         SYMBOL        i
  -------         ENDDO         
  C:38A4H         LINE#         17
  C:38A6H         LINE#         18
  C:38A6H         LINE#         20
  C:38A8H         LINE#         21
  C:38A8H         LINE#         22
  C:38AAH         LINE#         23
  C:38AEH         LINE#         24
  C:38AEH         LINE#         25
  C:38B0H         LINE#         26
  C:38B2H         LINE#         28
  C:38B2H         LINE#         29
  C:38B4H         LINE#         30
  C:38B4H         LINE#         31
  C:38B7H         LINE#         32
  C:38B7H         LINE#         33
  C:38BAH         LINE#         34
  C:38BEH         LINE#         35
  C:38C3H         LINE#         36
  -------         ENDPROC       _SPI_SENDBYTE
  -------         PROC          SPI_RECEIVEBYTE
  -------         DO            
  D:0003H         SYMBOL        i
  D:0005H         SYMBOL        dat
  -------         ENDDO         
  C:38C4H         LINE#         39
  C:38C4H         LINE#         40
  C:38C4H         LINE#         42
  C:38C6H         LINE#         44
  C:38C8H         LINE#         45
  C:38C9H         LINE#         46
  C:38C9H         LINE#         47
  C:38CDH         LINE#         48
  C:38CFH         LINE#         49
  C:38D2H         LINE#         51
  C:38D5H         LINE#         52
  C:38D5H         LINE#         53
  C:38D9H         LINE#         54
  C:38D9H         LINE#         55
  C:38D9H         LINE#         56
  C:38DCH         LINE#         57
  C:38E1H         LINE#         58
  C:38E3H         LINE#         59
  -------         ENDPROC       SPI_RECEIVEBYTE
  -------         PROC          _SPI_READTIME
  D:0007H         SYMBOL        addr
  -------         DO            
  D:0006H         SYMBOL        dat
  -------         ENDDO         
  C:3A24H         LINE#         61
  C:3A24H         LINE#         62
  C:3A24H         LINE#         64
BL51 BANKED LINKER/LOCATER V6.22                                                      03/29/2019  11:07:55  PAGE 14


  C:3A26H         LINE#         65
  C:3A28H         LINE#         66
  C:3A2FH         LINE#         67
  C:3A32H         LINE#         68
  C:3A34H         LINE#         69
  C:3A34H         LINE#         70
  -------         ENDPROC       _SPI_READTIME
  -------         PROC          _SPI_WRITETIME
  D:0002H         SYMBOL        val
  D:0005H         SYMBOL        addr
  C:398EH         LINE#         71
  C:3990H         LINE#         72
  C:3990H         LINE#         74
  C:3992H         LINE#         75
  C:3999H         LINE#         76
  C:399EH         LINE#         77
  C:39A3H         LINE#         78
  C:39A5H         LINE#         79
  -------         ENDPROC       _SPI_WRITETIME
  -------         PROC          SPI_INIT
  C:3A75H         LINE#         83
  C:3A75H         LINE#         84
  C:3A75H         LINE#         89
  C:3A78H         LINE#         90
  C:3A7BH         LINE#         91
  C:3A7DH         LINE#         92
  C:3A7FH         LINE#         93
  C:3A81H         LINE#         94
  -------         ENDPROC       SPI_INIT
  -------         PROC          _READ_TIME
  X:0651H         SYMBOL        months
  X:0654H         SYMBOL        days
  X:0657H         SYMBOL        hours
  X:065AH         SYMBOL        mins
  X:065DH         SYMBOL        seconds
  C:3508H         LINE#         96
  C:3513H         LINE#         97
  C:3513H         LINE#         99
  C:3527H         LINE#         101
  C:353BH         LINE#         103
  C:354FH         LINE#         108
  C:3563H         LINE#         113
  -------         ENDPROC       _READ_TIME
  -------         PROC          _BCDTODEC
  D:0007H         SYMBOL        bcd
  -------         DO            
  D:0006H         SYMBOL        hi
  D:0007H         SYMBOL        lo
  -------         ENDDO         
  C:3A35H         LINE#         119
  C:3A35H         LINE#         120
  C:3A35H         LINE#         122
  C:3A3AH         LINE#         123
  C:3A3EH         LINE#         124
  C:3A45H         LINE#         125
  -------         ENDPROC       _BCDTODEC
  -------         PROC          _DAY_OF_YEAR
BL51 BANKED LINKER/LOCATER V6.22                                                      03/29/2019  11:07:55  PAGE 15


  D:0007H         SYMBOL        months_bcd
  D:0005H         SYMBOL        days_bcd
  -------         DO            
  D:0004H         SYMBOL        months
  D:0007H         SYMBOL        days
  -------         ENDDO         
  C:340FH         LINE#         126
  C:340FH         LINE#         127
  C:340FH         LINE#         130
  C:3414H         LINE#         132
  C:3419H         LINE#         134
  C:3452H         LINE#         135
  C:3452H         LINE#         136
  C:3452H         LINE#         137
  C:3455H         LINE#         138
  C:3455H         LINE#         139
  C:3455H         LINE#         140
  C:345AH         LINE#         141
  C:345AH         LINE#         142
  C:345AH         LINE#         143
  C:345FH         LINE#         144
  C:345FH         LINE#         145
  C:345FH         LINE#         146
  C:3464H         LINE#         147
  C:3464H         LINE#         148
  C:3464H         LINE#         149
  C:3469H         LINE#         150
  C:3469H         LINE#         151
  C:3469H         LINE#         152
  C:346EH         LINE#         153
  C:346EH         LINE#         154
  C:346EH         LINE#         155
  C:3473H         LINE#         156
  C:3473H         LINE#         157
  C:3473H         LINE#         158
  C:3478H         LINE#         159
  C:3478H         LINE#         160
  C:3478H         LINE#         161
  C:3480H         LINE#         162
  C:3480H         LINE#         163
  C:3480H         LINE#         164
  C:3485H         LINE#         165
  C:3485H         LINE#         166
  C:3485H         LINE#         167
  C:348AH         LINE#         168
  C:348AH         LINE#         169
  C:348AH         LINE#         170
  C:3492H         LINE#         171
  C:3492H         LINE#         172
  C:3492H         LINE#         173
  -------         ENDPROC       _DAY_OF_YEAR
  -------         ENDMOD        PCF85063BTL

  -------         MODULE        UART1
  C:0000H         SYMBOL        _ICE_DUMMY_
  D:0080H         PUBLIC        P0
  D:0090H         PUBLIC        P1
BL51 BANKED LINKER/LOCATER V6.22                                                      03/29/2019  11:07:55  PAGE 16


  D:00A0H         PUBLIC        P2
  D:00B0H         PUBLIC        P3
  D:00C0H         PUBLIC        P4
  D:00C8H         PUBLIC        P5
  B:00A8H.7       PUBLIC        EA
  D:00E8H         PUBLIC        P6
  D:00F8H         PUBLIC        P7
  C:37ACH         PUBLIC        _SendString
  D:00A8H         PUBLIC        IE
  B:00A8H.4       PUBLIC        ES
  D:00B8H         PUBLIC        IP
  C:39A6H         PUBLIC        _ASCIItoBCD
  D:00D8H         PUBLIC        CCON
  C:3A46H         PUBLIC        initUART1
  D:0098H         PUBLIC        SCON
  D:0088H         PUBLIC        TCON
  C:0009H         PUBLIC        _DectoBCD
  C:3AC8H         PUBLIC        _ASCII_Letter
  D:008EH         PUBLIC        AUXR
  C:3AC3H         PUBLIC        _unit
  C:0003H         PUBLIC        _ten
  D:00D6H         PUBLIC        T2H
  D:00D7H         PUBLIC        T2L
  D:00D0H         PUBLIC        PSW
  -------         PROC          INITUART1
  C:3A46H         LINE#         21
  C:3A46H         LINE#         22
  C:3A46H         LINE#         23
  C:3A49H         LINE#         24
  C:3A4CH         LINE#         25
  C:3A4FH         LINE#         26
  C:3A52H         LINE#         27
  C:3A54H         LINE#         28
  C:3A56H         LINE#         30
  -------         ENDPROC       INITUART1
  -------         PROC          _SENDSTRING
  X:06A1H         SYMBOL        s
  C:37ACH         LINE#         35
  C:37B7H         LINE#         36
  C:37B7H         LINE#         37
  C:37C7H         LINE#         38
  C:37C7H         LINE#         39
  C:37DCH         LINE#         40
  C:37DEH         LINE#         41
  -------         ENDPROC       _SENDSTRING
  -------         PROC          _TEN
  D:0007H         SYMBOL        BCD
  C:0003H         LINE#         43
  C:0003H         LINE#         44
  C:0003H         LINE#         45
  C:0008H         LINE#         46
  -------         ENDPROC       _TEN
  -------         PROC          _UNIT
  D:0007H         SYMBOL        BCD
  C:3AC3H         LINE#         47
  C:3AC3H         LINE#         48
  C:3AC3H         LINE#         52
BL51 BANKED LINKER/LOCATER V6.22                                                      03/29/2019  11:07:55  PAGE 17


  C:3AC7H         LINE#         53
  -------         ENDPROC       _UNIT
  -------         PROC          _DECTOBCD
  D:0007H         SYMBOL        dec
  C:0009H         LINE#         54
  C:0009H         LINE#         55
  C:0009H         LINE#         57
  C:0009H         LINE#         58
  -------         ENDPROC       _DECTOBCD
  -------         PROC          _ASCII_LETTER
  D:0007H         SYMBOL        dat
  C:3AC8H         LINE#         60
  C:3AC8H         LINE#         61
  C:3AC8H         LINE#         63
  C:3ACCH         LINE#         64
  -------         ENDPROC       _ASCII_LETTER
  -------         PROC          _ASCIITOBCD
  D:0001H         SYMBOL        ascii
  -------         DO            
  D:0007H         SYMBOL        dec_val
  D:0006H         SYMBOL        ten
  D:0007H         SYMBOL        unit
  -------         ENDDO         
  C:39A6H         LINE#         66
  C:39A6H         LINE#         67
  C:39A6H         LINE#         69
  C:39A9H         LINE#         70
  C:39AFH         LINE#         71
  C:39B6H         LINE#         72
  C:39BCH         LINE#         74
  -------         ENDPROC       _ASCIITOBCD
  -------         ENDMOD        UART1

  -------         MODULE        LCD_DRIVER_SPLC780D
  C:0000H         SYMBOL        _ICE_DUMMY_
  D:0092H         PUBLIC        P1M0
  D:0091H         PUBLIC        P1M1
  D:0080H         PUBLIC        P0
  D:0090H         PUBLIC        P1
  D:00A0H         PUBLIC        P2
  D:00B0H         PUBLIC        P3
  D:00C0H         PUBLIC        P4
  D:00C8H         PUBLIC        P5
  D:00E8H         PUBLIC        P6
  D:00F8H         PUBLIC        P7
  C:3493H         PUBLIC        _WriteData
  D:00A8H         PUBLIC        IE
  D:00B8H         PUBLIC        IP
  D:00D8H         PUBLIC        CCON
  B:00B0H.4       PUBLIC        LCD_D4
  B:00B0H.5       PUBLIC        LCD_D5
  B:00B0H.6       PUBLIC        LCD_D6
  C:3920H         PUBLIC        _DisplayLCD
  B:00B0H.7       PUBLIC        LCD_D7
  D:0098H         PUBLIC        SCON
  D:0088H         PUBLIC        TCON
  C:3AA4H         PUBLIC        LCD_clear
BL51 BANKED LINKER/LOCATER V6.22                                                      03/29/2019  11:07:55  PAGE 18


  C:36F1H         PUBLIC        _Command
  C:000EH         PUBLIC        _Display_Line
  C:3577H         PUBLIC        LCD_Init
  C:3864H         PUBLIC        _Wait_ms
  B:00C0H.0       PUBLIC        LCD_RS
  B:00B0H.2       PUBLIC        LCD_RW
  C:3A9AH         PUBLIC        LCD_return_home
  B:00B0H.3       PUBLIC        LCD_E
  D:00D0H         PUBLIC        PSW
  -------         PROC          LCD_INIT
  C:3577H         LINE#         9
  C:3577H         LINE#         10
  C:3577H         LINE#         11
  C:357AH         LINE#         12
  C:357DH         LINE#         14
  C:3583H         LINE#         15
  C:3588H         LINE#         17
  C:358FH         LINE#         18
  C:3594H         LINE#         20
  C:3597H         LINE#         21
  C:359CH         LINE#         23
  C:359FH         LINE#         24
  C:35A4H         LINE#         26
  C:35ABH         LINE#         29
  C:35B0H         LINE#         30
  C:35B5H         LINE#         32
  C:35BAH         LINE#         33
  C:35BFH         LINE#         35
  C:35C4H         LINE#         36
  C:35C9H         LINE#         37
  -------         ENDPROC       LCD_INIT
  -------         PROC          _WRITEDATA
  X:065BH         SYMBOL        dat
  C:3493H         LINE#         40
  C:3498H         LINE#         41
  C:3498H         LINE#         46
  C:349AH         LINE#         47
  C:349CH         LINE#         49
  C:34AAH         LINE#         50
  C:34B6H         LINE#         51
  C:34C2H         LINE#         52
  C:34CCH         LINE#         53
  C:34CEH         LINE#         54
  C:34D5H         LINE#         55
  C:34D7H         LINE#         57
  C:34E7H         LINE#         58
  C:34F2H         LINE#         59
  C:34FCH         LINE#         60
  C:3500H         LINE#         62
  C:3500H         LINE#         63
  C:3503H         LINE#         64
  C:3505H         LINE#         65
  C:3507H         LINE#         67
  -------         ENDPROC       _WRITEDATA
  -------         PROC          _COMMAND
  D:0007H         SYMBOL        dat
  C:36F1H         LINE#         69
BL51 BANKED LINKER/LOCATER V6.22                                                      03/29/2019  11:07:55  PAGE 19


  C:36F1H         LINE#         70
  C:36F1H         LINE#         71
  C:36F3H         LINE#         72
  C:36F5H         LINE#         74
  C:36FFH         LINE#         75
  C:3703H         LINE#         77
  C:3705H         LINE#         78
  C:370EH         LINE#         79
  C:3712H         LINE#         81
  C:3714H         LINE#         82
  C:371BH         LINE#         83
  C:371FH         LINE#         85
  C:3721H         LINE#         86
  C:3725H         LINE#         87
  C:3729H         LINE#         89
  C:372BH         LINE#         90
  C:372BH         LINE#         91
  C:372EH         LINE#         92
  C:3730H         LINE#         93
  -------         ENDPROC       _COMMAND
  C:3860H         SYMBOL        L?0028
  -------         PROC          L?0027
  -------         ENDPROC       L?0027
  C:3860H         SYMBOL        L?0028
  -------         PROC          _WAIT_MS
  D:0006H         SYMBOL        ms
  -------         DO            
  D:0004H         SYMBOL        De_Cnt
  -------         ENDDO         
  C:3864H         LINE#         95
  C:3864H         LINE#         96
  C:3864H         LINE#         98
  C:386EH         LINE#         99
  C:386EH         LINE#         100
  C:3881H         LINE#         101
  C:3881H         LINE#         102
  -------         ENDPROC       _WAIT_MS
  -------         PROC          _DISPLAYLCD
  D:0007H         SYMBOL        BCD
  -------         DO            
  D:0006H         SYMBOL        first_digit
  X:0651H         SYMBOL        second_digit
  -------         ENDDO         
  C:3920H         LINE#         103
  C:3920H         LINE#         104
  C:3920H         LINE#         106
  C:3927H         LINE#         107
  C:3930H         LINE#         109
  C:3935H         LINE#         111
  -------         ENDPROC       _DISPLAYLCD
  -------         PROC          LCD_RETURN_HOME
  C:3A9AH         LINE#         115
  C:3A9AH         LINE#         116
  C:3A9AH         LINE#         117
  C:3A9FH         LINE#         118
  -------         ENDPROC       LCD_RETURN_HOME
  -------         PROC          LCD_CLEAR
BL51 BANKED LINKER/LOCATER V6.22                                                      03/29/2019  11:07:55  PAGE 20


  C:3AA4H         LINE#         121
  C:3AA4H         LINE#         122
  C:3AA4H         LINE#         123
  C:3AA9H         LINE#         124
  -------         ENDPROC       LCD_CLEAR
  -------         PROC          _DISPLAY_LINE
  D:0006H         SYMBOL        line
  C:000EH         LINE#         128
  C:000EH         LINE#         129
  C:000EH         LINE#         130
  C:0014H         LINE#         131
  C:0014H         LINE#         132
  C:0016H         LINE#         133
  C:0016H         LINE#         134
  C:0018H         LINE#         136
  C:0018H         LINE#         137
  C:001DH         LINE#         138
  C:0022H         LINE#         139
  C:0022H         LINE#         140
  -------         ENDPROC       _DISPLAY_LINE
  -------         ENDMOD        LCD_DRIVER_SPLC780D

  -------         MODULE        KEYPAD
  C:0000H         SYMBOL        _ICE_DUMMY_
  D:0093H         PUBLIC        P0M1
  D:0080H         PUBLIC        P0
  D:0090H         PUBLIC        P1
  D:00A0H         PUBLIC        P2
  D:00B0H         PUBLIC        P3
  D:00C0H         PUBLIC        P4
  D:00C8H         PUBLIC        P5
  B:0020H.0       PUBLIC        calib_mode
  D:00E8H         PUBLIC        P6
  D:00F8H         PUBLIC        P7
  D:00A8H         PUBLIC        IE
  C:2AADH         PUBLIC        Key_Scan
  D:00B8H         PUBLIC        IP
  D:00D8H         PUBLIC        CCON
  C:3A82H         PUBLIC        KeyPad_IO_Init
  C:38E4H         PUBLIC        _Delay_ms
  D:0098H         PUBLIC        SCON
  D:0088H         PUBLIC        TCON
  B:0020H.1       PUBLIC        small_move
  B:0020H.2       PUBLIC        move
  B:0020H.3       PUBLIC        direction
  B:0020H.4       PUBLIC        auto_move
  C:22E6H         PUBLIC        Key_Process
  D:00D0H         PUBLIC        PSW
  D:0094H         PUBLIC        P0M0
  -------         PROC          _DELAY_MS
  D:0006H         SYMBOL        ms
  -------         DO            
  D:0004H         SYMBOL        De_Cnt
  -------         ENDDO         
  C:38E4H         LINE#         19
  C:38E4H         LINE#         20
  C:38E4H         LINE#         22
BL51 BANKED LINKER/LOCATER V6.22                                                      03/29/2019  11:07:55  PAGE 21


  C:38EEH         LINE#         23
  C:38EEH         LINE#         24
  C:3901H         LINE#         25
  C:3901H         LINE#         26
  -------         ENDPROC       _DELAY_MS
  -------         PROC          KEY_SCAN
  -------         DO            
  X:0657H         SYMBOL        KeyTemp1
  X:0658H         SYMBOL        KeyTemp2
  X:0659H         SYMBOL        KeyValue
  -------         ENDDO         
  C:2AADH         LINE#         27
  C:2AADH         LINE#         28
  C:2AADH         LINE#         33
  C:2AB0H         LINE#         36
  C:2AB3H         LINE#         38
  C:2ABBH         LINE#         39
  C:2AC2H         LINE#         40
  C:2AC2H         LINE#         42
  C:2AC7H         LINE#         43
  C:2ACEH         LINE#         44
  C:2ACEH         LINE#         47
  C:2AD1H         LINE#         48
  C:2AD4H         LINE#         49
  C:2AD9H         LINE#         50
  C:2ADDH         LINE#         51
  C:2ADDH         LINE#         52
  C:2AE5H         LINE#         53
  C:2AE5H         LINE#         54
  C:2AE8H         LINE#         55
  C:2AF0H         LINE#         56
  C:2AF2H         LINE#         58
  C:2B06H         LINE#         59
  C:2B06H         LINE#         60
  C:2B06H         LINE#         61
  C:2B06H         LINE#         62
  C:2B0CH         LINE#         64
  C:2B0EH         LINE#         65
  C:2B0EH         LINE#         66
  C:2B0EH         LINE#         67
  C:2B14H         LINE#         69
  C:2B16H         LINE#         70
  C:2B16H         LINE#         71
  C:2B16H         LINE#         72
  C:2B1CH         LINE#         74
  C:2B1EH         LINE#         75
  C:2B1EH         LINE#         76
  C:2B1EH         LINE#         77
  C:2B24H         LINE#         79
  C:2B24H         LINE#         80
  C:2B24H         LINE#         81
  C:2B24H         LINE#         84
  C:2B27H         LINE#         85
  C:2B2AH         LINE#         86
  C:2B32H         LINE#         87
  C:2B36H         LINE#         88
  C:2B36H         LINE#         89
BL51 BANKED LINKER/LOCATER V6.22                                                      03/29/2019  11:07:55  PAGE 22


  C:2B3EH         LINE#         90
  C:2B3EH         LINE#         91
  C:2B41H         LINE#         92
  C:2B49H         LINE#         93
  C:2B4BH         LINE#         94
  C:2B5FH         LINE#         95
  C:2B5FH         LINE#         96
  C:2B5FH         LINE#         97
  C:2B5FH         LINE#         98
  C:2B65H         LINE#         100
  C:2B67H         LINE#         101
  C:2B67H         LINE#         102
  C:2B67H         LINE#         103
  C:2B6DH         LINE#         105
  C:2B6FH         LINE#         106
  C:2B6FH         LINE#         107
  C:2B6FH         LINE#         108
  C:2B75H         LINE#         110
  C:2B77H         LINE#         111
  C:2B77H         LINE#         112
  C:2B77H         LINE#         113
  C:2B7CH         LINE#         115
  C:2B7CH         LINE#         116
  C:2B7CH         LINE#         117
  C:2B7CH         LINE#         120
  C:2B7FH         LINE#         121
  C:2B82H         LINE#         122
  C:2B8AH         LINE#         123
  C:2B8EH         LINE#         124
  C:2B8EH         LINE#         125
  C:2B96H         LINE#         126
  C:2B96H         LINE#         127
  C:2B99H         LINE#         128
  C:2BA1H         LINE#         129
  C:2BA3H         LINE#         130
  C:2BB7H         LINE#         131
  C:2BB7H         LINE#         132
  C:2BB7H         LINE#         133
  C:2BB7H         LINE#         134
  C:2BBDH         LINE#         136
  C:2BBFH         LINE#         137
  C:2BBFH         LINE#         138
  C:2BBFH         LINE#         139
  C:2BC5H         LINE#         141
  C:2BC7H         LINE#         142
  C:2BC7H         LINE#         143
  C:2BC7H         LINE#         144
  C:2BCDH         LINE#         146
  C:2BCFH         LINE#         147
  C:2BCFH         LINE#         148
  C:2BCFH         LINE#         149
  C:2BD5H         LINE#         151
  C:2BD5H         LINE#         152
  C:2BD5H         LINE#         153
  C:2BD5H         LINE#         157
  C:2BD8H         LINE#         158
  C:2BDBH         LINE#         159
BL51 BANKED LINKER/LOCATER V6.22                                                      03/29/2019  11:07:55  PAGE 23


  C:2BE3H         LINE#         160
  C:2BE7H         LINE#         161
  C:2BE7H         LINE#         162
  C:2BEFH         LINE#         163
  C:2BEFH         LINE#         164
  C:2BF2H         LINE#         165
  C:2BFAH         LINE#         166
  C:2BFCH         LINE#         167
  C:2C10H         LINE#         168
  C:2C10H         LINE#         169
  C:2C10H         LINE#         170
  C:2C10H         LINE#         171
  C:2C16H         LINE#         173
  C:2C18H         LINE#         174
  C:2C18H         LINE#         175
  C:2C18H         LINE#         176
  C:2C1EH         LINE#         178
  C:2C20H         LINE#         179
  C:2C20H         LINE#         180
  C:2C20H         LINE#         181
  C:2C26H         LINE#         183
  C:2C28H         LINE#         184
  C:2C28H         LINE#         185
  C:2C28H         LINE#         186
  C:2C2EH         LINE#         188
  C:2C2EH         LINE#         189
  C:2C2EH         LINE#         190
  C:2C2EH         LINE#         192
  C:2C34H         LINE#         193
  C:2C34H         LINE#         195
  C:2C34H         LINE#         196
  C:2C37H         LINE#         197
  C:2C37H         LINE#         198
  C:2C37H         LINE#         200
  C:2C37H         LINE#         201
  C:2C39H         LINE#         202
  C:2C39H         LINE#         203
  -------         ENDPROC       KEY_SCAN
  -------         PROC          KEY_PROCESS
  -------         DO            
  X:0674H         SYMBOL        KeyCount
  X:0676H         SYMBOL        KeyNum_Old
  X:0677H         SYMBOL        KeyNum
  X:0678H         SYMBOL        PressedKey
  X:0651H         SYMBOL        d
  D:0004H         SYMBOL        hours
  D:0006H         SYMBOL        mins
  X:0653H         SYMBOL        months
  X:0655H         SYMBOL        days
  -------         ENDDO         
  C:22E6H         LINE#         204
  C:22E6H         LINE#         205
  C:22E6H         LINE#         209
  C:22EEH         LINE#         210
  C:22F6H         LINE#         212
  C:22F9H         LINE#         213
  C:22F9H         LINE#         214
BL51 BANKED LINKER/LOCATER V6.22                                                      03/29/2019  11:07:55  PAGE 24


  C:22FCH         LINE#         216
  C:22FCH         LINE#         217
  C:2309H         LINE#         218
  C:2309H         LINE#         219
  C:230CH         LINE#         220
  C:230FH         LINE#         222
  C:2312H         LINE#         224
  C:2312H         LINE#         225
  C:231DH         LINE#         226
  C:231DH         LINE#         227
  C:2320H         LINE#         229
  C:2320H         LINE#         230
  C:2327H         LINE#         231
  C:2327H         LINE#         232
  C:232AH         LINE#         234
  C:232AH         LINE#         235
  C:2332H         LINE#         236
  C:2332H         LINE#         237
  C:233CH         LINE#         238
  C:2344H         LINE#         240
  C:234DH         LINE#         242
  C:234DH         LINE#         251
  C:2362H         LINE#         252
  C:2362H         LINE#         253
  C:2374H         LINE#         254
  C:2382H         LINE#         255
  C:2391H         LINE#         256
  C:2391H         LINE#         258
  C:2397H         LINE#         262
  C:23ADH         LINE#         263
  C:23BEH         LINE#         264
  C:23D9H         LINE#         265
  C:23D9H         LINE#         266
  C:23E9H         LINE#         267
  C:23FAH         LINE#         268
  C:23FAH         LINE#         272
  C:2413H         LINE#         273
  C:242AH         LINE#         274
  C:244AH         LINE#         275
  C:244AH         LINE#         276
  C:2454H         LINE#         277
  C:2454H         LINE#         278
  C:245DH         LINE#         279
  C:245DH         LINE#         280
  C:2471H         LINE#         281
  C:2471H         LINE#         282
  C:2471H         LINE#         283
  C:2471H         LINE#         284
  C:2471H         LINE#         285
  C:2473H         LINE#         287
  C:2473H         LINE#         288
  C:247FH         LINE#         289
  C:247FH         LINE#         290
  C:2490H         LINE#         291
  C:2490H         LINE#         292
  C:2490H         LINE#         293
  C:2490H         LINE#         294
BL51 BANKED LINKER/LOCATER V6.22                                                      03/29/2019  11:07:55  PAGE 25


  C:2490H         LINE#         296
  C:2492H         LINE#         298
  C:2492H         LINE#         299
  C:24A3H         LINE#         300
  C:24A3H         LINE#         301
  C:24A3H         LINE#         302
  C:24A3H         LINE#         303
  C:24A3H         LINE#         305
  C:24A3H         LINE#         307
  C:24A3H         LINE#         308
  C:24A5H         LINE#         310
  C:24A5H         LINE#         311
  C:24B8H         LINE#         312
  C:24B8H         LINE#         313
  C:24C9H         LINE#         314
  C:24C9H         LINE#         315
  C:24C9H         LINE#         316
  C:24C9H         LINE#         317
  C:24C9H         LINE#         318
  C:24CBH         LINE#         320
  C:24CBH         LINE#         321
  C:24DCH         LINE#         322
  C:24DCH         LINE#         323
  C:24EDH         LINE#         324
  C:24FEH         LINE#         325
  C:24FEH         LINE#         326
  C:24FEH         LINE#         327
  C:24FEH         LINE#         328
  C:24FEH         LINE#         329
  C:2501H         LINE#         330
  C:2506H         LINE#         331
  C:250BH         LINE#         332
  C:2510H         LINE#         333
  C:2515H         LINE#         334
  C:251AH         LINE#         335
  C:251FH         LINE#         336
  C:2524H         LINE#         337
  C:2524H         LINE#         339
  C:2546H         LINE#         340
  C:2546H         LINE#         341
  C:2550H         LINE#         342
  C:2550H         LINE#         343
  C:2555H         LINE#         344
  C:255EH         LINE#         345
  C:2575H         LINE#         346
  C:2575H         LINE#         347
  C:2585H         LINE#         349
  C:2585H         LINE#         353
  -------         ENDPROC       KEY_PROCESS
  -------         PROC          KEYPAD_IO_INIT
  C:3A82H         LINE#         356
  C:3A82H         LINE#         357
  C:3A82H         LINE#         358
  C:3A85H         LINE#         359
  C:3A88H         LINE#         360
  C:3A8BH         LINE#         361
  C:3A8DH         LINE#         362
BL51 BANKED LINKER/LOCATER V6.22                                                      03/29/2019  11:07:55  PAGE 26


  -------         ENDPROC       KEYPAD_IO_INIT
  -------         ENDMOD        KEYPAD

  -------         MODULE        VCNL4035
  C:0000H         SYMBOL        _ICE_DUMMY_
  D:0080H         PUBLIC        P0
  B:00B0H.2       PUBLIC        I2C_SCK
  D:00B2H         PUBLIC        P3M0
  D:0090H         PUBLIC        P1
  D:00B1H         PUBLIC        P3M1
  D:00A0H         PUBLIC        P2
  D:00B0H         PUBLIC        P3
  D:00C0H         PUBLIC        P4
  D:00C8H         PUBLIC        P5
  D:00E8H         PUBLIC        P6
  D:00F8H         PUBLIC        P7
  D:00A8H         PUBLIC        IE
  C:3ABDH         PUBLIC        _DisplayLCD_VCNL4035
  D:00B8H         PUBLIC        IP
  D:00D8H         PUBLIC        CCON
  C:3A11H         PUBLIC        I2C_Start
  D:0098H         PUBLIC        SCON
  C:39BDH         PUBLIC        I2C_Init
  D:0088H         PUBLIC        TCON
  C:3A57H         PUBLIC        uC_NACK
  C:3818H         PUBLIC        _Wait_ms_i2c
  C:3882H         PUBLIC        _I2C_SendByte
  C:39D4H         PUBLIC        I2C_Stop
  C:3664H         PUBLIC        _Write_VCNL4035X
  C:000AH         PUBLIC        nop
  C:3254H         PUBLIC        _Read_VCNL4035
  C:3AB7H         PUBLIC        uC_ACK
  C:395DH         PUBLIC        I2C_ACK
  C:3902H         PUBLIC        _Wait_ms_iic
  B:00B0H.1       PUBLIC        I2C_SDA
  D:00D0H         PUBLIC        PSW
  C:37E5H         PUBLIC        I2C_ReceiveByte
  -------         PROC          _WAIT_MS_IIC
  D:0006H         SYMBOL        ms
  -------         DO            
  D:0004H         SYMBOL        De_Cnt
  -------         ENDDO         
  C:3902H         LINE#         5
  C:3902H         LINE#         6
  C:3902H         LINE#         8
  C:390CH         LINE#         9
  C:390CH         LINE#         10
  C:391FH         LINE#         11
  C:391FH         LINE#         12
  -------         ENDPROC       _WAIT_MS_IIC
  C:3812H         SYMBOL        L?0048
  C:3814H         SYMBOL        L?0049
  -------         PROC          L?0047
  -------         ENDPROC       L?0047
  C:3812H         SYMBOL        L?0048
  C:3814H         SYMBOL        L?0049
  -------         PROC          _WAIT_MS_I2C
BL51 BANKED LINKER/LOCATER V6.22                                                      03/29/2019  11:07:55  PAGE 27


  D:0006H         SYMBOL        ms
  -------         DO            
  D:0004H         SYMBOL        De_Cnt
  -------         ENDDO         
  C:3818H         LINE#         14
  C:3818H         LINE#         15
  C:3818H         LINE#         17
  C:3822H         LINE#         18
  C:3822H         LINE#         19
  C:3835H         LINE#         20
  C:3835H         LINE#         21
  -------         ENDPROC       _WAIT_MS_I2C
  -------         PROC          NOP
  C:000AH         LINE#         22
  C:000AH         LINE#         23
  C:000AH         LINE#         25
  -------         ENDPROC       NOP
  -------         PROC          I2C_START
  C:3A11H         LINE#         26
  C:3A11H         LINE#         27
  C:3A11H         LINE#         29
  C:3A13H         LINE#         30
  C:3A15H         LINE#         31
  C:3A1CH         LINE#         32
  C:3A1EH         LINE#         33
  C:3A21H         LINE#         34
  C:3A23H         LINE#         37
  -------         ENDPROC       I2C_START
  -------         PROC          I2C_STOP
  C:39D4H         LINE#         39
  C:39D4H         LINE#         40
  C:39D4H         LINE#         41
  C:39D6H         LINE#         42
  C:39D8H         LINE#         43
  C:39DBH         LINE#         44
  C:39DDH         LINE#         45
  C:39DFH         LINE#         46
  C:39E6H         LINE#         47
  C:39E8H         LINE#         50
  -------         ENDPROC       I2C_STOP
  -------         PROC          L?0050
  -------         ENDPROC       L?0050
  -------         PROC          I2C_ACK
  -------         DO            
  X:06A7H         SYMBOL        i
  D:0003H         SYMBOL        dat
  -------         ENDDO         
  C:395DH         LINE#         52
  C:395DH         LINE#         53
  C:395DH         LINE#         55
  C:395EH         LINE#         60
  C:3961H         LINE#         61
  C:3963H         LINE#         62
  C:3966H         LINE#         64
  C:3969H         LINE#         65
  C:3969H         LINE#         66
  C:396DH         LINE#         67
BL51 BANKED LINKER/LOCATER V6.22                                                      03/29/2019  11:07:55  PAGE 28


  C:396DH         LINE#         70
  C:396DH         LINE#         71
  C:3970H         LINE#         72
  C:3970H         LINE#         73
  C:3972H         LINE#         74
  -------         ENDPROC       I2C_ACK
  -------         PROC          UC_ACK
  -------         DO            
  X:06A8H         SYMBOL        i
  -------         ENDDO         
  C:3AB7H         LINE#         75
  C:3AB7H         LINE#         76
  C:3AB7H         LINE#         78
  C:3AB7H         LINE#         85
  C:3AB7H         LINE#         87
  C:3AB7H         LINE#         89
  C:3AB7H         LINE#         90
  C:3AB7H         LINE#         93
  C:3ABAH         LINE#         94
  C:3ABCH         LINE#         95
  C:3ABCH         LINE#         99
  -------         ENDPROC       UC_ACK
  -------         PROC          UC_NACK
  -------         DO            
  X:06A9H         SYMBOL        i
  -------         ENDDO         
  C:3A57H         LINE#         101
  C:3A57H         LINE#         102
  C:3A57H         LINE#         104
  C:3A57H         LINE#         108
  C:3A59H         LINE#         111
  C:3A59H         LINE#         112
  C:3A5BH         LINE#         113
  C:3A5BH         LINE#         115
  C:3A5BH         LINE#         116
  C:3A5BH         LINE#         119
  C:3A5EH         LINE#         120
  C:3A60H         LINE#         121
  C:3A63H         LINE#         122
  C:3A65H         LINE#         123
  C:3A65H         LINE#         127
  -------         ENDPROC       UC_NACK
  -------         PROC          I2C_INIT
  C:39BDH         LINE#         129
  C:39BDH         LINE#         130
  C:39BDH         LINE#         133
  C:39C0H         LINE#         134
  C:39C3H         LINE#         139
  C:39CBH         LINE#         141
  -------         ENDPROC       I2C_INIT
  -------         PROC          _I2C_SENDBYTE
  D:0001H         SYMBOL        dat
  -------         DO            
  D:0003H         SYMBOL        i
  -------         ENDDO         
  C:3882H         LINE#         145
  C:3884H         LINE#         146
BL51 BANKED LINKER/LOCATER V6.22                                                      03/29/2019  11:07:55  PAGE 29


  C:3884H         LINE#         149
  C:3886H         LINE#         150
  C:3886H         LINE#         151
  C:3888H         LINE#         153
  C:388CH         LINE#         154
  C:388CH         LINE#         155
  C:388EH         LINE#         156
  C:3890H         LINE#         158
  C:3890H         LINE#         159
  C:3892H         LINE#         160
  C:3892H         LINE#         161
  C:3895H         LINE#         162
  C:3897H         LINE#         164
  C:389BH         LINE#         165
  C:389EH         LINE#         166
  C:38A3H         LINE#         167
  -------         ENDPROC       _I2C_SENDBYTE
  -------         PROC          L?0051
  -------         ENDPROC       L?0051
  -------         PROC          I2C_RECEIVEBYTE
  -------         DO            
  D:0003H         SYMBOL        i
  D:0001H         SYMBOL        dat
  -------         ENDDO         
  C:37E5H         LINE#         171
  C:37E5H         LINE#         172
  C:37E5H         LINE#         174
  C:37E7H         LINE#         178
  C:37E8H         LINE#         179
  C:37E8H         LINE#         180
  C:37ECH         LINE#         181
  C:37EEH         LINE#         182
  C:37F1H         LINE#         184
  C:37F4H         LINE#         185
  C:37F4H         LINE#         186
  C:37F8H         LINE#         187
  C:37F8H         LINE#         188
  C:37F8H         LINE#         189
  C:37FBH         LINE#         190
  C:37FFH         LINE#         191
  C:37FFH         LINE#         192
  C:3801H         LINE#         193
  C:3803H         LINE#         194
  C:3803H         LINE#         196
  C:3808H         LINE#         197
  C:380AH         LINE#         198
  -------         ENDPROC       I2C_RECEIVEBYTE
  -------         PROC          _WRITE_VCNL4035X
  X:06A4H         SYMBOL        command_code
  X:06A5H         SYMBOL        dat_h
  X:06A6H         SYMBOL        dat_l
  C:3664H         LINE#         199
  C:366FH         LINE#         200
  C:366FH         LINE#         201
  C:3672H         LINE#         202
  C:3679H         LINE#         203
  C:3679H         LINE#         204
BL51 BANKED LINKER/LOCATER V6.22                                                      03/29/2019  11:07:55  PAGE 30


  C:367FH         LINE#         205
  C:367FH         LINE#         206
  C:3687H         LINE#         207
  C:3687H         LINE#         208
  C:368DH         LINE#         209
  C:3695H         LINE#         211
  C:369BH         LINE#         212
  C:36A3H         LINE#         214
  C:36A9H         LINE#         215
  C:36ACH         LINE#         216
  -------         ENDPROC       _WRITE_VCNL4035X
  -------         PROC          _READ_VCNL4035
  X:067DH         SYMBOL        command_code
  -------         DO            
  X:067FH         SYMBOL        temp_dat
  X:0681H         SYMBOL        temp_dat_l
  X:0683H         SYMBOL        temp_dat_h
  -------         ENDDO         
  C:3254H         LINE#         218
  C:325CH         LINE#         219
  C:325CH         LINE#         220
  C:3269H         LINE#         222
  C:326CH         LINE#         223
  C:326FH         LINE#         224
  C:3274H         LINE#         226
  C:327AH         LINE#         227
  C:327AH         LINE#         228
  C:327AH         LINE#         229
  C:327AH         LINE#         230
  C:3285H         LINE#         231
  C:3288H         LINE#         232
  C:328BH         LINE#         233
  C:328BH         LINE#         236
  C:328EH         LINE#         238
  C:3295H         LINE#         239
  C:3295H         LINE#         240
  C:3295H         LINE#         241
  C:32A0H         LINE#         242
  C:32A3H         LINE#         243
  C:32A6H         LINE#         244
  C:32A9H         LINE#         245
  C:32ACH         LINE#         246
  C:32AFH         LINE#         247
  C:32B2H         LINE#         248
  C:32B5H         LINE#         249
  C:32B8H         LINE#         250
  C:32B8H         LINE#         251
  C:32BEH         LINE#         252
  C:32BEH         LINE#         253
  C:32C7H         LINE#         255
  C:32C7H         LINE#         256
  C:32CDH         LINE#         257
  C:32CDH         LINE#         259
  C:32CFH         LINE#         260
  C:32D5H         LINE#         261
  C:32D8H         LINE#         262
  C:32DFH         LINE#         263
BL51 BANKED LINKER/LOCATER V6.22                                                      03/29/2019  11:07:55  PAGE 31


  C:32DFH         LINE#         264
  C:32EDH         LINE#         265
  -------         ENDPROC       _READ_VCNL4035
  -------         PROC          _DISPLAYLCD_VCNL4035
  X:06AAH         SYMBOL        dat
  C:3ABDH         LINE#         267
  C:3AC2H         LINE#         268
  C:3AC2H         LINE#         270
  -------         ENDPROC       _DISPLAYLCD_VCNL4035
  -------         ENDMOD        VCNL4035

  -------         MODULE        BIPOLARMOTOR
  C:0000H         SYMBOL        _ICE_DUMMY_
  D:0080H         PUBLIC        P0
  D:0090H         PUBLIC        P1
  D:00A0H         PUBLIC        P2
  D:00B0H         PUBLIC        P3
  D:00C0H         PUBLIC        P4
  D:00C8H         PUBLIC        P5
  D:00E8H         PUBLIC        P6
  D:00F8H         PUBLIC        P7
  D:00A8H         PUBLIC        IE
  C:2FD0H         PUBLIC        linear_interpolate
  C:3836H         PUBLIC        _Move
  D:00B8H         PUBLIC        IP
  C:25B9H         PUBLIC        _findDet3x3
  C:2026H         PUBLIC        _findDet4x4
  D:00D8H         PUBLIC        CCON
  X:0000H         PUBLIC        previous_move_time
  D:0098H         PUBLIC        SCON
  D:0088H         PUBLIC        TCON
  C:3ACDH         PUBLIC        wait
  C:3731H         PUBLIC        _Step_move
  X:0001H         PUBLIC        dat
  C:08E8H         PUBLIC        _Update_position
  C:35D0H         PUBLIC        vOneStepMove
  X:0007H         PUBLIC        elevation_stamp
  X:0033H         PUBLIC        date_azimuth_mapping
  X:007FH         PUBLIC        RX_pos
  C:397DH         PUBLIC        _BCDtoDec1
  X:03C3H         PUBLIC        degree
  D:00D0H         PUBLIC        PSW
  C:3973H         SYMBOL        L?0054
  C:3976H         SYMBOL        L?0055
  -------         PROC          L?0053
  -------         ENDPROC       L?0053
  C:3973H         SYMBOL        L?0054
  C:3976H         SYMBOL        L?0055
  -------         PROC          _BCDTODEC1
  D:0007H         SYMBOL        bcd
  -------         DO            
  D:0006H         SYMBOL        hi
  D:0007H         SYMBOL        lo
  -------         ENDDO         
  C:397DH         LINE#         28
  C:397DH         LINE#         29
  C:397DH         LINE#         31
BL51 BANKED LINKER/LOCATER V6.22                                                      03/29/2019  11:07:55  PAGE 32


  C:3982H         LINE#         32
  C:3986H         LINE#         33
  C:398DH         LINE#         34
  -------         ENDPROC       _BCDTODEC1
  -------         PROC          WAIT
  C:3ACDH         LINE#         36
  C:3ACDH         LINE#         38
  -------         ENDPROC       WAIT
  -------         PROC          VONESTEPMOVE
  B:0020H.7       SYMBOL        bDir
  C:35D0H         LINE#         40
  C:35D0H         LINE#         41
  C:35D0H         LINE#         43
  C:35D6H         LINE#         44
  C:35D6H         LINE#         45
  C:35D9H         LINE#         46
  C:35E2H         LINE#         47
  C:35E9H         LINE#         48
  C:35EEH         LINE#         49
  C:35EEH         LINE#         50
  C:35EEH         LINE#         52
  C:35F0H         LINE#         55
  C:35F0H         LINE#         56
  C:35F3H         LINE#         57
  C:35FCH         LINE#         58
  C:3603H         LINE#         59
  C:3609H         LINE#         60
  C:3612H         LINE#         61
  C:3619H         LINE#         62
  C:3619H         LINE#         66
  -------         ENDPROC       VONESTEPMOVE
  -------         PROC          _STEP_MOVE
  X:0651H         SYMBOL        step
  B:0020H.6       SYMBOL        dir
  -------         DO            
  X:0653H         SYMBOL        i
  -------         ENDDO         
  C:3731H         LINE#         68
  C:3739H         LINE#         69
  C:3739H         LINE#         71
  C:373EH         LINE#         74
  C:3759H         LINE#         75
  C:3759H         LINE#         76
  C:3760H         LINE#         78
  C:3770H         LINE#         80
  -------         ENDPROC       _STEP_MOVE
  -------         PROC          _MOVE
  X:0691H         SYMBOL        distance
  B:0021H.3       SYMBOL        direction
  -------         DO            
  D:0006H         SYMBOL        step
  -------         ENDDO         
  C:3836H         LINE#         82
  C:383CH         LINE#         83
  C:383CH         LINE#         86
  C:3857H         LINE#         87
  -------         ENDPROC       _MOVE
BL51 BANKED LINKER/LOCATER V6.22                                                      03/29/2019  11:07:55  PAGE 33


  C:259AH         SYMBOL        L?0051
  C:25AEH         SYMBOL        L?0052
  -------         PROC          L?0050
  -------         ENDPROC       L?0050
  C:259AH         SYMBOL        L?0051
  C:25AEH         SYMBOL        L?0052
  -------         PROC          _FINDDET3X3
  X:0600H         SYMBOL        a11
  X:0604H         SYMBOL        a12
  X:0608H         SYMBOL        a13
  X:060CH         SYMBOL        a21
  X:0610H         SYMBOL        a22
  X:0614H         SYMBOL        a23
  X:0618H         SYMBOL        a31
  X:061CH         SYMBOL        a32
  X:0620H         SYMBOL        a33
  C:25B9H         LINE#         91
  C:25BFH         LINE#         95
  C:25BFH         LINE#         96
  C:2756H         LINE#         98
  -------         ENDPROC       _FINDDET3X3
  -------         PROC          _FINDDET4X4
  X:05C0H         SYMBOL        a11
  X:05C4H         SYMBOL        a12
  X:05C8H         SYMBOL        a13
  X:05CCH         SYMBOL        a14
  X:05D0H         SYMBOL        a21
  X:05D4H         SYMBOL        a22
  X:05D8H         SYMBOL        a23
  X:05DCH         SYMBOL        a24
  X:05E0H         SYMBOL        a31
  X:05E4H         SYMBOL        a32
  X:05E8H         SYMBOL        a33
  X:05ECH         SYMBOL        a34
  X:05F0H         SYMBOL        a41
  X:05F4H         SYMBOL        a42
  X:05F8H         SYMBOL        a43
  X:05FCH         SYMBOL        a44
  C:2026H         LINE#         99
  C:202CH         LINE#         103
  C:202CH         LINE#         110
  C:22E5H         LINE#         114
  -------         ENDPROC       _FINDDET4X4
  -------         PROC          L?0056
  -------         ENDPROC       L?0056
  -------         PROC          LINEAR_INTERPOLATE
  X:0660H         SYMBOL        p1
  X:0668H         SYMBOL        p2
  X:0670H         SYMBOL        x
  -------         DO            
  D:0004H         SYMBOL        fx
  -------         ENDDO         
  C:2FD0H         LINE#         120
  C:2FD0H         LINE#         121
  C:2FD0H         LINE#         124
  C:306FH         LINE#         126
  C:306FH         LINE#         127
BL51 BANKED LINKER/LOCATER V6.22                                                      03/29/2019  11:07:55  PAGE 34


  -------         ENDPROC       LINEAR_INTERPOLATE
  -------         PROC          _UPDATE_POSITION
  D:0001H         SYMBOL        mnths
  D:0002H         SYMBOL        dys
  X:04B6H         SYMBOL        hurs
  X:04B7H         SYMBOL        mns
  X:04B8H         SYMBOL        sconds
  X:04B9H         SYMBOL        currnt_pos
  X:04BCH         SYMBOL        offset_calib
  -------         DO            
  X:04C0H         SYMBOL        date
  X:04C2H         SYMBOL        i
  X:04C4H         SYMBOL        yy
  X:04C6H         SYMBOL        desired_distance
  X:04CAH         SYMBOL        distance
  X:04CEH         SYMBOL        JP_pos
  X:04D2H         SYMBOL        pos_interpolate_azimuth
  X:051EH         SYMBOL        current_local_sun_time
  X:0522H         SYMBOL        azimuth
  X:0526H         SYMBOL        elevation
  X:052AH         SYMBOL        time_offset
  X:052EH         SYMBOL        UTC_time
  X:0532H         SYMBOL        declination
  X:0536H         SYMBOL        p1
  X:053EH         SYMBOL        p2
  X:0546H         SYMBOL        time
  X:0558H         SYMBOL        location
  X:0560H         SYMBOL        sunCoord
  -------         ENDDO         
  C:08E8H         LINE#         131
  C:08F1H         LINE#         134
  C:08F1H         LINE#         135
  C:08FCH         LINE#         137
  C:0918H         LINE#         138
  C:0922H         LINE#         146
  C:092CH         LINE#         147
  C:0936H         LINE#         148
  C:0940H         LINE#         149
  C:094BH         LINE#         150
  C:0956H         LINE#         151
  C:096AH         LINE#         152
  C:097BH         LINE#         153
  C:098AH         LINE#         156
  C:099EH         LINE#         160
  C:09F0H         LINE#         161
  C:09FAH         LINE#         162
  C:0A54H         LINE#         164
  C:0B7CH         LINE#         166
  C:0C4BH         LINE#         173
  C:0C55H         LINE#         174
  C:0C55H         LINE#         176
  C:0C6FH         LINE#         177
  C:0C6FH         LINE#         178
  C:0CDFH         LINE#         179
  C:0CDFH         LINE#         180
  C:0CE6H         LINE#         181
  C:0CE6H         LINE#         182
BL51 BANKED LINKER/LOCATER V6.22                                                      03/29/2019  11:07:55  PAGE 35


  C:0D13H         LINE#         183
  C:0D2EH         LINE#         185
  C:0D75H         LINE#         186
  C:0DA9H         LINE#         188
  C:0E01H         LINE#         189
  C:0E21H         LINE#         191
  C:0E21H         LINE#         192
  C:0E32H         LINE#         195
  C:0E4CH         LINE#         196
  C:0E4CH         LINE#         197
  C:0EBCH         LINE#         198
  C:0EBCH         LINE#         199
  C:0EE9H         LINE#         200
  C:0F04H         LINE#         202
  C:0F31H         LINE#         203
  C:0F4CH         LINE#         205
  C:0F7EH         LINE#         208
  C:0F7EH         LINE#         210
  C:0F8FH         LINE#         212
  C:0FBEH         LINE#         214
  C:0FE0H         LINE#         215
  C:103BH         LINE#         216
  C:103BH         LINE#         217
  C:1055H         LINE#         218
  C:1067H         LINE#         219
  C:107FH         LINE#         220
  C:1095H         LINE#         221
  C:109DH         LINE#         222
  C:10B9H         LINE#         223
  C:10B9H         LINE#         224
  C:10B9H         LINE#         227
  -------         ENDPROC       _UPDATE_POSITION
  -------         ENDMOD        BIPOLARMOTOR

  -------         MODULE        SUNPOS
  C:0000H         SYMBOL        _ICE_DUMMY_
  C:10BAH         PUBLIC        sunpos
  -------         PROC          SUNPOS
  X:0563H         SYMBOL        udtTime
  X:0575H         SYMBOL        udtLocation
  X:057DH         SYMBOL        udtSunCoordinates
  -------         DO            
  X:0580H         SYMBOL        dElapsedJulianDays
  X:0584H         SYMBOL        dDecimalHours
  X:0588H         SYMBOL        dEclipticLongitude
  X:058CH         SYMBOL        dEclipticObliquity
  X:0590H         SYMBOL        dRightAscension
  X:0594H         SYMBOL        dDeclination
  X:0598H         SYMBOL        dY
  X:059CH         SYMBOL        dX
  -------         DO            
  X:05A0H         SYMBOL        dJulianDate
  X:05A4H         SYMBOL        liAux1
  X:05A8H         SYMBOL        liAux2
  X:05A0H         SYMBOL        dMeanLongitude
  X:05A4H         SYMBOL        dMeanAnomaly
  X:05A8H         SYMBOL        dOmega
BL51 BANKED LINKER/LOCATER V6.22                                                      03/29/2019  11:07:55  PAGE 36


  X:05A0H         SYMBOL        dSin_EclipticLongitude
  X:05A0H         SYMBOL        dGreenwichMeanSiderealTime
  X:05A4H         SYMBOL        dLocalMeanSiderealTime
  X:05A8H         SYMBOL        dLatitudeInRadians
  X:05ACH         SYMBOL        dHourAngle
  X:05B0H         SYMBOL        dCos_Latitude
  X:05B4H         SYMBOL        dSin_Latitude
  X:05B8H         SYMBOL        dCos_HourAngle
  X:05BCH         SYMBOL        dParallax
  -------         ENDDO         
  -------         DO            
  X:05A0H         SYMBOL        dMeanLongitude
  X:05A4H         SYMBOL        dMeanAnomaly
  X:05A8H         SYMBOL        dOmega
  X:05A0H         SYMBOL        dSin_EclipticLongitude
  X:05A0H         SYMBOL        dGreenwichMeanSiderealTime
  X:05A4H         SYMBOL        dLocalMeanSiderealTime
  X:05A8H         SYMBOL        dLatitudeInRadians
  X:05ACH         SYMBOL        dHourAngle
  X:05B0H         SYMBOL        dCos_Latitude
  X:05B4H         SYMBOL        dSin_Latitude
  X:05B8H         SYMBOL        dCos_HourAngle
  X:05BCH         SYMBOL        dParallax
  -------         ENDDO         
  -------         DO            
  X:05A0H         SYMBOL        dSin_EclipticLongitude
  X:05A0H         SYMBOL        dGreenwichMeanSiderealTime
  X:05A4H         SYMBOL        dLocalMeanSiderealTime
  X:05A8H         SYMBOL        dLatitudeInRadians
  X:05ACH         SYMBOL        dHourAngle
  X:05B0H         SYMBOL        dCos_Latitude
  X:05B4H         SYMBOL        dSin_Latitude
  X:05B8H         SYMBOL        dCos_HourAngle
  X:05BCH         SYMBOL        dParallax
  -------         ENDDO         
  -------         DO            
  X:05A0H         SYMBOL        dGreenwichMeanSiderealTime
  X:05A4H         SYMBOL        dLocalMeanSiderealTime
  X:05A8H         SYMBOL        dLatitudeInRadians
  X:05ACH         SYMBOL        dHourAngle
  X:05B0H         SYMBOL        dCos_Latitude
  X:05B4H         SYMBOL        dSin_Latitude
  X:05B8H         SYMBOL        dCos_HourAngle
  X:05BCH         SYMBOL        dParallax
  -------         ENDDO         
  -------         ENDDO         
  C:10BAH         LINE#         6
  C:10BAH         LINE#         7
  C:10BAH         LINE#         9
  C:10BAH         LINE#         27
  C:1104H         LINE#         30
  C:1125H         LINE#         31
  C:126CH         LINE#         34
  C:12B8H         LINE#         36
  C:12D7H         LINE#         37
  C:12D7H         LINE#         42
  C:12D7H         LINE#         46
BL51 BANKED LINKER/LOCATER V6.22                                                      03/29/2019  11:07:55  PAGE 37


  C:1309H         LINE#         47
  C:1333H         LINE#         48
  C:135DH         LINE#         49
  C:140AH         LINE#         52
  C:146BH         LINE#         54
  C:146BH         LINE#         59
  C:146BH         LINE#         61
  C:1482H         LINE#         62
  C:14AAH         LINE#         63
  C:14C1H         LINE#         64
  C:14ECH         LINE#         65
  C:1523H         LINE#         66
  C:154EH         LINE#         67
  C:154EH         LINE#         70
  C:154EH         LINE#         79
  C:1589H         LINE#         82
  C:15C3H         LINE#         84
  C:15E8H         LINE#         85
  C:1607H         LINE#         86
  C:161EH         LINE#         87
  C:1635H         LINE#         88
  C:164CH         LINE#         89
  C:16D5H         LINE#         91
  C:16EFH         LINE#         92
  C:1751H         LINE#         93
  C:1787H         LINE#         94
  C:1799H         LINE#         95
  C:17C6H         LINE#         96
  C:17F3H         LINE#         98
  C:1815H         LINE#         100
  C:184DH         LINE#         103
  C:184DH         LINE#         104
  C:185BH         LINE#         105
  -------         ENDPROC       SUNPOS
  -------         ENDMOD        SUNPOS

  -------         MODULE        ?C_STARTUP
  C:3383H         SEGMENT       ?C_C51STARTUP
  I:0022H         SEGMENT       ?STACK
  C:0000H         PUBLIC        ?C_STARTUP
  D:00E0H         SYMBOL        ACC
  D:00F0H         SYMBOL        B
  D:0083H         SYMBOL        DPH
  D:0082H         SYMBOL        DPL
  N:0000H         SYMBOL        IBPSTACK
  N:0100H         SYMBOL        IBPSTACKTOP
  N:0080H         SYMBOL        IDATALEN
  C:3386H         SYMBOL        IDATALOOP
  N:0000H         SYMBOL        PBPSTACK
  N:0100H         SYMBOL        PBPSTACKTOP
  N:0000H         SYMBOL        PDATALEN
  N:0000H         SYMBOL        PDATASTART
  N:0000H         SYMBOL        PPAGE
  N:0000H         SYMBOL        PPAGEENABLE
  D:00A0H         SYMBOL        PPAGE_SFR
  D:0081H         SYMBOL        SP
  C:3383H         SYMBOL        STARTUP1
BL51 BANKED LINKER/LOCATER V6.22                                                      03/29/2019  11:07:55  PAGE 38


  N:0000H         SYMBOL        XBPSTACK
  N:0000H         SYMBOL        XBPSTACKTOP
  N:0000H         SYMBOL        XDATALEN
  N:0000H         SYMBOL        XDATASTART
  C:0000H         LINE#         126
  C:3383H         LINE#         133
  C:3385H         LINE#         134
  C:3386H         LINE#         135
  C:3387H         LINE#         136
  C:3389H         LINE#         185
  C:338CH         LINE#         196
  -------         ENDMOD        ?C_STARTUP

  -------         MODULE        ?C?FPADD
  C:002DH         PUBLIC        ?C?FPADD
  C:0029H         PUBLIC        ?C?FPSUB
  -------         ENDMOD        ?C?FPADD

  -------         MODULE        ?C?FPMUL
  C:011EH         PUBLIC        ?C?FPMUL
  -------         ENDMOD        ?C?FPMUL

  -------         MODULE        ?C?FPDIV
  C:0227H         PUBLIC        ?C?FPDIV
  -------         ENDMOD        ?C?FPDIV

  -------         MODULE        ?C?FPCMP
  C:02C6H         PUBLIC        ?C?FPCMP
  C:02C4H         PUBLIC        ?C?FPCMP3
  -------         ENDMOD        ?C?FPCMP

  -------         MODULE        ?C?FPNEG
  C:033DH         PUBLIC        ?C?FPNEG
  -------         ENDMOD        ?C?FPNEG

  -------         MODULE        ?C?FCAST
  C:0358H         PUBLIC        ?C?FCASTC
  C:0353H         PUBLIC        ?C?FCASTI
  C:034EH         PUBLIC        ?C?FCASTL
  -------         ENDMOD        ?C?FCAST

  -------         MODULE        ?C?CASTF
  C:038CH         PUBLIC        ?C?CASTF
  -------         ENDMOD        ?C?CASTF

  -------         MODULE        ATAN2
  X:0685H         PUBLIC        ?_atan2?BYTE
  C:311CH         PUBLIC        _atan2
  -------         ENDMOD        ATAN2

  -------         MODULE        SIN
  C:2C82H         PUBLIC        _COS
  C:2C98H         PUBLIC        _SIN
  C:2CD4H         PUBLIC        _TAN
  -------         ENDMOD        SIN

  -------         MODULE        ACOS
BL51 BANKED LINKER/LOCATER V6.22                                                      03/29/2019  11:07:55  PAGE 39


  C:361AH         PUBLIC        _ACOS
  -------         ENDMOD        ACOS

  -------         MODULE        ASIN
  C:3771H         PUBLIC        _ASIN
  -------         ENDMOD        ASIN

  -------         MODULE        SQRT
  C:3074H         PUBLIC        _SQRT
  -------         ENDMOD        SQRT

  -------         MODULE        ATAN
  C:2DE2H         PUBLIC        _ATAN
  -------         ENDMOD        ATAN

  -------         MODULE        ?C?COPY
  C:052AH         PUBLIC        ?C?COPY
  -------         ENDMOD        ?C?COPY

  -------         MODULE        ?C?CLDPTR
  C:0550H         PUBLIC        ?C?CLDPTR
  -------         ENDMOD        ?C?CLDPTR

  -------         MODULE        ?C?CSTPTR
  C:0569H         PUBLIC        ?C?CSTPTR
  -------         ENDMOD        ?C?CSTPTR

  -------         MODULE        ?C?IMUL
  C:057BH         PUBLIC        ?C?IMUL
  -------         ENDMOD        ?C?IMUL

  -------         MODULE        ?C?UIDIV
  C:058DH         PUBLIC        ?C?UIDIV
  -------         ENDMOD        ?C?UIDIV

  -------         MODULE        ?C?SIDIV
  C:05E2H         PUBLIC        ?C?SIDIV
  -------         ENDMOD        ?C?SIDIV

  -------         MODULE        ?C?ILDIX
  C:0618H         PUBLIC        ?C?ILDIX
  -------         ENDMOD        ?C?ILDIX

  -------         MODULE        ?C?LMUL
  C:062EH         PUBLIC        ?C?LMUL
  -------         ENDMOD        ?C?LMUL

  -------         MODULE        ?C?SLDIV
  C:36ADH         PUBLIC        ?C?SLDIV
  -------         ENDMOD        ?C?SLDIV

  -------         MODULE        ?C?LNEG
  C:067DH         PUBLIC        ?C?LNEG
  -------         ENDMOD        ?C?LNEG

  -------         MODULE        ?C?LLDPTR
  C:068BH         PUBLIC        ?C?LLDPTR
BL51 BANKED LINKER/LOCATER V6.22                                                      03/29/2019  11:07:55  PAGE 40


  -------         ENDMOD        ?C?LLDPTR

  -------         MODULE        ?C?LLDOPTR
  C:06ABH         PUBLIC        ?C?LLDOPTR
  -------         ENDMOD        ?C?LLDOPTR

  -------         MODULE        ?C?LSTPTR
  C:06DBH         PUBLIC        ?C?LSTPTR
  -------         ENDMOD        ?C?LSTPTR

  -------         MODULE        ?C?LSTOPTR
  C:06F5H         PUBLIC        ?C?LSTOPTR
  -------         ENDMOD        ?C?LSTOPTR

  -------         MODULE        ?C?LLDXDATA
  C:0719H         PUBLIC        ?C?LLDXDATA
  -------         ENDMOD        ?C?LLDXDATA

  -------         MODULE        ?C?LLDCODE
  C:0725H         PUBLIC        ?C?LLDCODE
  -------         ENDMOD        ?C?LLDCODE

  -------         MODULE        ?C?LLDXDATA0
  C:0735H         PUBLIC        ?C?LLDXDATA0
  -------         ENDMOD        ?C?LLDXDATA0

  -------         MODULE        ?C?LLDCODE0
  C:0741H         PUBLIC        ?C?LLDCODE0
  -------         ENDMOD        ?C?LLDCODE0

  -------         MODULE        ?C?LLDPTR0
  C:0751H         PUBLIC        ?C?LLDPTR0
  -------         ENDMOD        ?C?LLDPTR0

  -------         MODULE        ?C?LSTXDATA
  C:0771H         PUBLIC        ?C?LSTXDATA
  -------         ENDMOD        ?C?LSTXDATA

  -------         MODULE        ?C?LSTKXDATA
  C:077DH         PUBLIC        ?C?LSTKXDATA
  -------         ENDMOD        ?C?LSTKXDATA

  -------         MODULE        ?C?OFFXADD
  C:07AEH         PUBLIC        ?C?OFFXADD
  -------         ENDMOD        ?C?OFFXADD

  -------         MODULE        ABS
  C:3A8EH         PUBLIC        _ABS
  -------         ENDMOD        ABS

  -------         MODULE        ATOI
  C:2EE4H         PUBLIC        _atoi
  -------         ENDMOD        ATOI

  -------         MODULE        ?C?IILDX
  C:07BAH         PUBLIC        ?C?IILDX
  -------         ENDMOD        ?C?IILDX
BL51 BANKED LINKER/LOCATER V6.22                                                      03/29/2019  11:07:55  PAGE 41



  -------         MODULE        ?C?ULDIV
  C:080CH         PUBLIC        ?C?ULDIV
  -------         ENDMOD        ?C?ULDIV

  -------         MODULE        ?C?LLDIDATA
  C:089EH         PUBLIC        ?C?LLDIDATA
  -------         ENDMOD        ?C?LLDIDATA

  -------         MODULE        ?C?LLDPDATA
  C:08AAH         PUBLIC        ?C?LLDPDATA
  -------         ENDMOD        ?C?LLDPDATA

  -------         MODULE        ?C?LLDIDATA0
  C:08B6H         PUBLIC        ?C?LLDIDATA0
  -------         ENDMOD        ?C?LLDIDATA0

  -------         MODULE        ?C?LLDPDATA0
  C:08C3H         PUBLIC        ?C?LLDPDATA0
  -------         ENDMOD        ?C?LLDPDATA0

  -------         MODULE        ?C?LSTIDATA
  C:08D0H         PUBLIC        ?C?LSTIDATA
  -------         ENDMOD        ?C?LSTIDATA

  -------         MODULE        ?C?LSTPDATA
  C:08DCH         PUBLIC        ?C?LSTPDATA
  -------         ENDMOD        ?C?LSTPDATA

  -------         MODULE        ISDIGIT
  C:3A66H         PUBLIC        _isdigit
  -------         ENDMOD        ISDIGIT

  -------         MODULE        ISSPACE
  C:39FDH         PUBLIC        _isspace
  -------         ENDMOD        ISSPACE

*** WARNING L16: UNCALLED SEGMENT, IGNORED FOR OVERLAY PROCESS
    SEGMENT: ?PR?_CALIB_INTERPOLATE?MAIN

*** WARNING L16: UNCALLED SEGMENT, IGNORED FOR OVERLAY PROCESS
    SEGMENT: ?PR?_DISPLAY_PROX?MAIN

*** WARNING L16: UNCALLED SEGMENT, IGNORED FOR OVERLAY PROCESS
    SEGMENT: ?PR?INITUART1?UART1

*** WARNING L16: UNCALLED SEGMENT, IGNORED FOR OVERLAY PROCESS
    SEGMENT: ?PR?_SENDSTRING?UART1

*** WARNING L16: UNCALLED SEGMENT, IGNORED FOR OVERLAY PROCESS
    SEGMENT: ?PR?_TEN?UART1

*** WARNING L16: UNCALLED SEGMENT, IGNORED FOR OVERLAY PROCESS
    SEGMENT: ?PR?_UNIT?UART1

*** WARNING L16: UNCALLED SEGMENT, IGNORED FOR OVERLAY PROCESS
    SEGMENT: ?PR?_DECTOBCD?UART1
BL51 BANKED LINKER/LOCATER V6.22                                                      03/29/2019  11:07:55  PAGE 42



*** WARNING L16: UNCALLED SEGMENT, IGNORED FOR OVERLAY PROCESS
    SEGMENT: ?PR?_ASCII_LETTER?UART1

*** WARNING L16: UNCALLED SEGMENT, IGNORED FOR OVERLAY PROCESS
    SEGMENT: ?PR?NOP?VCNL4035

*** WARNING L16: UNCALLED SEGMENT, IGNORED FOR OVERLAY PROCESS
    SEGMENT: ?PR?I2C_INIT?VCNL4035

*** WARNING L16: UNCALLED SEGMENT, IGNORED FOR OVERLAY PROCESS
    SEGMENT: ?PR?_READ_VCNL4035?VCNL4035

*** WARNING L16: UNCALLED SEGMENT, IGNORED FOR OVERLAY PROCESS
    SEGMENT: ?PR?_DISPLAYLCD_VCNL4035?VCNL4035

*** WARNING L16: UNCALLED SEGMENT, IGNORED FOR OVERLAY PROCESS
    SEGMENT: ?PR?WAIT?BIPOLARMOTOR

*** WARNING L16: UNCALLED SEGMENT, IGNORED FOR OVERLAY PROCESS
    SEGMENT: ?PR?_FINDDET4X4?BIPOLARMOTOR

*** WARNING L16: UNCALLED SEGMENT, IGNORED FOR OVERLAY PROCESS
    SEGMENT: ?PR?_UPDATE_POSITION?BIPOLARMOTOR

*** WARNING L1: UNRESOLVED EXTERNAL SYMBOL
    SYMBOL:  _CALIBRATION
    MODULE:  .\Obj\main.obj (MAIN)

*** WARNING L1: UNRESOLVED EXTERNAL SYMBOL
    SYMBOL:  ?_CALIBRATION?BYTE
    MODULE:  .\Obj\main.obj (MAIN)

*** WARNING L1: UNRESOLVED EXTERNAL SYMBOL
    SYMBOL:  ADC_INIT
    MODULE:  .\Obj\main.obj (MAIN)

*** WARNING L1: UNRESOLVED EXTERNAL SYMBOL
    SYMBOL:  AUTO_MODE
    MODULE:  .\Obj\main.obj (MAIN)

*** WARNING L2: REFERENCE MADE TO UNRESOLVED EXTERNAL
    SYMBOL:  AUTO_MODE
    MODULE:  .\Obj\main.obj (MAIN)
    ADDRESS: 1C93H

*** WARNING L2: REFERENCE MADE TO UNRESOLVED EXTERNAL
    SYMBOL:  ADC_INIT
    MODULE:  .\Obj\main.obj (MAIN)
    ADDRESS: 1CAAH

*** WARNING L2: REFERENCE MADE TO UNRESOLVED EXTERNAL
    SYMBOL:  AUTO_MODE
    MODULE:  .\Obj\main.obj (MAIN)
    ADDRESS: 1D63H

*** WARNING L2: REFERENCE MADE TO UNRESOLVED EXTERNAL
BL51 BANKED LINKER/LOCATER V6.22                                                      03/29/2019  11:07:55  PAGE 43


    SYMBOL:  AUTO_MODE
    MODULE:  .\Obj\main.obj (MAIN)
    ADDRESS: 1D71H

*** WARNING L2: REFERENCE MADE TO UNRESOLVED EXTERNAL
    SYMBOL:  AUTO_MODE
    MODULE:  .\Obj\main.obj (MAIN)
    ADDRESS: 1D83H

*** WARNING L2: REFERENCE MADE TO UNRESOLVED EXTERNAL
    SYMBOL:  AUTO_MODE
    MODULE:  .\Obj\main.obj (MAIN)
    ADDRESS: 1DC5H

*** WARNING L2: REFERENCE MADE TO UNRESOLVED EXTERNAL
    SYMBOL:  AUTO_MODE
    MODULE:  .\Obj\main.obj (MAIN)
    ADDRESS: 1E98H

*** WARNING L2: REFERENCE MADE TO UNRESOLVED EXTERNAL
    SYMBOL:  ?_CALIBRATION?BYTE
    MODULE:  .\Obj\main.obj (MAIN)
    ADDRESS: 1F54H

*** WARNING L2: REFERENCE MADE TO UNRESOLVED EXTERNAL
    SYMBOL:  ?_CALIBRATION?BYTE
    MODULE:  .\Obj\main.obj (MAIN)
    ADDRESS: 1F5CH

*** WARNING L2: REFERENCE MADE TO UNRESOLVED EXTERNAL
    SYMBOL:  _CALIBRATION
    MODULE:  .\Obj\main.obj (MAIN)
    ADDRESS: 1F71H

*** WARNING L1: UNRESOLVED EXTERNAL SYMBOL
    SYMBOL:  AUTO_MODE
    MODULE:  .\Obj\KeyPad.obj (KEYPAD)

*** WARNING L2: REFERENCE MADE TO UNRESOLVED EXTERNAL
    SYMBOL:  AUTO_MODE
    MODULE:  .\Obj\KeyPad.obj (KEYPAD)
    ADDRESS: 2333H

*** WARNING L2: REFERENCE MADE TO UNRESOLVED EXTERNAL
    SYMBOL:  AUTO_MODE
    MODULE:  .\Obj\KeyPad.obj (KEYPAD)
    ADDRESS: 233EH

*** WARNING L2: REFERENCE MADE TO UNRESOLVED EXTERNAL
    SYMBOL:  AUTO_MODE
    MODULE:  .\Obj\KeyPad.obj (KEYPAD)
    ADDRESS: 2345H

*** WARNING L1: UNRESOLVED EXTERNAL SYMBOL
    SYMBOL:  _WRITE_PI4IOE5V96248
    MODULE:  .\Obj\BipolarMotor.obj (BIPOLARMOTOR)

BL51 BANKED LINKER/LOCATER V6.22                                                      03/29/2019  11:07:55  PAGE 44


*** WARNING L2: REFERENCE MADE TO UNRESOLVED EXTERNAL
    SYMBOL:  _WRITE_PI4IOE5V96248
    MODULE:  .\Obj\BipolarMotor.obj (BIPOLARMOTOR)
    ADDRESS: 35E0H

*** WARNING L2: REFERENCE MADE TO UNRESOLVED EXTERNAL
    SYMBOL:  _WRITE_PI4IOE5V96248
    MODULE:  .\Obj\BipolarMotor.obj (BIPOLARMOTOR)
    ADDRESS: 35FAH

*** WARNING L2: REFERENCE MADE TO UNRESOLVED EXTERNAL
    SYMBOL:  _WRITE_PI4IOE5V96248
    MODULE:  .\Obj\BipolarMotor.obj (BIPOLARMOTOR)
    ADDRESS: 3610H

Program Size: data=18.5 xdata=1707 code=15054
LINK/LOCATE RUN COMPLETE.  37 WARNING(S),  0 ERROR(S)
