BL51 BANKED LINKER/LOCATER V6.22                                                        09/07/2018  12:10:50  PAGE 1


BL51 BANKED LINKER/LOCATER V6.22, INVOKED BY:
C:\KEIL\C51\BIN\BL51.EXE .\Obj\main.obj, .\Obj\PCF85063BTL.obj, .\Obj\UART1.obj, .\Obj\LCd_Driver_SPLC780D.obj, .\Obj\Ke
>> yPad.obj, .\Obj\VCNL4035.obj, .\Obj\BipolarMotor.obj, .\Obj\SunPos.obj, .\Obj\STARTUP.obj TO .\Obj\GPIO_RTC_Test PRIN
>> T (.\Lis\GPIO_RTC_Test.m51) RAMSIZE (256)


MEMORY MODEL: LARGE WITH FLOATING POINT ARITHMETIC


INPUT MODULES INCLUDED:
  .\Obj\main.obj (MAIN)
  .\Obj\PCF85063BTL.obj (PCF85063BTL)
  .\Obj\UART1.obj (UART1)
  .\Obj\LCd_Driver_SPLC780D.obj (LCD_DRIVER_SPLC780D)
  .\Obj\KeyPad.obj (KEYPAD)
  .\Obj\VCNL4035.obj (VCNL4035)
  .\Obj\BipolarMotor.obj (BIPOLARMOTOR)
  .\Obj\SunPos.obj (SUNPOS)
  .\Obj\STARTUP.obj (?C_STARTUP)
  C:\KEIL\C51\LIB\C51FPL.LIB (?C?FPADD)
  C:\KEIL\C51\LIB\C51FPL.LIB (?C?FPMUL)
  C:\KEIL\C51\LIB\C51FPL.LIB (?C?FPDIV)
  C:\KEIL\C51\LIB\C51FPL.LIB (?C?FPCMP)
  C:\KEIL\C51\LIB\C51FPL.LIB (?C?FPNEG)
  C:\KEIL\C51\LIB\C51FPL.LIB (?C?FCAST)
  C:\KEIL\C51\LIB\C51FPL.LIB (?C?CASTF)
  C:\KEIL\C51\LIB\C51FPL.LIB (ATAN2)
  C:\KEIL\C51\LIB\C51FPL.LIB (SIN)
  C:\KEIL\C51\LIB\C51FPL.LIB (ACOS)
  C:\KEIL\C51\LIB\C51FPL.LIB (ASIN)
  C:\KEIL\C51\LIB\C51FPL.LIB (POW)
  C:\KEIL\C51\LIB\C51FPL.LIB (?C?FPGETOPN)
  C:\KEIL\C51\LIB\C51FPL.LIB (?C?CHKFLOAT)
  C:\KEIL\C51\LIB\C51FPL.LIB (?C?FPSERIES)
  C:\KEIL\C51\LIB\C51FPL.LIB (EXP)
  C:\KEIL\C51\LIB\C51FPL.LIB (LOG)
  C:\KEIL\C51\LIB\C51FPL.LIB (SQRT)
  C:\KEIL\C51\LIB\C51FPL.LIB (ATAN)
  C:\KEIL\C51\LIB\C51L.LIB (?C_INIT)
  C:\KEIL\C51\LIB\C51L.LIB (?C?COPY)
  C:\KEIL\C51\LIB\C51L.LIB (?C?CLDPTR)
  C:\KEIL\C51\LIB\C51L.LIB (?C?CSTPTR)
  C:\KEIL\C51\LIB\C51L.LIB (?C?IMUL)
  C:\KEIL\C51\LIB\C51L.LIB (?C?UIDIV)
  C:\KEIL\C51\LIB\C51L.LIB (?C?SIDIV)
  C:\KEIL\C51\LIB\C51L.LIB (?C?ILDIX)
  C:\KEIL\C51\LIB\C51L.LIB (?C?LMUL)
  C:\KEIL\C51\LIB\C51L.LIB (?C?SLDIV)
  C:\KEIL\C51\LIB\C51L.LIB (?C?LNEG)
  C:\KEIL\C51\LIB\C51L.LIB (?C?LLDPTR)
  C:\KEIL\C51\LIB\C51L.LIB (?C?LLDOPTR)
  C:\KEIL\C51\LIB\C51L.LIB (?C?LSTPTR)
  C:\KEIL\C51\LIB\C51L.LIB (?C?LSTOPTR)
  C:\KEIL\C51\LIB\C51L.LIB (?C?LLDXDATA)
  C:\KEIL\C51\LIB\C51L.LIB (?C?LLDCODE)
  C:\KEIL\C51\LIB\C51L.LIB (?C?LLDXDATA0)
  C:\KEIL\C51\LIB\C51L.LIB (?C?LLDCODE0)
  C:\KEIL\C51\LIB\C51L.LIB (?C?LLDPTR0)
BL51 BANKED LINKER/LOCATER V6.22                                                      09/07/2018  12:10:50  PAGE 2


  C:\KEIL\C51\LIB\C51L.LIB (?C?LSTXDATA)
  C:\KEIL\C51\LIB\C51L.LIB (?C?LSTKXDATA)
  C:\KEIL\C51\LIB\C51L.LIB (?C?OFFXADD)
  C:\KEIL\C51\LIB\C51L.LIB (ABS)
  C:\KEIL\C51\LIB\C51L.LIB (ATOI)
  C:\KEIL\C51\LIB\C51L.LIB (?C?IILDX)
  C:\KEIL\C51\LIB\C51L.LIB (?C?ULDIV)
  C:\KEIL\C51\LIB\C51L.LIB (?C?LLDIDATA)
  C:\KEIL\C51\LIB\C51L.LIB (?C?LLDPDATA)
  C:\KEIL\C51\LIB\C51L.LIB (?C?LLDIDATA0)
  C:\KEIL\C51\LIB\C51L.LIB (?C?LLDPDATA0)
  C:\KEIL\C51\LIB\C51L.LIB (?C?LSTIDATA)
  C:\KEIL\C51\LIB\C51L.LIB (?C?LSTPDATA)
  C:\KEIL\C51\LIB\C51L.LIB (ISDIGIT)
  C:\KEIL\C51\LIB\C51L.LIB (ISSPACE)


LINK MAP OF MODULE:  .\Obj\GPIO_RTC_Test (MAIN)


            TYPE    BASE      LENGTH    RELOCATION   SEGMENT NAME
            -----------------------------------------------------

            * * * * * * *   D A T A   M E M O R Y   * * * * * * *
            REG     0000H     0008H     ABSOLUTE     "REG BANK 0"
            REG     0008H     0008H     ABSOLUTE     "REG BANK 1"
                    0010H     0010H                  *** GAP ***
            BIT     0020H.0   0000H.4   UNIT         ?BI?KEYPAD
            BIT     0020H.4   0000H.3   UNIT         _BIT_GROUP_
            BIT     0020H.7   0000H.1   UNIT         ?BI?MAIN
            IDATA   0021H     0001H     UNIT         ?STACK

            * * * * * * *  X D A T A   M E M O R Y  * * * * * * *
            XDATA   0000H     03C8H     UNIT         ?XD?BIPOLARMOTOR
            XDATA   03C8H     0130H     UNIT         _XDATA_GROUP_
            XDATA   04F8H     0040H     UNIT         ?XD?_FINDDET4X4?BIPOLARMOTOR
            XDATA   0538H     001CH     UNIT         ?XD?MAIN
            XDATA   0554H     0014H     UNIT         ?XD?LINEAR_INTERPOLATE?BIPOLARMOTOR
            XDATA   0568H     0009H     UNIT         ?XD?KEYPAD
            XDATA   0571H     0008H     UNIT         ?XD?_READ_VCNL4035?VCNL4035
            XDATA   0579H     0004H     UNIT         ?XD?_DISPLAY_PROX?MAIN
            XDATA   057DH     0003H     UNIT         ?XD?_SENDSTRING?UART1
            XDATA   0580H     0001H     UNIT         ?XD?UC_ACK?VCNL4035
            XDATA   0581H     0001H     UNIT         ?XD?UC_NACK?VCNL4035
            XDATA   0582H     0001H     UNIT         ?XD?_DISPLAYLCD_VCNL4035?VCNL4035

            * * * * * * *   C O D E   M E M O R Y   * * * * * * *
            CODE    0000H     0003H     ABSOLUTE     
            CODE    0003H     0006H     UNIT         ?PR?_TEN?UART1
            CODE    0009H     0001H     UNIT         ?PR?TM0_ISR?MAIN
            CODE    000AH     0001H     UNIT         ?PR?_DECTOBCD?UART1
            CODE    000BH     0003H     ABSOLUTE     
            CODE    000EH     0015H     UNIT         ?PR?_DISPLAY_LINE?LCD_DRIVER_SPLC780D
            CODE    0023H     0003H     ABSOLUTE     
            CODE    0026H     08DCH     UNIT         ?C?LIB_CODE
            CODE    0902H     0899H     UNIT         ?PR?_UPDATE_POSITION?BIPOLARMOTOR
            CODE    119BH     07A2H     UNIT         ?PR?SUNPOS?SUNPOS
BL51 BANKED LINKER/LOCATER V6.22                                                      09/07/2018  12:10:50  PAGE 3


            CODE    193DH     0459H     UNIT         ?PR?SECOND_ORDER_INTERPOLATE?BIPOLARMOTOR
            CODE    1D96H     0414H     UNIT         ?C_INITSEG
            CODE    21AAH     02C0H     UNIT         ?PR?_FINDDET4X4?BIPOLARMOTOR
            CODE    246AH     02A0H     UNIT         ?PR?KEY_PROCESS?KEYPAD
            CODE    270AH     0288H     UNIT         ?PR?MAIN?MAIN
            CODE    2992H     01D1H     UNIT         ?PR?_FINDDET3X3?BIPOLARMOTOR
            CODE    2B63H     01B5H     UNIT         ?PR?_DISPLAY_POS?MAIN
            CODE    2D18H     018DH     UNIT         ?PR?KEY_SCAN?KEYPAD
            CODE    2EA5H     0188H     UNIT         ?PR?SIN?SIN
            CODE    302DH     0166H     UNIT         ?PR?_POW?POW
            CODE    3193H     0129H     UNIT         ?PR?LOG?LOG
            CODE    32BCH     0122H     UNIT         ?PR?ATAN?ATAN
            CODE    33DEH     00DBH     UNIT         ?PR?_ATOI?ATOI
            CODE    34B9H     00ACH     UNIT         ?PR?SQRT?SQRT
            CODE    3565H     00A0H     UNIT         ?PR?LINEAR_INTERPOLATE?BIPOLARMOTOR
            CODE    3605H     009DH     UNIT         ?PR?_ATAN2?ATAN2
            CODE    36A2H     009BH     UNIT         ?PR?UART?MAIN
            CODE    373DH     009AH     UNIT         ?PR?_READ_VCNL4035?VCNL4035
            CODE    37D7H     009AH     UNIT         ?PR?EXP?EXP
            CODE    3871H     0095H     UNIT         ?PR?_DISPLAY_PROX?MAIN
            CODE    3906H     008CH     UNIT         ?C_C51STARTUP
            CODE    3992H     0084H     UNIT         ?PR?_DAY_OF_YEAR?PCF85063BTL
            CODE    3A16H     0075H     UNIT         ?PR?_WRITEDATA?LCD_DRIVER_SPLC780D
            CODE    3A8BH     006FH     UNIT         ?PR?_READ_TIME?PCF85063BTL
            CODE    3AFAH     0059H     UNIT         ?PR?LCD_INIT?LCD_DRIVER_SPLC780D
            CODE    3B53H     0059H     UNIT         ?PR?_STEP_MOVE?BIPOLARMOTOR
            CODE    3BACH     004AH     UNIT         ?PR?ACOS?ACOS
            CODE    3BF6H     0049H     UNIT         ?PR?_WRITE_VCNL4035X?VCNL4035
            CODE    3C3FH     0044H     UNIT         ?C?LDIV
            CODE    3C83H     0040H     UNIT         ?PR?_COMMAND?LCD_DRIVER_SPLC780D
            CODE    3CC3H     003BH     UNIT         ?PR?ASIN?ASIN
            CODE    3CFEH     0034H     UNIT         ?PR?_MOVE?BIPOLARMOTOR
            CODE    3D32H     0033H     UNIT         ?PR?_SENDSTRING?UART1
            CODE    3D65H     002CH     UNIT         ?PR?I2C_RECEIVEBYTE?VCNL4035
            CODE    3D91H     002BH     UNIT         ?PR?_WAIT_MS_I2C?VCNL4035
            CODE    3DBCH     0024H     UNIT         ?PR?_WAIT_MS?LCD_DRIVER_SPLC780D
            CODE    3DE0H     0022H     UNIT         ?PR?_I2C_SENDBYTE?VCNL4035
            CODE    3E02H     0020H     UNIT         ?PR?_SPI_SENDBYTE?PCF85063BTL
            CODE    3E22H     0020H     UNIT         ?PR?SPI_RECEIVEBYTE?PCF85063BTL
            CODE    3E42H     001EH     UNIT         ?PR?_DELAY_MS?KEYPAD
            CODE    3E60H     001EH     UNIT         ?PR?_WAIT_MS_IIC?VCNL4035
            CODE    3E7EH     001DH     UNIT         ?PR?_DISPLAYLCD?LCD_DRIVER_SPLC780D
            CODE    3E9BH     001BH     UNIT         ?PR?I2C_ACK?VCNL4035
            CODE    3EB6H     001BH     UNIT         ?PR?_BCDTODEC1?BIPOLARMOTOR
            CODE    3ED1H     0018H     UNIT         ?PR?_SPI_WRITETIME?PCF85063BTL
            CODE    3EE9H     0017H     UNIT         ?PR?_ASCIITOBCD?UART1
            CODE    3F00H     0017H     UNIT         ?PR?I2C_INIT?VCNL4035
            CODE    3F17H     0015H     UNIT         ?PR?I2C_STOP?VCNL4035
            CODE    3F2CH     0014H     UNIT         ?PR?_PCF85063BTL_DELAY?PCF85063BTL
            CODE    3F40H     0014H     UNIT         ?PR?_ISSPACE?ISSPACE
            CODE    3F54H     0013H     UNIT         ?PR?I2C_START?VCNL4035
            CODE    3F67H     0011H     UNIT         ?PR?_SPI_READTIME?PCF85063BTL
            CODE    3F78H     0011H     UNIT         ?PR?_BCDTODEC?PCF85063BTL
            CODE    3F89H     0011H     UNIT         ?PR?INITUART1?UART1
            CODE    3F9AH     000FH     UNIT         ?PR?UC_NACK?VCNL4035
            CODE    3FA9H     000FH     UNIT         ?PR?_ISDIGIT?ISDIGIT
            CODE    3FB8H     000DH     UNIT         ?PR?SPI_INIT?PCF85063BTL
BL51 BANKED LINKER/LOCATER V6.22                                                      09/07/2018  12:10:50  PAGE 4


            CODE    3FC5H     000CH     UNIT         ?PR?KEYPAD_IO_INIT?KEYPAD
            CODE    3FD1H     000CH     UNIT         ?PR?_ABS?ABS
            CODE    3FDDH     000AH     UNIT         ?PR?LCD_RETURN_HOME?LCD_DRIVER_SPLC780D
            CODE    3FE7H     000AH     UNIT         ?PR?LCD_CLEAR?LCD_DRIVER_SPLC780D
            CODE    3FF1H     0009H     UNIT         ?PR?_SENDUART1?MAIN
            CODE    3FFAH     0006H     UNIT         ?PR?UC_ACK?VCNL4035
            CODE    4000H     0006H     UNIT         ?PR?_DISPLAYLCD_VCNL4035?VCNL4035
            CODE    4006H     0005H     UNIT         ?PR?_UNIT?UART1
            CODE    400BH     0005H     UNIT         ?PR?_ASCII_LETTER?UART1
            CODE    4010H     0001H     UNIT         ?PR?NOP?VCNL4035



OVERLAY MAP OF MODULE:   .\Obj\GPIO_RTC_Test (MAIN)


SEGMENT                                             BIT_GROUP          XDATA_GROUP
  +--> CALLED SEGMENT                            START    LENGTH     START    LENGTH
------------------------------------------------------------------------------------
?PR?UART?MAIN                                    -----    -----      -----    -----
  +--> ?PR?_ASCIITOBCD?UART1

?PR?_ASCIITOBCD?UART1                            -----    -----      -----    -----
  +--> ?PR?_ATOI?ATOI

?PR?_ATOI?ATOI                                   0020H.4  0000H.1    03C8H    0005H
  +--> ?PR?_ISSPACE?ISSPACE
  +--> ?PR?_ISDIGIT?ISDIGIT

*** NEW ROOT ***************************************************

?C_C51STARTUP                                    -----    -----      -----    -----
  +--> ?PR?MAIN?MAIN
  +--> ?C_INITSEG

?PR?MAIN?MAIN                                    -----    -----      03CDH    0017H
  +--> ?PR?LCD_INIT?LCD_DRIVER_SPLC780D
  +--> ?PR?SPI_INIT?PCF85063BTL
  +--> ?PR?KEYPAD_IO_INIT?KEYPAD
  +--> ?PR?I2C_INIT?VCNL4035
  +--> ?PR?_DELAY_MS?KEYPAD
  +--> ?PR?_DISPLAY_LINE?LCD_DRIVER_SPLC780D
  +--> ?PR?_WRITEDATA?LCD_DRIVER_SPLC780D
  +--> ?PR?KEY_PROCESS?KEYPAD
  +--> ?PR?_COMMAND?LCD_DRIVER_SPLC780D
  +--> ?PR?_DISPLAY_POS?MAIN
  +--> ?PR?_DISPLAYLCD?LCD_DRIVER_SPLC780D
  +--> ?PR?_STEP_MOVE?BIPOLARMOTOR
  +--> ?PR?LCD_RETURN_HOME?LCD_DRIVER_SPLC780D
  +--> ?PR?_READ_TIME?PCF85063BTL
  +--> ?PR?_UPDATE_POSITION?BIPOLARMOTOR

?PR?LCD_INIT?LCD_DRIVER_SPLC780D                 -----    -----      -----    -----
  +--> ?PR?_WAIT_MS?LCD_DRIVER_SPLC780D
  +--> ?PR?_COMMAND?LCD_DRIVER_SPLC780D

?PR?_COMMAND?LCD_DRIVER_SPLC780D                 -----    -----      -----    -----
BL51 BANKED LINKER/LOCATER V6.22                                                      09/07/2018  12:10:50  PAGE 5


  +--> ?PR?_WAIT_MS?LCD_DRIVER_SPLC780D

?PR?I2C_INIT?VCNL4035                            -----    -----      -----    -----
  +--> ?PR?_WRITE_VCNL4035X?VCNL4035

?PR?_WRITE_VCNL4035X?VCNL4035                    -----    -----      03E4H    0003H
  +--> ?PR?I2C_START?VCNL4035
  +--> ?PR?_WAIT_MS_I2C?VCNL4035
  +--> ?PR?I2C_ACK?VCNL4035
  +--> ?PR?_I2C_SENDBYTE?VCNL4035
  +--> ?PR?I2C_STOP?VCNL4035

?PR?I2C_START?VCNL4035                           -----    -----      -----    -----
  +--> ?PR?_WAIT_MS_IIC?VCNL4035
  +--> ?PR?_WAIT_MS_I2C?VCNL4035

?PR?I2C_ACK?VCNL4035                             -----    -----      03E7H    0001H
  +--> ?PR?_I2C_SENDBYTE?VCNL4035
  +--> ?PR?_WAIT_MS_I2C?VCNL4035

?PR?_I2C_SENDBYTE?VCNL4035                       -----    -----      -----    -----
  +--> ?PR?_WAIT_MS_I2C?VCNL4035

?PR?I2C_STOP?VCNL4035                            -----    -----      -----    -----
  +--> ?PR?_WAIT_MS_I2C?VCNL4035

?PR?_DISPLAY_LINE?LCD_DRIVER_SPLC780D            -----    -----      -----    -----
  +--> ?PR?_COMMAND?LCD_DRIVER_SPLC780D

?PR?_WRITEDATA?LCD_DRIVER_SPLC780D               -----    -----      03EEH    0001H
  +--> ?PR?_WAIT_MS?LCD_DRIVER_SPLC780D

?PR?KEY_PROCESS?KEYPAD                           -----    -----      03E4H    0006H
  +--> ?PR?KEY_SCAN?KEYPAD
  +--> ?PR?_SPI_WRITETIME?PCF85063BTL
  +--> ?PR?LCD_CLEAR?LCD_DRIVER_SPLC780D
  +--> ?PR?_COMMAND?LCD_DRIVER_SPLC780D
  +--> ?PR?_WRITEDATA?LCD_DRIVER_SPLC780D

?PR?KEY_SCAN?KEYPAD                              -----    -----      03EAH    0003H

?PR?_SPI_WRITETIME?PCF85063BTL                   -----    -----      -----    -----
  +--> ?PR?_SPI_SENDBYTE?PCF85063BTL

?PR?_SPI_SENDBYTE?PCF85063BTL                    -----    -----      -----    -----
  +--> ?PR?_PCF85063BTL_DELAY?PCF85063BTL

?PR?LCD_CLEAR?LCD_DRIVER_SPLC780D                -----    -----      -----    -----
  +--> ?PR?_COMMAND?LCD_DRIVER_SPLC780D

?PR?_DISPLAY_POS?MAIN                            -----    -----      03E4H    000AH
  +--> ?PR?_ABS?ABS
  +--> ?PR?_WRITEDATA?LCD_DRIVER_SPLC780D

?PR?_DISPLAYLCD?LCD_DRIVER_SPLC780D              -----    -----      03E4H    0001H
  +--> ?PR?_WRITEDATA?LCD_DRIVER_SPLC780D

BL51 BANKED LINKER/LOCATER V6.22                                                      09/07/2018  12:10:50  PAGE 6


?PR?_STEP_MOVE?BIPOLARMOTOR                      0020H.6  0000H.1    0493H    0004H
  +--> ?PR?_WAIT_MS?LCD_DRIVER_SPLC780D

?PR?LCD_RETURN_HOME?LCD_DRIVER_SPLC780D          -----    -----      -----    -----
  +--> ?PR?_COMMAND?LCD_DRIVER_SPLC780D

?PR?_READ_TIME?PCF85063BTL                       -----    -----      03E4H    000FH
  +--> ?PR?_SPI_READTIME?PCF85063BTL

?PR?_SPI_READTIME?PCF85063BTL                    -----    -----      -----    -----
  +--> ?PR?_SPI_SENDBYTE?PCF85063BTL
  +--> ?PR?SPI_RECEIVEBYTE?PCF85063BTL

?PR?SPI_RECEIVEBYTE?PCF85063BTL                  -----    -----      -----    -----
  +--> ?PR?_PCF85063BTL_DELAY?PCF85063BTL

?PR?_UPDATE_POSITION?BIPOLARMOTOR                -----    -----      03E4H    00ABH
  +--> ?PR?_BCDTODEC1?BIPOLARMOTOR
  +--> ?PR?_DAY_OF_YEAR?PCF85063BTL
  +--> ?PR?SUNPOS?SUNPOS
  +--> ?PR?SECOND_ORDER_INTERPOLATE?BIPOLARM...
  +--> ?PR?_MOVE?BIPOLARMOTOR

?PR?_DAY_OF_YEAR?PCF85063BTL                     -----    -----      -----    -----
  +--> ?PR?_BCDTODEC?PCF85063BTL

?PR?SUNPOS?SUNPOS                                -----    -----      048FH    005DH
  +--> ?PR?SIN?SIN
  +--> ?PR?_ATAN2?ATAN2
  +--> ?PR?ASIN?ASIN
  +--> ?PR?ACOS?ACOS

?PR?SIN?SIN                                      0020H.5  0000H.1    04ECH    0004H

?PR?_ATAN2?ATAN2                                 -----    -----      04ECH    0008H
  +--> ?PR?ATAN?ATAN

?PR?ATAN?ATAN                                    0020H.5  0000H.2    04F4H    0004H

?PR?ASIN?ASIN                                    -----    -----      -----    -----
  +--> ?PR?SQRT?SQRT
  +--> ?PR?ATAN?ATAN

?PR?SQRT?SQRT                                    -----    -----      04ECH    0004H

?PR?ACOS?ACOS                                    -----    -----      -----    -----
  +--> ?PR?SQRT?SQRT
  +--> ?PR?ATAN?ATAN

?PR?SECOND_ORDER_INTERPOLATE?BIPOLARM...         -----    -----      048FH    0030H
  +--> ?PR?_POW?POW
  +--> ?PR?_FINDDET3X3?BIPOLARMOTOR

?PR?_POW?POW                                     -----    -----      04BFH    000AH
  +--> ?PR?LOG?LOG
  +--> ?PR?EXP?EXP

BL51 BANKED LINKER/LOCATER V6.22                                                      09/07/2018  12:10:50  PAGE 7


?PR?LOG?LOG                                      0020H.5  0000H.1    04C9H    0004H

?PR?_FINDDET3X3?BIPOLARMOTOR                     -----    -----      04BFH    0024H

?PR?_MOVE?BIPOLARMOTOR                           0020H.5  0000H.1    048FH    0004H
  +--> ?PR?_STEP_MOVE?BIPOLARMOTOR



UNRESOLVED EXTERNAL SYMBOLS:
   AUTO_MODE



SYMBOL TABLE OF MODULE:  .\Obj\GPIO_RTC_Test (MAIN)

  VALUE           TYPE          NAME
  ----------------------------------

  -------         MODULE        MAIN
  C:0000H         SYMBOL        _ICE_DUMMY_
  D:0080H         PUBLIC        P0
  D:0090H         PUBLIC        P1
  D:00A0H         PUBLIC        P2
  D:00B0H         PUBLIC        P3
  D:00C0H         PUBLIC        P4
  D:00C8H         PUBLIC        P5
  X:0540H         SYMBOL        PressedKey
  B:00A8H.7       PUBLIC        EA
  D:00E8H         PUBLIC        P6
  D:00F8H         PUBLIC        P7
  X:0544H         PUBLIC        RX_Data_Uart_Cnt
  D:00A8H         PUBLIC        IE
  D:00B8H         PUBLIC        IP
  B:0098H.0       PUBLIC        RI
  B:0098H.1       PUBLIC        TI
  C:36A2H         PUBLIC        Uart
  D:00D8H         PUBLIC        CCON
  C:270AH         PUBLIC        main
  D:0099H         PUBLIC        SBUF
  D:0098H         PUBLIC        SCON
  D:0089H         PUBLIC        TMOD
  D:0088H         PUBLIC        TCON
  B:00B0H.3       PUBLIC        P33
  X:0546H         SYMBOL        KeyCount
  X:0548H         PUBLIC        Rec_data_hour
  X:054BH         PUBLIC        Rec_data_min
  D:008EH         PUBLIC        AUXR
  C:0009H         PUBLIC        tm0_isr
  B:0020H.7       PUBLIC        busy
  D:00E0H         PUBLIC        ACC
  B:00A8H.1       PUBLIC        ET0
  D:008CH         PUBLIC        TH0
  X:054EH         PUBLIC        hour_count
  D:008AH         PUBLIC        TL0
  X:054FH         PUBLIC        min_count
  B:0088H.4       PUBLIC        TR0
BL51 BANKED LINKER/LOCATER V6.22                                                      09/07/2018  12:10:50  PAGE 8


  X:0550H         SYMBOL        KeyNum
  X:0551H         SYMBOL        KeyNum_Old
  C:3871H         PUBLIC        _Display_Prox
  C:2B63H         PUBLIC        _Display_Pos
  X:0552H         PUBLIC        st_time
  D:00D0H         PUBLIC        PSW
  C:3FF1H         PUBLIC        _SendUART1
  -------         PROC          TM0_ISR
  C:0009H         LINE#         53
  C:0009H         LINE#         56
  -------         ENDPROC       TM0_ISR
  -------         PROC          MAIN
  -------         DO            
  X:03CDH         SYMBOL        seconds
  X:03CEH         SYMBOL        mins
  X:03CFH         SYMBOL        hours
  X:03D0H         SYMBOL        days
  X:03D1H         SYMBOL        months
  X:03D2H         SYMBOL        mins1
  X:03D3H         SYMBOL        hours1
  X:03D4H         SYMBOL        mins2
  X:03D5H         SYMBOL        hours2
  X:03D6H         SYMBOL        prox_data
  X:0538H         SYMBOL        KeyCount
  X:053AH         SYMBOL        KeyNum_Old
  X:053BH         SYMBOL        KeyNum
  X:053CH         SYMBOL        PressedKey
  X:03D8H         SYMBOL        prox_flag
  X:03D9H         SYMBOL        count
  X:03DBH         SYMBOL        numStr
  X:03E0H         SYMBOL        current_position
  -------         ENDDO         
  C:270AH         LINE#         58
  C:270AH         LINE#         59
  C:270AH         LINE#         64
  C:2710H         LINE#         66
  C:2715H         LINE#         68
  C:271FH         LINE#         69
  C:2721H         LINE#         70
  C:2723H         LINE#         71
  C:2725H         LINE#         72
  C:272CH         LINE#         81
  C:272FH         LINE#         82
  C:2732H         LINE#         83
  C:2735H         LINE#         85
  C:2738H         LINE#         87
  C:273BH         LINE#         88
  C:273EH         LINE#         89
  C:2741H         LINE#         90
  C:2743H         LINE#         91
  C:2745H         LINE#         92
  C:2747H         LINE#         94
  C:2749H         LINE#         96
  C:2750H         LINE#         98
  C:2757H         LINE#         102
  C:275EH         LINE#         103
  C:2763H         LINE#         104
BL51 BANKED LINKER/LOCATER V6.22                                                      09/07/2018  12:10:50  PAGE 9


  C:2768H         LINE#         105
  C:276DH         LINE#         106
  C:2772H         LINE#         107
  C:2777H         LINE#         110
  C:2777H         LINE#         111
  C:2777H         LINE#         112
  C:277AH         LINE#         115
  C:277AH         LINE#         118
  C:277FH         LINE#         119
  C:2784H         LINE#         121
  C:2789H         LINE#         122
  C:278EH         LINE#         123
  C:2793H         LINE#         124
  C:2798H         LINE#         126
  C:27A9H         LINE#         128
  C:27B0H         LINE#         129
  C:27B8H         LINE#         130
  C:27BDH         LINE#         131
  C:27C5H         LINE#         132
  C:27CAH         LINE#         133
  C:27D4H         LINE#         134
  C:27D9H         LINE#         135
  C:27E1H         LINE#         137
  C:27E9H         LINE#         138
  C:27EEH         LINE#         139
  C:27F8H         LINE#         140
  C:27F8H         LINE#         141
  C:27FAH         LINE#         142
  C:27FCH         LINE#         143
  C:2806H         LINE#         144
  C:2806H         LINE#         145
  C:280BH         LINE#         146
  C:280BH         LINE#         158
  C:2818H         LINE#         159
  C:2818H         LINE#         160
  C:2822H         LINE#         161
  C:2839H         LINE#         162
  C:2839H         LINE#         163
  C:283BH         LINE#         164
  C:283DH         LINE#         166
  C:283DH         LINE#         167
  C:2848H         LINE#         168
  C:2848H         LINE#         169
  C:284DH         LINE#         170
  C:284DH         LINE#         171
  C:285AH         LINE#         172
  C:285AH         LINE#         175
  C:2864H         LINE#         176
  C:287BH         LINE#         177
  C:287BH         LINE#         178
  C:287DH         LINE#         179
  C:287FH         LINE#         181
  C:287FH         LINE#         182
  C:288AH         LINE#         183
  C:288AH         LINE#         184
  C:288FH         LINE#         185
  C:2891H         LINE#         186
BL51 BANKED LINKER/LOCATER V6.22                                                      09/07/2018  12:10:50  PAGE 10


  C:2891H         LINE#         195
  C:28B3H         LINE#         196
  C:28B3H         LINE#         197
  C:28BDH         LINE#         198
  C:28C3H         LINE#         199
  C:28C5H         LINE#         200
  C:28C7H         LINE#         201
  C:28C9H         LINE#         202
  C:28C9H         LINE#         203
  C:28CCH         LINE#         205
  C:28CCH         LINE#         206
  C:28D4H         LINE#         207
  C:28DCH         LINE#         208
  C:28E4H         LINE#         209
  C:28ECH         LINE#         210
  C:2927H         LINE#         214
  C:2934H         LINE#         215
  C:2934H         LINE#         216
  C:2967H         LINE#         217
  C:298FH         LINE#         219
  C:298FH         LINE#         236
  -------         ENDPROC       MAIN
  -------         PROC          UART
  C:36A2H         LINE#         243
  C:36AFH         LINE#         245
  C:36B2H         LINE#         246
  C:36B2H         LINE#         247
  C:36C0H         LINE#         248
  C:36C2H         LINE#         249
  C:36D4H         LINE#         250
  C:36E3H         LINE#         251
  C:36EEH         LINE#         252
  C:36EEH         LINE#         255
  C:36FBH         LINE#         256
  C:3701H         LINE#         257
  C:3701H         LINE#         258
  C:3707H         LINE#         259
  C:3715H         LINE#         260
  C:3723H         LINE#         261
  C:372BH         LINE#         266
  C:372BH         LINE#         267
  C:372BH         LINE#         270
  C:372BH         LINE#         271
  C:372EH         LINE#         272
  C:372EH         LINE#         273
  C:3730H         LINE#         274
  C:3732H         LINE#         275
  C:3732H         LINE#         276
  -------         ENDPROC       UART
  -------         PROC          _SENDUART1
  D:0007H         SYMBOL        dat
  C:3FF1H         LINE#         279
  C:3FF1H         LINE#         280
  C:3FF1H         LINE#         281
  C:3FF4H         LINE#         282
  C:3FF6H         LINE#         283
  C:3FF7H         LINE#         284
BL51 BANKED LINKER/LOCATER V6.22                                                      09/07/2018  12:10:50  PAGE 11


  C:3FF9H         LINE#         285
  -------         ENDPROC       _SENDUART1
  -------         PROC          _DISPLAY_PROX
  D:0002H         SYMBOL        dat
  -------         DO            
  X:0579H         SYMBOL        unit
  X:057AH         SYMBOL        ten
  X:057BH         SYMBOL        hundred
  X:057CH         SYMBOL        thousand
  -------         ENDDO         
  C:3871H         LINE#         288
  C:3875H         LINE#         289
  C:3875H         LINE#         291
  C:3881H         LINE#         292
  C:3891H         LINE#         293
  C:38ADH         LINE#         294
  C:38DDH         LINE#         295
  C:38E7H         LINE#         296
  C:38F1H         LINE#         297
  C:38FBH         LINE#         298
  C:3905H         LINE#         300
  -------         ENDPROC       _DISPLAY_PROX
  -------         PROC          _DISPLAY_POS
  X:03E4H         SYMBOL        sign_dat
  -------         DO            
  X:03E8H         SYMBOL        unit
  X:03E9H         SYMBOL        ten
  X:03EAH         SYMBOL        hundred
  D:0003H         SYMBOL        thousand
  X:03EBH         SYMBOL        after_dot
  X:03ECH         SYMBOL        dat
  -------         ENDDO         
  C:2B63H         LINE#         303
  C:2B69H         LINE#         304
  C:2B69H         LINE#         308
  C:2B85H         LINE#         309
  C:2B9FH         LINE#         310
  C:2BC3H         LINE#         312
  C:2C0DH         LINE#         314
  C:2C24H         LINE#         315
  C:2C31H         LINE#         316
  C:2C53H         LINE#         317
  C:2C88H         LINE#         318
  C:2CA0H         LINE#         319
  C:2CA0H         LINE#         321
  C:2CAAH         LINE#         322
  C:2CB4H         LINE#         323
  C:2CBEH         LINE#         324
  C:2CC3H         LINE#         325
  C:2CCDH         LINE#         326
  C:2CD2H         LINE#         327
  C:2CD7H         LINE#         328
  C:2CD9H         LINE#         329
  C:2CDBH         LINE#         331
  C:2CDBH         LINE#         333
  C:2CE0H         LINE#         334
  C:2CEAH         LINE#         335
BL51 BANKED LINKER/LOCATER V6.22                                                      09/07/2018  12:10:50  PAGE 12


  C:2CF4H         LINE#         336
  C:2CFEH         LINE#         337
  C:2D03H         LINE#         338
  C:2D0DH         LINE#         339
  C:2D12H         LINE#         340
  C:2D17H         LINE#         342
  C:2D17H         LINE#         344
  -------         ENDPROC       _DISPLAY_POS
  -------         ENDMOD        MAIN

  -------         MODULE        PCF85063BTL
  C:0000H         SYMBOL        _ICE_DUMMY_
  D:0096H         PUBLIC        P2M0
  D:0080H         PUBLIC        P0
  D:0095H         PUBLIC        P2M1
  D:0090H         PUBLIC        P1
  D:00A0H         PUBLIC        P2
  D:00B0H         PUBLIC        P3
  D:00C0H         PUBLIC        P4
  D:00C8H         PUBLIC        P5
  D:00E8H         PUBLIC        P6
  B:00A0H.2       PUBLIC        PCF85063BTL_SDI
  D:00F8H         PUBLIC        P7
  B:00A0H.1       PUBLIC        PCF85063BTL_SCK
  B:00A0H.2       PUBLIC        PCF85063BTL_SDO
  D:00A8H         PUBLIC        IE
  C:3A8BH         PUBLIC        _Read_time
  C:3F32H         PUBLIC        _PCF85063BTL_Delay
  D:00B8H         PUBLIC        IP
  D:00D8H         PUBLIC        CCON
  C:3992H         PUBLIC        _Day_Of_Year
  C:3E22H         PUBLIC        SPI_ReceiveByte
  D:0098H         PUBLIC        SCON
  D:0088H         PUBLIC        TCON
  C:3F78H         PUBLIC        _BCDtoDec
  B:00A0H.0       PUBLIC        PCF85063BTL_CS
  C:3F67H         PUBLIC        _SPI_ReadTime
  C:3FB8H         PUBLIC        SPI_Init
  C:3ED1H         PUBLIC        _SPI_WriteTime
  C:3E02H         PUBLIC        _SPI_SendByte
  D:00D0H         PUBLIC        PSW
  C:3F2EH         SYMBOL        L?0047
  -------         PROC          L?0046
  -------         ENDPROC       L?0046
  C:3F2EH         SYMBOL        L?0047
  -------         PROC          _PCF85063BTL_DELAY
  D:0006H         SYMBOL        us
  C:3F32H         LINE#         8
  C:3F32H         LINE#         9
  C:3F32H         LINE#         10
  C:3F3CH         LINE#         11
  C:3F3CH         LINE#         12
  C:3F3DH         LINE#         13
  C:3F3FH         LINE#         14
  -------         ENDPROC       _PCF85063BTL_DELAY
  -------         PROC          _SPI_SENDBYTE
  D:0005H         SYMBOL        dat
BL51 BANKED LINKER/LOCATER V6.22                                                      09/07/2018  12:10:50  PAGE 13


  -------         DO            
  D:0003H         SYMBOL        i
  -------         ENDDO         
  C:3E02H         LINE#         17
  C:3E04H         LINE#         18
  C:3E04H         LINE#         20
  C:3E06H         LINE#         21
  C:3E06H         LINE#         22
  C:3E08H         LINE#         23
  C:3E0CH         LINE#         24
  C:3E0CH         LINE#         25
  C:3E0EH         LINE#         26
  C:3E10H         LINE#         28
  C:3E10H         LINE#         29
  C:3E12H         LINE#         30
  C:3E12H         LINE#         31
  C:3E15H         LINE#         32
  C:3E15H         LINE#         33
  C:3E18H         LINE#         34
  C:3E1CH         LINE#         35
  C:3E21H         LINE#         36
  -------         ENDPROC       _SPI_SENDBYTE
  -------         PROC          SPI_RECEIVEBYTE
  -------         DO            
  D:0003H         SYMBOL        i
  D:0005H         SYMBOL        dat
  -------         ENDDO         
  C:3E22H         LINE#         39
  C:3E22H         LINE#         40
  C:3E22H         LINE#         42
  C:3E24H         LINE#         44
  C:3E26H         LINE#         45
  C:3E27H         LINE#         46
  C:3E27H         LINE#         47
  C:3E2BH         LINE#         48
  C:3E2DH         LINE#         49
  C:3E30H         LINE#         51
  C:3E33H         LINE#         52
  C:3E33H         LINE#         53
  C:3E37H         LINE#         54
  C:3E37H         LINE#         55
  C:3E37H         LINE#         56
  C:3E3AH         LINE#         57
  C:3E3FH         LINE#         58
  C:3E41H         LINE#         59
  -------         ENDPROC       SPI_RECEIVEBYTE
  -------         PROC          _SPI_READTIME
  D:0007H         SYMBOL        addr
  -------         DO            
  D:0006H         SYMBOL        dat
  -------         ENDDO         
  C:3F67H         LINE#         61
  C:3F67H         LINE#         62
  C:3F67H         LINE#         64
  C:3F69H         LINE#         65
  C:3F6BH         LINE#         66
  C:3F72H         LINE#         67
BL51 BANKED LINKER/LOCATER V6.22                                                      09/07/2018  12:10:50  PAGE 14


  C:3F75H         LINE#         68
  C:3F77H         LINE#         69
  C:3F77H         LINE#         70
  -------         ENDPROC       _SPI_READTIME
  -------         PROC          _SPI_WRITETIME
  D:0002H         SYMBOL        val
  D:0005H         SYMBOL        addr
  C:3ED1H         LINE#         71
  C:3ED3H         LINE#         72
  C:3ED3H         LINE#         74
  C:3ED5H         LINE#         75
  C:3EDCH         LINE#         76
  C:3EE1H         LINE#         77
  C:3EE6H         LINE#         78
  C:3EE8H         LINE#         79
  -------         ENDPROC       _SPI_WRITETIME
  -------         PROC          SPI_INIT
  C:3FB8H         LINE#         83
  C:3FB8H         LINE#         84
  C:3FB8H         LINE#         89
  C:3FBBH         LINE#         90
  C:3FBEH         LINE#         91
  C:3FC0H         LINE#         92
  C:3FC2H         LINE#         93
  C:3FC4H         LINE#         94
  -------         ENDPROC       SPI_INIT
  -------         PROC          _READ_TIME
  X:03E4H         SYMBOL        months
  X:03E7H         SYMBOL        days
  X:03EAH         SYMBOL        hours
  X:03EDH         SYMBOL        mins
  X:03F0H         SYMBOL        seconds
  C:3A8BH         LINE#         96
  C:3A96H         LINE#         97
  C:3A96H         LINE#         99
  C:3AAAH         LINE#         101
  C:3ABEH         LINE#         103
  C:3AD2H         LINE#         108
  C:3AE6H         LINE#         113
  -------         ENDPROC       _READ_TIME
  -------         PROC          _BCDTODEC
  D:0007H         SYMBOL        bcd
  -------         DO            
  D:0006H         SYMBOL        hi
  D:0007H         SYMBOL        lo
  -------         ENDDO         
  C:3F78H         LINE#         119
  C:3F78H         LINE#         120
  C:3F78H         LINE#         122
  C:3F7DH         LINE#         123
  C:3F81H         LINE#         124
  C:3F88H         LINE#         125
  -------         ENDPROC       _BCDTODEC
  -------         PROC          _DAY_OF_YEAR
  D:0007H         SYMBOL        months_bcd
  D:0005H         SYMBOL        days_bcd
  -------         DO            
BL51 BANKED LINKER/LOCATER V6.22                                                      09/07/2018  12:10:50  PAGE 15


  D:0004H         SYMBOL        months
  D:0007H         SYMBOL        days
  -------         ENDDO         
  C:3992H         LINE#         126
  C:3992H         LINE#         127
  C:3992H         LINE#         130
  C:3997H         LINE#         132
  C:399CH         LINE#         134
  C:39D5H         LINE#         135
  C:39D5H         LINE#         136
  C:39D5H         LINE#         137
  C:39D8H         LINE#         138
  C:39D8H         LINE#         139
  C:39D8H         LINE#         140
  C:39DDH         LINE#         141
  C:39DDH         LINE#         142
  C:39DDH         LINE#         143
  C:39E2H         LINE#         144
  C:39E2H         LINE#         145
  C:39E2H         LINE#         146
  C:39E7H         LINE#         147
  C:39E7H         LINE#         148
  C:39E7H         LINE#         149
  C:39ECH         LINE#         150
  C:39ECH         LINE#         151
  C:39ECH         LINE#         152
  C:39F1H         LINE#         153
  C:39F1H         LINE#         154
  C:39F1H         LINE#         155
  C:39F6H         LINE#         156
  C:39F6H         LINE#         157
  C:39F6H         LINE#         158
  C:39FBH         LINE#         159
  C:39FBH         LINE#         160
  C:39FBH         LINE#         161
  C:3A03H         LINE#         162
  C:3A03H         LINE#         163
  C:3A03H         LINE#         164
  C:3A08H         LINE#         165
  C:3A08H         LINE#         166
  C:3A08H         LINE#         167
  C:3A0DH         LINE#         168
  C:3A0DH         LINE#         169
  C:3A0DH         LINE#         170
  C:3A15H         LINE#         171
  C:3A15H         LINE#         172
  C:3A15H         LINE#         173
  -------         ENDPROC       _DAY_OF_YEAR
  -------         ENDMOD        PCF85063BTL

  -------         MODULE        UART1
  C:0000H         SYMBOL        _ICE_DUMMY_
  D:0080H         PUBLIC        P0
  D:0090H         PUBLIC        P1
  D:00A0H         PUBLIC        P2
  D:00B0H         PUBLIC        P3
  D:00C0H         PUBLIC        P4
BL51 BANKED LINKER/LOCATER V6.22                                                      09/07/2018  12:10:50  PAGE 16


  D:00C8H         PUBLIC        P5
  B:00A8H.7       PUBLIC        EA
  D:00E8H         PUBLIC        P6
  D:00F8H         PUBLIC        P7
  C:3D32H         PUBLIC        _SendString
  D:00A8H         PUBLIC        IE
  B:00A8H.4       PUBLIC        ES
  D:00B8H         PUBLIC        IP
  C:3EE9H         PUBLIC        _ASCIItoBCD
  D:00D8H         PUBLIC        CCON
  C:3F89H         PUBLIC        initUART1
  D:0098H         PUBLIC        SCON
  D:0088H         PUBLIC        TCON
  C:000AH         PUBLIC        _DectoBCD
  C:400BH         PUBLIC        _ASCII_Letter
  D:008EH         PUBLIC        AUXR
  C:4006H         PUBLIC        _unit
  C:0003H         PUBLIC        _ten
  D:00D6H         PUBLIC        T2H
  D:00D7H         PUBLIC        T2L
  D:00D0H         PUBLIC        PSW
  -------         PROC          INITUART1
  C:3F89H         LINE#         21
  C:3F89H         LINE#         22
  C:3F89H         LINE#         23
  C:3F8CH         LINE#         24
  C:3F8FH         LINE#         25
  C:3F92H         LINE#         26
  C:3F95H         LINE#         27
  C:3F97H         LINE#         28
  C:3F99H         LINE#         30
  -------         ENDPROC       INITUART1
  -------         PROC          _SENDSTRING
  X:057DH         SYMBOL        s
  C:3D32H         LINE#         35
  C:3D3DH         LINE#         36
  C:3D3DH         LINE#         37
  C:3D4DH         LINE#         38
  C:3D4DH         LINE#         39
  C:3D62H         LINE#         40
  C:3D64H         LINE#         41
  -------         ENDPROC       _SENDSTRING
  -------         PROC          _TEN
  D:0007H         SYMBOL        BCD
  C:0003H         LINE#         43
  C:0003H         LINE#         44
  C:0003H         LINE#         45
  C:0008H         LINE#         46
  -------         ENDPROC       _TEN
  -------         PROC          _UNIT
  D:0007H         SYMBOL        BCD
  C:4006H         LINE#         47
  C:4006H         LINE#         48
  C:4006H         LINE#         52
  C:400AH         LINE#         53
  -------         ENDPROC       _UNIT
  -------         PROC          _DECTOBCD
BL51 BANKED LINKER/LOCATER V6.22                                                      09/07/2018  12:10:50  PAGE 17


  D:0007H         SYMBOL        dec
  C:000AH         LINE#         54
  C:000AH         LINE#         55
  C:000AH         LINE#         57
  C:000AH         LINE#         58
  -------         ENDPROC       _DECTOBCD
  -------         PROC          _ASCII_LETTER
  D:0007H         SYMBOL        dat
  C:400BH         LINE#         60
  C:400BH         LINE#         61
  C:400BH         LINE#         63
  C:400FH         LINE#         64
  -------         ENDPROC       _ASCII_LETTER
  -------         PROC          _ASCIITOBCD
  D:0001H         SYMBOL        ascii
  -------         DO            
  D:0007H         SYMBOL        dec_val
  D:0006H         SYMBOL        ten
  D:0007H         SYMBOL        unit
  -------         ENDDO         
  C:3EE9H         LINE#         66
  C:3EE9H         LINE#         67
  C:3EE9H         LINE#         69
  C:3EECH         LINE#         70
  C:3EF2H         LINE#         71
  C:3EF9H         LINE#         72
  C:3EFFH         LINE#         74
  -------         ENDPROC       _ASCIITOBCD
  -------         ENDMOD        UART1

  -------         MODULE        LCD_DRIVER_SPLC780D
  C:0000H         SYMBOL        _ICE_DUMMY_
  D:0092H         PUBLIC        P1M0
  D:0091H         PUBLIC        P1M1
  D:0080H         PUBLIC        P0
  D:0090H         PUBLIC        P1
  D:00A0H         PUBLIC        P2
  D:00B0H         PUBLIC        P3
  D:00C0H         PUBLIC        P4
  D:00C8H         PUBLIC        P5
  D:00E8H         PUBLIC        P6
  D:00F8H         PUBLIC        P7
  C:3A16H         PUBLIC        _WriteData
  D:00A8H         PUBLIC        IE
  D:00B8H         PUBLIC        IP
  D:00D8H         PUBLIC        CCON
  B:0090H.4       PUBLIC        LCD_D4
  B:0090H.5       PUBLIC        LCD_D5
  B:0090H.6       PUBLIC        LCD_D6
  C:3E7EH         PUBLIC        _DisplayLCD
  B:0090H.7       PUBLIC        LCD_D7
  D:0098H         PUBLIC        SCON
  D:0088H         PUBLIC        TCON
  C:3FE7H         PUBLIC        LCD_clear
  C:3C83H         PUBLIC        _Command
  C:000EH         PUBLIC        _Display_Line
  C:3AFAH         PUBLIC        LCD_Init
BL51 BANKED LINKER/LOCATER V6.22                                                      09/07/2018  12:10:50  PAGE 18


  C:3DC2H         PUBLIC        _Wait_ms
  B:0090H.1       PUBLIC        LCD_RS
  B:0090H.2       PUBLIC        LCD_RW
  C:3FDDH         PUBLIC        LCD_return_home
  B:0090H.3       PUBLIC        LCD_E
  D:00D0H         PUBLIC        PSW
  -------         PROC          LCD_INIT
  C:3AFAH         LINE#         9
  C:3AFAH         LINE#         10
  C:3AFAH         LINE#         11
  C:3AFDH         LINE#         12
  C:3B00H         LINE#         14
  C:3B06H         LINE#         15
  C:3B0BH         LINE#         17
  C:3B12H         LINE#         18
  C:3B17H         LINE#         20
  C:3B1AH         LINE#         21
  C:3B1FH         LINE#         23
  C:3B22H         LINE#         24
  C:3B27H         LINE#         26
  C:3B2EH         LINE#         29
  C:3B33H         LINE#         30
  C:3B38H         LINE#         32
  C:3B3DH         LINE#         33
  C:3B42H         LINE#         35
  C:3B47H         LINE#         36
  C:3B4CH         LINE#         37
  -------         ENDPROC       LCD_INIT
  -------         PROC          _WRITEDATA
  X:03EEH         SYMBOL        dat
  C:3A16H         LINE#         40
  C:3A1BH         LINE#         41
  C:3A1BH         LINE#         46
  C:3A1DH         LINE#         47
  C:3A1FH         LINE#         49
  C:3A2DH         LINE#         50
  C:3A39H         LINE#         51
  C:3A45H         LINE#         52
  C:3A4FH         LINE#         53
  C:3A51H         LINE#         54
  C:3A58H         LINE#         55
  C:3A5AH         LINE#         57
  C:3A6AH         LINE#         58
  C:3A75H         LINE#         59
  C:3A7FH         LINE#         60
  C:3A83H         LINE#         62
  C:3A83H         LINE#         63
  C:3A86H         LINE#         64
  C:3A88H         LINE#         65
  C:3A8AH         LINE#         67
  -------         ENDPROC       _WRITEDATA
  -------         PROC          _COMMAND
  D:0007H         SYMBOL        dat
  C:3C83H         LINE#         69
  C:3C83H         LINE#         70
  C:3C83H         LINE#         71
  C:3C85H         LINE#         72
BL51 BANKED LINKER/LOCATER V6.22                                                      09/07/2018  12:10:50  PAGE 19


  C:3C87H         LINE#         74
  C:3C91H         LINE#         75
  C:3C95H         LINE#         77
  C:3C97H         LINE#         78
  C:3CA0H         LINE#         79
  C:3CA4H         LINE#         81
  C:3CA6H         LINE#         82
  C:3CADH         LINE#         83
  C:3CB1H         LINE#         85
  C:3CB3H         LINE#         86
  C:3CB7H         LINE#         87
  C:3CBBH         LINE#         89
  C:3CBDH         LINE#         90
  C:3CBDH         LINE#         91
  C:3CC0H         LINE#         92
  C:3CC2H         LINE#         93
  -------         ENDPROC       _COMMAND
  C:3DBEH         SYMBOL        L?0028
  -------         PROC          L?0027
  -------         ENDPROC       L?0027
  C:3DBEH         SYMBOL        L?0028
  -------         PROC          _WAIT_MS
  D:0006H         SYMBOL        ms
  -------         DO            
  D:0004H         SYMBOL        De_Cnt
  -------         ENDDO         
  C:3DC2H         LINE#         95
  C:3DC2H         LINE#         96
  C:3DC2H         LINE#         98
  C:3DCCH         LINE#         99
  C:3DCCH         LINE#         100
  C:3DDFH         LINE#         101
  C:3DDFH         LINE#         102
  -------         ENDPROC       _WAIT_MS
  -------         PROC          _DISPLAYLCD
  D:0007H         SYMBOL        BCD
  -------         DO            
  D:0006H         SYMBOL        first_digit
  X:03E4H         SYMBOL        second_digit
  -------         ENDDO         
  C:3E7EH         LINE#         103
  C:3E7EH         LINE#         104
  C:3E7EH         LINE#         106
  C:3E85H         LINE#         107
  C:3E8EH         LINE#         109
  C:3E93H         LINE#         111
  -------         ENDPROC       _DISPLAYLCD
  -------         PROC          LCD_RETURN_HOME
  C:3FDDH         LINE#         115
  C:3FDDH         LINE#         116
  C:3FDDH         LINE#         117
  C:3FE2H         LINE#         118
  -------         ENDPROC       LCD_RETURN_HOME
  -------         PROC          LCD_CLEAR
  C:3FE7H         LINE#         121
  C:3FE7H         LINE#         122
  C:3FE7H         LINE#         123
BL51 BANKED LINKER/LOCATER V6.22                                                      09/07/2018  12:10:50  PAGE 20


  C:3FECH         LINE#         124
  -------         ENDPROC       LCD_CLEAR
  -------         PROC          _DISPLAY_LINE
  D:0006H         SYMBOL        line
  C:000EH         LINE#         128
  C:000EH         LINE#         129
  C:000EH         LINE#         130
  C:0014H         LINE#         131
  C:0014H         LINE#         132
  C:0016H         LINE#         133
  C:0016H         LINE#         134
  C:0018H         LINE#         136
  C:0018H         LINE#         137
  C:001DH         LINE#         138
  C:0022H         LINE#         139
  C:0022H         LINE#         140
  -------         ENDPROC       _DISPLAY_LINE
  -------         ENDMOD        LCD_DRIVER_SPLC780D

  -------         MODULE        KEYPAD
  C:0000H         SYMBOL        _ICE_DUMMY_
  D:0093H         PUBLIC        P0M1
  D:0080H         PUBLIC        P0
  D:0090H         PUBLIC        P1
  D:00A0H         PUBLIC        P2
  D:00B0H         PUBLIC        P3
  D:00C0H         PUBLIC        P4
  D:00C8H         PUBLIC        P5
  D:00E8H         PUBLIC        P6
  D:00F8H         PUBLIC        P7
  D:00A8H         PUBLIC        IE
  C:2D18H         PUBLIC        Key_Scan
  D:00B8H         PUBLIC        IP
  D:00D8H         PUBLIC        CCON
  C:3FC5H         PUBLIC        KeyPad_IO_Init
  C:3E42H         PUBLIC        _Delay_ms
  D:0098H         PUBLIC        SCON
  D:0088H         PUBLIC        TCON
  B:0020H.0       PUBLIC        small_move
  B:0020H.1       PUBLIC        move
  B:0020H.2       PUBLIC        direction
  B:0020H.3       PUBLIC        auto_move
  C:246AH         PUBLIC        Key_Process
  D:00D0H         PUBLIC        PSW
  D:0094H         PUBLIC        P0M0
  -------         PROC          _DELAY_MS
  D:0006H         SYMBOL        ms
  -------         DO            
  D:0004H         SYMBOL        De_Cnt
  -------         ENDDO         
  C:3E42H         LINE#         19
  C:3E42H         LINE#         20
  C:3E42H         LINE#         22
  C:3E4CH         LINE#         23
  C:3E4CH         LINE#         24
  C:3E5FH         LINE#         25
  C:3E5FH         LINE#         26
BL51 BANKED LINKER/LOCATER V6.22                                                      09/07/2018  12:10:50  PAGE 21


  -------         ENDPROC       _DELAY_MS
  -------         PROC          KEY_SCAN
  -------         DO            
  X:03EAH         SYMBOL        KeyTemp1
  X:03EBH         SYMBOL        KeyTemp2
  X:03ECH         SYMBOL        KeyValue
  -------         ENDDO         
  C:2D18H         LINE#         27
  C:2D18H         LINE#         28
  C:2D18H         LINE#         33
  C:2D1BH         LINE#         36
  C:2D1EH         LINE#         38
  C:2D26H         LINE#         39
  C:2D2DH         LINE#         40
  C:2D2DH         LINE#         42
  C:2D32H         LINE#         43
  C:2D39H         LINE#         44
  C:2D39H         LINE#         47
  C:2D3CH         LINE#         48
  C:2D3FH         LINE#         49
  C:2D44H         LINE#         50
  C:2D48H         LINE#         51
  C:2D48H         LINE#         52
  C:2D50H         LINE#         53
  C:2D50H         LINE#         54
  C:2D53H         LINE#         55
  C:2D5BH         LINE#         56
  C:2D5DH         LINE#         58
  C:2D71H         LINE#         59
  C:2D71H         LINE#         60
  C:2D71H         LINE#         61
  C:2D71H         LINE#         62
  C:2D77H         LINE#         64
  C:2D79H         LINE#         65
  C:2D79H         LINE#         66
  C:2D79H         LINE#         67
  C:2D7FH         LINE#         69
  C:2D81H         LINE#         70
  C:2D81H         LINE#         71
  C:2D81H         LINE#         72
  C:2D87H         LINE#         74
  C:2D89H         LINE#         75
  C:2D89H         LINE#         76
  C:2D89H         LINE#         77
  C:2D8FH         LINE#         79
  C:2D8FH         LINE#         80
  C:2D8FH         LINE#         81
  C:2D8FH         LINE#         84
  C:2D92H         LINE#         85
  C:2D95H         LINE#         86
  C:2D9DH         LINE#         87
  C:2DA1H         LINE#         88
  C:2DA1H         LINE#         89
  C:2DA9H         LINE#         90
  C:2DA9H         LINE#         91
  C:2DACH         LINE#         92
  C:2DB4H         LINE#         93
BL51 BANKED LINKER/LOCATER V6.22                                                      09/07/2018  12:10:50  PAGE 22


  C:2DB6H         LINE#         94
  C:2DCAH         LINE#         95
  C:2DCAH         LINE#         96
  C:2DCAH         LINE#         97
  C:2DCAH         LINE#         98
  C:2DD0H         LINE#         100
  C:2DD2H         LINE#         101
  C:2DD2H         LINE#         102
  C:2DD2H         LINE#         103
  C:2DD8H         LINE#         105
  C:2DDAH         LINE#         106
  C:2DDAH         LINE#         107
  C:2DDAH         LINE#         108
  C:2DE0H         LINE#         110
  C:2DE2H         LINE#         111
  C:2DE2H         LINE#         112
  C:2DE2H         LINE#         113
  C:2DE7H         LINE#         115
  C:2DE7H         LINE#         116
  C:2DE7H         LINE#         117
  C:2DE7H         LINE#         120
  C:2DEAH         LINE#         121
  C:2DEDH         LINE#         122
  C:2DF5H         LINE#         123
  C:2DF9H         LINE#         124
  C:2DF9H         LINE#         125
  C:2E01H         LINE#         126
  C:2E01H         LINE#         127
  C:2E04H         LINE#         128
  C:2E0CH         LINE#         129
  C:2E0EH         LINE#         130
  C:2E22H         LINE#         131
  C:2E22H         LINE#         132
  C:2E22H         LINE#         133
  C:2E22H         LINE#         134
  C:2E28H         LINE#         136
  C:2E2AH         LINE#         137
  C:2E2AH         LINE#         138
  C:2E2AH         LINE#         139
  C:2E30H         LINE#         141
  C:2E32H         LINE#         142
  C:2E32H         LINE#         143
  C:2E32H         LINE#         144
  C:2E38H         LINE#         146
  C:2E3AH         LINE#         147
  C:2E3AH         LINE#         148
  C:2E3AH         LINE#         149
  C:2E40H         LINE#         151
  C:2E40H         LINE#         152
  C:2E40H         LINE#         153
  C:2E40H         LINE#         157
  C:2E43H         LINE#         158
  C:2E46H         LINE#         159
  C:2E4EH         LINE#         160
  C:2E52H         LINE#         161
  C:2E52H         LINE#         162
  C:2E5AH         LINE#         163
BL51 BANKED LINKER/LOCATER V6.22                                                      09/07/2018  12:10:50  PAGE 23


  C:2E5AH         LINE#         164
  C:2E5DH         LINE#         165
  C:2E65H         LINE#         166
  C:2E67H         LINE#         167
  C:2E7BH         LINE#         168
  C:2E7BH         LINE#         169
  C:2E7BH         LINE#         170
  C:2E7BH         LINE#         171
  C:2E81H         LINE#         173
  C:2E83H         LINE#         174
  C:2E83H         LINE#         175
  C:2E83H         LINE#         176
  C:2E89H         LINE#         178
  C:2E8BH         LINE#         179
  C:2E8BH         LINE#         180
  C:2E8BH         LINE#         181
  C:2E91H         LINE#         183
  C:2E93H         LINE#         184
  C:2E93H         LINE#         185
  C:2E93H         LINE#         186
  C:2E99H         LINE#         188
  C:2E99H         LINE#         189
  C:2E99H         LINE#         190
  C:2E99H         LINE#         192
  C:2E9FH         LINE#         193
  C:2E9FH         LINE#         195
  C:2E9FH         LINE#         196
  C:2EA2H         LINE#         197
  C:2EA2H         LINE#         198
  C:2EA2H         LINE#         200
  C:2EA2H         LINE#         201
  C:2EA4H         LINE#         202
  C:2EA4H         LINE#         203
  -------         ENDPROC       KEY_SCAN
  -------         PROC          KEY_PROCESS
  -------         DO            
  X:0568H         SYMBOL        KeyCount
  X:056AH         SYMBOL        KeyNum_Old
  X:056BH         SYMBOL        KeyNum
  X:056CH         SYMBOL        PressedKey
  X:03E4H         SYMBOL        d
  D:0004H         SYMBOL        hours
  D:0006H         SYMBOL        mins
  X:03E6H         SYMBOL        months
  X:03E8H         SYMBOL        days
  -------         ENDDO         
  C:246AH         LINE#         204
  C:246AH         LINE#         205
  C:246AH         LINE#         209
  C:2472H         LINE#         210
  C:247AH         LINE#         212
  C:247DH         LINE#         213
  C:247DH         LINE#         214
  C:2480H         LINE#         216
  C:2480H         LINE#         217
  C:248DH         LINE#         218
  C:248DH         LINE#         219
BL51 BANKED LINKER/LOCATER V6.22                                                      09/07/2018  12:10:50  PAGE 24


  C:2490H         LINE#         220
  C:2493H         LINE#         222
  C:2496H         LINE#         224
  C:2496H         LINE#         225
  C:24A1H         LINE#         226
  C:24A1H         LINE#         227
  C:24A4H         LINE#         229
  C:24A4H         LINE#         230
  C:24ABH         LINE#         231
  C:24ABH         LINE#         232
  C:24AEH         LINE#         234
  C:24AEH         LINE#         235
  C:24B6H         LINE#         236
  C:24B6H         LINE#         237
  C:24C0H         LINE#         238
  C:24C8H         LINE#         240
  C:24D1H         LINE#         242
  C:24D1H         LINE#         251
  C:24E6H         LINE#         252
  C:24E6H         LINE#         253
  C:24F8H         LINE#         254
  C:2506H         LINE#         255
  C:2515H         LINE#         256
  C:2515H         LINE#         258
  C:251BH         LINE#         262
  C:2531H         LINE#         263
  C:2542H         LINE#         264
  C:255DH         LINE#         265
  C:255DH         LINE#         266
  C:256DH         LINE#         267
  C:257EH         LINE#         268
  C:257EH         LINE#         272
  C:2597H         LINE#         273
  C:25AEH         LINE#         274
  C:25CEH         LINE#         275
  C:25CEH         LINE#         276
  C:25D8H         LINE#         277
  C:25D8H         LINE#         278
  C:25E1H         LINE#         279
  C:25E1H         LINE#         280
  C:25F5H         LINE#         281
  C:25F5H         LINE#         282
  C:25F5H         LINE#         283
  C:25F5H         LINE#         284
  C:25F5H         LINE#         285
  C:25F7H         LINE#         287
  C:25F7H         LINE#         288
  C:2603H         LINE#         289
  C:2603H         LINE#         290
  C:2614H         LINE#         291
  C:2614H         LINE#         292
  C:2614H         LINE#         293
  C:2614H         LINE#         294
  C:2614H         LINE#         296
  C:2616H         LINE#         298
  C:2616H         LINE#         299
  C:2627H         LINE#         300
BL51 BANKED LINKER/LOCATER V6.22                                                      09/07/2018  12:10:50  PAGE 25


  C:2627H         LINE#         301
  C:2627H         LINE#         302
  C:2627H         LINE#         303
  C:2627H         LINE#         305
  C:2627H         LINE#         307
  C:2627H         LINE#         308
  C:2629H         LINE#         310
  C:2629H         LINE#         311
  C:263CH         LINE#         312
  C:263CH         LINE#         313
  C:264DH         LINE#         314
  C:264DH         LINE#         315
  C:264DH         LINE#         316
  C:264DH         LINE#         317
  C:264DH         LINE#         318
  C:264FH         LINE#         320
  C:264FH         LINE#         321
  C:2660H         LINE#         322
  C:2660H         LINE#         323
  C:2671H         LINE#         324
  C:2682H         LINE#         325
  C:2682H         LINE#         326
  C:2682H         LINE#         327
  C:2682H         LINE#         328
  C:2682H         LINE#         329
  C:2685H         LINE#         330
  C:268AH         LINE#         331
  C:268FH         LINE#         332
  C:2694H         LINE#         333
  C:2699H         LINE#         334
  C:269EH         LINE#         335
  C:26A3H         LINE#         336
  C:26A8H         LINE#         337
  C:26A8H         LINE#         339
  C:26CAH         LINE#         340
  C:26CAH         LINE#         341
  C:26D4H         LINE#         342
  C:26D4H         LINE#         343
  C:26D9H         LINE#         344
  C:26E2H         LINE#         345
  C:26F9H         LINE#         346
  C:26F9H         LINE#         347
  C:2709H         LINE#         349
  C:2709H         LINE#         353
  -------         ENDPROC       KEY_PROCESS
  -------         PROC          KEYPAD_IO_INIT
  C:3FC5H         LINE#         356
  C:3FC5H         LINE#         357
  C:3FC5H         LINE#         358
  C:3FC8H         LINE#         359
  C:3FCBH         LINE#         360
  C:3FCEH         LINE#         361
  C:3FD0H         LINE#         362
  -------         ENDPROC       KEYPAD_IO_INIT
  -------         ENDMOD        KEYPAD

  -------         MODULE        VCNL4035
BL51 BANKED LINKER/LOCATER V6.22                                                      09/07/2018  12:10:50  PAGE 26


  C:0000H         SYMBOL        _ICE_DUMMY_
  D:0080H         PUBLIC        P0
  B:00B0H.2       PUBLIC        I2C_SCK
  D:00B2H         PUBLIC        P3M0
  D:0090H         PUBLIC        P1
  D:00B1H         PUBLIC        P3M1
  D:00A0H         PUBLIC        P2
  D:00B0H         PUBLIC        P3
  D:00C0H         PUBLIC        P4
  D:00C8H         PUBLIC        P5
  D:00E8H         PUBLIC        P6
  D:00F8H         PUBLIC        P7
  D:00A8H         PUBLIC        IE
  C:4000H         PUBLIC        _DisplayLCD_VCNL4035
  D:00B8H         PUBLIC        IP
  D:00D8H         PUBLIC        CCON
  C:3F54H         PUBLIC        I2C_Start
  D:0098H         PUBLIC        SCON
  C:3F00H         PUBLIC        I2C_Init
  D:0088H         PUBLIC        TCON
  C:3F9AH         PUBLIC        uC_NACK
  C:3D9EH         PUBLIC        _Wait_ms_i2c
  C:3DE0H         PUBLIC        _I2C_SendByte
  C:3F17H         PUBLIC        I2C_Stop
  C:3BF6H         PUBLIC        _Write_VCNL4035X
  C:4010H         PUBLIC        nop
  C:373DH         PUBLIC        _Read_VCNL4035
  C:3FFAH         PUBLIC        uC_ACK
  C:3EA0H         PUBLIC        I2C_ACK
  C:3E60H         PUBLIC        _Wait_ms_iic
  B:00B0H.1       PUBLIC        I2C_SDA
  D:00D0H         PUBLIC        PSW
  C:3D6BH         PUBLIC        I2C_ReceiveByte
  -------         PROC          _WAIT_MS_IIC
  D:0006H         SYMBOL        ms
  -------         DO            
  D:0004H         SYMBOL        De_Cnt
  -------         ENDDO         
  C:3E60H         LINE#         5
  C:3E60H         LINE#         6
  C:3E60H         LINE#         8
  C:3E6AH         LINE#         9
  C:3E6AH         LINE#         10
  C:3E7DH         LINE#         11
  C:3E7DH         LINE#         12
  -------         ENDPROC       _WAIT_MS_IIC
  C:3D98H         SYMBOL        L?0048
  C:3D9AH         SYMBOL        L?0049
  -------         PROC          L?0047
  -------         ENDPROC       L?0047
  C:3D98H         SYMBOL        L?0048
  C:3D9AH         SYMBOL        L?0049
  -------         PROC          _WAIT_MS_I2C
  D:0006H         SYMBOL        ms
  -------         DO            
  D:0004H         SYMBOL        De_Cnt
  -------         ENDDO         
BL51 BANKED LINKER/LOCATER V6.22                                                      09/07/2018  12:10:50  PAGE 27


  C:3D9EH         LINE#         14
  C:3D9EH         LINE#         15
  C:3D9EH         LINE#         17
  C:3DA8H         LINE#         18
  C:3DA8H         LINE#         19
  C:3DBBH         LINE#         20
  C:3DBBH         LINE#         21
  -------         ENDPROC       _WAIT_MS_I2C
  -------         PROC          NOP
  C:4010H         LINE#         22
  C:4010H         LINE#         23
  C:4010H         LINE#         25
  -------         ENDPROC       NOP
  -------         PROC          I2C_START
  C:3F54H         LINE#         26
  C:3F54H         LINE#         27
  C:3F54H         LINE#         29
  C:3F56H         LINE#         30
  C:3F58H         LINE#         31
  C:3F5FH         LINE#         32
  C:3F61H         LINE#         33
  C:3F64H         LINE#         34
  C:3F66H         LINE#         37
  -------         ENDPROC       I2C_START
  -------         PROC          I2C_STOP
  C:3F17H         LINE#         39
  C:3F17H         LINE#         40
  C:3F17H         LINE#         41
  C:3F19H         LINE#         42
  C:3F1BH         LINE#         43
  C:3F1EH         LINE#         44
  C:3F20H         LINE#         45
  C:3F22H         LINE#         46
  C:3F29H         LINE#         47
  C:3F2BH         LINE#         50
  -------         ENDPROC       I2C_STOP
  -------         PROC          L?0050
  -------         ENDPROC       L?0050
  -------         PROC          I2C_ACK
  -------         DO            
  X:03E7H         SYMBOL        i
  D:0003H         SYMBOL        dat
  -------         ENDDO         
  C:3EA0H         LINE#         52
  C:3EA0H         LINE#         53
  C:3EA0H         LINE#         55
  C:3EA1H         LINE#         60
  C:3EA4H         LINE#         61
  C:3EA6H         LINE#         62
  C:3EA9H         LINE#         64
  C:3EACH         LINE#         65
  C:3EACH         LINE#         66
  C:3EB0H         LINE#         67
  C:3EB0H         LINE#         70
  C:3EB0H         LINE#         71
  C:3EB3H         LINE#         72
  C:3EB3H         LINE#         73
BL51 BANKED LINKER/LOCATER V6.22                                                      09/07/2018  12:10:50  PAGE 28


  C:3EB5H         LINE#         74
  -------         ENDPROC       I2C_ACK
  -------         PROC          UC_ACK
  -------         DO            
  X:0580H         SYMBOL        i
  -------         ENDDO         
  C:3FFAH         LINE#         75
  C:3FFAH         LINE#         76
  C:3FFAH         LINE#         78
  C:3FFAH         LINE#         85
  C:3FFAH         LINE#         87
  C:3FFAH         LINE#         89
  C:3FFAH         LINE#         90
  C:3FFAH         LINE#         93
  C:3FFDH         LINE#         94
  C:3FFFH         LINE#         95
  C:3FFFH         LINE#         99
  -------         ENDPROC       UC_ACK
  -------         PROC          UC_NACK
  -------         DO            
  X:0581H         SYMBOL        i
  -------         ENDDO         
  C:3F9AH         LINE#         101
  C:3F9AH         LINE#         102
  C:3F9AH         LINE#         104
  C:3F9AH         LINE#         108
  C:3F9CH         LINE#         111
  C:3F9CH         LINE#         112
  C:3F9EH         LINE#         113
  C:3F9EH         LINE#         115
  C:3F9EH         LINE#         116
  C:3F9EH         LINE#         119
  C:3FA1H         LINE#         120
  C:3FA3H         LINE#         121
  C:3FA6H         LINE#         122
  C:3FA8H         LINE#         123
  C:3FA8H         LINE#         127
  -------         ENDPROC       UC_NACK
  -------         PROC          I2C_INIT
  C:3F00H         LINE#         129
  C:3F00H         LINE#         130
  C:3F00H         LINE#         133
  C:3F03H         LINE#         134
  C:3F06H         LINE#         139
  C:3F0EH         LINE#         141
  -------         ENDPROC       I2C_INIT
  -------         PROC          _I2C_SENDBYTE
  D:0001H         SYMBOL        dat
  -------         DO            
  D:0003H         SYMBOL        i
  -------         ENDDO         
  C:3DE0H         LINE#         145
  C:3DE2H         LINE#         146
  C:3DE2H         LINE#         149
  C:3DE4H         LINE#         150
  C:3DE4H         LINE#         151
  C:3DE6H         LINE#         153
BL51 BANKED LINKER/LOCATER V6.22                                                      09/07/2018  12:10:50  PAGE 29


  C:3DEAH         LINE#         154
  C:3DEAH         LINE#         155
  C:3DECH         LINE#         156
  C:3DEEH         LINE#         158
  C:3DEEH         LINE#         159
  C:3DF0H         LINE#         160
  C:3DF0H         LINE#         161
  C:3DF3H         LINE#         162
  C:3DF5H         LINE#         164
  C:3DF9H         LINE#         165
  C:3DFCH         LINE#         166
  C:3E01H         LINE#         167
  -------         ENDPROC       _I2C_SENDBYTE
  -------         PROC          L?0051
  -------         ENDPROC       L?0051
  -------         PROC          I2C_RECEIVEBYTE
  -------         DO            
  D:0003H         SYMBOL        i
  D:0001H         SYMBOL        dat
  -------         ENDDO         
  C:3D6BH         LINE#         171
  C:3D6BH         LINE#         172
  C:3D6BH         LINE#         174
  C:3D6DH         LINE#         178
  C:3D6EH         LINE#         179
  C:3D6EH         LINE#         180
  C:3D72H         LINE#         181
  C:3D74H         LINE#         182
  C:3D77H         LINE#         184
  C:3D7AH         LINE#         185
  C:3D7AH         LINE#         186
  C:3D7EH         LINE#         187
  C:3D7EH         LINE#         188
  C:3D7EH         LINE#         189
  C:3D81H         LINE#         190
  C:3D85H         LINE#         191
  C:3D85H         LINE#         192
  C:3D87H         LINE#         193
  C:3D89H         LINE#         194
  C:3D89H         LINE#         196
  C:3D8EH         LINE#         197
  C:3D90H         LINE#         198
  -------         ENDPROC       I2C_RECEIVEBYTE
  -------         PROC          _WRITE_VCNL4035X
  X:03E4H         SYMBOL        command_code
  X:03E5H         SYMBOL        dat_h
  X:03E6H         SYMBOL        dat_l
  C:3BF6H         LINE#         199
  C:3C01H         LINE#         200
  C:3C01H         LINE#         201
  C:3C04H         LINE#         202
  C:3C0BH         LINE#         203
  C:3C0BH         LINE#         204
  C:3C11H         LINE#         205
  C:3C11H         LINE#         206
  C:3C19H         LINE#         207
  C:3C19H         LINE#         208
BL51 BANKED LINKER/LOCATER V6.22                                                      09/07/2018  12:10:50  PAGE 30


  C:3C1FH         LINE#         209
  C:3C27H         LINE#         211
  C:3C2DH         LINE#         212
  C:3C35H         LINE#         214
  C:3C3BH         LINE#         215
  C:3C3EH         LINE#         216
  -------         ENDPROC       _WRITE_VCNL4035X
  -------         PROC          _READ_VCNL4035
  X:0571H         SYMBOL        command_code
  -------         DO            
  X:0573H         SYMBOL        temp_dat
  X:0575H         SYMBOL        temp_dat_l
  X:0577H         SYMBOL        temp_dat_h
  -------         ENDDO         
  C:373DH         LINE#         218
  C:3745H         LINE#         219
  C:3745H         LINE#         220
  C:3752H         LINE#         222
  C:3755H         LINE#         223
  C:3758H         LINE#         224
  C:375DH         LINE#         226
  C:3763H         LINE#         227
  C:3763H         LINE#         228
  C:3763H         LINE#         229
  C:3763H         LINE#         230
  C:376EH         LINE#         231
  C:3771H         LINE#         232
  C:3774H         LINE#         233
  C:3774H         LINE#         236
  C:3777H         LINE#         238
  C:377EH         LINE#         239
  C:377EH         LINE#         240
  C:377EH         LINE#         241
  C:3789H         LINE#         242
  C:378CH         LINE#         243
  C:378FH         LINE#         244
  C:3792H         LINE#         245
  C:3795H         LINE#         246
  C:3798H         LINE#         247
  C:379BH         LINE#         248
  C:379EH         LINE#         249
  C:37A1H         LINE#         250
  C:37A1H         LINE#         251
  C:37A7H         LINE#         252
  C:37A7H         LINE#         253
  C:37B0H         LINE#         255
  C:37B0H         LINE#         256
  C:37B6H         LINE#         257
  C:37B6H         LINE#         259
  C:37B8H         LINE#         260
  C:37BEH         LINE#         261
  C:37C1H         LINE#         262
  C:37C8H         LINE#         263
  C:37C8H         LINE#         264
  C:37D6H         LINE#         265
  -------         ENDPROC       _READ_VCNL4035
  -------         PROC          _DISPLAYLCD_VCNL4035
BL51 BANKED LINKER/LOCATER V6.22                                                      09/07/2018  12:10:50  PAGE 31


  X:0582H         SYMBOL        dat
  C:4000H         LINE#         267
  C:4005H         LINE#         268
  C:4005H         LINE#         270
  -------         ENDPROC       _DISPLAYLCD_VCNL4035
  -------         ENDMOD        VCNL4035

  -------         MODULE        BIPOLARMOTOR
  C:0000H         SYMBOL        _ICE_DUMMY_
  D:0080H         PUBLIC        P0
  D:0090H         PUBLIC        P1
  D:00A0H         PUBLIC        P2
  D:00B0H         PUBLIC        P3
  D:00C0H         PUBLIC        P4
  D:00C8H         PUBLIC        P5
  D:00E8H         PUBLIC        P6
  D:00F8H         PUBLIC        P7
  D:00A8H         PUBLIC        IE
  C:3565H         PUBLIC        linear_interpolate
  C:194EH         PUBLIC        second_order_interpolate
  X:0000H         PUBLIC        Time_stamp_PM
  C:3CFEH         PUBLIC        _Move
  D:00B8H         PUBLIC        IP
  C:29C5H         PUBLIC        _findDet3x3
  C:21AAH         PUBLIC        _findDet4x4
  D:00D8H         PUBLIC        CCON
  D:0098H         PUBLIC        SCON
  D:0088H         PUBLIC        TCON
  C:3B53H         PUBLIC        _Step_move
  C:0902H         PUBLIC        _Update_position
  X:0054H         PUBLIC        RX_pos
  X:039CH         PUBLIC        date_declination_mapping
  C:3EC0H         PUBLIC        _BCDtoDec1
  X:03C4H         PUBLIC        degree
  D:00D0H         PUBLIC        PSW
  -------         PROC          L?0079
  -------         ENDPROC       L?0079
  -------         PROC          _BCDTODEC1
  D:0007H         SYMBOL        bcd
  -------         DO            
  D:0006H         SYMBOL        hi
  D:0007H         SYMBOL        lo
  -------         ENDDO         
  C:3EC0H         LINE#         22
  C:3EC0H         LINE#         23
  C:3EC0H         LINE#         25
  C:3EC5H         LINE#         26
  C:3EC9H         LINE#         27
  C:3ED0H         LINE#         28
  -------         ENDPROC       _BCDTODEC1
  -------         PROC          _STEP_MOVE
  X:0493H         SYMBOL        step
  B:0020H.6       SYMBOL        dir
  -------         DO            
  X:0495H         SYMBOL        i
  -------         ENDDO         
  C:3B53H         LINE#         34
BL51 BANKED LINKER/LOCATER V6.22                                                      09/07/2018  12:10:50  PAGE 32


  C:3B5BH         LINE#         35
  C:3B5BH         LINE#         36
  C:3B60H         LINE#         37
  C:3B63H         LINE#         38
  C:3B68H         LINE#         40
  C:3B6BH         LINE#         42
  C:3B87H         LINE#         43
  C:3B87H         LINE#         44
  C:3B8AH         LINE#         45
  C:3B91H         LINE#         46
  C:3B94H         LINE#         47
  C:3B9BH         LINE#         48
  C:3BABH         LINE#         49
  -------         ENDPROC       _STEP_MOVE
  -------         PROC          _MOVE
  X:048FH         SYMBOL        distance
  B:0020H.5       SYMBOL        direction
  -------         DO            
  D:0006H         SYMBOL        step
  -------         ENDDO         
  C:3CFEH         LINE#         51
  C:3D04H         LINE#         52
  C:3D04H         LINE#         54
  C:3D2BH         LINE#         55
  -------         ENDPROC       _MOVE
  C:29A6H         SYMBOL        L?0076
  C:29BAH         SYMBOL        L?0077
  -------         PROC          L?0075
  -------         ENDPROC       L?0075
  C:29A6H         SYMBOL        L?0076
  C:29BAH         SYMBOL        L?0077
  -------         PROC          _FINDDET3X3
  X:04BFH         SYMBOL        a11
  X:04C3H         SYMBOL        a12
  X:04C7H         SYMBOL        a13
  X:04CBH         SYMBOL        a21
  X:04CFH         SYMBOL        a22
  X:04D3H         SYMBOL        a23
  X:04D7H         SYMBOL        a31
  X:04DBH         SYMBOL        a32
  X:04DFH         SYMBOL        a33
  C:29C5H         LINE#         59
  C:29CBH         LINE#         63
  C:29CBH         LINE#         64
  C:2B62H         LINE#         66
  -------         ENDPROC       _FINDDET3X3
  -------         PROC          _FINDDET4X4
  X:04F8H         SYMBOL        a11
  X:04FCH         SYMBOL        a12
  X:0500H         SYMBOL        a13
  X:0504H         SYMBOL        a14
  X:0508H         SYMBOL        a21
  X:050CH         SYMBOL        a22
  X:0510H         SYMBOL        a23
  X:0514H         SYMBOL        a24
  X:0518H         SYMBOL        a31
  X:051CH         SYMBOL        a32
BL51 BANKED LINKER/LOCATER V6.22                                                      09/07/2018  12:10:50  PAGE 33


  X:0520H         SYMBOL        a33
  X:0524H         SYMBOL        a34
  X:0528H         SYMBOL        a41
  X:052CH         SYMBOL        a42
  X:0530H         SYMBOL        a43
  X:0534H         SYMBOL        a44
  C:21AAH         LINE#         67
  C:21B0H         LINE#         71
  C:21B0H         LINE#         78
  C:2469H         LINE#         82
  -------         ENDPROC       _FINDDET4X4
  -------         PROC          LINEAR_INTERPOLATE
  X:0554H         SYMBOL        p1
  X:055CH         SYMBOL        p2
  X:0564H         SYMBOL        x
  -------         DO            
  D:0004H         SYMBOL        fx
  -------         ENDDO         
  C:3565H         LINE#         88
  C:3565H         LINE#         89
  C:3565H         LINE#         92
  C:3604H         LINE#         94
  C:3604H         LINE#         95
  -------         ENDPROC       LINEAR_INTERPOLATE
  -------         PROC          L?0078
  -------         ENDPROC       L?0078
  -------         PROC          SECOND_ORDER_INTERPOLATE
  X:048FH         SYMBOL        p1
  X:0497H         SYMBOL        p2
  X:049FH         SYMBOL        p3
  X:04A7H         SYMBOL        x
  -------         DO            
  X:04ABH         SYMBOL        det
  X:04AFH         SYMBOL        det_x
  X:04B3H         SYMBOL        det_y
  X:04B7H         SYMBOL        det_z
  X:04BBH         SYMBOL        fx
  -------         ENDDO         
  C:194EH         LINE#         100
  C:194EH         LINE#         101
  C:194EH         LINE#         105
  C:1A2EH         LINE#         107
  C:1ABCH         LINE#         109
  C:1B9CH         LINE#         111
  C:1C9AH         LINE#         112
  C:1CB5H         LINE#         113
  C:1D7DH         LINE#         115
  C:1D87H         LINE#         116
  C:1D95H         LINE#         117
  -------         ENDPROC       SECOND_ORDER_INTERPOLATE
  -------         PROC          _UPDATE_POSITION
  X:03E4H         SYMBOL        mnths
  X:03E5H         SYMBOL        dys
  X:03E6H         SYMBOL        hurs
  X:03E7H         SYMBOL        mns
  X:03E8H         SYMBOL        sconds
  X:03E9H         SYMBOL        currnt_pos
BL51 BANKED LINKER/LOCATER V6.22                                                      09/07/2018  12:10:50  PAGE 34


  -------         DO            
  X:03ECH         SYMBOL        date
  X:03EEH         SYMBOL        i
  X:03F0H         SYMBOL        yy
  X:03F2H         SYMBOL        desired_distance
  X:03F6H         SYMBOL        distance
  X:03FAH         SYMBOL        JP_pos
  X:03FEH         SYMBOL        pos_interpolate_12_17h
  X:0452H         SYMBOL        current_time
  X:0456H         SYMBOL        declination
  X:045AH         SYMBOL        p1
  X:0462H         SYMBOL        p2
  X:046AH         SYMBOL        p3
  X:0472H         SYMBOL        time
  X:0484H         SYMBOL        location
  X:048CH         SYMBOL        sunCoord
  -------         ENDDO         
  C:0902H         LINE#         119
  C:0910H         LINE#         122
  C:0910H         LINE#         124
  C:091AH         LINE#         133
  C:0924H         LINE#         134
  C:092FH         LINE#         135
  C:093FH         LINE#         136
  C:0953H         LINE#         137
  C:0964H         LINE#         138
  C:0973H         LINE#         141
  C:0987H         LINE#         142
  C:099AH         LINE#         144
  C:09E9H         LINE#         145
  C:09F8H         LINE#         146
  C:09F8H         LINE#         147
  C:0A37H         LINE#         150
  C:0A51H         LINE#         151
  C:0A51H         LINE#         152
  C:0AC1H         LINE#         153
  C:0AC1H         LINE#         154
  C:0AC8H         LINE#         155
  C:0AC8H         LINE#         156
  C:0AF5H         LINE#         157
  C:0B10H         LINE#         159
  C:0B57H         LINE#         160
  C:0B8BH         LINE#         161
  C:0BA9H         LINE#         162
  C:0BA9H         LINE#         163
  C:0C30H         LINE#         164
  C:0C30H         LINE#         165
  C:0C5DH         LINE#         166
  C:0C67H         LINE#         167
  C:0C69H         LINE#         169
  C:0C69H         LINE#         170
  C:0C96H         LINE#         171
  C:0CCAH         LINE#         172
  C:0CCAH         LINE#         173
  C:0CCAH         LINE#         174
  C:0CD4H         LINE#         175
  C:0CD4H         LINE#         176
BL51 BANKED LINKER/LOCATER V6.22                                                      09/07/2018  12:10:50  PAGE 35


  C:0D01H         LINE#         177
  C:0D35H         LINE#         178
  C:0D35H         LINE#         179
  C:0D41H         LINE#         180
  C:0D41H         LINE#         181
  C:0D6EH         LINE#         182
  C:0DA2H         LINE#         183
  C:0DA2H         LINE#         184
  C:0E0DH         LINE#         185
  C:0E2FH         LINE#         186
  C:0E2FH         LINE#         187
  C:0E2FH         LINE#         188
  C:0E40H         LINE#         191
  C:0E5AH         LINE#         192
  C:0E5AH         LINE#         193
  C:0ECAH         LINE#         194
  C:0ECAH         LINE#         195
  C:0EF7H         LINE#         196
  C:0F12H         LINE#         198
  C:0F3FH         LINE#         199
  C:0F5AH         LINE#         200
  C:0F64H         LINE#         201
  C:0F64H         LINE#         202
  C:0F74H         LINE#         203
  C:0F74H         LINE#         205
  C:0F77H         LINE#         206
  C:0F83H         LINE#         207
  C:0F83H         LINE#         208
  C:0F93H         LINE#         209
  C:0F93H         LINE#         210
  C:0F96H         LINE#         212
  C:0F96H         LINE#         213
  C:101DH         LINE#         214
  C:101DH         LINE#         215
  C:104AH         LINE#         216
  C:1051H         LINE#         217
  C:1053H         LINE#         219
  C:1053H         LINE#         220
  C:1080H         LINE#         221
  C:109BH         LINE#         222
  C:109BH         LINE#         223
  C:109BH         LINE#         225
  C:10E0H         LINE#         226
  C:10E2H         LINE#         228
  C:10E2H         LINE#         230
  C:10F3H         LINE#         232
  C:111AH         LINE#         234
  C:113FH         LINE#         236
  C:115CH         LINE#         237
  C:116BH         LINE#         239
  C:117EH         LINE#         240
  C:117EH         LINE#         241
  C:119AH         LINE#         244
  -------         ENDPROC       _UPDATE_POSITION
  -------         ENDMOD        BIPOLARMOTOR

  -------         MODULE        SUNPOS
BL51 BANKED LINKER/LOCATER V6.22                                                      09/07/2018  12:10:50  PAGE 36


  C:0000H         SYMBOL        _ICE_DUMMY_
  C:119BH         PUBLIC        sunpos
  -------         PROC          SUNPOS
  X:048FH         SYMBOL        udtTime
  X:04A1H         SYMBOL        udtLocation
  X:04A9H         SYMBOL        udtSunCoordinates
  -------         DO            
  X:04ACH         SYMBOL        dElapsedJulianDays
  X:04B0H         SYMBOL        dDecimalHours
  X:04B4H         SYMBOL        dEclipticLongitude
  X:04B8H         SYMBOL        dEclipticObliquity
  X:04BCH         SYMBOL        dRightAscension
  X:04C0H         SYMBOL        dDeclination
  X:04C4H         SYMBOL        dY
  X:04C8H         SYMBOL        dX
  -------         DO            
  X:04CCH         SYMBOL        dJulianDate
  X:04D0H         SYMBOL        liAux1
  X:04D4H         SYMBOL        liAux2
  X:04CCH         SYMBOL        dMeanLongitude
  X:04D0H         SYMBOL        dMeanAnomaly
  X:04D4H         SYMBOL        dOmega
  X:04CCH         SYMBOL        dSin_EclipticLongitude
  X:04CCH         SYMBOL        dGreenwichMeanSiderealTime
  X:04D0H         SYMBOL        dLocalMeanSiderealTime
  X:04D4H         SYMBOL        dLatitudeInRadians
  X:04D8H         SYMBOL        dHourAngle
  X:04DCH         SYMBOL        dCos_Latitude
  X:04E0H         SYMBOL        dSin_Latitude
  X:04E4H         SYMBOL        dCos_HourAngle
  X:04E8H         SYMBOL        dParallax
  -------         ENDDO         
  -------         DO            
  X:04CCH         SYMBOL        dMeanLongitude
  X:04D0H         SYMBOL        dMeanAnomaly
  X:04D4H         SYMBOL        dOmega
  X:04CCH         SYMBOL        dSin_EclipticLongitude
  X:04CCH         SYMBOL        dGreenwichMeanSiderealTime
  X:04D0H         SYMBOL        dLocalMeanSiderealTime
  X:04D4H         SYMBOL        dLatitudeInRadians
  X:04D8H         SYMBOL        dHourAngle
  X:04DCH         SYMBOL        dCos_Latitude
  X:04E0H         SYMBOL        dSin_Latitude
  X:04E4H         SYMBOL        dCos_HourAngle
  X:04E8H         SYMBOL        dParallax
  -------         ENDDO         
  -------         DO            
  X:04CCH         SYMBOL        dSin_EclipticLongitude
  X:04CCH         SYMBOL        dGreenwichMeanSiderealTime
  X:04D0H         SYMBOL        dLocalMeanSiderealTime
  X:04D4H         SYMBOL        dLatitudeInRadians
  X:04D8H         SYMBOL        dHourAngle
  X:04DCH         SYMBOL        dCos_Latitude
  X:04E0H         SYMBOL        dSin_Latitude
  X:04E4H         SYMBOL        dCos_HourAngle
  X:04E8H         SYMBOL        dParallax
  -------         ENDDO         
BL51 BANKED LINKER/LOCATER V6.22                                                      09/07/2018  12:10:50  PAGE 37


  -------         DO            
  X:04CCH         SYMBOL        dGreenwichMeanSiderealTime
  X:04D0H         SYMBOL        dLocalMeanSiderealTime
  X:04D4H         SYMBOL        dLatitudeInRadians
  X:04D8H         SYMBOL        dHourAngle
  X:04DCH         SYMBOL        dCos_Latitude
  X:04E0H         SYMBOL        dSin_Latitude
  X:04E4H         SYMBOL        dCos_HourAngle
  X:04E8H         SYMBOL        dParallax
  -------         ENDDO         
  -------         ENDDO         
  C:119BH         LINE#         6
  C:119BH         LINE#         7
  C:119BH         LINE#         9
  C:119BH         LINE#         27
  C:11E5H         LINE#         30
  C:1206H         LINE#         31
  C:134DH         LINE#         34
  C:1399H         LINE#         36
  C:13B8H         LINE#         37
  C:13B8H         LINE#         42
  C:13B8H         LINE#         46
  C:13EAH         LINE#         47
  C:1414H         LINE#         48
  C:143EH         LINE#         49
  C:14EBH         LINE#         52
  C:154CH         LINE#         54
  C:154CH         LINE#         59
  C:154CH         LINE#         61
  C:1563H         LINE#         62
  C:158BH         LINE#         63
  C:15A2H         LINE#         64
  C:15CDH         LINE#         65
  C:1604H         LINE#         66
  C:162FH         LINE#         67
  C:162FH         LINE#         70
  C:162FH         LINE#         79
  C:166AH         LINE#         82
  C:16A4H         LINE#         84
  C:16C9H         LINE#         85
  C:16E8H         LINE#         86
  C:16FFH         LINE#         87
  C:1716H         LINE#         88
  C:172DH         LINE#         89
  C:17B6H         LINE#         91
  C:17D0H         LINE#         92
  C:1832H         LINE#         93
  C:1868H         LINE#         94
  C:187AH         LINE#         95
  C:18A7H         LINE#         96
  C:18D4H         LINE#         98
  C:18F6H         LINE#         100
  C:192EH         LINE#         103
  C:192EH         LINE#         104
  C:193CH         LINE#         105
  -------         ENDPROC       SUNPOS
  -------         ENDMOD        SUNPOS
BL51 BANKED LINKER/LOCATER V6.22                                                      09/07/2018  12:10:50  PAGE 38



  -------         MODULE        ?C_STARTUP
  C:3906H         SEGMENT       ?C_C51STARTUP
  I:0021H         SEGMENT       ?STACK
  C:0000H         PUBLIC        ?C_STARTUP
  D:00E0H         SYMBOL        ACC
  D:00F0H         SYMBOL        B
  D:0083H         SYMBOL        DPH
  D:0082H         SYMBOL        DPL
  N:0000H         SYMBOL        IBPSTACK
  N:0100H         SYMBOL        IBPSTACKTOP
  N:0080H         SYMBOL        IDATALEN
  C:3909H         SYMBOL        IDATALOOP
  N:0000H         SYMBOL        PBPSTACK
  N:0100H         SYMBOL        PBPSTACKTOP
  N:0000H         SYMBOL        PDATALEN
  N:0000H         SYMBOL        PDATASTART
  N:0000H         SYMBOL        PPAGE
  N:0000H         SYMBOL        PPAGEENABLE
  D:00A0H         SYMBOL        PPAGE_SFR
  D:0081H         SYMBOL        SP
  C:3906H         SYMBOL        STARTUP1
  N:0000H         SYMBOL        XBPSTACK
  N:0000H         SYMBOL        XBPSTACKTOP
  N:0000H         SYMBOL        XDATALEN
  N:0000H         SYMBOL        XDATASTART
  C:0000H         LINE#         126
  C:3906H         LINE#         133
  C:3908H         LINE#         134
  C:3909H         LINE#         135
  C:390AH         LINE#         136
  C:390CH         LINE#         185
  C:390FH         LINE#         196
  -------         ENDMOD        ?C_STARTUP

  -------         MODULE        ?C?FPADD
  C:002DH         PUBLIC        ?C?FPADD
  C:0029H         PUBLIC        ?C?FPSUB
  -------         ENDMOD        ?C?FPADD

  -------         MODULE        ?C?FPMUL
  C:011EH         PUBLIC        ?C?FPMUL
  -------         ENDMOD        ?C?FPMUL

  -------         MODULE        ?C?FPDIV
  C:0227H         PUBLIC        ?C?FPDIV
  -------         ENDMOD        ?C?FPDIV

  -------         MODULE        ?C?FPCMP
  C:02C6H         PUBLIC        ?C?FPCMP
  C:02C4H         PUBLIC        ?C?FPCMP3
  -------         ENDMOD        ?C?FPCMP

  -------         MODULE        ?C?FPNEG
  C:033DH         PUBLIC        ?C?FPNEG
  -------         ENDMOD        ?C?FPNEG

BL51 BANKED LINKER/LOCATER V6.22                                                      09/07/2018  12:10:50  PAGE 39


  -------         MODULE        ?C?FCAST
  C:0358H         PUBLIC        ?C?FCASTC
  C:0353H         PUBLIC        ?C?FCASTI
  C:034EH         PUBLIC        ?C?FCASTL
  -------         ENDMOD        ?C?FCAST

  -------         MODULE        ?C?CASTF
  C:038CH         PUBLIC        ?C?CASTF
  -------         ENDMOD        ?C?CASTF

  -------         MODULE        ATAN2
  X:04ECH         PUBLIC        ?_atan2?BYTE
  C:3605H         PUBLIC        _atan2
  -------         ENDMOD        ATAN2

  -------         MODULE        SIN
  C:2EEDH         PUBLIC        _COS
  C:2F03H         PUBLIC        _SIN
  C:2F3FH         PUBLIC        _TAN
  -------         ENDMOD        SIN

  -------         MODULE        ACOS
  C:3BACH         PUBLIC        _ACOS
  -------         ENDMOD        ACOS

  -------         MODULE        ASIN
  C:3CC3H         PUBLIC        _ASIN
  -------         ENDMOD        ASIN

  -------         MODULE        POW
  X:04BFH         PUBLIC        ?_pow?BYTE
  C:302DH         PUBLIC        _pow
  -------         ENDMOD        POW

  -------         MODULE        ?C?CHKFLOAT
  C:040DH         PUBLIC        ?C?CHKFLOAT
  -------         ENDMOD        ?C?CHKFLOAT

  -------         MODULE        EXP
  C:380FH         PUBLIC        _EXP
  -------         ENDMOD        EXP

  -------         MODULE        LOG
  C:31C7H         PUBLIC        _LOG
  C:31C3H         PUBLIC        _LOG10
  -------         ENDMOD        LOG

  -------         MODULE        SQRT
  C:34BDH         PUBLIC        _SQRT
  -------         ENDMOD        SQRT

  -------         MODULE        ATAN
  C:32DCH         PUBLIC        _ATAN
  -------         ENDMOD        ATAN

  -------         MODULE        ?C?COPY
  C:0544H         PUBLIC        ?C?COPY
BL51 BANKED LINKER/LOCATER V6.22                                                      09/07/2018  12:10:50  PAGE 40


  -------         ENDMOD        ?C?COPY

  -------         MODULE        ?C?CLDPTR
  C:056AH         PUBLIC        ?C?CLDPTR
  -------         ENDMOD        ?C?CLDPTR

  -------         MODULE        ?C?CSTPTR
  C:0583H         PUBLIC        ?C?CSTPTR
  -------         ENDMOD        ?C?CSTPTR

  -------         MODULE        ?C?IMUL
  C:0595H         PUBLIC        ?C?IMUL
  -------         ENDMOD        ?C?IMUL

  -------         MODULE        ?C?UIDIV
  C:05A7H         PUBLIC        ?C?UIDIV
  -------         ENDMOD        ?C?UIDIV

  -------         MODULE        ?C?SIDIV
  C:05FCH         PUBLIC        ?C?SIDIV
  -------         ENDMOD        ?C?SIDIV

  -------         MODULE        ?C?ILDIX
  C:0632H         PUBLIC        ?C?ILDIX
  -------         ENDMOD        ?C?ILDIX

  -------         MODULE        ?C?LMUL
  C:0648H         PUBLIC        ?C?LMUL
  -------         ENDMOD        ?C?LMUL

  -------         MODULE        ?C?SLDIV
  C:3C3FH         PUBLIC        ?C?SLDIV
  -------         ENDMOD        ?C?SLDIV

  -------         MODULE        ?C?LNEG
  C:0697H         PUBLIC        ?C?LNEG
  -------         ENDMOD        ?C?LNEG

  -------         MODULE        ?C?LLDPTR
  C:06A5H         PUBLIC        ?C?LLDPTR
  -------         ENDMOD        ?C?LLDPTR

  -------         MODULE        ?C?LLDOPTR
  C:06C5H         PUBLIC        ?C?LLDOPTR
  -------         ENDMOD        ?C?LLDOPTR

  -------         MODULE        ?C?LSTPTR
  C:06F5H         PUBLIC        ?C?LSTPTR
  -------         ENDMOD        ?C?LSTPTR

  -------         MODULE        ?C?LSTOPTR
  C:070FH         PUBLIC        ?C?LSTOPTR
  -------         ENDMOD        ?C?LSTOPTR

  -------         MODULE        ?C?LLDXDATA
  C:0733H         PUBLIC        ?C?LLDXDATA
  -------         ENDMOD        ?C?LLDXDATA
BL51 BANKED LINKER/LOCATER V6.22                                                      09/07/2018  12:10:50  PAGE 41



  -------         MODULE        ?C?LLDCODE
  C:073FH         PUBLIC        ?C?LLDCODE
  -------         ENDMOD        ?C?LLDCODE

  -------         MODULE        ?C?LLDXDATA0
  C:074FH         PUBLIC        ?C?LLDXDATA0
  -------         ENDMOD        ?C?LLDXDATA0

  -------         MODULE        ?C?LLDCODE0
  C:075BH         PUBLIC        ?C?LLDCODE0
  -------         ENDMOD        ?C?LLDCODE0

  -------         MODULE        ?C?LLDPTR0
  C:076BH         PUBLIC        ?C?LLDPTR0
  -------         ENDMOD        ?C?LLDPTR0

  -------         MODULE        ?C?LSTXDATA
  C:078BH         PUBLIC        ?C?LSTXDATA
  -------         ENDMOD        ?C?LSTXDATA

  -------         MODULE        ?C?LSTKXDATA
  C:0797H         PUBLIC        ?C?LSTKXDATA
  -------         ENDMOD        ?C?LSTKXDATA

  -------         MODULE        ?C?OFFXADD
  C:07C8H         PUBLIC        ?C?OFFXADD
  -------         ENDMOD        ?C?OFFXADD

  -------         MODULE        ABS
  C:3FD1H         PUBLIC        _ABS
  -------         ENDMOD        ABS

  -------         MODULE        ATOI
  C:33DEH         PUBLIC        _atoi
  -------         ENDMOD        ATOI

  -------         MODULE        ?C?IILDX
  C:07D4H         PUBLIC        ?C?IILDX
  -------         ENDMOD        ?C?IILDX

  -------         MODULE        ?C?ULDIV
  C:0826H         PUBLIC        ?C?ULDIV
  -------         ENDMOD        ?C?ULDIV

  -------         MODULE        ?C?LLDIDATA
  C:08B8H         PUBLIC        ?C?LLDIDATA
  -------         ENDMOD        ?C?LLDIDATA

  -------         MODULE        ?C?LLDPDATA
  C:08C4H         PUBLIC        ?C?LLDPDATA
  -------         ENDMOD        ?C?LLDPDATA

  -------         MODULE        ?C?LLDIDATA0
  C:08D0H         PUBLIC        ?C?LLDIDATA0
  -------         ENDMOD        ?C?LLDIDATA0

BL51 BANKED LINKER/LOCATER V6.22                                                      09/07/2018  12:10:50  PAGE 42


  -------         MODULE        ?C?LLDPDATA0
  C:08DDH         PUBLIC        ?C?LLDPDATA0
  -------         ENDMOD        ?C?LLDPDATA0

  -------         MODULE        ?C?LSTIDATA
  C:08EAH         PUBLIC        ?C?LSTIDATA
  -------         ENDMOD        ?C?LSTIDATA

  -------         MODULE        ?C?LSTPDATA
  C:08F6H         PUBLIC        ?C?LSTPDATA
  -------         ENDMOD        ?C?LSTPDATA

  -------         MODULE        ISDIGIT
  C:3FA9H         PUBLIC        _isdigit
  -------         ENDMOD        ISDIGIT

  -------         MODULE        ISSPACE
  C:3F40H         PUBLIC        _isspace
  -------         ENDMOD        ISSPACE

*** WARNING L16: UNCALLED SEGMENT, IGNORED FOR OVERLAY PROCESS
    SEGMENT: ?PR?_DISPLAY_PROX?MAIN

*** WARNING L16: UNCALLED SEGMENT, IGNORED FOR OVERLAY PROCESS
    SEGMENT: ?PR?INITUART1?UART1

*** WARNING L16: UNCALLED SEGMENT, IGNORED FOR OVERLAY PROCESS
    SEGMENT: ?PR?_SENDSTRING?UART1

*** WARNING L16: UNCALLED SEGMENT, IGNORED FOR OVERLAY PROCESS
    SEGMENT: ?PR?_TEN?UART1

*** WARNING L16: UNCALLED SEGMENT, IGNORED FOR OVERLAY PROCESS
    SEGMENT: ?PR?_UNIT?UART1

*** WARNING L16: UNCALLED SEGMENT, IGNORED FOR OVERLAY PROCESS
    SEGMENT: ?PR?_DECTOBCD?UART1

*** WARNING L16: UNCALLED SEGMENT, IGNORED FOR OVERLAY PROCESS
    SEGMENT: ?PR?_ASCII_LETTER?UART1

*** WARNING L16: UNCALLED SEGMENT, IGNORED FOR OVERLAY PROCESS
    SEGMENT: ?PR?NOP?VCNL4035

*** WARNING L16: UNCALLED SEGMENT, IGNORED FOR OVERLAY PROCESS
    SEGMENT: ?PR?_READ_VCNL4035?VCNL4035

*** WARNING L16: UNCALLED SEGMENT, IGNORED FOR OVERLAY PROCESS
    SEGMENT: ?PR?_DISPLAYLCD_VCNL4035?VCNL4035

*** WARNING L16: UNCALLED SEGMENT, IGNORED FOR OVERLAY PROCESS
    SEGMENT: ?PR?_FINDDET4X4?BIPOLARMOTOR

*** WARNING L16: UNCALLED SEGMENT, IGNORED FOR OVERLAY PROCESS
    SEGMENT: ?PR?LINEAR_INTERPOLATE?BIPOLARMOTOR

*** WARNING L1: UNRESOLVED EXTERNAL SYMBOL
BL51 BANKED LINKER/LOCATER V6.22                                                      09/07/2018  12:10:50  PAGE 43


    SYMBOL:  AUTO_MODE
    MODULE:  .\Obj\main.obj (MAIN)

*** WARNING L2: REFERENCE MADE TO UNRESOLVED EXTERNAL
    SYMBOL:  AUTO_MODE
    MODULE:  .\Obj\main.obj (MAIN)
    ADDRESS: 2727H

*** WARNING L2: REFERENCE MADE TO UNRESOLVED EXTERNAL
    SYMBOL:  AUTO_MODE
    MODULE:  .\Obj\main.obj (MAIN)
    ADDRESS: 27EFH

*** WARNING L2: REFERENCE MADE TO UNRESOLVED EXTERNAL
    SYMBOL:  AUTO_MODE
    MODULE:  .\Obj\main.obj (MAIN)
    ADDRESS: 27FDH

*** WARNING L2: REFERENCE MADE TO UNRESOLVED EXTERNAL
    SYMBOL:  AUTO_MODE
    MODULE:  .\Obj\main.obj (MAIN)
    ADDRESS: 280FH

*** WARNING L2: REFERENCE MADE TO UNRESOLVED EXTERNAL
    SYMBOL:  AUTO_MODE
    MODULE:  .\Obj\main.obj (MAIN)
    ADDRESS: 2851H

*** WARNING L2: REFERENCE MADE TO UNRESOLVED EXTERNAL
    SYMBOL:  AUTO_MODE
    MODULE:  .\Obj\main.obj (MAIN)
    ADDRESS: 2928H

*** WARNING L1: UNRESOLVED EXTERNAL SYMBOL
    SYMBOL:  AUTO_MODE
    MODULE:  .\Obj\KeyPad.obj (KEYPAD)

*** WARNING L2: REFERENCE MADE TO UNRESOLVED EXTERNAL
    SYMBOL:  AUTO_MODE
    MODULE:  .\Obj\KeyPad.obj (KEYPAD)
    ADDRESS: 24B7H

*** WARNING L2: REFERENCE MADE TO UNRESOLVED EXTERNAL
    SYMBOL:  AUTO_MODE
    MODULE:  .\Obj\KeyPad.obj (KEYPAD)
    ADDRESS: 24C2H

*** WARNING L2: REFERENCE MADE TO UNRESOLVED EXTERNAL
    SYMBOL:  AUTO_MODE
    MODULE:  .\Obj\KeyPad.obj (KEYPAD)
    ADDRESS: 24C9H

Program Size: data=18.0 xdata=1411 code=16401
LINK/LOCATE RUN COMPLETE.  23 WARNING(S),  0 ERROR(S)
