BL51 BANKED LINKER/LOCATER V6.22                                                        08/16/2019  15:59:24  PAGE 1


BL51 BANKED LINKER/LOCATER V6.22, INVOKED BY:
C:\KEIL_V5\C51\BIN\BL51.EXE .\Obj\main.obj, .\Obj\PCF85063BTL.obj, .\Obj\LCd_Driver_SPLC780D.obj, .\Obj\KeyPad.obj, .\Ob
>> j\BipolarMotor.obj, .\Obj\SunPos.obj, .\Obj\ADC.obj, .\Obj\Calibration.obj, .\Obj\IOExpander_PI4IOE5V96248.obj, .\Obj
>> \AT25SF041.obj, .\Obj\SI1120.obj, .\Obj\UART1.obj, .\Obj\STARTUP.obj TO .\Obj\GPIO_RTC_Test RTX51TINY PRINT (.\Lis\GP
>> IO_RTC_Test.m51) RAMSIZE (256)


MEMORY MODEL: LARGE WITH FLOATING POINT ARITHMETIC


INPUT MODULES INCLUDED:
  .\Obj\main.obj (MAIN)
  .\Obj\PCF85063BTL.obj (PCF85063BTL)
  .\Obj\LCd_Driver_SPLC780D.obj (LCD_DRIVER_SPLC780D)
  .\Obj\KeyPad.obj (KEYPAD)
  .\Obj\BipolarMotor.obj (BIPOLARMOTOR)
  .\Obj\SunPos.obj (SUNPOS)
  .\Obj\ADC.obj (ADC)
  .\Obj\Calibration.obj (CALIBRATION)
  .\Obj\IOExpander_PI4IOE5V96248.obj (IOEXPANDER_PI4IOE5V96248)
  .\Obj\AT25SF041.obj (AT25SF041)
  .\Obj\SI1120.obj (SI1120)
  .\Obj\UART1.obj (UART1)
  .\Obj\STARTUP.obj (?C_STARTUP)
  C:\KEIL_V5\C51\LIB\C51FPL.LIB (?C?FPADD)
  C:\KEIL_V5\C51\LIB\C51FPL.LIB (?C?FPMUL)
  C:\KEIL_V5\C51\LIB\C51FPL.LIB (?C?FPDIV)
  C:\KEIL_V5\C51\LIB\C51FPL.LIB (?C?FPCMP)
  C:\KEIL_V5\C51\LIB\C51FPL.LIB (?C?FPNEG)
  C:\KEIL_V5\C51\LIB\C51FPL.LIB (?C?FCAST)
  C:\KEIL_V5\C51\LIB\C51FPL.LIB (?C?CASTF)
  C:\KEIL_V5\C51\LIB\C51FPL.LIB (PRINTF)
  C:\KEIL_V5\C51\LIB\C51FPL.LIB (FABS)
  C:\KEIL_V5\C51\LIB\C51FPL.LIB (ATAN2)
  C:\KEIL_V5\C51\LIB\C51FPL.LIB (SIN)
  C:\KEIL_V5\C51\LIB\C51FPL.LIB (ACOS)
  C:\KEIL_V5\C51\LIB\C51FPL.LIB (ASIN)
  C:\KEIL_V5\C51\LIB\C51FPL.LIB (POW)
  C:\KEIL_V5\C51\LIB\C51FPL.LIB (?C?FPGETOPN)
  C:\KEIL_V5\C51\LIB\C51FPL.LIB (?C?CHKFLOAT)
  C:\KEIL_V5\C51\LIB\C51FPL.LIB (?C?FPROUND)
  C:\KEIL_V5\C51\LIB\C51FPL.LIB (?C?FPCONVERT)
  C:\KEIL_V5\C51\LIB\C51FPL.LIB (?C?FPSERIES)
  C:\KEIL_V5\C51\LIB\C51FPL.LIB (EXP)
  C:\KEIL_V5\C51\LIB\C51FPL.LIB (LOG)
  C:\KEIL_V5\C51\LIB\C51FPL.LIB (SQRT)
  C:\KEIL_V5\C51\LIB\C51FPL.LIB (ATAN)
  C:\KEIL_V5\C51\LIB\C51FPL.LIB (?C?FTNPWR)
  C:\KEIL_V5\C51\LIB\C51L.LIB (?C_INIT)
  C:\KEIL_V5\C51\LIB\C51L.LIB (?C?COPY)
  C:\KEIL_V5\C51\LIB\C51L.LIB (?C?CLDPTR)
  C:\KEIL_V5\C51\LIB\C51L.LIB (?C?CLDOPTR)
  C:\KEIL_V5\C51\LIB\C51L.LIB (?C?CSTPTR)
  C:\KEIL_V5\C51\LIB\C51L.LIB (?C?IMUL)
  C:\KEIL_V5\C51\LIB\C51L.LIB (?C?UIDIV)
  C:\KEIL_V5\C51\LIB\C51L.LIB (?C?SIDIV)
  C:\KEIL_V5\C51\LIB\C51L.LIB (?C?ILDIX)
  C:\KEIL_V5\C51\LIB\C51L.LIB (?C?ILDOPTR)
BL51 BANKED LINKER/LOCATER V6.22                                                      08/16/2019  15:59:24  PAGE 2


  C:\KEIL_V5\C51\LIB\C51L.LIB (?C?ISTPTR)
  C:\KEIL_V5\C51\LIB\C51L.LIB (?C?LMUL)
  C:\KEIL_V5\C51\LIB\C51L.LIB (?C?SLDIV)
  C:\KEIL_V5\C51\LIB\C51L.LIB (?C?LNEG)
  C:\KEIL_V5\C51\LIB\C51L.LIB (?C?ULCMP)
  C:\KEIL_V5\C51\LIB\C51L.LIB (?C?LSHL)
  C:\KEIL_V5\C51\LIB\C51L.LIB (?C?LLDPTR)
  C:\KEIL_V5\C51\LIB\C51L.LIB (?C?LLDOPTR)
  C:\KEIL_V5\C51\LIB\C51L.LIB (?C?LSTPTR)
  C:\KEIL_V5\C51\LIB\C51L.LIB (?C?LSTOPTR)
  C:\KEIL_V5\C51\LIB\C51L.LIB (?C?LLDXDATA)
  C:\KEIL_V5\C51\LIB\C51L.LIB (?C?LLDCODE)
  C:\KEIL_V5\C51\LIB\C51L.LIB (?C?LLDXDATA0)
  C:\KEIL_V5\C51\LIB\C51L.LIB (?C?LLDCODE0)
  C:\KEIL_V5\C51\LIB\C51L.LIB (?C?LLDPTR0)
  C:\KEIL_V5\C51\LIB\C51L.LIB (?C?LSTXDATA)
  C:\KEIL_V5\C51\LIB\C51L.LIB (?C?LSTKXDATA)
  C:\KEIL_V5\C51\LIB\C51L.LIB (?C?LSTKPTR)
  C:\KEIL_V5\C51\LIB\C51L.LIB (?C?OFFXADD)
  C:\KEIL_V5\C51\LIB\C51L.LIB (?C?PLDIXDATA)
  C:\KEIL_V5\C51\LIB\C51L.LIB (?C?PSTXDATA)
  C:\KEIL_V5\C51\LIB\C51L.LIB (?C?CCASE)
  C:\KEIL_V5\C51\LIB\C51L.LIB (PUTCHAR)
  C:\KEIL_V5\C51\LIB\C51L.LIB (ABS)
  C:\KEIL_V5\C51\LIB\C51L.LIB (ATOI)
  C:\KEIL_V5\C51\LIB\C51L.LIB (?C?IILDX)
  C:\KEIL_V5\C51\LIB\C51L.LIB (?C?ULDIV)
  C:\KEIL_V5\C51\LIB\C51L.LIB (?C?LLDIDATA)
  C:\KEIL_V5\C51\LIB\C51L.LIB (?C?LLDPDATA)
  C:\KEIL_V5\C51\LIB\C51L.LIB (?C?LLDIDATA0)
  C:\KEIL_V5\C51\LIB\C51L.LIB (?C?LLDPDATA0)
  C:\KEIL_V5\C51\LIB\C51L.LIB (?C?LSTIDATA)
  C:\KEIL_V5\C51\LIB\C51L.LIB (?C?LSTPDATA)
  C:\KEIL_V5\C51\LIB\C51L.LIB (?C?LSTKIDATA)
  C:\KEIL_V5\C51\LIB\C51L.LIB (?C?LSTKPDATA)
  C:\KEIL_V5\C51\LIB\C51L.LIB (ISDIGIT)
  C:\KEIL_V5\C51\LIB\C51L.LIB (ISSPACE)


LINK MAP OF MODULE:  .\Obj\GPIO_RTC_Test (MAIN)


            TYPE    BASE      LENGTH    RELOCATION   SEGMENT NAME
            -----------------------------------------------------

            * * * * * * *   D A T A   M E M O R Y   * * * * * * *
            REG     0000H     0008H     ABSOLUTE     "REG BANK 0"
            DATA    0008H     0005H     UNIT         _DATA_GROUP_
                    000DH     0013H                  *** GAP ***
            BIT     0020H.0   0001H.2   UNIT         _BIT_GROUP_
            BIT     0021H.2   0000H.1   UNIT         ?BI?MAIN
            BIT     0021H.3   0000H.1   UNIT         ?BI?_ATOI?ATOI
                    0021H.4   0000H.4                *** GAP ***
            IDATA   0022H     0001H     UNIT         ?STACK

            * * * * * * *  X D A T A   M E M O R Y  * * * * * * *
            XDATA   0000H     03BCH     UNIT         ?XD?BIPOLARMOTOR
BL51 BANKED LINKER/LOCATER V6.22                                                      08/16/2019  15:59:24  PAGE 3


            XDATA   03BCH     015DH     UNIT         _XDATA_GROUP_
            XDATA   0519H     011DH     UNIT         ?XD?MAIN
            XDATA   0636H     0019H     UNIT         ?XD?KEYPAD
            XDATA   064FH     0005H     UNIT         ?XD?_ATOI?ATOI
            XDATA   0654H     0001H     UNIT         ?XD?UC_ACK?IOEXPANDER_PI4IOE5V96248
            XDATA   0655H     0001H     UNIT         ?XD?UC_NACK?IOEXPANDER_PI4IOE5V96248

            * * * * * * *   C O D E   M E M O R Y   * * * * * * *
            CODE    0000H     0003H     ABSOLUTE     
            CODE    0003H     0003H     ABSOLUTE     
            CODE    0006H     0005H     UNIT         ?PR?_UNIT?UART1
            CODE    000BH     0003H     ABSOLUTE     
            CODE    000EH     000DH     UNIT         ?PR?UART?MAIN
            CODE    001BH     0003H     ABSOLUTE     
            CODE    001EH     0005H     UNIT         ?PR?_ASCII_LETTER?UART1
            CODE    0023H     0003H     ABSOLUTE     
            CODE    0026H     1E98H     UNIT         ?PR?MAIN?MAIN
            CODE    1EBEH     0BC8H     UNIT         ?C?LIB_CODE
            CODE    2A86H     07A2H     UNIT         ?PR?SUNPOS?SUNPOS
            CODE    3228H     06F4H     UNIT         ?PR?_FIND_REAL_MAX?CALIBRATION
            CODE    391CH     0631H     UNIT         ?PR?_UPDATE_POSITION?BIPOLARMOTOR
            CODE    3F4DH     04FBH     UNIT         ?PR?_THEORICALJP_POSITION?BIPOLARMOTOR
            CODE    4448H     0483H     UNIT         ?PR?PRINTF?PRINTF
            CODE    48CBH     041AH     UNIT         ?C_INITSEG
            CODE    4CE5H     038CH     UNIT         ?PR?KEY_PROCESS?KEYPAD
            CODE    5071H     0380H     UNIT         ?PR?_ELEVATION_CALCULATION?BIPOLARMOTOR
            CODE    53F1H     01C7H     UNIT         ?PR?_CALIBRATION?CALIBRATION
            CODE    55B8H     018DH     UNIT         ?PR?KEY_SCAN?KEYPAD
            CODE    5745H     0189H     UNIT         ?PR?SPI_NOR_WRITE_DATA?AT25SF041
            CODE    58CEH     0188H     UNIT         ?PR?SIN?SIN
            CODE    5A56H     0166H     UNIT         ?PR?_POW?POW
            CODE    5BBCH     0155H     UNIT         ?PR?_DISPLAY_POS?LCD_DRIVER_SPLC780D
            CODE    5D11H     0129H     UNIT         ?PR?LOG?LOG
            CODE    5E3AH     0122H     UNIT         ?PR?ATAN?ATAN
            CODE    5F5CH     0110H     UNIT         ?PR?_AT25SF041_READ?AT25SF041
            CODE    606CH     0102H     UNIT         ?PR?_AT25SF041_WRITE?AT25SF041
            CODE    616EH     00F5H     UNIT         ?PR?EXINT0?MAIN
            CODE    6263H     00DBH     UNIT         ?PR?_ATOI?ATOI
            CODE    633EH     00C3H     UNIT         ?PR?LINEAR_INTERPOLATE?BIPOLARMOTOR
            CODE    6401H     00BBH     UNIT         ?PR?VOLTAGE_IS_STABLE?CALIBRATION
            CODE    64BCH     00ADH     UNIT         ?PR?_WRITE_PI4IOE5V96248?IOEXPANDER_PI4IOE5V96248
            CODE    6569H     00ACH     UNIT         ?PR?SQRT?SQRT
            CODE    6615H     00A1H     UNIT         ?PR?UCREAD_STATUS_REGISTER_BYTE1?AT25SF041
            CODE    66B6H     009DH     UNIT         ?PR?_ATAN2?ATAN2
            CODE    6753H     009CH     UNIT         ?PR?_MAX_VALUE?CALIBRATION
            CODE    67EFH     009AH     UNIT         ?PR?EXP?EXP
            CODE    6889H     008CH     UNIT         ?C_C51STARTUP
            CODE    6915H     0088H     UNIT         ?PR?_DAY_OF_YEAR?PCF85063BTL
            CODE    699DH     0079H     UNIT         ?PR?_WRITEDATA?LCD_DRIVER_SPLC780D
            CODE    6A16H     0072H     UNIT         ?PR?AT25SF041_WRITEENABLE?AT25SF041
            CODE    6A88H     006FH     UNIT         ?PR?_READ_TIME?PCF85063BTL
            CODE    6AF7H     005AH     UNIT         ?PR?AT25SF041_CHIPERASE?AT25SF041
            CODE    6B51H     0059H     UNIT         ?PR?LCD_INIT?LCD_DRIVER_SPLC780D
            CODE    6BAAH     0056H     UNIT         ?CO?MAIN
            CODE    6C00H     004BH     UNIT         ?CO?UART1
            CODE    6C4BH     004AH     UNIT         ?PR?VONESTEPMOVE?BIPOLARMOTOR
            CODE    6C95H     004AH     UNIT         ?PR?ACOS?ACOS
BL51 BANKED LINKER/LOCATER V6.22                                                      08/16/2019  15:59:24  PAGE 4


            CODE    6CDFH     0044H     UNIT         ?C?LDIV
            CODE    6D23H     0040H     UNIT         ?PR?_COMMAND?LCD_DRIVER_SPLC780D
            CODE    6D63H     0040H     UNIT         ?PR?_STEP_MOVE?BIPOLARMOTOR
            CODE    6DA3H     003BH     UNIT         ?PR?ASIN?ASIN
            CODE    6DDEH     0033H     UNIT         ?PR?_SENDSTRING?UART1
            CODE    6E11H     0031H     UNIT         ?PR?SI1120_CONFIG_MODE_VIRH?SI1120
            CODE    6E42H     002BH     UNIT         ?PR?_WAIT_MS_I2C?IOEXPANDER_PI4IOE5V96248
            CODE    6E6DH     002BH     UNIT         ?PR?_WAIT_MS_SPINOR?AT25SF041
            CODE    6E98H     002AH     UNIT         ?PR?_ADC_GETRESULT?ADC
            CODE    6EC2H     0028H     UNIT         ?PR?_MOVE?BIPOLARMOTOR
            CODE    6EEAH     0028H     UNIT         ?CO?CALIBRATION
            CODE    6F12H     0027H     UNIT         ?PR?_I2C_SENDBYTE?IOEXPANDER_PI4IOE5V96248
            CODE    6F39H     0027H     UNIT         ?PR?PUTCHAR?PUTCHAR
            CODE    6F60H     0025H     UNIT         ?PR?_FINDCLOSESTSAMEDAYCALIBTIME?CALIBRATION
            CODE    6F85H     0024H     UNIT         ?PR?_WAIT_MS?LCD_DRIVER_SPLC780D
            CODE    6FA9H     0024H     UNIT         ?PR?_UART1_SENDTOTCPSERVER?UART1
            CODE    6FCDH     0021H     UNIT         ?PR?TM0_ISR?MAIN
            CODE    6FEEH     0020H     UNIT         ?PR?_SPI_SENDBYTE?PCF85063BTL
            CODE    700EH     0020H     UNIT         ?PR?SPI_RECEIVEBYTE?PCF85063BTL
            CODE    702EH     001EH     UNIT         ?PR?_DELAY_MS?KEYPAD
            CODE    704CH     001DH     UNIT         ?PR?_DISPLAYLCD?LCD_DRIVER_SPLC780D
            CODE    7069H     001BH     UNIT         ?PR?_BCDTODEC1?BIPOLARMOTOR
            CODE    7084H     001AH     UNIT         ?PR?ADC_INIT?ADC
            CODE    709EH     0018H     UNIT         ?PR?_SPI_WRITETIME?PCF85063BTL
            CODE    70B6H     0017H     UNIT         ?PR?_ASCIITOBCD?UART1
            CODE    70CDH     0016H     UNIT         ?PR?I2C_ACK?IOEXPANDER_PI4IOE5V96248
            CODE    70E3H     0015H     UNIT         ?PR?_DISPLAY_LINE?LCD_DRIVER_SPLC780D
            CODE    70F8H     0015H     UNIT         ?PR?VSETLOCATION?BIPOLARMOTOR
            CODE    710DH     0015H     UNIT         ?PR?I2C_STOP?IOEXPANDER_PI4IOE5V96248
            CODE    7122H     0014H     UNIT         ?PR?_PCF85063BTL_DELAY?PCF85063BTL
            CODE    7136H     0014H     UNIT         ?PR?_ISSPACE?ISSPACE
            CODE    714AH     0011H     UNIT         ?PR?_SPI_READTIME?PCF85063BTL
            CODE    715BH     0011H     UNIT         ?PR?_BCDTODEC?PCF85063BTL
            CODE    716CH     0011H     UNIT         ?PR?INITUART1?UART1
            CODE    717DH     000FH     UNIT         ?PR?I2C_START?IOEXPANDER_PI4IOE5V96248
            CODE    718CH     000FH     UNIT         ?PR?UC_NACK?IOEXPANDER_PI4IOE5V96248
            CODE    719BH     000FH     UNIT         ?PR?_ISDIGIT?ISDIGIT
            CODE    71AAH     000DH     UNIT         ?PR?SPI_INIT?PCF85063BTL
            CODE    71B7H     000DH     UNIT         ?PR?ENABLE_EXTINT0?SI1120
            CODE    71C4H     000DH     UNIT         ?PR?_FABS?FABS
            CODE    71D1H     000CH     UNIT         ?PR?KEYPAD_IO_INIT?KEYPAD
            CODE    71DDH     000CH     UNIT         ?PR?_ABS?ABS
            CODE    71E9H     000AH     UNIT         ?PR?LCD_RETURN_HOME?LCD_DRIVER_SPLC780D
            CODE    71F3H     000AH     UNIT         ?PR?LCD_CLEAR?LCD_DRIVER_SPLC780D
            CODE    71FDH     0009H     UNIT         ?PR?TM1_ISR?MAIN
            CODE    7206H     0009H     UNIT         ?PR?_SENDUART1?MAIN
            CODE    720FH     0009H     UNIT         ?PR?UART1_INITTCPCONN?UART1
            CODE    7218H     0006H     UNIT         ?PR?UC_ACK?IOEXPANDER_PI4IOE5V96248
            CODE    721EH     0006H     UNIT         ?PR?_TEN?UART1
            CODE    7224H     0001H     UNIT         ?PR?NOP?IOEXPANDER_PI4IOE5V96248
            CODE    7225H     0001H     UNIT         ?PR?_DECTOBCD?UART1



OVERLAY MAP OF MODULE:   .\Obj\GPIO_RTC_Test (MAIN)


BL51 BANKED LINKER/LOCATER V6.22                                                      08/16/2019  15:59:24  PAGE 5


SEGMENT                                             BIT_GROUP          DATA_GROUP          XDATA_GROUP
  +--> CALLED SEGMENT                            START    LENGTH     START    LENGTH     START    LENGTH
--------------------------------------------------------------------------------------------------------
?PR?EXINT0?MAIN                                  -----    -----      -----    -----      -----    -----
  +--> ?PR?_POW?POW

?PR?_POW?POW                                     -----    -----      -----    -----      03BCH    000AH
  +--> ?PR?LOG?LOG
  +--> ?PR?EXP?EXP

?PR?LOG?LOG                                      0020H.0  0000H.1    -----    -----      03C6H    0004H

*** NEW ROOT ***************************************************

?C_C51STARTUP                                    -----    -----      -----    -----      -----    -----
  +--> ?PR?MAIN?MAIN
  +--> ?C_INITSEG

?PR?MAIN?MAIN                                    -----    -----      -----    -----      03CAH    002EH
  +--> ?PR?LCD_INIT?LCD_DRIVER_SPLC780D
  +--> ?PR?SPI_INIT?PCF85063BTL
  +--> ?PR?KEYPAD_IO_INIT?KEYPAD
  +--> ?PR?ADC_INIT?ADC
  +--> ?PR?SI1120_CONFIG_MODE_VIRH?SI1120
  +--> ?PR?ENABLE_EXTINT0?SI1120
  +--> ?PR?VSETLOCATION?BIPOLARMOTOR
  +--> ?PR?_SPI_WRITETIME?PCF85063BTL
  +--> ?PR?_DELAY_MS?KEYPAD
  +--> ?PR?_DISPLAY_LINE?LCD_DRIVER_SPLC780D
  +--> ?PR?_WRITEDATA?LCD_DRIVER_SPLC780D
  +--> ?PR?INITUART1?UART1
  +--> ?PR?UART1_INITTCPCONN?UART1
  +--> ?CO?MAIN
  +--> ?PR?_UART1_SENDTOTCPSERVER?UART1
  +--> ?PR?KEY_PROCESS?KEYPAD
  +--> ?PR?_COMMAND?LCD_DRIVER_SPLC780D
  +--> ?PR?_DISPLAY_POS?LCD_DRIVER_SPLC780D
  +--> ?PR?_DISPLAYLCD?LCD_DRIVER_SPLC780D
  +--> ?PR?_STEP_MOVE?BIPOLARMOTOR
  +--> ?PR?LCD_RETURN_HOME?LCD_DRIVER_SPLC780D
  +--> ?PR?_READ_TIME?PCF85063BTL
  +--> ?PR?_BCDTODEC1?BIPOLARMOTOR
  +--> ?PR?_SENDSTRING?UART1
  +--> ?PR?_ELEVATION_CALCULATION?BIPOLARMOTOR
  +--> ?PR?PRINTF?PRINTF
  +--> ?PR?_CALIBRATION?CALIBRATION
  +--> ?PR?_UPDATE_POSITION?BIPOLARMOTOR
  +--> ?PR?_AT25SF041_READ?AT25SF041
  +--> ?PR?_WAIT_MS_SPINOR?AT25SF041
  +--> ?PR?AT25SF041_WRITEENABLE?AT25SF041
  +--> ?PR?_AT25SF041_WRITE?AT25SF041
  +--> ?PR?_ABS?ABS
  +--> ?PR?_FABS?FABS
  +--> ?PR?SPI_NOR_WRITE_DATA?AT25SF041
  +--> ?PR?_WAIT_MS?LCD_DRIVER_SPLC780D
  +--> ?PR?LINEAR_INTERPOLATE?BIPOLARMOTOR
  +--> ?PR?_FINDCLOSESTSAMEDAYCALIBTIME?CALI...
BL51 BANKED LINKER/LOCATER V6.22                                                      08/16/2019  15:59:24  PAGE 6


  +--> ?PR?_ADC_GETRESULT?ADC
  +--> ?PR?LCD_CLEAR?LCD_DRIVER_SPLC780D
  +--> ?PR?AT25SF041_CHIPERASE?AT25SF041

?PR?LCD_INIT?LCD_DRIVER_SPLC780D                 -----    -----      -----    -----      -----    -----
  +--> ?PR?_WAIT_MS?LCD_DRIVER_SPLC780D
  +--> ?PR?_COMMAND?LCD_DRIVER_SPLC780D

?PR?_COMMAND?LCD_DRIVER_SPLC780D                 -----    -----      -----    -----      -----    -----
  +--> ?PR?_WAIT_MS?LCD_DRIVER_SPLC780D

?PR?SI1120_CONFIG_MODE_VIRH?SI1120               -----    -----      -----    -----      -----    -----
  +--> ?PR?_WAIT_MS?LCD_DRIVER_SPLC780D

?PR?_SPI_WRITETIME?PCF85063BTL                   -----    -----      -----    -----      -----    -----
  +--> ?PR?_SPI_SENDBYTE?PCF85063BTL

?PR?_SPI_SENDBYTE?PCF85063BTL                    -----    -----      -----    -----      -----    -----
  +--> ?PR?_PCF85063BTL_DELAY?PCF85063BTL

?PR?_DISPLAY_LINE?LCD_DRIVER_SPLC780D            -----    -----      -----    -----      -----    -----
  +--> ?PR?_COMMAND?LCD_DRIVER_SPLC780D

?PR?_WRITEDATA?LCD_DRIVER_SPLC780D               -----    -----      -----    -----      04F4H    0001H
  +--> ?PR?_WAIT_MS?LCD_DRIVER_SPLC780D

?PR?UART1_INITTCPCONN?UART1                      -----    -----      -----    -----      -----    -----
  +--> ?CO?UART1
  +--> ?PR?_SENDSTRING?UART1

?PR?_SENDSTRING?UART1                            -----    -----      -----    -----      04E9H    0003H
  +--> ?PR?_SENDUART1?MAIN

?PR?_UART1_SENDTOTCPSERVER?UART1                 -----    -----      -----    -----      03F8H    0003H
  +--> ?CO?UART1
  +--> ?PR?_SENDSTRING?UART1
  +--> ?PR?_DELAY_MS?KEYPAD

?PR?KEY_PROCESS?KEYPAD                           -----    -----      -----    -----      03F8H    0006H
  +--> ?PR?KEY_SCAN?KEYPAD
  +--> ?PR?_SPI_WRITETIME?PCF85063BTL
  +--> ?PR?LCD_CLEAR?LCD_DRIVER_SPLC780D
  +--> ?PR?_COMMAND?LCD_DRIVER_SPLC780D
  +--> ?PR?_WRITEDATA?LCD_DRIVER_SPLC780D

?PR?KEY_SCAN?KEYPAD                              -----    -----      -----    -----      03FEH    0003H

?PR?LCD_CLEAR?LCD_DRIVER_SPLC780D                -----    -----      -----    -----      -----    -----
  +--> ?PR?_COMMAND?LCD_DRIVER_SPLC780D

?PR?_DISPLAY_POS?LCD_DRIVER_SPLC780D             -----    -----      -----    -----      04E9H    000BH
  +--> ?PR?_ABS?ABS
  +--> ?PR?_WRITEDATA?LCD_DRIVER_SPLC780D

?PR?_DISPLAYLCD?LCD_DRIVER_SPLC780D              -----    -----      -----    -----      03F8H    0001H
  +--> ?PR?_WRITEDATA?LCD_DRIVER_SPLC780D

BL51 BANKED LINKER/LOCATER V6.22                                                      08/16/2019  15:59:24  PAGE 7


?PR?_STEP_MOVE?BIPOLARMOTOR                      0020H.2  0000H.1    -----    -----      04EDH    0004H
  +--> ?PR?VONESTEPMOVE?BIPOLARMOTOR

?PR?VONESTEPMOVE?BIPOLARMOTOR                    0020H.3  0000H.1    -----    -----      -----    -----
  +--> ?PR?_WRITE_PI4IOE5V96248?IOEXPANDER_P...
  +--> ?PR?_DELAY_MS?KEYPAD

?PR?_WRITE_PI4IOE5V96248?IOEXPANDER_P...         -----    -----      -----    -----      04F1H    0003H
  +--> ?PR?I2C_START?IOEXPANDER_PI4IOE5V96248
  +--> ?PR?_WAIT_MS_I2C?IOEXPANDER_PI4IOE5V9...
  +--> ?PR?_I2C_SENDBYTE?IOEXPANDER_PI4IOE5V...
  +--> ?PR?I2C_ACK?IOEXPANDER_PI4IOE5V96248
  +--> ?PR?I2C_STOP?IOEXPANDER_PI4IOE5V96248

?PR?I2C_START?IOEXPANDER_PI4IOE5V96248           -----    -----      -----    -----      -----    -----
  +--> ?PR?_WAIT_MS_I2C?IOEXPANDER_PI4IOE5V9...

?PR?_I2C_SENDBYTE?IOEXPANDER_PI4IOE5V...         -----    -----      -----    -----      -----    -----
  +--> ?PR?_WAIT_MS_I2C?IOEXPANDER_PI4IOE5V9...

?PR?I2C_ACK?IOEXPANDER_PI4IOE5V96248             -----    -----      -----    -----      04F4H    0001H
  +--> ?PR?_WAIT_MS_I2C?IOEXPANDER_PI4IOE5V9...

?PR?I2C_STOP?IOEXPANDER_PI4IOE5V96248            -----    -----      -----    -----      -----    -----
  +--> ?PR?_WAIT_MS_I2C?IOEXPANDER_PI4IOE5V9...

?PR?LCD_RETURN_HOME?LCD_DRIVER_SPLC780D          -----    -----      -----    -----      -----    -----
  +--> ?PR?_COMMAND?LCD_DRIVER_SPLC780D

?PR?_READ_TIME?PCF85063BTL                       -----    -----      -----    -----      04E9H    000FH
  +--> ?PR?_SPI_READTIME?PCF85063BTL

?PR?_SPI_READTIME?PCF85063BTL                    -----    -----      -----    -----      -----    -----
  +--> ?PR?_SPI_SENDBYTE?PCF85063BTL
  +--> ?PR?SPI_RECEIVEBYTE?PCF85063BTL

?PR?SPI_RECEIVEBYTE?PCF85063BTL                  -----    -----      -----    -----      -----    -----
  +--> ?PR?_PCF85063BTL_DELAY?PCF85063BTL

?PR?_ELEVATION_CALCULATION?BIPOLARMOTOR          -----    -----      -----    -----      03F8H    0005H
  +--> ?PR?_BCDTODEC1?BIPOLARMOTOR
  +--> ?PR?SUNPOS?SUNPOS
  +--> ?PR?SIN?SIN
  +--> ?PR?ASIN?ASIN

?PR?SUNPOS?SUNPOS                                -----    -----      -----    -----      0442H    005DH
  +--> ?PR?SIN?SIN
  +--> ?PR?_ATAN2?ATAN2
  +--> ?PR?ASIN?ASIN
  +--> ?PR?ACOS?ACOS

?PR?SIN?SIN                                      0020H.1  0000H.1    -----    -----      049FH    0004H

?PR?_ATAN2?ATAN2                                 -----    -----      -----    -----      049FH    0008H
  +--> ?PR?ATAN?ATAN

?PR?ATAN?ATAN                                    0020H.1  0000H.2    -----    -----      04A7H    0004H
BL51 BANKED LINKER/LOCATER V6.22                                                      08/16/2019  15:59:24  PAGE 8



?PR?ASIN?ASIN                                    -----    -----      -----    -----      -----    -----
  +--> ?PR?SQRT?SQRT
  +--> ?PR?ATAN?ATAN

?PR?SQRT?SQRT                                    -----    -----      -----    -----      049FH    0004H

?PR?ACOS?ACOS                                    -----    -----      -----    -----      -----    -----
  +--> ?PR?SQRT?SQRT
  +--> ?PR?ATAN?ATAN

?PR?PRINTF?PRINTF                                0020H.1  0001H.1    0008H    0005H      04E9H    0030H
  +--> ?PR?PUTCHAR?PUTCHAR

?PR?_CALIBRATION?CALIBRATION                     -----    -----      -----    -----      03F8H    0024H
  +--> ?PR?VOLTAGE_IS_STABLE?CALIBRATION
  +--> ?PR?_UPDATE_POSITION?BIPOLARMOTOR
  +--> ?PR?_FIND_REAL_MAX?CALIBRATION

?PR?VOLTAGE_IS_STABLE?CALIBRATION                -----    -----      -----    -----      041CH    0018H
  +--> ?PR?_ADC_GETRESULT?ADC
  +--> ?PR?_ABS?ABS

?PR?_UPDATE_POSITION?BIPOLARMOTOR                -----    -----      -----    -----      041CH    0026H
  +--> ?PR?_BCDTODEC1?BIPOLARMOTOR
  +--> ?PR?SUNPOS?SUNPOS
  +--> ?PR?SIN?SIN
  +--> ?PR?ASIN?ASIN
  +--> ?PR?_THEORICALJP_POSITION?BIPOLARMOTOR
  +--> ?PR?_FABS?FABS
  +--> ?PR?_MOVE?BIPOLARMOTOR

?PR?_THEORICALJP_POSITION?BIPOLARMOTOR           -----    -----      -----    -----      0442H    005CH
  +--> ?PR?LINEAR_INTERPOLATE?BIPOLARMOTOR

?PR?LINEAR_INTERPOLATE?BIPOLARMOTOR              -----    -----      -----    -----      049EH    0014H

?PR?_MOVE?BIPOLARMOTOR                           0020H.1  0000H.1    -----    -----      04E9H    0004H
  +--> ?PR?_STEP_MOVE?BIPOLARMOTOR

?PR?_FIND_REAL_MAX?CALIBRATION                   -----    -----      -----    -----      041CH    00CDH
  +--> ?PR?_ADC_GETRESULT?ADC
  +--> ?PR?_WAIT_MS?LCD_DRIVER_SPLC780D
  +--> ?CO?CALIBRATION
  +--> ?PR?PRINTF?PRINTF
  +--> ?PR?_SENDSTRING?UART1
  +--> ?PR?_COMMAND?LCD_DRIVER_SPLC780D
  +--> ?PR?_WRITEDATA?LCD_DRIVER_SPLC780D
  +--> ?PR?_DISPLAY_POS?LCD_DRIVER_SPLC780D
  +--> ?PR?_MOVE?BIPOLARMOTOR
  +--> ?PR?_READ_TIME?PCF85063BTL
  +--> ?PR?_BCDTODEC1?BIPOLARMOTOR
  +--> ?PR?_MAX_VALUE?CALIBRATION

?PR?_MAX_VALUE?CALIBRATION                       -----    -----      -----    -----      04E9H    0004H

?PR?_AT25SF041_READ?AT25SF041                    -----    -----      -----    -----      03F8H    0008H
BL51 BANKED LINKER/LOCATER V6.22                                                      08/16/2019  15:59:24  PAGE 9


  +--> ?PR?_WAIT_MS_SPINOR?AT25SF041
  +--> ?PR?UCREAD_STATUS_REGISTER_BYTE1?AT25...

?PR?UCREAD_STATUS_REGISTER_BYTE1?AT25...         -----    -----      -----    -----      040EH    0003H
  +--> ?PR?_WAIT_MS_SPINOR?AT25SF041

?PR?AT25SF041_WRITEENABLE?AT25SF041              -----    -----      -----    -----      0406H    0002H
  +--> ?PR?_WAIT_MS_SPINOR?AT25SF041
  +--> ?PR?UCREAD_STATUS_REGISTER_BYTE1?AT25...

?PR?_AT25SF041_WRITE?AT25SF041                   -----    -----      -----    -----      0406H    0008H
  +--> ?PR?_WAIT_MS_SPINOR?AT25SF041
  +--> ?PR?UCREAD_STATUS_REGISTER_BYTE1?AT25...

?PR?SPI_NOR_WRITE_DATA?AT25SF041                 -----    -----      -----    -----      03F8H    000EH
  +--> ?PR?AT25SF041_WRITEENABLE?AT25SF041
  +--> ?PR?_AT25SF041_WRITE?AT25SF041
  +--> ?PR?_WAIT_MS_SPINOR?AT25SF041

?PR?AT25SF041_CHIPERASE?AT25SF041                -----    -----      -----    -----      03F8H    0002H
  +--> ?PR?_WAIT_MS_SPINOR?AT25SF041
  +--> ?PR?UCREAD_STATUS_REGISTER_BYTE1?AT25...



SYMBOL TABLE OF MODULE:  .\Obj\GPIO_RTC_Test (MAIN)

  VALUE           TYPE          NAME
  ----------------------------------

  -------         MODULE        MAIN
  C:0000H         SYMBOL        _ICE_DUMMY_
  X:0521H         PUBLIC        calib_value
  D:0080H         PUBLIC        P0
  D:0090H         PUBLIC        P1
  D:00A0H         PUBLIC        P2
  D:00B0H         PUBLIC        P3
  D:00C0H         PUBLIC        P4
  D:00C8H         PUBLIC        P5
  X:0575H         SYMBOL        PressedKey
  B:00A8H.7       PUBLIC        EA
  D:00E8H         PUBLIC        P6
  X:0579H         PUBLIC        calib_stamp
  D:00F8H         PUBLIC        P7
  X:057AH         PUBLIC        sTempString
  X:0583H         PUBLIC        calib_bool
  X:05ADH         PUBLIC        pwm_time_min
  D:00A8H         PUBLIC        IE
  X:05B1H         PUBLIC        calib_time
  X:0605H         PUBLIC        pwm_time_max
  B:0090H.7       PUBLIC        Connect_Electronics_Load
  D:00B8H         PUBLIC        IP
  B:0098H.0       PUBLIC        RI
  B:00B0H.2       PUBLIC        INT0
  X:0609H         PUBLIC        months
  B:0098H.1       PUBLIC        TI
  C:000EH         PUBLIC        Uart
BL51 BANKED LINKER/LOCATER V6.22                                                      08/16/2019  15:59:24  PAGE 10


  D:00D8H         PUBLIC        CCON
  C:0026H         PUBLIC        main
  X:060AH         PUBLIC        found_1st_point
  X:060CH         PUBLIC        i_point1
  X:060EH         PUBLIC        i_point2
  X:0610H         PUBLIC        count
  B:0090H.2       PUBLIC        Connect_IV_Load
  D:0099H         PUBLIC        SBUF
  X:0612H         PUBLIC        days
  X:0613H         PUBLIC        hours
  D:0098H         PUBLIC        SCON
  D:0089H         PUBLIC        TMOD
  D:0088H         PUBLIC        TCON
  B:00A0H.3       PUBLIC        P23
  X:0614H         SYMBOL        KeyCount
  X:0616H         PUBLIC        mins
  B:00C8H.5       PUBLIC        P55
  X:0617H         PUBLIC        diff_of_offset
  D:008EH         PUBLIC        AUXR
  C:6FCDH         PUBLIC        tm0_isr
  B:0090H.5       PUBLIC        SI1120_STX
  C:71FDH         PUBLIC        tm1_isr
  B:0021H.2       PUBLIC        busy
  D:00E0H         PUBLIC        ACC
  B:00A8H.1       PUBLIC        ET0
  B:00A8H.3       PUBLIC        ET1
  X:061BH         PUBLIC        SPI_NOR_INTERNAL_FLASH_ADDR
  D:008CH         PUBLIC        TH0
  D:008DH         PUBLIC        TH1
  D:008AH         PUBLIC        TL0
  D:008BH         PUBLIC        TL1
  X:061FH         PUBLIC        ii
  X:0621H         PUBLIC        jj
  B:0088H.4       PUBLIC        TR0
  B:0088H.6       PUBLIC        TR1
  X:0623H         PUBLIC        old_mins
  C:616EH         PUBLIC        exint0
  X:0624H         SYMBOL        KeyNum
  X:0625H         SYMBOL        KeyNum_Old
  X:0626H         PUBLIC        timer0_count
  X:0628H         PUBLIC        current_position
  X:062CH         PUBLIC        pwm_time
  X:0630H         PUBLIC        i
  X:0632H         PUBLIC        j
  X:0634H         PUBLIC        start_timer0_count
  X:0635H         PUBLIC        seconds
  D:00D0H         PUBLIC        PSW
  C:7206H         PUBLIC        _SendUART1
  -------         PROC          TM0_ISR
  C:6FCDH         LINE#         106
  C:6FD3H         LINE#         110
  C:6FD6H         LINE#         111
  C:6FD9H         LINE#         112
  C:6FE7H         LINE#         113
  -------         ENDPROC       TM0_ISR
  -------         PROC          TM1_ISR
  C:71FDH         LINE#         114
BL51 BANKED LINKER/LOCATER V6.22                                                      08/16/2019  15:59:24  PAGE 11


  C:71FDH         LINE#         116
  C:71FFH         LINE#         118
  C:7202H         LINE#         119
  C:7205H         LINE#         120
  -------         ENDPROC       TM1_ISR
  -------         PROC          EXINT0
  C:616EH         LINE#         121
  C:618BH         LINE#         125
  C:618EH         LINE#         126
  C:618EH         LINE#         127
  C:6191H         LINE#         128
  C:6194H         LINE#         129
  C:6196H         LINE#         130
  C:6198H         LINE#         134
  C:619BH         LINE#         137
  C:619BH         LINE#         138
  C:619DH         LINE#         140
  C:61A9H         LINE#         141
  C:6203H         LINE#         142
  C:6241H         LINE#         143
  C:6248H         LINE#         148
  C:6248H         LINE#         150
  -------         ENDPROC       EXINT0
  -------         PROC          MAIN
  -------         DO            
  X:0519H         SYMBOL        KeyCount
  X:051BH         SYMBOL        KeyNum_Old
  X:051CH         SYMBOL        KeyNum
  X:051DH         SYMBOL        PressedKey
  X:03CAH         SYMBOL        prox_flag
  X:03CBH         SYMBOL        iUse_prevday_calib_value
  X:03CDH         SYMBOL        max_ADC_Val_JP
  X:03CFH         SYMBOL        max_ADC_Val
  X:03D1H         SYMBOL        calib_point1
  X:03D9H         SYMBOL        calib_point2
  X:03E1H         SYMBOL        dat_to_store
  X:03ECH         SYMBOL        calib_day
  X:03EEH         SYMBOL        calib_count
  X:03F0H         SYMBOL        theorical_JP_max_pos
  X:03F4H         SYMBOL        elevation
  -------         ENDDO         
  C:0026H         LINE#         152
  C:0026H         LINE#         153
  C:0026H         LINE#         158
  C:002CH         LINE#         159
  C:0031H         LINE#         161
  C:0039H         LINE#         165
  C:003FH         LINE#         166
  C:0049H         LINE#         177
  C:0051H         LINE#         178
  C:0058H         LINE#         179
  C:005EH         LINE#         181
  C:0064H         LINE#         193
  C:0067H         LINE#         194
  C:006AH         LINE#         195
  C:006DH         LINE#         197
  C:0070H         LINE#         200
BL51 BANKED LINKER/LOCATER V6.22                                                      08/16/2019  15:59:24  PAGE 12


  C:0073H         LINE#         201
  C:0076H         LINE#         203
  C:0079H         LINE#         205
  C:007CH         LINE#         206
  C:007FH         LINE#         207
  C:0082H         LINE#         208
  C:0084H         LINE#         209
  C:0086H         LINE#         210
  C:0089H         LINE#         211
  C:008BH         LINE#         212
  C:008DH         LINE#         214
  C:008FH         LINE#         215
  C:0096H         LINE#         216
  C:009DH         LINE#         217
  C:00A4H         LINE#         218
  C:00ABH         LINE#         222
  C:00B2H         LINE#         223
  C:00B7H         LINE#         224
  C:00BCH         LINE#         225
  C:00C1H         LINE#         226
  C:00C6H         LINE#         227
  C:00CBH         LINE#         230
  C:00D2H         LINE#         231
  C:00D2H         LINE#         232
  C:00F5H         LINE#         233
  C:013FH         LINE#         234
  C:0154H         LINE#         235
  C:0171H         LINE#         236
  C:0174H         LINE#         239
  C:017BH         LINE#         242
  C:017EH         LINE#         244
  C:0185H         LINE#         245
  C:018EH         LINE#         248
  C:018EH         LINE#         249
  C:018EH         LINE#         250
  C:0191H         LINE#         260
  C:0191H         LINE#         264
  C:0196H         LINE#         265
  C:019BH         LINE#         267
  C:01A0H         LINE#         269
  C:01A5H         LINE#         270
  C:01AAH         LINE#         273
  C:01BBH         LINE#         275
  C:01C0H         LINE#         276
  C:01C5H         LINE#         278
  C:01CCH         LINE#         279
  C:01D4H         LINE#         280
  C:01D9H         LINE#         281
  C:01E1H         LINE#         282
  C:01E6H         LINE#         283
  C:01F0H         LINE#         284
  C:01F5H         LINE#         285
  C:01FDH         LINE#         287
  C:0205H         LINE#         288
  C:020AH         LINE#         289
  C:0214H         LINE#         290
  C:0214H         LINE#         291
BL51 BANKED LINKER/LOCATER V6.22                                                      08/16/2019  15:59:24  PAGE 13


  C:0216H         LINE#         292
  C:0218H         LINE#         293
  C:0222H         LINE#         294
  C:0222H         LINE#         295
  C:0227H         LINE#         296
  C:0227H         LINE#         308
  C:023BH         LINE#         309
  C:023BH         LINE#         310
  C:0250H         LINE#         311
  C:025FH         LINE#         312
  C:025FH         LINE#         313
  C:0272H         LINE#         314
  C:0274H         LINE#         316
  C:0274H         LINE#         317
  C:0290H         LINE#         318
  C:0290H         LINE#         319
  C:0295H         LINE#         320
  C:0295H         LINE#         321
  C:02A9H         LINE#         322
  C:02A9H         LINE#         325
  C:02BEH         LINE#         326
  C:02CDH         LINE#         327
  C:02CDH         LINE#         328
  C:02E0H         LINE#         329
  C:02E2H         LINE#         331
  C:02E2H         LINE#         332
  C:02FEH         LINE#         333
  C:02FEH         LINE#         334
  C:0303H         LINE#         335
  C:0309H         LINE#         336
  C:0309H         LINE#         338
  C:032BH         LINE#         339
  C:032BH         LINE#         340
  C:0335H         LINE#         341
  C:033BH         LINE#         342
  C:0342H         LINE#         343
  C:0348H         LINE#         344
  C:034FH         LINE#         345
  C:034FH         LINE#         346
  C:0352H         LINE#         348
  C:0352H         LINE#         353
  C:035AH         LINE#         354
  C:0395H         LINE#         355
  C:03B3H         LINE#         356
  C:03B3H         LINE#         358
  C:03BCH         LINE#         359
  C:03C3H         LINE#         360
  C:03CCH         LINE#         361
  C:03D3H         LINE#         363
  C:03D3H         LINE#         367
  C:03E0H         LINE#         368
  C:03E0H         LINE#         371
  C:03E7H         LINE#         372
  C:03F8H         LINE#         375
  C:03F8H         LINE#         376
  C:0420H         LINE#         377
  C:0420H         LINE#         378
BL51 BANKED LINKER/LOCATER V6.22                                                      08/16/2019  15:59:24  PAGE 14


  C:0442H         LINE#         379
  C:0442H         LINE#         381
  C:0468H         LINE#         382
  C:04BEH         LINE#         383
  C:04C7H         LINE#         384
  C:04CEH         LINE#         385
  C:04D7H         LINE#         386
  C:04E0H         LINE#         387
  C:04E7H         LINE#         393
  C:04E7H         LINE#         399
  C:04E7H         LINE#         401
  C:0563H         LINE#         402
  C:057CH         LINE#         403
  C:057EH         LINE#         404
  C:0580H         LINE#         406
  C:060AH         LINE#         411
  C:0638H         LINE#         412
  C:0638H         LINE#         414
  C:066EH         LINE#         415
  C:0691H         LINE#         416
  C:06A6H         LINE#         417
  C:06B0H         LINE#         419
  C:06B3H         LINE#         421
  C:06B3H         LINE#         422
  C:06D9H         LINE#         423
  C:06D9H         LINE#         424
  C:06FEH         LINE#         425
  C:0764H         LINE#         426
  C:078AH         LINE#         427
  C:0832H         LINE#         430
  C:0832H         LINE#         432
  C:0839H         LINE#         433
  C:083CH         LINE#         436
  C:0871H         LINE#         437
  C:0878H         LINE#         438
  C:087BH         LINE#         440
  C:08B5H         LINE#         441
  C:08CBH         LINE#         443
  C:08E4H         LINE#         445
  C:08EBH         LINE#         446
  C:08F2H         LINE#         447
  C:08F5H         LINE#         450
  C:094AH         LINE#         452
  C:0951H         LINE#         454
  C:0958H         LINE#         455
  C:095BH         LINE#         458
  C:0A07H         LINE#         460
  C:0A0EH         LINE#         461
  C:0A0EH         LINE#         463
  C:0A10H         LINE#         465
  C:0A10H         LINE#         467
  C:0A10H         LINE#         468
  C:0A10H         LINE#         469
  C:0A10H         LINE#         486
  C:0A18H         LINE#         487
  C:0A20H         LINE#         488
  C:0A28H         LINE#         489
BL51 BANKED LINKER/LOCATER V6.22                                                      08/16/2019  15:59:24  PAGE 15


  C:0A30H         LINE#         491
  C:0A44H         LINE#         492
  C:0A5AH         LINE#         493
  C:0A8AH         LINE#         494
  C:0AAAH         LINE#         496
  C:0ABEH         LINE#         497
  C:0AD4H         LINE#         498
  C:0B04H         LINE#         499
  C:0B0BH         LINE#         501
  C:0B2FH         LINE#         504
  C:0B5AH         LINE#         506
  C:0B63H         LINE#         507
  C:0B6AH         LINE#         508
  C:0B73H         LINE#         509
  C:0B7CH         LINE#         510
  C:0B83H         LINE#         512
  C:0BC0H         LINE#         514
  C:0BC9H         LINE#         515
  C:0BD0H         LINE#         516
  C:0BD9H         LINE#         517
  C:0BE2H         LINE#         518
  C:0BE9H         LINE#         520
  C:0C14H         LINE#         522
  C:0C1DH         LINE#         523
  C:0C24H         LINE#         524
  C:0C2DH         LINE#         525
  C:0C36H         LINE#         526
  C:0C3DH         LINE#         528
  C:0C68H         LINE#         530
  C:0C71H         LINE#         531
  C:0C78H         LINE#         532
  C:0C81H         LINE#         533
  C:0C88H         LINE#         534
  C:0C91H         LINE#         535
  C:0C98H         LINE#         537
  C:0C9AH         LINE#         539
  C:0CA8H         LINE#         540
  C:0CA8H         LINE#         541
  C:0CB0H         LINE#         544
  C:0CB0H         LINE#         545
  C:0CB0H         LINE#         547
  C:0CD5H         LINE#         548
  C:0CD5H         LINE#         549
  C:0CF7H         LINE#         550
  C:0CF7H         LINE#         551
  C:0D73H         LINE#         552
  C:0D75H         LINE#         553
  C:0D77H         LINE#         555
  C:0DCFH         LINE#         558
  C:0DDEH         LINE#         559
  C:0DDEH         LINE#         560
  C:0DDEH         LINE#         561
  C:0DDEH         LINE#         562
  C:0DDEH         LINE#         563
  C:0DDEH         LINE#         564
  C:0DDEH         LINE#         565
  C:0DDEH         LINE#         568
BL51 BANKED LINKER/LOCATER V6.22                                                      08/16/2019  15:59:24  PAGE 16


  C:0DDEH         LINE#         570
  C:0DDEH         LINE#         571
  C:0DDEH         LINE#         572
  C:0DDEH         LINE#         573
  C:0DDEH         LINE#         577
  C:0DDEH         LINE#         579
  C:0DDEH         LINE#         581
  C:0DDEH         LINE#         582
  C:0DDEH         LINE#         583
  C:0DDEH         LINE#         584
  C:0DDEH         LINE#         585
  C:0DDEH         LINE#         586
  C:0DDEH         LINE#         589
  C:0DDEH         LINE#         591
  C:0DDEH         LINE#         592
  C:0DDEH         LINE#         593
  C:0DDEH         LINE#         594
  C:0DDEH         LINE#         595
  C:0DDEH         LINE#         596
  C:0DDEH         LINE#         597
  C:0DDEH         LINE#         599
  C:0DE1H         LINE#         602
  C:0E08H         LINE#         603
  C:0E08H         LINE#         606
  C:0E2AH         LINE#         607
  C:0E2AH         LINE#         608
  C:0EA6H         LINE#         610
  C:0ED3H         LINE#         613
  C:0EF4H         LINE#         614
  C:0F5BH         LINE#         615
  C:0F7EH         LINE#         616
  C:0FEBH         LINE#         617
  C:0FEDH         LINE#         618
  C:0FEFH         LINE#         620
  C:1028H         LINE#         621
  C:1028H         LINE#         623
  C:1053H         LINE#         624
  C:1093H         LINE#         625
  C:10BFH         LINE#         626
  C:113DH         LINE#         629
  C:11A5H         LINE#         630
  C:11A7H         LINE#         632
  C:11A7H         LINE#         633
  C:120AH         LINE#         634
  C:120AH         LINE#         637
  C:1219H         LINE#         638
  C:1219H         LINE#         639
  C:1297H         LINE#         640
  C:12A0H         LINE#         641
  C:12A7H         LINE#         642
  C:12B0H         LINE#         643
  C:12B9H         LINE#         644
  C:12C0H         LINE#         647
  C:12EBH         LINE#         649
  C:12F4H         LINE#         650
  C:12FBH         LINE#         651
  C:1304H         LINE#         652
BL51 BANKED LINKER/LOCATER V6.22                                                      08/16/2019  15:59:24  PAGE 17


  C:130DH         LINE#         656
  C:1314H         LINE#         658
  C:133FH         LINE#         660
  C:1348H         LINE#         661
  C:134FH         LINE#         662
  C:1358H         LINE#         663
  C:135FH         LINE#         665
  C:1368H         LINE#         666
  C:136FH         LINE#         669
  C:13ADH         LINE#         671
  C:13B6H         LINE#         672
  C:13BDH         LINE#         673
  C:13C6H         LINE#         674
  C:13CFH         LINE#         675
  C:13D6H         LINE#         676
  C:13D6H         LINE#         678
  C:13D6H         LINE#         680
  C:13D6H         LINE#         681
  C:13D6H         LINE#         683
  C:13D6H         LINE#         687
  C:13F2H         LINE#         688
  C:13F2H         LINE#         689
  C:13F4H         LINE#         692
  C:13F7H         LINE#         694
  C:1425H         LINE#         695
  C:1425H         LINE#         696
  C:1427H         LINE#         700
  C:142DH         LINE#         701
  C:142DH         LINE#         704
  C:143CH         LINE#         705
  C:143CH         LINE#         706
  C:146EH         LINE#         707
  C:146EH         LINE#         708
  C:14EDH         LINE#         710
  C:14F4H         LINE#         711
  C:14F7H         LINE#         713
  C:1531H         LINE#         714
  C:1547H         LINE#         716
  C:1560H         LINE#         718
  C:1567H         LINE#         719
  C:156EH         LINE#         720
  C:1571H         LINE#         722
  C:15C6H         LINE#         723
  C:15CDH         LINE#         725
  C:15D4H         LINE#         726
  C:15D7H         LINE#         728
  C:1683H         LINE#         729
  C:168AH         LINE#         730
  C:169BH         LINE#         733
  C:16AFH         LINE#         734
  C:16C3H         LINE#         735
  C:16D2H         LINE#         736
  C:16D2H         LINE#         738
  C:1705H         LINE#         739
  C:1705H         LINE#         740
  C:172BH         LINE#         742
  C:174DH         LINE#         743
BL51 BANKED LINKER/LOCATER V6.22                                                      08/16/2019  15:59:24  PAGE 18


  C:17AFH         LINE#         745
  C:1813H         LINE#         747
  C:1822H         LINE#         748
  C:1825H         LINE#         751
  C:1856H         LINE#         752
  C:1856H         LINE#         754
  C:187CH         LINE#         756
  C:189EH         LINE#         757
  C:1906H         LINE#         759
  C:1970H         LINE#         761
  C:1980H         LINE#         762
  C:1986H         LINE#         763
  C:199AH         LINE#         764
  C:19AEH         LINE#         765
  C:19B6H         LINE#         766
  C:19C3H         LINE#         767
  C:19C3H         LINE#         768
  C:19E7H         LINE#         769
  C:19E7H         LINE#         770
  C:1A31H         LINE#         771
  C:1A38H         LINE#         772
  C:1A3BH         LINE#         775
  C:1A5FH         LINE#         777
  C:1A66H         LINE#         778
  C:1A69H         LINE#         780
  C:1A9CH         LINE#         781
  C:1ABBH         LINE#         783
  C:1ADDH         LINE#         785
  C:1AE4H         LINE#         787
  C:1AEBH         LINE#         788
  C:1AEEH         LINE#         790
  C:1B43H         LINE#         791
  C:1B4AH         LINE#         793
  C:1B51H         LINE#         794
  C:1B54H         LINE#         796
  C:1C00H         LINE#         797
  C:1C07H         LINE#         798
  C:1C18H         LINE#         799
  C:1C18H         LINE#         800
  C:1C18H         LINE#         804
  C:1C3AH         LINE#         805
  C:1C47H         LINE#         806
  C:1C47H         LINE#         807
  C:1C6AH         LINE#         808
  C:1C6AH         LINE#         809
  C:1CBAH         LINE#         810
  C:1CBAH         LINE#         811
  C:1CC1H         LINE#         812
  C:1CC4H         LINE#         814
  C:1CFEH         LINE#         815
  C:1D14H         LINE#         817
  C:1D2DH         LINE#         819
  C:1D34H         LINE#         820
  C:1D3BH         LINE#         821
  C:1D3EH         LINE#         823
  C:1D93H         LINE#         824
  C:1D9AH         LINE#         826
BL51 BANKED LINKER/LOCATER V6.22                                                      08/16/2019  15:59:24  PAGE 19


  C:1DA1H         LINE#         827
  C:1DA4H         LINE#         829
  C:1E50H         LINE#         830
  C:1E57H         LINE#         831
  C:1E57H         LINE#         832
  C:1E68H         LINE#         833
  C:1E68H         LINE#         834
  C:1E68H         LINE#         836
  C:1E77H         LINE#         837
  C:1E77H         LINE#         838
  C:1E7AH         LINE#         839
  C:1E81H         LINE#         840
  C:1E86H         LINE#         841
  C:1E8BH         LINE#         842
  C:1E90H         LINE#         843
  C:1E95H         LINE#         844
  C:1E9AH         LINE#         854
  C:1E9DH         LINE#         856
  C:1EA0H         LINE#         857
  C:1EA7H         LINE#         858
  C:1EB1H         LINE#         859
  C:1EB8H         LINE#         861
  C:1EBBH         LINE#         870
  C:1EBBH         LINE#         871
  -------         ENDPROC       MAIN
  -------         PROC          UART
  C:000EH         LINE#         885
  C:000EH         LINE#         887
  C:0011H         LINE#         888
  C:0011H         LINE#         889
  C:0013H         LINE#         891
  C:0013H         LINE#         892
  C:0016H         LINE#         893
  C:0016H         LINE#         894
  C:0018H         LINE#         895
  C:001AH         LINE#         896
  C:001AH         LINE#         897
  -------         ENDPROC       UART
  -------         PROC          _SENDUART1
  D:0007H         SYMBOL        dat
  C:7206H         LINE#         899
  C:7206H         LINE#         900
  C:7206H         LINE#         901
  C:7209H         LINE#         902
  C:720BH         LINE#         903
  C:720CH         LINE#         904
  C:720EH         LINE#         905
  -------         ENDPROC       _SENDUART1
  -------         ENDMOD        MAIN

  -------         MODULE        PCF85063BTL
  C:0000H         SYMBOL        _ICE_DUMMY_
  D:0096H         PUBLIC        P2M0
  D:0080H         PUBLIC        P0
  D:0095H         PUBLIC        P2M1
  D:0090H         PUBLIC        P1
  D:00A0H         PUBLIC        P2
BL51 BANKED LINKER/LOCATER V6.22                                                      08/16/2019  15:59:24  PAGE 20


  D:00B0H         PUBLIC        P3
  D:00C0H         PUBLIC        P4
  D:00C8H         PUBLIC        P5
  D:00E8H         PUBLIC        P6
  B:00A0H.1       PUBLIC        PCF85063BTL_SDI
  D:00F8H         PUBLIC        P7
  B:00A0H.2       PUBLIC        PCF85063BTL_SCK
  B:00A0H.1       PUBLIC        PCF85063BTL_SDO
  D:00A8H         PUBLIC        IE
  C:6A88H         PUBLIC        _Read_time
  C:7128H         PUBLIC        _PCF85063BTL_Delay
  D:00B8H         PUBLIC        IP
  D:00D8H         PUBLIC        CCON
  C:6915H         PUBLIC        _Day_Of_Year
  C:700EH         PUBLIC        SPI_ReceiveByte
  D:0098H         PUBLIC        SCON
  D:0088H         PUBLIC        TCON
  C:715BH         PUBLIC        _BCDtoDec
  B:00A0H.0       PUBLIC        PCF85063BTL_CS
  C:714AH         PUBLIC        _SPI_ReadTime
  C:71AAH         PUBLIC        SPI_Init
  C:709EH         PUBLIC        _SPI_WriteTime
  C:6FEEH         PUBLIC        _SPI_SendByte
  D:00D0H         PUBLIC        PSW
  C:7124H         SYMBOL        L?0048
  -------         PROC          L?0047
  -------         ENDPROC       L?0047
  C:7124H         SYMBOL        L?0048
  -------         PROC          _PCF85063BTL_DELAY
  D:0006H         SYMBOL        us
  C:7128H         LINE#         8
  C:7128H         LINE#         9
  C:7128H         LINE#         10
  C:7132H         LINE#         11
  C:7132H         LINE#         12
  C:7133H         LINE#         13
  C:7135H         LINE#         14
  -------         ENDPROC       _PCF85063BTL_DELAY
  -------         PROC          _SPI_SENDBYTE
  D:0005H         SYMBOL        dat
  -------         DO            
  D:0003H         SYMBOL        i
  -------         ENDDO         
  C:6FEEH         LINE#         17
  C:6FF0H         LINE#         18
  C:6FF0H         LINE#         20
  C:6FF2H         LINE#         21
  C:6FF2H         LINE#         22
  C:6FF4H         LINE#         23
  C:6FF8H         LINE#         24
  C:6FF8H         LINE#         25
  C:6FFAH         LINE#         26
  C:6FFCH         LINE#         28
  C:6FFCH         LINE#         29
  C:6FFEH         LINE#         30
  C:6FFEH         LINE#         31
  C:7001H         LINE#         32
BL51 BANKED LINKER/LOCATER V6.22                                                      08/16/2019  15:59:24  PAGE 21


  C:7001H         LINE#         33
  C:7004H         LINE#         34
  C:7008H         LINE#         35
  C:700DH         LINE#         36
  -------         ENDPROC       _SPI_SENDBYTE
  -------         PROC          SPI_RECEIVEBYTE
  -------         DO            
  D:0003H         SYMBOL        i
  D:0005H         SYMBOL        dat
  -------         ENDDO         
  C:700EH         LINE#         39
  C:700EH         LINE#         40
  C:700EH         LINE#         42
  C:7010H         LINE#         44
  C:7012H         LINE#         45
  C:7013H         LINE#         46
  C:7013H         LINE#         47
  C:7017H         LINE#         48
  C:7019H         LINE#         49
  C:701CH         LINE#         51
  C:701FH         LINE#         52
  C:701FH         LINE#         53
  C:7023H         LINE#         54
  C:7023H         LINE#         55
  C:7023H         LINE#         56
  C:7026H         LINE#         57
  C:702BH         LINE#         58
  C:702DH         LINE#         59
  -------         ENDPROC       SPI_RECEIVEBYTE
  -------         PROC          _SPI_READTIME
  D:0007H         SYMBOL        addr
  -------         DO            
  D:0006H         SYMBOL        dat
  -------         ENDDO         
  C:714AH         LINE#         61
  C:714AH         LINE#         62
  C:714AH         LINE#         64
  C:714CH         LINE#         65
  C:714EH         LINE#         66
  C:7155H         LINE#         67
  C:7158H         LINE#         68
  C:715AH         LINE#         69
  C:715AH         LINE#         70
  -------         ENDPROC       _SPI_READTIME
  -------         PROC          _SPI_WRITETIME
  D:0002H         SYMBOL        val
  D:0005H         SYMBOL        addr
  C:709EH         LINE#         71
  C:70A0H         LINE#         72
  C:70A0H         LINE#         74
  C:70A2H         LINE#         75
  C:70A9H         LINE#         76
  C:70AEH         LINE#         77
  C:70B3H         LINE#         78
  C:70B5H         LINE#         79
  -------         ENDPROC       _SPI_WRITETIME
  -------         PROC          SPI_INIT
BL51 BANKED LINKER/LOCATER V6.22                                                      08/16/2019  15:59:24  PAGE 22


  C:71AAH         LINE#         83
  C:71AAH         LINE#         84
  C:71AAH         LINE#         89
  C:71ADH         LINE#         90
  C:71B0H         LINE#         91
  C:71B2H         LINE#         92
  C:71B4H         LINE#         93
  C:71B6H         LINE#         94
  -------         ENDPROC       SPI_INIT
  -------         PROC          _READ_TIME
  X:04E9H         SYMBOL        months
  X:04ECH         SYMBOL        days
  X:04EFH         SYMBOL        hours
  X:04F2H         SYMBOL        mins
  X:04F5H         SYMBOL        seconds
  C:6A88H         LINE#         96
  C:6A93H         LINE#         97
  C:6A93H         LINE#         99
  C:6AA7H         LINE#         101
  C:6ABBH         LINE#         103
  C:6ACFH         LINE#         108
  C:6AE3H         LINE#         113
  -------         ENDPROC       _READ_TIME
  -------         PROC          _BCDTODEC
  D:0007H         SYMBOL        bcd
  -------         DO            
  D:0006H         SYMBOL        hi
  D:0007H         SYMBOL        lo
  -------         ENDDO         
  C:715BH         LINE#         119
  C:715BH         LINE#         120
  C:715BH         LINE#         122
  C:7160H         LINE#         123
  C:7164H         LINE#         124
  C:716BH         LINE#         125
  -------         ENDPROC       _BCDTODEC
  -------         PROC          _DAY_OF_YEAR
  D:0007H         SYMBOL        months_bcd
  D:0005H         SYMBOL        days_bcd
  -------         DO            
  D:0004H         SYMBOL        months
  D:0007H         SYMBOL        days
  -------         ENDDO         
  C:6915H         LINE#         126
  C:6915H         LINE#         127
  C:6915H         LINE#         130
  C:691AH         LINE#         132
  C:691FH         LINE#         134
  C:6958H         LINE#         135
  C:6958H         LINE#         136
  C:6958H         LINE#         137
  C:695BH         LINE#         138
  C:695BH         LINE#         139
  C:695BH         LINE#         140
  C:6960H         LINE#         141
  C:6960H         LINE#         142
  C:6960H         LINE#         143
BL51 BANKED LINKER/LOCATER V6.22                                                      08/16/2019  15:59:24  PAGE 23


  C:6965H         LINE#         144
  C:6965H         LINE#         145
  C:6965H         LINE#         146
  C:696AH         LINE#         147
  C:696AH         LINE#         148
  C:696AH         LINE#         149
  C:696FH         LINE#         150
  C:696FH         LINE#         151
  C:696FH         LINE#         152
  C:6974H         LINE#         153
  C:6974H         LINE#         154
  C:6974H         LINE#         155
  C:6979H         LINE#         156
  C:6979H         LINE#         157
  C:6979H         LINE#         158
  C:697EH         LINE#         159
  C:697EH         LINE#         160
  C:697EH         LINE#         161
  C:6986H         LINE#         162
  C:6986H         LINE#         163
  C:6986H         LINE#         164
  C:698BH         LINE#         165
  C:698BH         LINE#         166
  C:698BH         LINE#         167
  C:6990H         LINE#         168
  C:6990H         LINE#         169
  C:6990H         LINE#         170
  C:6999H         LINE#         171
  C:6999H         LINE#         172
  C:6999H         LINE#         173
  C:699CH         LINE#         174
  C:699CH         LINE#         175
  -------         ENDPROC       _DAY_OF_YEAR
  -------         ENDMOD        PCF85063BTL

  -------         MODULE        LCD_DRIVER_SPLC780D
  C:0000H         SYMBOL        _ICE_DUMMY_
  D:0092H         PUBLIC        P1M0
  D:0091H         PUBLIC        P1M1
  D:0080H         PUBLIC        P0
  D:0090H         PUBLIC        P1
  D:00A0H         PUBLIC        P2
  D:00B0H         PUBLIC        P3
  D:00C0H         PUBLIC        P4
  D:00C8H         PUBLIC        P5
  D:00E8H         PUBLIC        P6
  D:00F8H         PUBLIC        P7
  C:69A1H         PUBLIC        _WriteData
  D:00A8H         PUBLIC        IE
  D:00B8H         PUBLIC        IP
  D:00D8H         PUBLIC        CCON
  B:00B0H.4       PUBLIC        LCD_D4
  B:00B0H.5       PUBLIC        LCD_D5
  B:00B0H.6       PUBLIC        LCD_D6
  C:704CH         PUBLIC        _DisplayLCD
  B:00B0H.7       PUBLIC        LCD_D7
  D:0098H         PUBLIC        SCON
BL51 BANKED LINKER/LOCATER V6.22                                                      08/16/2019  15:59:24  PAGE 24


  D:0088H         PUBLIC        TCON
  C:71F3H         PUBLIC        LCD_clear
  C:6D23H         PUBLIC        _Command
  C:70E3H         PUBLIC        _Display_Line
  C:6B51H         PUBLIC        LCD_Init
  C:6F8BH         PUBLIC        _Wait_ms
  B:00C0H.0       PUBLIC        LCD_RS
  B:0090H.3       PUBLIC        LCD_RW
  C:71E9H         PUBLIC        LCD_return_home
  C:5BBCH         PUBLIC        _Display_Pos
  B:00B0H.3       PUBLIC        LCD_E
  D:00D0H         PUBLIC        PSW
  -------         PROC          LCD_INIT
  C:6B51H         LINE#         9
  C:6B51H         LINE#         10
  C:6B51H         LINE#         11
  C:6B54H         LINE#         12
  C:6B57H         LINE#         14
  C:6B5DH         LINE#         15
  C:6B62H         LINE#         17
  C:6B69H         LINE#         18
  C:6B6EH         LINE#         20
  C:6B71H         LINE#         21
  C:6B76H         LINE#         23
  C:6B79H         LINE#         24
  C:6B7EH         LINE#         26
  C:6B85H         LINE#         29
  C:6B8AH         LINE#         30
  C:6B8FH         LINE#         32
  C:6B94H         LINE#         33
  C:6B99H         LINE#         35
  C:6B9EH         LINE#         36
  C:6BA3H         LINE#         37
  -------         ENDPROC       LCD_INIT
  C:699DH         SYMBOL        L?0035
  -------         PROC          L?0034
  -------         ENDPROC       L?0034
  C:699DH         SYMBOL        L?0035
  -------         PROC          _WRITEDATA
  X:04F4H         SYMBOL        dat
  C:69A1H         LINE#         40
  C:69A6H         LINE#         41
  C:69A6H         LINE#         46
  C:69A8H         LINE#         47
  C:69AAH         LINE#         49
  C:69B8H         LINE#         50
  C:69C4H         LINE#         51
  C:69D0H         LINE#         52
  C:69DAH         LINE#         53
  C:69DCH         LINE#         54
  C:69E3H         LINE#         55
  C:69E5H         LINE#         57
  C:69F5H         LINE#         58
  C:6A00H         LINE#         59
  C:6A0AH         LINE#         60
  C:6A0EH         LINE#         62
  C:6A0EH         LINE#         63
BL51 BANKED LINKER/LOCATER V6.22                                                      08/16/2019  15:59:24  PAGE 25


  C:6A11H         LINE#         64
  C:6A13H         LINE#         65
  C:6A15H         LINE#         67
  -------         ENDPROC       _WRITEDATA
  -------         PROC          _COMMAND
  D:0007H         SYMBOL        dat
  C:6D23H         LINE#         69
  C:6D23H         LINE#         70
  C:6D23H         LINE#         71
  C:6D25H         LINE#         72
  C:6D27H         LINE#         74
  C:6D31H         LINE#         75
  C:6D35H         LINE#         77
  C:6D37H         LINE#         78
  C:6D40H         LINE#         79
  C:6D44H         LINE#         81
  C:6D46H         LINE#         82
  C:6D4DH         LINE#         83
  C:6D51H         LINE#         85
  C:6D53H         LINE#         86
  C:6D57H         LINE#         87
  C:6D5BH         LINE#         89
  C:6D5DH         LINE#         90
  C:6D5DH         LINE#         91
  C:6D60H         LINE#         92
  C:6D62H         LINE#         93
  -------         ENDPROC       _COMMAND
  C:6F87H         SYMBOL        L?0037
  -------         PROC          L?0036
  -------         ENDPROC       L?0036
  C:6F87H         SYMBOL        L?0037
  -------         PROC          _WAIT_MS
  D:0006H         SYMBOL        ms
  -------         DO            
  D:0004H         SYMBOL        De_Cnt
  -------         ENDDO         
  C:6F8BH         LINE#         95
  C:6F8BH         LINE#         96
  C:6F8BH         LINE#         98
  C:6F95H         LINE#         99
  C:6F95H         LINE#         100
  C:6FA8H         LINE#         101
  C:6FA8H         LINE#         102
  -------         ENDPROC       _WAIT_MS
  -------         PROC          _DISPLAYLCD
  D:0007H         SYMBOL        BCD
  -------         DO            
  D:0006H         SYMBOL        first_digit
  X:03F8H         SYMBOL        second_digit
  -------         ENDDO         
  C:704CH         LINE#         103
  C:704CH         LINE#         104
  C:704CH         LINE#         106
  C:7053H         LINE#         107
  C:705CH         LINE#         109
  C:7061H         LINE#         111
  -------         ENDPROC       _DISPLAYLCD
BL51 BANKED LINKER/LOCATER V6.22                                                      08/16/2019  15:59:24  PAGE 26


  -------         PROC          LCD_RETURN_HOME
  C:71E9H         LINE#         115
  C:71E9H         LINE#         116
  C:71E9H         LINE#         117
  C:71EEH         LINE#         118
  -------         ENDPROC       LCD_RETURN_HOME
  -------         PROC          LCD_CLEAR
  C:71F3H         LINE#         121
  C:71F3H         LINE#         122
  C:71F3H         LINE#         123
  C:71F8H         LINE#         124
  -------         ENDPROC       LCD_CLEAR
  -------         PROC          _DISPLAY_LINE
  D:0006H         SYMBOL        line
  C:70E3H         LINE#         128
  C:70E3H         LINE#         129
  C:70E3H         LINE#         130
  C:70E9H         LINE#         131
  C:70E9H         LINE#         132
  C:70EBH         LINE#         133
  C:70EBH         LINE#         134
  C:70EDH         LINE#         136
  C:70EDH         LINE#         137
  C:70F2H         LINE#         138
  C:70F7H         LINE#         139
  C:70F7H         LINE#         140
  -------         ENDPROC       _DISPLAY_LINE
  -------         PROC          _DISPLAY_POS
  X:04E9H         SYMBOL        sign_dat
  -------         DO            
  X:04EDH         SYMBOL        unit
  X:04EEH         SYMBOL        ten
  X:04EFH         SYMBOL        hundred
  X:04F0H         SYMBOL        thousand
  X:04F1H         SYMBOL        after_dot
  X:04F2H         SYMBOL        dat
  -------         ENDDO         
  C:5BBCH         LINE#         142
  C:5BC2H         LINE#         143
  C:5BC2H         LINE#         147
  C:5BDEH         LINE#         148
  C:5BF8H         LINE#         149
  C:5C1CH         LINE#         151
  C:5C66H         LINE#         153
  C:5C7DH         LINE#         154
  C:5C8FH         LINE#         155
  C:5CB4H         LINE#         156
  C:5CCEH         LINE#         157
  C:5CE6H         LINE#         158
  C:5CE6H         LINE#         159
  C:5CE6H         LINE#         160
  C:5CE6H         LINE#         161
  C:5CE6H         LINE#         162
  C:5CE6H         LINE#         163
  C:5CE6H         LINE#         164
  C:5CE6H         LINE#         168
  C:5CE8H         LINE#         170
BL51 BANKED LINKER/LOCATER V6.22                                                      08/16/2019  15:59:24  PAGE 27


  C:5CE8H         LINE#         172
  C:5CEDH         LINE#         173
  C:5CF3H         LINE#         174
  C:5CF9H         LINE#         175
  C:5CFFH         LINE#         176
  C:5D05H         LINE#         177
  C:5D0AH         LINE#         178
  C:5D10H         LINE#         182
  C:5D10H         LINE#         184
  -------         ENDPROC       _DISPLAY_POS
  -------         ENDMOD        LCD_DRIVER_SPLC780D

  -------         MODULE        KEYPAD
  C:0000H         SYMBOL        _ICE_DUMMY_
  D:0093H         PUBLIC        P0M1
  D:0080H         PUBLIC        P0
  D:0090H         PUBLIC        P1
  D:00A0H         PUBLIC        P2
  D:00B0H         PUBLIC        P3
  D:00C0H         PUBLIC        P4
  D:00C8H         PUBLIC        P5
  D:00E8H         PUBLIC        P6
  D:00F8H         PUBLIC        P7
  D:00A8H         PUBLIC        IE
  C:55B8H         PUBLIC        Key_Scan
  D:00B8H         PUBLIC        IP
  D:00D8H         PUBLIC        CCON
  C:71D1H         PUBLIC        KeyPad_IO_Init
  C:702EH         PUBLIC        _Delay_ms
  D:0098H         PUBLIC        SCON
  D:0088H         PUBLIC        TCON
  X:0645H         PUBLIC        small_move
  X:0647H         PUBLIC        move
  X:0649H         PUBLIC        auto_mode
  X:064BH         PUBLIC        direction
  X:064DH         PUBLIC        SPI_NOR_ClearEnable
  C:4CE5H         PUBLIC        Key_Process
  D:00D0H         PUBLIC        PSW
  D:0094H         PUBLIC        P0M0
  -------         PROC          _DELAY_MS
  D:0006H         SYMBOL        ms
  -------         DO            
  D:0004H         SYMBOL        De_Cnt
  -------         ENDDO         
  C:702EH         LINE#         20
  C:702EH         LINE#         21
  C:702EH         LINE#         23
  C:7038H         LINE#         24
  C:7038H         LINE#         25
  C:704BH         LINE#         26
  C:704BH         LINE#         27
  -------         ENDPROC       _DELAY_MS
  -------         PROC          KEY_SCAN
  -------         DO            
  X:03FEH         SYMBOL        KeyTemp1
  X:03FFH         SYMBOL        KeyTemp2
  X:0400H         SYMBOL        KeyValue
BL51 BANKED LINKER/LOCATER V6.22                                                      08/16/2019  15:59:24  PAGE 28


  -------         ENDDO         
  C:55B8H         LINE#         28
  C:55B8H         LINE#         29
  C:55B8H         LINE#         34
  C:55BBH         LINE#         37
  C:55BEH         LINE#         39
  C:55C6H         LINE#         40
  C:55CDH         LINE#         41
  C:55CDH         LINE#         43
  C:55D2H         LINE#         44
  C:55D9H         LINE#         45
  C:55D9H         LINE#         48
  C:55DCH         LINE#         49
  C:55DFH         LINE#         50
  C:55E4H         LINE#         51
  C:55E8H         LINE#         52
  C:55E8H         LINE#         53
  C:55F0H         LINE#         54
  C:55F0H         LINE#         55
  C:55F3H         LINE#         56
  C:55FBH         LINE#         57
  C:55FDH         LINE#         59
  C:5611H         LINE#         60
  C:5611H         LINE#         61
  C:5611H         LINE#         62
  C:5611H         LINE#         63
  C:5617H         LINE#         65
  C:5619H         LINE#         66
  C:5619H         LINE#         67
  C:5619H         LINE#         68
  C:561FH         LINE#         70
  C:5621H         LINE#         71
  C:5621H         LINE#         72
  C:5621H         LINE#         73
  C:5627H         LINE#         75
  C:5629H         LINE#         76
  C:5629H         LINE#         77
  C:5629H         LINE#         78
  C:562FH         LINE#         80
  C:562FH         LINE#         81
  C:562FH         LINE#         82
  C:562FH         LINE#         85
  C:5632H         LINE#         86
  C:5635H         LINE#         87
  C:563DH         LINE#         88
  C:5641H         LINE#         89
  C:5641H         LINE#         90
  C:5649H         LINE#         91
  C:5649H         LINE#         92
  C:564CH         LINE#         93
  C:5654H         LINE#         94
  C:5656H         LINE#         95
  C:566AH         LINE#         96
  C:566AH         LINE#         97
  C:566AH         LINE#         98
  C:566AH         LINE#         99
  C:5670H         LINE#         101
BL51 BANKED LINKER/LOCATER V6.22                                                      08/16/2019  15:59:24  PAGE 29


  C:5672H         LINE#         102
  C:5672H         LINE#         103
  C:5672H         LINE#         104
  C:5678H         LINE#         106
  C:567AH         LINE#         107
  C:567AH         LINE#         108
  C:567AH         LINE#         109
  C:5680H         LINE#         111
  C:5682H         LINE#         112
  C:5682H         LINE#         113
  C:5682H         LINE#         114
  C:5687H         LINE#         116
  C:5687H         LINE#         117
  C:5687H         LINE#         118
  C:5687H         LINE#         121
  C:568AH         LINE#         122
  C:568DH         LINE#         123
  C:5695H         LINE#         124
  C:5699H         LINE#         125
  C:5699H         LINE#         126
  C:56A1H         LINE#         127
  C:56A1H         LINE#         128
  C:56A4H         LINE#         129
  C:56ACH         LINE#         130
  C:56AEH         LINE#         131
  C:56C2H         LINE#         132
  C:56C2H         LINE#         133
  C:56C2H         LINE#         134
  C:56C2H         LINE#         135
  C:56C8H         LINE#         137
  C:56CAH         LINE#         138
  C:56CAH         LINE#         139
  C:56CAH         LINE#         140
  C:56D0H         LINE#         142
  C:56D2H         LINE#         143
  C:56D2H         LINE#         144
  C:56D2H         LINE#         145
  C:56D8H         LINE#         147
  C:56DAH         LINE#         148
  C:56DAH         LINE#         149
  C:56DAH         LINE#         150
  C:56E0H         LINE#         152
  C:56E0H         LINE#         153
  C:56E0H         LINE#         154
  C:56E0H         LINE#         158
  C:56E3H         LINE#         159
  C:56E6H         LINE#         160
  C:56EEH         LINE#         161
  C:56F2H         LINE#         162
  C:56F2H         LINE#         163
  C:56FAH         LINE#         164
  C:56FAH         LINE#         165
  C:56FDH         LINE#         166
  C:5705H         LINE#         167
  C:5707H         LINE#         168
  C:571BH         LINE#         169
  C:571BH         LINE#         170
BL51 BANKED LINKER/LOCATER V6.22                                                      08/16/2019  15:59:24  PAGE 30


  C:571BH         LINE#         171
  C:571BH         LINE#         172
  C:5721H         LINE#         174
  C:5723H         LINE#         175
  C:5723H         LINE#         176
  C:5723H         LINE#         177
  C:5729H         LINE#         179
  C:572BH         LINE#         180
  C:572BH         LINE#         181
  C:572BH         LINE#         182
  C:5731H         LINE#         184
  C:5733H         LINE#         185
  C:5733H         LINE#         186
  C:5733H         LINE#         187
  C:5739H         LINE#         189
  C:5739H         LINE#         190
  C:5739H         LINE#         191
  C:5739H         LINE#         193
  C:573FH         LINE#         194
  C:573FH         LINE#         196
  C:573FH         LINE#         197
  C:5742H         LINE#         198
  C:5742H         LINE#         199
  C:5742H         LINE#         201
  C:5742H         LINE#         202
  C:5744H         LINE#         203
  C:5744H         LINE#         204
  -------         ENDPROC       KEY_SCAN
  -------         PROC          KEY_PROCESS
  -------         DO            
  X:0636H         SYMBOL        KeyCount
  X:0637H         SYMBOL        KeyNum_Old
  X:0639H         SYMBOL        KeyNum
  X:063BH         SYMBOL        PressedKey
  X:03F8H         SYMBOL        d
  D:0002H         SYMBOL        hours
  D:0006H         SYMBOL        mins
  X:03FAH         SYMBOL        months
  X:03FCH         SYMBOL        days
  -------         ENDDO         
  C:4CE5H         LINE#         205
  C:4CE5H         LINE#         206
  C:4CE5H         LINE#         210
  C:4CF4H         LINE#         211
  C:4D01H         LINE#         213
  C:4D05H         LINE#         214
  C:4D05H         LINE#         215
  C:4D0BH         LINE#         217
  C:4D0BH         LINE#         218
  C:4D22H         LINE#         219
  C:4D22H         LINE#         220
  C:4D2CH         LINE#         221
  C:4D32H         LINE#         223
  C:4D38H         LINE#         225
  C:4D38H         LINE#         226
  C:4D4FH         LINE#         227
  C:4D4FH         LINE#         228
BL51 BANKED LINKER/LOCATER V6.22                                                      08/16/2019  15:59:24  PAGE 31


  C:4D54H         LINE#         230
  C:4D54H         LINE#         231
  C:4D64H         LINE#         232
  C:4D64H         LINE#         233
  C:4D6AH         LINE#         235
  C:4D6AH         LINE#         236
  C:4D7CH         LINE#         237
  C:4D7CH         LINE#         238
  C:4D86H         LINE#         239
  C:4D8EH         LINE#         241
  C:4D97H         LINE#         243
  C:4D97H         LINE#         252
  C:4DB6H         LINE#         253
  C:4DB6H         LINE#         254
  C:4DD5H         LINE#         255
  C:4DDBH         LINE#         256
  C:4DE3H         LINE#         257
  C:4DE3H         LINE#         259
  C:4DE4H         LINE#         265
  C:4DF0H         LINE#         266
  C:4DF0H         LINE#         267
  C:4E0DH         LINE#         268
  C:4E24H         LINE#         269
  C:4E3BH         LINE#         270
  C:4E3BH         LINE#         271
  C:4E4EH         LINE#         272
  C:4E61H         LINE#         273
  C:4E61H         LINE#         274
  C:4E61H         LINE#         275
  C:4E64H         LINE#         280
  C:4E73H         LINE#         281
  C:4E73H         LINE#         282
  C:4E96H         LINE#         283
  C:4EB3H         LINE#         284
  C:4EBCH         LINE#         285
  C:4EBCH         LINE#         286
  C:4EC3H         LINE#         287
  C:4EC3H         LINE#         288
  C:4ED4H         LINE#         289
  C:4ED4H         LINE#         290
  C:4EE3H         LINE#         291
  C:4EE3H         LINE#         292
  C:4EE3H         LINE#         293
  C:4EE6H         LINE#         295
  C:4EE6H         LINE#         296
  C:4EF2H         LINE#         297
  C:4EF2H         LINE#         298
  C:4F04H         LINE#         299
  C:4F04H         LINE#         300
  C:4F14H         LINE#         301
  C:4F14H         LINE#         302
  C:4F14H         LINE#         304
  C:4F16H         LINE#         306
  C:4F16H         LINE#         307
  C:4F25H         LINE#         308
  C:4F25H         LINE#         309
  C:4F35H         LINE#         310
BL51 BANKED LINKER/LOCATER V6.22                                                      08/16/2019  15:59:24  PAGE 32


  C:4F35H         LINE#         311
  C:4F35H         LINE#         313
  C:4F35H         LINE#         315
  C:4F35H         LINE#         316
  C:4F37H         LINE#         318
  C:4F37H         LINE#         319
  C:4F3EH         LINE#         320
  C:4F3EH         LINE#         321
  C:4F4DH         LINE#         322
  C:4F4DH         LINE#         323
  C:4F5DH         LINE#         324
  C:4F5DH         LINE#         325
  C:4F5DH         LINE#         326
  C:4F5FH         LINE#         328
  C:4F5FH         LINE#         329
  C:4F6EH         LINE#         330
  C:4F6EH         LINE#         331
  C:4F81H         LINE#         332
  C:4F94H         LINE#         333
  C:4F94H         LINE#         334
  C:4F94H         LINE#         335
  C:4F94H         LINE#         336
  C:4F9DH         LINE#         338
  C:4F9DH         LINE#         340
  C:4FD7H         LINE#         341
  C:4FD7H         LINE#         342
  C:4FDEH         LINE#         343
  C:4FDEH         LINE#         344
  C:4FE8H         LINE#         345
  C:4FE8H         LINE#         346
  C:4FEBH         LINE#         347
  C:4FF0H         LINE#         348
  C:4FF5H         LINE#         349
  C:4FFAH         LINE#         350
  C:4FFFH         LINE#         351
  C:5004H         LINE#         352
  C:5009H         LINE#         353
  C:500EH         LINE#         354
  C:500EH         LINE#         355
  C:500EH         LINE#         357
  C:502CH         LINE#         358
  C:502CH         LINE#         359
  C:5033H         LINE#         360
  C:5033H         LINE#         361
  C:5038H         LINE#         362
  C:5041H         LINE#         363
  C:5060H         LINE#         364
  C:5060H         LINE#         365
  C:5070H         LINE#         367
  C:5070H         LINE#         371
  -------         ENDPROC       KEY_PROCESS
  -------         PROC          KEYPAD_IO_INIT
  C:71D1H         LINE#         374
  C:71D1H         LINE#         375
  C:71D1H         LINE#         376
  C:71D4H         LINE#         377
  C:71D7H         LINE#         378
BL51 BANKED LINKER/LOCATER V6.22                                                      08/16/2019  15:59:24  PAGE 33


  C:71DAH         LINE#         379
  C:71DCH         LINE#         380
  -------         ENDPROC       KEYPAD_IO_INIT
  -------         ENDMOD        KEYPAD

  -------         MODULE        BIPOLARMOTOR
  C:0000H         SYMBOL        _ICE_DUMMY_
  X:0000H         PUBLIC        UTC_time
  D:0080H         PUBLIC        P0
  D:0090H         PUBLIC        P1
  X:0004H         PUBLIC        RX_pos_test
  D:00A0H         PUBLIC        P2
  D:00B0H         PUBLIC        P3
  D:00C0H         PUBLIC        P4
  D:00C8H         PUBLIC        P5
  D:00E8H         PUBLIC        P6
  D:00F8H         PUBLIC        P7
  X:00A4H         PUBLIC        low_date_azimuth_mapping
  D:00A8H         PUBLIC        IE
  C:6361H         PUBLIC        linear_interpolate
  X:00CCH         PUBLIC        declination
  C:6EC2H         PUBLIC        _Move
  D:00B8H         PUBLIC        IP
  X:00D0H         PUBLIC        time_offset
  D:00D8H         PUBLIC        CCON
  X:00D4H         PUBLIC        previous_move_time
  X:00D5H         PUBLIC        time
  D:0098H         PUBLIC        SCON
  D:0088H         PUBLIC        TCON
  C:6D63H         PUBLIC        _Step_move
  X:00E7H         PUBLIC        dat
  X:00EDH         PUBLIC        current_local_sun_time
  C:391CH         PUBLIC        _Update_position
  C:5071H         PUBLIC        _elevation_calculation
  X:00F1H         PUBLIC        sunCoord
  C:6C4BH         PUBLIC        vOneStepMove
  X:00F4H         PUBLIC        elevation_stamp
  X:0130H         PUBLIC        date_azimuth_mapping
  X:0158H         PUBLIC        location
  X:0160H         PUBLIC        RX_pos
  C:70F8H         PUBLIC        vSetLocation
  C:7073H         PUBLIC        _BCDtoDec1
  X:03B8H         PUBLIC        degree
  C:3F4DH         PUBLIC        _TheoricalJP_Position
  D:00D0H         PUBLIC        PSW
  -------         PROC          VSETLOCATION
  C:70F8H         LINE#         44
  C:70F8H         LINE#         45
  C:70F8H         LINE#         46
  C:7102H         LINE#         47
  C:710CH         LINE#         48
  -------         ENDPROC       VSETLOCATION
  C:706FH         SYMBOL        L?0060
  -------         PROC          L?0059
  -------         ENDPROC       L?0059
  C:706FH         SYMBOL        L?0060
  -------         PROC          _BCDTODEC1
BL51 BANKED LINKER/LOCATER V6.22                                                      08/16/2019  15:59:24  PAGE 34


  D:0007H         SYMBOL        bcd
  -------         DO            
  D:0006H         SYMBOL        hi
  D:0007H         SYMBOL        lo
  -------         ENDDO         
  C:7073H         LINE#         49
  C:7073H         LINE#         50
  C:7073H         LINE#         52
  C:7078H         LINE#         53
  C:707CH         LINE#         54
  C:7083H         LINE#         55
  -------         ENDPROC       _BCDTODEC1
  -------         PROC          VONESTEPMOVE
  B:0020H.3       SYMBOL        bDir
  C:6C4BH         LINE#         59
  C:6C4BH         LINE#         60
  C:6C4BH         LINE#         62
  C:6C51H         LINE#         63
  C:6C51H         LINE#         64
  C:6C54H         LINE#         65
  C:6C5DH         LINE#         66
  C:6C64H         LINE#         67
  C:6C69H         LINE#         68
  C:6C69H         LINE#         69
  C:6C69H         LINE#         71
  C:6C6BH         LINE#         74
  C:6C6BH         LINE#         75
  C:6C6EH         LINE#         76
  C:6C77H         LINE#         77
  C:6C7EH         LINE#         78
  C:6C84H         LINE#         79
  C:6C8DH         LINE#         80
  C:6C94H         LINE#         81
  C:6C94H         LINE#         85
  -------         ENDPROC       VONESTEPMOVE
  -------         PROC          _STEP_MOVE
  X:04EDH         SYMBOL        step
  B:0020H.2       SYMBOL        dir
  -------         DO            
  X:04EFH         SYMBOL        i
  -------         ENDDO         
  C:6D63H         LINE#         87
  C:6D6BH         LINE#         88
  C:6D6BH         LINE#         90
  C:6D70H         LINE#         93
  C:6D8BH         LINE#         94
  C:6D8BH         LINE#         95
  C:6D92H         LINE#         97
  C:6DA2H         LINE#         99
  -------         ENDPROC       _STEP_MOVE
  -------         PROC          _MOVE
  X:04E9H         SYMBOL        distance
  B:0020H.1       SYMBOL        direction
  -------         DO            
  D:0006H         SYMBOL        step
  -------         ENDDO         
  C:6EC2H         LINE#         101
BL51 BANKED LINKER/LOCATER V6.22                                                      08/16/2019  15:59:24  PAGE 35


  C:6EC8H         LINE#         102
  C:6EC8H         LINE#         105
  C:6EE3H         LINE#         108
  -------         ENDPROC       _MOVE
  C:6350H         SYMBOL        L?0058
  -------         PROC          L?0057
  -------         ENDPROC       L?0057
  C:6350H         SYMBOL        L?0058
  -------         PROC          LINEAR_INTERPOLATE
  X:049EH         SYMBOL        p1
  X:04A6H         SYMBOL        p2
  X:04AEH         SYMBOL        x
  -------         DO            
  D:0004H         SYMBOL        fx
  -------         ENDDO         
  C:6361H         LINE#         141
  C:6361H         LINE#         142
  C:6361H         LINE#         145
  C:6400H         LINE#         147
  C:6400H         LINE#         148
  -------         ENDPROC       LINEAR_INTERPOLATE
  -------         PROC          _THEORICALJP_POSITION
  X:0442H         SYMBOL        azimuth
  X:0446H         SYMBOL        elevation
  -------         DO            
  X:044AH         SYMBOL        pos_interpolate_azimuth
  X:0486H         SYMBOL        JP_pos
  X:048AH         SYMBOL        i
  X:048CH         SYMBOL        yy
  X:048EH         SYMBOL        p1
  X:0496H         SYMBOL        p2
  -------         ENDDO         
  C:3F4DH         LINE#         151
  C:3F53H         LINE#         152
  C:3F53H         LINE#         154
  C:3F5DH         LINE#         157
  C:3F79H         LINE#         158
  C:3F79H         LINE#         159
  C:3FE9H         LINE#         160
  C:3FE9H         LINE#         161
  C:3FF0H         LINE#         162
  C:3FF0H         LINE#         163
  C:401DH         LINE#         164
  C:4038H         LINE#         166
  C:407FH         LINE#         167
  C:40B3H         LINE#         169
  C:40F9H         LINE#         170
  C:411EH         LINE#         172
  C:411EH         LINE#         174
  C:4194H         LINE#         175
  C:4194H         LINE#         176
  C:419BH         LINE#         177
  C:419BH         LINE#         178
  C:41C8H         LINE#         179
  C:41E3H         LINE#         181
  C:422AH         LINE#         182
  C:425EH         LINE#         184
BL51 BANKED LINKER/LOCATER V6.22                                                      08/16/2019  15:59:24  PAGE 36


  C:42A4H         LINE#         185
  C:42C6H         LINE#         187
  C:42C6H         LINE#         188
  C:42DAH         LINE#         191
  C:42F6H         LINE#         192
  C:42F6H         LINE#         193
  C:4366H         LINE#         194
  C:4366H         LINE#         195
  C:4393H         LINE#         196
  C:43AEH         LINE#         198
  C:43DBH         LINE#         199
  C:43F6H         LINE#         201
  C:4428H         LINE#         204
  C:4428H         LINE#         206
  C:4439H         LINE#         207
  C:4447H         LINE#         209
  -------         ENDPROC       _THEORICALJP_POSITION
  -------         PROC          _UPDATE_POSITION
  D:0001H         SYMBOL        mnths
  D:0002H         SYMBOL        dys
  X:041EH         SYMBOL        hurs
  X:041FH         SYMBOL        mns
  X:0420H         SYMBOL        sconds
  X:0421H         SYMBOL        currnt_pos
  X:0424H         SYMBOL        offset_calib
  -------         DO            
  X:0428H         SYMBOL        date
  X:042AH         SYMBOL        i
  X:042CH         SYMBOL        yy
  X:042EH         SYMBOL        desired_distance
  X:0432H         SYMBOL        distance
  X:0436H         SYMBOL        JP_pos
  X:043AH         SYMBOL        elevation
  X:043EH         SYMBOL        azimuth
  -------         ENDDO         
  C:391CH         LINE#         212
  C:3925H         LINE#         215
  C:3925H         LINE#         216
  C:3930H         LINE#         218
  C:394CH         LINE#         225
  C:3956H         LINE#         226
  C:3961H         LINE#         227
  C:396CH         LINE#         228
  C:3985H         LINE#         229
  C:3996H         LINE#         230
  C:39A5H         LINE#         233
  C:39B9H         LINE#         237
  C:3A0BH         LINE#         238
  C:3B6FH         LINE#         239
  C:3BBFH         LINE#         242
  C:3CE7H         LINE#         245
  C:3DB6H         LINE#         252
  C:3DFDH         LINE#         253
  C:3DFDH         LINE#         255
  C:3E28H         LINE#         256
  C:3E57H         LINE#         258
  C:3E7CH         LINE#         259
BL51 BANKED LINKER/LOCATER V6.22                                                      08/16/2019  15:59:24  PAGE 37


  C:3ED6H         LINE#         260
  C:3ED6H         LINE#         261
  C:3EF0H         LINE#         262
  C:3F02H         LINE#         263
  C:3F1AH         LINE#         264
  C:3F30H         LINE#         266
  C:3F4CH         LINE#         267
  C:3F4CH         LINE#         268
  C:3F4CH         LINE#         271
  -------         ENDPROC       _UPDATE_POSITION
  -------         PROC          _ELEVATION_CALCULATION
  D:0007H         SYMBOL        mnths
  D:0005H         SYMBOL        dys
  X:03FAH         SYMBOL        hurs
  X:03FBH         SYMBOL        mns
  X:03FCH         SYMBOL        sconds
  C:5071H         LINE#         273
  C:5076H         LINE#         275
  C:5076H         LINE#         276
  C:5080H         LINE#         277
  C:5089H         LINE#         278
  C:5094H         LINE#         279
  C:50ADH         LINE#         280
  C:50C1H         LINE#         281
  C:50D3H         LINE#         285
  C:5125H         LINE#         286
  C:5289H         LINE#         287
  C:52D9H         LINE#         289
  C:53F0H         LINE#         291
  -------         ENDPROC       _ELEVATION_CALCULATION
  -------         ENDMOD        BIPOLARMOTOR

  -------         MODULE        SUNPOS
  C:0000H         SYMBOL        _ICE_DUMMY_
  C:2A86H         PUBLIC        sunpos
  -------         PROC          SUNPOS
  X:0442H         SYMBOL        udtTime
  X:0454H         SYMBOL        udtLocation
  X:045CH         SYMBOL        udtSunCoordinates
  -------         DO            
  X:045FH         SYMBOL        dElapsedJulianDays
  X:0463H         SYMBOL        dDecimalHours
  X:0467H         SYMBOL        dEclipticLongitude
  X:046BH         SYMBOL        dEclipticObliquity
  X:046FH         SYMBOL        dRightAscension
  X:0473H         SYMBOL        dDeclination
  X:0477H         SYMBOL        dY
  X:047BH         SYMBOL        dX
  -------         DO            
  X:047FH         SYMBOL        dJulianDate
  X:0483H         SYMBOL        liAux1
  X:0487H         SYMBOL        liAux2
  X:047FH         SYMBOL        dMeanLongitude
  X:0483H         SYMBOL        dMeanAnomaly
  X:0487H         SYMBOL        dOmega
  X:047FH         SYMBOL        dSin_EclipticLongitude
  X:047FH         SYMBOL        dGreenwichMeanSiderealTime
BL51 BANKED LINKER/LOCATER V6.22                                                      08/16/2019  15:59:24  PAGE 38


  X:0483H         SYMBOL        dLocalMeanSiderealTime
  X:0487H         SYMBOL        dLatitudeInRadians
  X:048BH         SYMBOL        dHourAngle
  X:048FH         SYMBOL        dCos_Latitude
  X:0493H         SYMBOL        dSin_Latitude
  X:0497H         SYMBOL        dCos_HourAngle
  X:049BH         SYMBOL        dParallax
  -------         ENDDO         
  -------         DO            
  X:047FH         SYMBOL        dMeanLongitude
  X:0483H         SYMBOL        dMeanAnomaly
  X:0487H         SYMBOL        dOmega
  X:047FH         SYMBOL        dSin_EclipticLongitude
  X:047FH         SYMBOL        dGreenwichMeanSiderealTime
  X:0483H         SYMBOL        dLocalMeanSiderealTime
  X:0487H         SYMBOL        dLatitudeInRadians
  X:048BH         SYMBOL        dHourAngle
  X:048FH         SYMBOL        dCos_Latitude
  X:0493H         SYMBOL        dSin_Latitude
  X:0497H         SYMBOL        dCos_HourAngle
  X:049BH         SYMBOL        dParallax
  -------         ENDDO         
  -------         DO            
  X:047FH         SYMBOL        dSin_EclipticLongitude
  X:047FH         SYMBOL        dGreenwichMeanSiderealTime
  X:0483H         SYMBOL        dLocalMeanSiderealTime
  X:0487H         SYMBOL        dLatitudeInRadians
  X:048BH         SYMBOL        dHourAngle
  X:048FH         SYMBOL        dCos_Latitude
  X:0493H         SYMBOL        dSin_Latitude
  X:0497H         SYMBOL        dCos_HourAngle
  X:049BH         SYMBOL        dParallax
  -------         ENDDO         
  -------         DO            
  X:047FH         SYMBOL        dGreenwichMeanSiderealTime
  X:0483H         SYMBOL        dLocalMeanSiderealTime
  X:0487H         SYMBOL        dLatitudeInRadians
  X:048BH         SYMBOL        dHourAngle
  X:048FH         SYMBOL        dCos_Latitude
  X:0493H         SYMBOL        dSin_Latitude
  X:0497H         SYMBOL        dCos_HourAngle
  X:049BH         SYMBOL        dParallax
  -------         ENDDO         
  -------         ENDDO         
  C:2A86H         LINE#         6
  C:2A86H         LINE#         7
  C:2A86H         LINE#         9
  C:2A86H         LINE#         27
  C:2AD0H         LINE#         30
  C:2AF1H         LINE#         31
  C:2C38H         LINE#         34
  C:2C84H         LINE#         36
  C:2CA3H         LINE#         37
  C:2CA3H         LINE#         42
  C:2CA3H         LINE#         46
  C:2CD5H         LINE#         47
  C:2CFFH         LINE#         48
BL51 BANKED LINKER/LOCATER V6.22                                                      08/16/2019  15:59:24  PAGE 39


  C:2D29H         LINE#         49
  C:2DD6H         LINE#         52
  C:2E37H         LINE#         54
  C:2E37H         LINE#         59
  C:2E37H         LINE#         61
  C:2E4EH         LINE#         62
  C:2E76H         LINE#         63
  C:2E8DH         LINE#         64
  C:2EB8H         LINE#         65
  C:2EEFH         LINE#         66
  C:2F1AH         LINE#         67
  C:2F1AH         LINE#         70
  C:2F1AH         LINE#         79
  C:2F55H         LINE#         82
  C:2F8FH         LINE#         84
  C:2FB4H         LINE#         85
  C:2FD3H         LINE#         86
  C:2FEAH         LINE#         87
  C:3001H         LINE#         88
  C:3018H         LINE#         89
  C:30A1H         LINE#         91
  C:30BBH         LINE#         92
  C:311DH         LINE#         93
  C:3153H         LINE#         94
  C:3165H         LINE#         95
  C:3192H         LINE#         96
  C:31BFH         LINE#         98
  C:31E1H         LINE#         100
  C:3219H         LINE#         103
  C:3219H         LINE#         104
  C:3227H         LINE#         105
  -------         ENDPROC       SUNPOS
  -------         ENDMOD        SUNPOS

  -------         MODULE        ADC
  C:0000H         SYMBOL        _ICE_DUMMY_
  D:0092H         PUBLIC        P1M0
  D:0091H         PUBLIC        P1M1
  D:0080H         PUBLIC        P0
  D:0090H         PUBLIC        P1
  D:00A0H         PUBLIC        P2
  D:00B0H         PUBLIC        P3
  D:00C0H         PUBLIC        P4
  D:00C8H         PUBLIC        P5
  D:00E8H         PUBLIC        P6
  D:00F8H         PUBLIC        P7
  D:00A8H         PUBLIC        IE
  D:00BDH         PUBLIC        ADC_RES
  D:00B8H         PUBLIC        IP
  D:0097H         PUBLIC        CLK_DIV
  D:00D8H         PUBLIC        CCON
  D:00BCH         PUBLIC        ADC_CONTR
  D:0098H         PUBLIC        SCON
  D:0088H         PUBLIC        TCON
  B:00A0H.4       PUBLIC        P24
  B:00A0H.5       PUBLIC        P25
  B:00A0H.6       PUBLIC        P26
BL51 BANKED LINKER/LOCATER V6.22                                                      08/16/2019  15:59:24  PAGE 40


  C:7084H         PUBLIC        ADC_Init
  C:6E98H         PUBLIC        _ADC_GetResult
  D:009DH         PUBLIC        P1ASF
  D:00BEH         PUBLIC        ADC_RESL
  D:00D0H         PUBLIC        PSW
  -------         PROC          ADC_INIT
  C:7084H         LINE#         7
  C:7084H         LINE#         8
  C:7084H         LINE#         10
  C:7086H         LINE#         11
  C:7088H         LINE#         12
  C:708AH         LINE#         13
  C:708DH         LINE#         14
  C:7090H         LINE#         15
  C:7093H         LINE#         16
  C:7096H         LINE#         18
  C:7098H         LINE#         19
  C:709AH         LINE#         20
  C:709DH         LINE#         24
  -------         ENDPROC       ADC_INIT
  -------         PROC          _ADC_GETRESULT
  D:0007H         SYMBOL        ch
  -------         DO            
  D:0006H         SYMBOL        ADC_Value_H
  D:0004H         SYMBOL        ADC_Value_L
  D:0006H         SYMBOL        ADC_Value
  -------         ENDDO         
  C:6E98H         LINE#         27
  C:6E98H         LINE#         28
  C:6E98H         LINE#         30
  C:6E9DH         LINE#         31
  C:6E9EH         LINE#         32
  C:6E9FH         LINE#         35
  C:6EA4H         LINE#         36
  C:6EA7H         LINE#         37
  C:6EABH         LINE#         38
  C:6EAFH         LINE#         40
  C:6EC1H         LINE#         41
  C:6EC1H         LINE#         42
  -------         ENDPROC       _ADC_GETRESULT
  -------         ENDMOD        ADC

  -------         MODULE        CALIBRATION
  C:0000H         SYMBOL        _ICE_DUMMY_
  D:0080H         PUBLIC        P0
  D:0090H         PUBLIC        P1
  D:00A0H         PUBLIC        P2
  D:00B0H         PUBLIC        P3
  D:00C0H         PUBLIC        P4
  D:00C8H         PUBLIC        P5
  D:00E8H         PUBLIC        P6
  D:00F8H         PUBLIC        P7
  C:6753H         PUBLIC        _Max_Value
  D:00A8H         PUBLIC        IE
  C:53F1H         PUBLIC        _calibration
  C:6401H         PUBLIC        voltage_is_stable
  D:00B8H         PUBLIC        IP
BL51 BANKED LINKER/LOCATER V6.22                                                      08/16/2019  15:59:24  PAGE 41


  C:6F60H         PUBLIC        _FindClosestSamedayCalibTime
  D:00D8H         PUBLIC        CCON
  D:0098H         PUBLIC        SCON
  D:0088H         PUBLIC        TCON
  C:3228H         PUBLIC        _Find_Real_Max
  D:00D0H         PUBLIC        PSW
  -------         PROC          VOLTAGE_IS_STABLE
  -------         DO            
  X:041CH         SYMBOL        sample_voltage
  X:0430H         SYMBOL        i
  X:0432H         SYMBOL        ch
  -------         ENDDO         
  C:6401H         LINE#         26
  C:6401H         LINE#         27
  C:6401H         LINE#         29
  C:6408H         LINE#         30
  C:640EH         LINE#         31
  C:640EH         LINE#         32
  C:6437H         LINE#         33
  C:6456H         LINE#         35
  C:6470H         LINE#         36
  C:6470H         LINE#         37
  C:64A3H         LINE#         38
  C:64A7H         LINE#         39
  C:64B7H         LINE#         40
  C:64BBH         LINE#         41
  -------         ENDPROC       VOLTAGE_IS_STABLE
  -------         PROC          _FIND_REAL_MAX
  X:041CH         SYMBOL        current_position
  X:041FH         SYMBOL        calib_max_ADC_Value
  X:0422H         SYMBOL        max_ADC_JP_value
  X:0425H         SYMBOL        address_to_write
  -------         DO            
  X:0428H         SYMBOL        seconds
  X:0429H         SYMBOL        mins
  X:042AH         SYMBOL        hours
  X:042BH         SYMBOL        days
  X:042CH         SYMBOL        months
  X:042DH         SYMBOL        ch
  X:042EH         SYMBOL        calib_step_move
  X:0432H         SYMBOL        JPPos
  X:0436H         SYMBOL        sTemp
  X:043FH         SYMBOL        voltage_at_scanned_pos
  X:04E1H         SYMBOL        max_location
  X:04E3H         SYMBOL        avg_voltage
  X:04E5H         SYMBOL        i
  X:04E7H         SYMBOL        j
  -------         ENDDO         
  C:3228H         LINE#         42
  C:3233H         LINE#         43
  C:3233H         LINE#         46
  C:3238H         LINE#         47
  C:3240H         LINE#         50
  C:3247H         LINE#         54
  C:3251H         LINE#         55
  C:325BH         LINE#         56
  C:326EH         LINE#         57
BL51 BANKED LINKER/LOCATER V6.22                                                      08/16/2019  15:59:24  PAGE 42


  C:3287H         LINE#         58
  C:3287H         LINE#         59
  C:329CH         LINE#         60
  C:32ACH         LINE#         61
  C:32B3H         LINE#         62
  C:32B3H         LINE#         64
  C:32B3H         LINE#         66
  C:32CCH         LINE#         67
  C:32CCH         LINE#         68
  C:32D0H         LINE#         69
  C:32D0H         LINE#         70
  C:32D6H         LINE#         71
  C:32D6H         LINE#         72
  C:32EAH         LINE#         73
  C:32F1H         LINE#         75
  C:3301H         LINE#         76
  C:3330H         LINE#         79
  C:335BH         LINE#         81
  C:3364H         LINE#         82
  C:336BH         LINE#         83
  C:3374H         LINE#         84
  C:337DH         LINE#         85
  C:3384H         LINE#         87
  C:33D5H         LINE#         89
  C:33DEH         LINE#         90
  C:33E5H         LINE#         91
  C:33EEH         LINE#         92
  C:33F7H         LINE#         93
  C:33FEH         LINE#         97
  C:3416H         LINE#         98
  C:3416H         LINE#         99
  C:344AH         LINE#         100
  C:344CH         LINE#         102
  C:3460H         LINE#         104
  C:349CH         LINE#         109
  C:349CH         LINE#         134
  C:349CH         LINE#         136
  C:349CH         LINE#         152
  C:34A1H         LINE#         153
  C:34A6H         LINE#         155
  C:34ABH         LINE#         156
  C:34B0H         LINE#         157
  C:34B5H         LINE#         158
  C:34BAH         LINE#         161
  C:34F1H         LINE#         162
  C:34F6H         LINE#         163
  C:34FBH         LINE#         164
  C:3502H         LINE#         166
  C:352DH         LINE#         168
  C:3536H         LINE#         169
  C:353DH         LINE#         170
  C:3546H         LINE#         171
  C:354FH         LINE#         173
  C:3556H         LINE#         175
  C:3581H         LINE#         177
  C:358AH         LINE#         178
  C:3591H         LINE#         179
BL51 BANKED LINKER/LOCATER V6.22                                                      08/16/2019  15:59:24  PAGE 43


  C:359AH         LINE#         180
  C:35A3H         LINE#         181
  C:35AAH         LINE#         182
  C:35BDH         LINE#         183
  C:35E3H         LINE#         186
  C:35EAH         LINE#         187
  C:3625H         LINE#         189
  C:36A8H         LINE#         190
  C:36B1H         LINE#         191
  C:36B8H         LINE#         192
  C:36C1H         LINE#         193
  C:36CAH         LINE#         194
  C:36D1H         LINE#         196
  C:36F3H         LINE#         197
  C:36FAH         LINE#         199
  C:3709H         LINE#         200
  C:3709H         LINE#         201
  C:371AH         LINE#         202
  C:3743H         LINE#         204
  C:375BH         LINE#         207
  C:3784H         LINE#         218
  C:37E0H         LINE#         219
  C:380BH         LINE#         221
  C:3814H         LINE#         222
  C:381BH         LINE#         223
  C:3824H         LINE#         224
  C:382DH         LINE#         225
  C:3834H         LINE#         227
  C:386FH         LINE#         228
  C:38F2H         LINE#         229
  C:38FBH         LINE#         230
  C:3902H         LINE#         231
  C:390BH         LINE#         232
  C:3914H         LINE#         233
  C:391BH         LINE#         234
  C:391BH         LINE#         237
  -------         ENDPROC       _FIND_REAL_MAX
  -------         PROC          _MAX_VALUE
  D:0001H         SYMBOL        input
  -------         DO            
  D:0004H         SYMBOL        max
  X:04E9H         SYMBOL        max_location
  X:04EBH         SYMBOL        i
  -------         ENDDO         
  C:6753H         LINE#         240
  C:6753H         LINE#         241
  C:6753H         LINE#         242
  C:675EH         LINE#         244
  C:6773H         LINE#         245
  C:6773H         LINE#         246
  C:67A9H         LINE#         247
  C:67C6H         LINE#         248
  C:67D5H         LINE#         249
  C:67E6H         LINE#         250
  C:67EEH         LINE#         252
  -------         ENDPROC       _MAX_VALUE
  -------         PROC          _CALIBRATION
BL51 BANKED LINKER/LOCATER V6.22                                                      08/16/2019  15:59:24  PAGE 44


  X:03F8H         SYMBOL        mnths
  X:03F9H         SYMBOL        dys
  X:03FAH         SYMBOL        hurs
  X:03FBH         SYMBOL        mns
  X:03FCH         SYMBOL        sconds
  X:03FDH         SYMBOL        currnt_pos
  X:0400H         SYMBOL        calib_max_ADC_Val
  X:0403H         SYMBOL        theorical_max_pos
  X:0406H         SYMBOL        max_ADC_JP_value
  X:0409H         SYMBOL        NOR_address_to_write
  -------         DO            
  X:040CH         SYMBOL        calib_value
  X:0410H         SYMBOL        temporary_calib_max_ADC
  X:0412H         SYMBOL        temp_max_ADC_JP_value
  X:0414H         SYMBOL        temp_NOR_address_to_write
  X:0418H         SYMBOL        JP_max_pos
  -------         ENDDO         
  C:53F1H         LINE#         254
  C:53FCH         LINE#         258
  C:53FCH         LINE#         259
  C:5406H         LINE#         260
  C:5411H         LINE#         261
  C:5425H         LINE#         262
  C:5439H         LINE#         264
  C:544AH         LINE#         265
  C:545BH         LINE#         266
  C:546DH         LINE#         267
  C:5477H         LINE#         268
  C:5481H         LINE#         270
  C:548BH         LINE#         271
  C:548BH         LINE#         273
  C:54C1H         LINE#         274
  C:54E7H         LINE#         279
  C:5516H         LINE#         281
  C:5532H         LINE#         283
  C:554AH         LINE#         284
  C:5562H         LINE#         285
  C:5587H         LINE#         286
  C:55A3H         LINE#         287
  C:55B2H         LINE#         288
  C:55B2H         LINE#         290
  C:55B7H         LINE#         291
  -------         ENDPROC       _CALIBRATION
  -------         PROC          _FINDCLOSESTSAMEDAYCALIBTIME
  D:0001H         SYMBOL        input_calibration_bool_array
  D:0004H         SYMBOL        current_time_stamp_position
  -------         DO            
  D:0004H         SYMBOL        i
  -------         ENDDO         
  C:6F60H         LINE#         292
  C:6F60H         LINE#         293
  C:6F60H         LINE#         295
  C:6F68H         LINE#         296
  C:6F68H         LINE#         297
  C:6F7BH         LINE#         298
  C:6F80H         LINE#         300
  C:6F84H         LINE#         301
BL51 BANKED LINKER/LOCATER V6.22                                                      08/16/2019  15:59:24  PAGE 45


  C:6F84H         LINE#         302
  -------         ENDPROC       _FINDCLOSESTSAMEDAYCALIBTIME
  -------         ENDMOD        CALIBRATION

  -------         MODULE        IOEXPANDER_PI4IOE5V96248
  C:0000H         SYMBOL        _ICE_DUMMY_
  D:0080H         PUBLIC        P0
  B:00C8H.4       PUBLIC        I2C_SCK
  D:0090H         PUBLIC        P1
  D:00A0H         PUBLIC        P2
  D:00B0H         PUBLIC        P3
  D:00C0H         PUBLIC        P4
  D:00C8H         PUBLIC        P5
  D:00E8H         PUBLIC        P6
  D:00F8H         PUBLIC        P7
  D:00A8H         PUBLIC        IE
  D:00B8H         PUBLIC        IP
  D:00D8H         PUBLIC        CCON
  C:717DH         PUBLIC        I2C_Start
  D:0098H         PUBLIC        SCON
  D:0088H         PUBLIC        TCON
  C:64BCH         PUBLIC        _Write_PI4IOE5V96248
  C:718CH         PUBLIC        uC_NACK
  C:6E4FH         PUBLIC        _Wait_ms_i2c
  C:6F17H         PUBLIC        _I2C_SendByte
  C:710DH         PUBLIC        I2C_Stop
  C:7224H         PUBLIC        nop
  C:7218H         PUBLIC        uC_ACK
  C:70CDH         PUBLIC        I2C_ACK
  B:00C0H.7       PUBLIC        I2C_SDA
  D:00D0H         PUBLIC        PSW
  C:6E49H         SYMBOL        L?0031
  C:6E4BH         SYMBOL        L?0032
  -------         PROC          L?0030
  -------         ENDPROC       L?0030
  C:6E49H         SYMBOL        L?0031
  C:6E4BH         SYMBOL        L?0032
  -------         PROC          _WAIT_MS_I2C
  D:0006H         SYMBOL        ms
  -------         DO            
  D:0004H         SYMBOL        De_Cnt
  -------         ENDDO         
  C:6E4FH         LINE#         7
  C:6E4FH         LINE#         8
  C:6E4FH         LINE#         10
  C:6E59H         LINE#         11
  C:6E59H         LINE#         12
  C:6E6CH         LINE#         13
  C:6E6CH         LINE#         14
  -------         ENDPROC       _WAIT_MS_I2C
  -------         PROC          NOP
  C:7224H         LINE#         16
  C:7224H         LINE#         17
  C:7224H         LINE#         19
  -------         ENDPROC       NOP
  -------         PROC          I2C_START
  C:717DH         LINE#         20
BL51 BANKED LINKER/LOCATER V6.22                                                      08/16/2019  15:59:24  PAGE 46


  C:717DH         LINE#         21
  C:717DH         LINE#         23
  C:717FH         LINE#         24
  C:7181H         LINE#         25
  C:7184H         LINE#         26
  C:7186H         LINE#         27
  C:7189H         LINE#         28
  C:718BH         LINE#         31
  -------         ENDPROC       I2C_START
  -------         PROC          I2C_STOP
  C:710DH         LINE#         33
  C:710DH         LINE#         34
  C:710DH         LINE#         35
  C:710FH         LINE#         36
  C:7111H         LINE#         37
  C:7114H         LINE#         38
  C:7116H         LINE#         39
  C:7118H         LINE#         40
  C:711FH         LINE#         41
  C:7121H         LINE#         44
  -------         ENDPROC       I2C_STOP
  -------         PROC          I2C_ACK
  -------         DO            
  X:04F4H         SYMBOL        i
  D:0003H         SYMBOL        dat
  -------         ENDDO         
  C:70CDH         LINE#         46
  C:70CDH         LINE#         47
  C:70CDH         LINE#         49
  C:70CEH         LINE#         54
  C:70D1H         LINE#         55
  C:70D3H         LINE#         56
  C:70D6H         LINE#         58
  C:70D9H         LINE#         59
  C:70D9H         LINE#         60
  C:70DDH         LINE#         61
  C:70DDH         LINE#         64
  C:70DDH         LINE#         65
  C:70E0H         LINE#         66
  C:70E0H         LINE#         67
  C:70E2H         LINE#         68
  -------         ENDPROC       I2C_ACK
  -------         PROC          UC_ACK
  -------         DO            
  X:0654H         SYMBOL        i
  -------         ENDDO         
  C:7218H         LINE#         69
  C:7218H         LINE#         70
  C:7218H         LINE#         72
  C:7218H         LINE#         79
  C:7218H         LINE#         81
  C:7218H         LINE#         83
  C:7218H         LINE#         84
  C:7218H         LINE#         87
  C:721BH         LINE#         88
  C:721DH         LINE#         89
  C:721DH         LINE#         93
BL51 BANKED LINKER/LOCATER V6.22                                                      08/16/2019  15:59:24  PAGE 47


  -------         ENDPROC       UC_ACK
  -------         PROC          UC_NACK
  -------         DO            
  X:0655H         SYMBOL        i
  -------         ENDDO         
  C:718CH         LINE#         95
  C:718CH         LINE#         96
  C:718CH         LINE#         98
  C:718CH         LINE#         102
  C:718EH         LINE#         105
  C:718EH         LINE#         106
  C:7190H         LINE#         107
  C:7190H         LINE#         109
  C:7190H         LINE#         110
  C:7190H         LINE#         113
  C:7193H         LINE#         114
  C:7195H         LINE#         115
  C:7198H         LINE#         116
  C:719AH         LINE#         117
  C:719AH         LINE#         121
  -------         ENDPROC       UC_NACK
  C:6F13H         SYMBOL        L?0034
  -------         PROC          L?0033
  -------         ENDPROC       L?0033
  C:6F13H         SYMBOL        L?0034
  -------         PROC          _I2C_SENDBYTE
  D:0001H         SYMBOL        dat
  -------         DO            
  D:0003H         SYMBOL        i
  -------         ENDDO         
  C:6F17H         LINE#         125
  C:6F19H         LINE#         126
  C:6F19H         LINE#         129
  C:6F1BH         LINE#         130
  C:6F1BH         LINE#         131
  C:6F1DH         LINE#         133
  C:6F21H         LINE#         134
  C:6F21H         LINE#         135
  C:6F23H         LINE#         136
  C:6F25H         LINE#         138
  C:6F25H         LINE#         139
  C:6F27H         LINE#         140
  C:6F27H         LINE#         141
  C:6F2AH         LINE#         142
  C:6F2CH         LINE#         144
  C:6F30H         LINE#         145
  C:6F33H         LINE#         146
  C:6F38H         LINE#         147
  -------         ENDPROC       _I2C_SENDBYTE
  -------         PROC          _WRITE_PI4IOE5V96248
  X:04F1H         SYMBOL        xdat
  C:64BCH         LINE#         148
  C:64C7H         LINE#         149
  C:64C7H         LINE#         150
  C:64CAH         LINE#         151
  C:64D1H         LINE#         152
  C:64D6H         LINE#         153
BL51 BANKED LINKER/LOCATER V6.22                                                      08/16/2019  15:59:24  PAGE 48


  C:64DCH         LINE#         154
  C:64DCH         LINE#         155
  C:64EEH         LINE#         156
  C:64EEH         LINE#         158
  C:64F4H         LINE#         159
  C:64F4H         LINE#         160
  C:6504H         LINE#         161
  C:6504H         LINE#         162
  C:650AH         LINE#         163
  C:650AH         LINE#         164
  C:651AH         LINE#         165
  C:651AH         LINE#         166
  C:6520H         LINE#         167
  C:6520H         LINE#         168
  C:6531H         LINE#         169
  C:6531H         LINE#         171
  C:6537H         LINE#         172
  C:6537H         LINE#         173
  C:6548H         LINE#         174
  C:6548H         LINE#         175
  C:654EH         LINE#         176
  C:654EH         LINE#         177
  C:655FH         LINE#         178
  C:655FH         LINE#         180
  C:6565H         LINE#         181
  C:6568H         LINE#         182
  -------         ENDPROC       _WRITE_PI4IOE5V96248
  -------         ENDMOD        IOEXPANDER_PI4IOE5V96248

  -------         MODULE        AT25SF041
  C:0000H         SYMBOL        _ICE_DUMMY_
  D:0080H         PUBLIC        P0
  D:0090H         PUBLIC        P1
  D:00B4H         PUBLIC        P4M0
  D:00A0H         PUBLIC        P2
  D:00B3H         PUBLIC        P4M1
  D:00B0H         PUBLIC        P3
  D:00C0H         PUBLIC        P4
  D:00C8H         PUBLIC        P5
  D:00E8H         PUBLIC        P6
  D:00F8H         PUBLIC        P7
  C:6AF7H         PUBLIC        AT25SF041_ChipErase
  C:5745H         PUBLIC        SPI_NOR_Write_Data
  C:5F5CH         PUBLIC        _AT25SF041_Read
  D:00A8H         PUBLIC        IE
  C:6615H         PUBLIC        ucRead_Status_Register_Byte1
  C:6E7AH         PUBLIC        _Wait_ms_SPINOR
  D:00B8H         PUBLIC        IP
  C:6073H         PUBLIC        _AT25SF041_Write
  B:00C0H.1       PUBLIC        AT25SF041_CS
  D:00D8H         PUBLIC        CCON
  D:0098H         PUBLIC        SCON
  D:0088H         PUBLIC        TCON
  C:6A3BH         PUBLIC        AT25SF041_WriteEnable
  B:00C0H.2       PUBLIC        AT25SF041_SDI
  B:00C0H.3       PUBLIC        AT25SF041_SCK
  B:00C0H.4       PUBLIC        AT25SF041_SDO
BL51 BANKED LINKER/LOCATER V6.22                                                      08/16/2019  15:59:24  PAGE 49


  D:00D0H         PUBLIC        PSW
  C:6E6DH         SYMBOL        L?0084
  C:6E74H         SYMBOL        L?0085
  C:6E76H         SYMBOL        L?0086
  -------         PROC          L?0083
  -------         ENDPROC       L?0083
  C:6E6DH         SYMBOL        L?0084
  C:6E74H         SYMBOL        L?0085
  C:6E76H         SYMBOL        L?0086
  -------         PROC          _WAIT_MS_SPINOR
  D:0006H         SYMBOL        ms
  -------         DO            
  D:0004H         SYMBOL        De_Cnt
  -------         ENDDO         
  C:6E7AH         LINE#         5
  C:6E7AH         LINE#         6
  C:6E7AH         LINE#         8
  C:6E84H         LINE#         9
  C:6E84H         LINE#         10
  C:6E97H         LINE#         11
  C:6E97H         LINE#         12
  -------         ENDPROC       _WAIT_MS_SPINOR
  -------         PROC          AT25SF041_CHIPERASE
  -------         DO            
  X:03F8H         SYMBOL        i
  D:0003H         SYMBOL        opcode
  -------         ENDDO         
  C:6AF7H         LINE#         13
  C:6AF7H         LINE#         14
  C:6AF7H         LINE#         17
  C:6AF9H         LINE#         20
  C:6AFCH         LINE#         21
  C:6AFFH         LINE#         22
  C:6B01H         LINE#         23
  C:6B04H         LINE#         25
  C:6B0BH         LINE#         26
  C:6B0BH         LINE#         27
  C:6B0DH         LINE#         28
  C:6B10H         LINE#         29
  C:6B14H         LINE#         30
  C:6B14H         LINE#         31
  C:6B16H         LINE#         32
  C:6B18H         LINE#         34
  C:6B18H         LINE#         35
  C:6B1AH         LINE#         37
  C:6B1AH         LINE#         38
  C:6B1AH         LINE#         39
  C:6B1AH         LINE#         40
  C:6B1DH         LINE#         41
  C:6B21H         LINE#         44
  C:6B40H         LINE#         46
  C:6B42H         LINE#         47
  C:6B49H         LINE#         48
  C:6B50H         LINE#         50
  -------         ENDPROC       AT25SF041_CHIPERASE
  C:6A16H         SYMBOL        L?0082
  -------         PROC          L?0081
BL51 BANKED LINKER/LOCATER V6.22                                                      08/16/2019  15:59:24  PAGE 50


  -------         ENDPROC       L?0081
  C:6A16H         SYMBOL        L?0082
  -------         PROC          AT25SF041_WRITEENABLE
  -------         DO            
  X:0406H         SYMBOL        i
  D:0003H         SYMBOL        write_en
  -------         ENDDO         
  C:6A3BH         LINE#         51
  C:6A3BH         LINE#         52
  C:6A3BH         LINE#         55
  C:6A3DH         LINE#         56
  C:6A3FH         LINE#         59
  C:6A46H         LINE#         60
  C:6A46H         LINE#         61
  C:6A48H         LINE#         62
  C:6A4BH         LINE#         63
  C:6A4FH         LINE#         64
  C:6A4FH         LINE#         65
  C:6A51H         LINE#         66
  C:6A53H         LINE#         68
  C:6A53H         LINE#         69
  C:6A55H         LINE#         71
  C:6A55H         LINE#         72
  C:6A55H         LINE#         73
  C:6A55H         LINE#         74
  C:6A58H         LINE#         75
  C:6A5CH         LINE#         78
  C:6A7BH         LINE#         79
  C:6A7DH         LINE#         80
  C:6A80H         LINE#         81
  C:6A87H         LINE#         82
  -------         ENDPROC       AT25SF041_WRITEENABLE
  C:606CH         SYMBOL        L?0088
  -------         PROC          L?0087
  -------         ENDPROC       L?0087
  C:606CH         SYMBOL        L?0088
  -------         PROC          _AT25SF041_WRITE
  D:0003H         SYMBOL        opcode
  X:0407H         SYMBOL        addr
  X:040BH         SYMBOL        dat
  -------         DO            
  X:040CH         SYMBOL        i
  -------         ENDDO         
  C:6073H         LINE#         85
  C:6075H         LINE#         86
  C:6075H         LINE#         87
  C:6075H         LINE#         88
  C:6077H         LINE#         89
  C:607AH         LINE#         92
  C:6081H         LINE#         93
  C:6081H         LINE#         94
  C:6083H         LINE#         95
  C:6086H         LINE#         96
  C:608AH         LINE#         97
  C:608AH         LINE#         98
  C:608CH         LINE#         99
  C:608EH         LINE#         101
BL51 BANKED LINKER/LOCATER V6.22                                                      08/16/2019  15:59:24  PAGE 51


  C:608EH         LINE#         102
  C:6090H         LINE#         104
  C:6090H         LINE#         105
  C:6090H         LINE#         106
  C:6090H         LINE#         107
  C:6093H         LINE#         108
  C:6097H         LINE#         111
  C:60B6H         LINE#         113
  C:60BDH         LINE#         114
  C:60BDH         LINE#         115
  C:60BFH         LINE#         116
  C:60C2H         LINE#         117
  C:60DEH         LINE#         118
  C:60DEH         LINE#         119
  C:60E0H         LINE#         120
  C:60E2H         LINE#         122
  C:60E2H         LINE#         123
  C:60E4H         LINE#         125
  C:60E4H         LINE#         126
  C:60E4H         LINE#         127
  C:60E4H         LINE#         128
  C:60E7H         LINE#         129
  C:6100H         LINE#         131
  C:611FH         LINE#         133
  C:6126H         LINE#         134
  C:6126H         LINE#         135
  C:6128H         LINE#         136
  C:612BH         LINE#         137
  C:6132H         LINE#         138
  C:6132H         LINE#         139
  C:6134H         LINE#         140
  C:6136H         LINE#         142
  C:6136H         LINE#         143
  C:6138H         LINE#         145
  C:6138H         LINE#         146
  C:6138H         LINE#         147
  C:6138H         LINE#         148
  C:613BH         LINE#         149
  C:6142H         LINE#         151
  C:6161H         LINE#         153
  C:6163H         LINE#         154
  C:6166H         LINE#         155
  C:616DH         LINE#         157
  -------         ENDPROC       _AT25SF041_WRITE
  -------         PROC          _AT25SF041_READ
  D:0003H         SYMBOL        opcode
  X:03F9H         SYMBOL        addr
  -------         DO            
  X:03FDH         SYMBOL        dat
  X:03FEH         SYMBOL        i
  -------         ENDDO         
  C:5F5CH         LINE#         159
  C:5F5EH         LINE#         160
  C:5F5EH         LINE#         161
  C:5F63H         LINE#         163
  C:5F65H         LINE#         164
  C:5F6BH         LINE#         168
BL51 BANKED LINKER/LOCATER V6.22                                                      08/16/2019  15:59:24  PAGE 52


  C:5F70H         LINE#         169
  C:5F70H         LINE#         170
  C:5F72H         LINE#         171
  C:5F75H         LINE#         172
  C:5F79H         LINE#         173
  C:5F79H         LINE#         174
  C:5F7BH         LINE#         175
  C:5F7DH         LINE#         177
  C:5F7DH         LINE#         178
  C:5F7FH         LINE#         180
  C:5F7FH         LINE#         181
  C:5F7FH         LINE#         182
  C:5F7FH         LINE#         183
  C:5F82H         LINE#         184
  C:5F86H         LINE#         187
  C:5FA5H         LINE#         189
  C:5FACH         LINE#         190
  C:5FACH         LINE#         191
  C:5FAEH         LINE#         192
  C:5FB1H         LINE#         193
  C:5FCDH         LINE#         194
  C:5FCDH         LINE#         195
  C:5FCFH         LINE#         196
  C:5FD1H         LINE#         198
  C:5FD1H         LINE#         199
  C:5FD3H         LINE#         201
  C:5FD3H         LINE#         202
  C:5FD3H         LINE#         203
  C:5FD3H         LINE#         204
  C:5FD6H         LINE#         205
  C:5FEFH         LINE#         207
  C:600EH         LINE#         210
  C:6015H         LINE#         212
  C:6017H         LINE#         213
  C:601EH         LINE#         215
  C:6025H         LINE#         216
  C:6025H         LINE#         217
  C:602CH         LINE#         218
  C:602CH         LINE#         219
  C:602FH         LINE#         220
  C:6031H         LINE#         221
  C:6034H         LINE#         223
  C:6037H         LINE#         224
  C:6037H         LINE#         226
  C:603BH         LINE#         227
  C:603BH         LINE#         233
  C:605AH         LINE#         236
  C:605CH         LINE#         237
  C:605FH         LINE#         238
  C:6066H         LINE#         240
  C:606BH         LINE#         242
  -------         ENDPROC       _AT25SF041_READ
  -------         PROC          UCREAD_STATUS_REGISTER_BYTE1
  -------         DO            
  D:0003H         SYMBOL        dat
  D:0001H         SYMBOL        opcode
  X:040EH         SYMBOL        count
BL51 BANKED LINKER/LOCATER V6.22                                                      08/16/2019  15:59:24  PAGE 53


  X:040FH         SYMBOL        i
  -------         ENDDO         
  C:6615H         LINE#         246
  C:6615H         LINE#         247
  C:6615H         LINE#         248
  C:661BH         LINE#         249
  C:661FH         LINE#         250
  C:6621H         LINE#         251
  C:6623H         LINE#         252
  C:6629H         LINE#         256
  C:6630H         LINE#         257
  C:6630H         LINE#         258
  C:6632H         LINE#         259
  C:6635H         LINE#         260
  C:6639H         LINE#         261
  C:6639H         LINE#         262
  C:663BH         LINE#         263
  C:663DH         LINE#         265
  C:663DH         LINE#         266
  C:663FH         LINE#         268
  C:663FH         LINE#         269
  C:663FH         LINE#         270
  C:663FH         LINE#         271
  C:6642H         LINE#         272
  C:6646H         LINE#         275
  C:6665H         LINE#         279
  C:666CH         LINE#         281
  C:666EH         LINE#         282
  C:6675H         LINE#         283
  C:667CH         LINE#         284
  C:667CH         LINE#         285
  C:6680H         LINE#         286
  C:6680H         LINE#         287
  C:6683H         LINE#         288
  C:6685H         LINE#         289
  C:6688H         LINE#         291
  C:668BH         LINE#         292
  C:668BH         LINE#         294
  C:668FH         LINE#         295
  C:668FH         LINE#         297
  C:66AEH         LINE#         301
  C:66B0H         LINE#         302
  C:66B3H         LINE#         303
  C:66B5H         LINE#         304
  -------         ENDPROC       UCREAD_STATUS_REGISTER_BYTE1
  -------         PROC          SPI_NOR_WRITE_DATA
  X:03F8H         SYMBOL        dat
  X:0403H         SYMBOL        addr
  C:5745H         LINE#         306
  C:5745H         LINE#         307
  C:5745H         LINE#         309
  C:5748H         LINE#         311
  C:5762H         LINE#         312
  C:5780H         LINE#         314
  C:5787H         LINE#         315
  C:578AH         LINE#         317
  C:57A4H         LINE#         318
BL51 BANKED LINKER/LOCATER V6.22                                                      08/16/2019  15:59:24  PAGE 54


  C:57A4H         LINE#         319
  C:57A4H         LINE#         322
  C:57A7H         LINE#         324
  C:57C1H         LINE#         325
  C:57C1H         LINE#         326
  C:57C1H         LINE#         328
  C:57C4H         LINE#         330
  C:57DEH         LINE#         331
  C:57DEH         LINE#         332
  C:57DEH         LINE#         334
  C:57E1H         LINE#         336
  C:57FBH         LINE#         337
  C:57FBH         LINE#         338
  C:57FBH         LINE#         340
  C:57FEH         LINE#         342
  C:5818H         LINE#         343
  C:5818H         LINE#         344
  C:5818H         LINE#         346
  C:581BH         LINE#         348
  C:5835H         LINE#         349
  C:5835H         LINE#         350
  C:5835H         LINE#         352
  C:5838H         LINE#         354
  C:5852H         LINE#         355
  C:5852H         LINE#         356
  C:5852H         LINE#         358
  C:5855H         LINE#         360
  C:586FH         LINE#         361
  C:586FH         LINE#         362
  C:586FH         LINE#         364
  C:5872H         LINE#         366
  C:588CH         LINE#         367
  C:588CH         LINE#         368
  C:588CH         LINE#         370
  C:588FH         LINE#         372
  C:58A9H         LINE#         373
  C:58B0H         LINE#         374
  -------         ENDPROC       SPI_NOR_WRITE_DATA
  -------         ENDMOD        AT25SF041

  -------         MODULE        SI1120
  C:0000H         SYMBOL        _ICE_DUMMY_
  D:0080H         PUBLIC        P0
  D:00B2H         PUBLIC        P3M0
  D:0090H         PUBLIC        P1
  D:00B1H         PUBLIC        P3M1
  D:00A0H         PUBLIC        P2
  D:00B0H         PUBLIC        P3
  D:00C0H         PUBLIC        P4
  D:00C8H         PUBLIC        P5
  B:00A8H.7       PUBLIC        EA
  D:00E8H         PUBLIC        P6
  D:00F8H         PUBLIC        P7
  D:00A8H         PUBLIC        IE
  D:00B8H         PUBLIC        IP
  C:6E11H         PUBLIC        SI1120_CONFIG_MODE_VIRH
  D:00D8H         PUBLIC        CCON
BL51 BANKED LINKER/LOCATER V6.22                                                      08/16/2019  15:59:24  PAGE 55


  D:0098H         PUBLIC        SCON
  D:0088H         PUBLIC        TCON
  C:71B7H         PUBLIC        Enable_EXTINT0
  B:0090H.5       PUBLIC        SI1120_STX
  B:0088H.0       PUBLIC        IT0
  B:00A8H.0       PUBLIC        EX0
  B:0090H.4       PUBLIC        SI1120_MD
  B:0090H.6       PUBLIC        SI1120_SC
  D:00D0H         PUBLIC        PSW
  -------         PROC          SI1120_CONFIG_MODE_VIRH
  C:6E11H         LINE#         4
  C:6E11H         LINE#         5
  C:6E11H         LINE#         6
  C:6E13H         LINE#         7
  C:6E15H         LINE#         8
  C:6E17H         LINE#         10
  C:6E1EH         LINE#         11
  C:6E20H         LINE#         13
  C:6E22H         LINE#         14
  C:6E24H         LINE#         16
  C:6E2BH         LINE#         18
  C:6E2DH         LINE#         20
  C:6E34H         LINE#         23
  C:6E36H         LINE#         25
  C:6E38H         LINE#         27
  C:6E3FH         LINE#         29
  C:6E41H         LINE#         31
  -------         ENDPROC       SI1120_CONFIG_MODE_VIRH
  -------         PROC          ENABLE_EXTINT0
  C:71B7H         LINE#         33
  C:71B7H         LINE#         34
  C:71B7H         LINE#         35
  C:71BAH         LINE#         36
  C:71BDH         LINE#         37
  C:71BFH         LINE#         38
  C:71C1H         LINE#         39
  C:71C3H         LINE#         40
  -------         ENDPROC       ENABLE_EXTINT0
  -------         ENDMOD        SI1120

  -------         MODULE        UART1
  C:0000H         SYMBOL        _ICE_DUMMY_
  D:0080H         PUBLIC        P0
  D:0090H         PUBLIC        P1
  D:00A0H         PUBLIC        P2
  D:00B0H         PUBLIC        P3
  D:00C0H         PUBLIC        P4
  D:00C8H         PUBLIC        P5
  C:6FA9H         PUBLIC        _uart1_SendToTCPServer
  B:00A8H.7       PUBLIC        EA
  D:00E8H         PUBLIC        P6
  D:00F8H         PUBLIC        P7
  C:6DDEH         PUBLIC        _SendString
  D:00A8H         PUBLIC        IE
  B:00A8H.4       PUBLIC        ES
  D:00B8H         PUBLIC        IP
  C:70B6H         PUBLIC        _ASCIItoBCD
BL51 BANKED LINKER/LOCATER V6.22                                                      08/16/2019  15:59:24  PAGE 56


  D:00D8H         PUBLIC        CCON
  C:716CH         PUBLIC        initUART1
  D:0098H         PUBLIC        SCON
  D:0088H         PUBLIC        TCON
  C:7225H         PUBLIC        _DectoBCD
  C:001EH         PUBLIC        _ASCII_Letter
  D:008EH         PUBLIC        AUXR
  C:0006H         PUBLIC        _unit
  C:721EH         PUBLIC        _ten
  D:00D6H         PUBLIC        T2H
  D:00D7H         PUBLIC        T2L
  C:720FH         PUBLIC        uart1_InitTCPConn
  D:00D0H         PUBLIC        PSW
  -------         PROC          INITUART1
  C:716CH         LINE#         24
  C:716CH         LINE#         25
  C:716CH         LINE#         26
  C:716FH         LINE#         27
  C:7172H         LINE#         28
  C:7175H         LINE#         29
  C:7178H         LINE#         30
  C:717AH         LINE#         31
  C:717CH         LINE#         33
  -------         ENDPROC       INITUART1
  -------         PROC          _SENDSTRING
  X:04E9H         SYMBOL        s
  C:6DDEH         LINE#         36
  C:6DE9H         LINE#         37
  C:6DE9H         LINE#         38
  C:6DF9H         LINE#         39
  C:6DF9H         LINE#         40
  C:6E0EH         LINE#         41
  C:6E10H         LINE#         42
  -------         ENDPROC       _SENDSTRING
  -------         PROC          _TEN
  D:0007H         SYMBOL        BCD
  C:721EH         LINE#         44
  C:721EH         LINE#         45
  C:721EH         LINE#         46
  C:7223H         LINE#         47
  -------         ENDPROC       _TEN
  -------         PROC          _UNIT
  D:0007H         SYMBOL        BCD
  C:0006H         LINE#         48
  C:0006H         LINE#         49
  C:0006H         LINE#         53
  C:000AH         LINE#         54
  -------         ENDPROC       _UNIT
  -------         PROC          _DECTOBCD
  D:0007H         SYMBOL        dec
  C:7225H         LINE#         55
  C:7225H         LINE#         56
  C:7225H         LINE#         58
  C:7225H         LINE#         59
  -------         ENDPROC       _DECTOBCD
  -------         PROC          _ASCII_LETTER
  D:0007H         SYMBOL        dat
BL51 BANKED LINKER/LOCATER V6.22                                                      08/16/2019  15:59:24  PAGE 57


  C:001EH         LINE#         61
  C:001EH         LINE#         62
  C:001EH         LINE#         64
  C:0022H         LINE#         65
  -------         ENDPROC       _ASCII_LETTER
  -------         PROC          _ASCIITOBCD
  D:0001H         SYMBOL        ascii
  -------         DO            
  D:0007H         SYMBOL        dec_val
  D:0006H         SYMBOL        ten
  D:0007H         SYMBOL        unit
  -------         ENDDO         
  C:70B6H         LINE#         67
  C:70B6H         LINE#         68
  C:70B6H         LINE#         70
  C:70B9H         LINE#         71
  C:70BFH         LINE#         72
  C:70C6H         LINE#         73
  C:70CCH         LINE#         75
  -------         ENDPROC       _ASCIITOBCD
  -------         PROC          UART1_INITTCPCONN
  C:720FH         LINE#         77
  C:720FH         LINE#         78
  C:720FH         LINE#         82
  -------         ENDPROC       UART1_INITTCPCONN
  -------         PROC          _UART1_SENDTOTCPSERVER
  X:03F8H         SYMBOL        str
  C:6FA9H         LINE#         85
  C:6FB4H         LINE#         86
  C:6FB4H         LINE#         87
  C:6FBDH         LINE#         88
  C:6FC4H         LINE#         89
  -------         ENDPROC       _UART1_SENDTOTCPSERVER
  -------         ENDMOD        UART1

  -------         MODULE        ?C_STARTUP
  C:6889H         SEGMENT       ?C_C51STARTUP
  I:0022H         SEGMENT       ?STACK
  C:0000H         PUBLIC        ?C_STARTUP
  D:00E0H         SYMBOL        ACC
  D:00F0H         SYMBOL        B
  D:0083H         SYMBOL        DPH
  D:0082H         SYMBOL        DPL
  N:0000H         SYMBOL        IBPSTACK
  N:0100H         SYMBOL        IBPSTACKTOP
  N:0080H         SYMBOL        IDATALEN
  C:688CH         SYMBOL        IDATALOOP
  N:0000H         SYMBOL        PBPSTACK
  N:0100H         SYMBOL        PBPSTACKTOP
  N:0000H         SYMBOL        PDATALEN
  N:0000H         SYMBOL        PDATASTART
  N:0000H         SYMBOL        PPAGE
  N:0000H         SYMBOL        PPAGEENABLE
  D:00A0H         SYMBOL        PPAGE_SFR
  D:0081H         SYMBOL        SP
  C:6889H         SYMBOL        STARTUP1
  N:0000H         SYMBOL        XBPSTACK
BL51 BANKED LINKER/LOCATER V6.22                                                      08/16/2019  15:59:24  PAGE 58


  N:0000H         SYMBOL        XBPSTACKTOP
  N:0000H         SYMBOL        XDATALEN
  N:0000H         SYMBOL        XDATASTART
  C:0000H         LINE#         126
  C:6889H         LINE#         133
  C:688BH         LINE#         134
  C:688CH         LINE#         135
  C:688DH         LINE#         136
  C:688FH         LINE#         185
  C:6892H         LINE#         196
  -------         ENDMOD        ?C_STARTUP

  -------         MODULE        ?C?FPADD
  C:1EC5H         PUBLIC        ?C?FPADD
  C:1EC1H         PUBLIC        ?C?FPSUB
  -------         ENDMOD        ?C?FPADD

  -------         MODULE        ?C?FPMUL
  C:1FB6H         PUBLIC        ?C?FPMUL
  -------         ENDMOD        ?C?FPMUL

  -------         MODULE        ?C?FPDIV
  C:20BFH         PUBLIC        ?C?FPDIV
  -------         ENDMOD        ?C?FPDIV

  -------         MODULE        ?C?FPCMP
  C:215EH         PUBLIC        ?C?FPCMP
  C:215CH         PUBLIC        ?C?FPCMP3
  -------         ENDMOD        ?C?FPCMP

  -------         MODULE        ?C?FPNEG
  C:21D5H         PUBLIC        ?C?FPNEG
  -------         ENDMOD        ?C?FPNEG

  -------         MODULE        ?C?FCAST
  C:21F0H         PUBLIC        ?C?FCASTC
  C:21EBH         PUBLIC        ?C?FCASTI
  C:21E6H         PUBLIC        ?C?FCASTL
  -------         ENDMOD        ?C?FCAST

  -------         MODULE        ?C?CASTF
  C:2224H         PUBLIC        ?C?CASTF
  -------         ENDMOD        ?C?CASTF

  -------         MODULE        PRINTF
  X:04E9H         PUBLIC        ?_PRINTF?BYTE
  X:04E9H         PUBLIC        ?_SPRINTF?BYTE
  C:44B3H         PUBLIC        _PRINTF
  C:44ADH         PUBLIC        _SPRINTF
  -------         ENDMOD        PRINTF

  -------         MODULE        FABS
  C:71C4H         PUBLIC        _FABS
  -------         ENDMOD        FABS

  -------         MODULE        ATAN2
  X:049FH         PUBLIC        ?_atan2?BYTE
BL51 BANKED LINKER/LOCATER V6.22                                                      08/16/2019  15:59:24  PAGE 59


  C:66B6H         PUBLIC        _atan2
  -------         ENDMOD        ATAN2

  -------         MODULE        SIN
  C:5916H         PUBLIC        _COS
  C:592CH         PUBLIC        _SIN
  C:5968H         PUBLIC        _TAN
  -------         ENDMOD        SIN

  -------         MODULE        ACOS
  C:6C95H         PUBLIC        _ACOS
  -------         ENDMOD        ACOS

  -------         MODULE        ASIN
  C:6DA3H         PUBLIC        _ASIN
  -------         ENDMOD        ASIN

  -------         MODULE        POW
  X:03BCH         PUBLIC        ?_pow?BYTE
  C:5A56H         PUBLIC        _pow
  -------         ENDMOD        POW

  -------         MODULE        ?C?CHKFLOAT
  C:22A5H         PUBLIC        ?C?CHKFLOAT
  -------         ENDMOD        ?C?CHKFLOAT

  -------         MODULE        ?C?FPROUND
  C:22BFH         PUBLIC        ?C?FPROUND
  -------         ENDMOD        ?C?FPROUND

  -------         MODULE        ?C?FPCONVERT
  C:22FCH         PUBLIC        ?C?FPCONVERT
  -------         ENDMOD        ?C?FPCONVERT

  -------         MODULE        EXP
  C:6827H         PUBLIC        _EXP
  -------         ENDMOD        EXP

  -------         MODULE        LOG
  C:5D45H         PUBLIC        _LOG
  C:5D41H         PUBLIC        _LOG10
  -------         ENDMOD        LOG

  -------         MODULE        SQRT
  C:656DH         PUBLIC        _SQRT
  -------         ENDMOD        SQRT

  -------         MODULE        ATAN
  C:5E5AH         PUBLIC        _ATAN
  -------         ENDMOD        ATAN

  -------         MODULE        ?C?FTNPWR
  C:247EH         PUBLIC        ?C?FTNPWR
  -------         ENDMOD        ?C?FTNPWR

  -------         MODULE        ?C?COPY
  C:258EH         PUBLIC        ?C?COPY
BL51 BANKED LINKER/LOCATER V6.22                                                      08/16/2019  15:59:24  PAGE 60


  -------         ENDMOD        ?C?COPY

  -------         MODULE        ?C?CLDPTR
  C:25B4H         PUBLIC        ?C?CLDPTR
  -------         ENDMOD        ?C?CLDPTR

  -------         MODULE        ?C?CLDOPTR
  C:25CDH         PUBLIC        ?C?CLDOPTR
  -------         ENDMOD        ?C?CLDOPTR

  -------         MODULE        ?C?CSTPTR
  C:25FAH         PUBLIC        ?C?CSTPTR
  -------         ENDMOD        ?C?CSTPTR

  -------         MODULE        ?C?IMUL
  C:260CH         PUBLIC        ?C?IMUL
  -------         ENDMOD        ?C?IMUL

  -------         MODULE        ?C?UIDIV
  C:261EH         PUBLIC        ?C?UIDIV
  -------         ENDMOD        ?C?UIDIV

  -------         MODULE        ?C?SIDIV
  C:2673H         PUBLIC        ?C?SIDIV
  -------         ENDMOD        ?C?SIDIV

  -------         MODULE        ?C?ILDIX
  C:26A9H         PUBLIC        ?C?ILDIX
  -------         ENDMOD        ?C?ILDIX

  -------         MODULE        ?C?ILDOPTR
  C:26BFH         PUBLIC        ?C?ILDOPTR
  -------         ENDMOD        ?C?ILDOPTR

  -------         MODULE        ?C?ISTPTR
  C:26F7H         PUBLIC        ?C?ISTPTR
  -------         ENDMOD        ?C?ISTPTR

  -------         MODULE        ?C?LMUL
  C:2716H         PUBLIC        ?C?LMUL
  -------         ENDMOD        ?C?LMUL

  -------         MODULE        ?C?SLDIV
  C:6CDFH         PUBLIC        ?C?SLDIV
  -------         ENDMOD        ?C?SLDIV

  -------         MODULE        ?C?LNEG
  C:2765H         PUBLIC        ?C?LNEG
  -------         ENDMOD        ?C?LNEG

  -------         MODULE        ?C?ULCMP
  C:2773H         PUBLIC        ?C?ULCMP
  -------         ENDMOD        ?C?ULCMP

  -------         MODULE        ?C?LSHL
  C:2784H         PUBLIC        ?C?LSHL
  -------         ENDMOD        ?C?LSHL
BL51 BANKED LINKER/LOCATER V6.22                                                      08/16/2019  15:59:24  PAGE 61



  -------         MODULE        ?C?LLDPTR
  C:2797H         PUBLIC        ?C?LLDPTR
  -------         ENDMOD        ?C?LLDPTR

  -------         MODULE        ?C?LLDOPTR
  C:27B7H         PUBLIC        ?C?LLDOPTR
  -------         ENDMOD        ?C?LLDOPTR

  -------         MODULE        ?C?LSTPTR
  C:27E7H         PUBLIC        ?C?LSTPTR
  -------         ENDMOD        ?C?LSTPTR

  -------         MODULE        ?C?LSTOPTR
  C:2801H         PUBLIC        ?C?LSTOPTR
  -------         ENDMOD        ?C?LSTOPTR

  -------         MODULE        ?C?LLDXDATA
  C:2825H         PUBLIC        ?C?LLDXDATA
  -------         ENDMOD        ?C?LLDXDATA

  -------         MODULE        ?C?LLDCODE
  C:2831H         PUBLIC        ?C?LLDCODE
  -------         ENDMOD        ?C?LLDCODE

  -------         MODULE        ?C?LLDXDATA0
  C:2841H         PUBLIC        ?C?LLDXDATA0
  -------         ENDMOD        ?C?LLDXDATA0

  -------         MODULE        ?C?LLDCODE0
  C:284DH         PUBLIC        ?C?LLDCODE0
  -------         ENDMOD        ?C?LLDCODE0

  -------         MODULE        ?C?LLDPTR0
  C:285DH         PUBLIC        ?C?LLDPTR0
  -------         ENDMOD        ?C?LLDPTR0

  -------         MODULE        ?C?LSTXDATA
  C:287DH         PUBLIC        ?C?LSTXDATA
  -------         ENDMOD        ?C?LSTXDATA

  -------         MODULE        ?C?LSTKXDATA
  C:2889H         PUBLIC        ?C?LSTKXDATA
  -------         ENDMOD        ?C?LSTKXDATA

  -------         MODULE        ?C?LSTKPTR
  C:28BAH         PUBLIC        ?C?LSTKPTR
  -------         ENDMOD        ?C?LSTKPTR

  -------         MODULE        ?C?OFFXADD
  C:28D4H         PUBLIC        ?C?OFFXADD
  -------         ENDMOD        ?C?OFFXADD

  -------         MODULE        ?C?PLDIXDATA
  C:28E0H         PUBLIC        ?C?PLDIXDATA
  -------         ENDMOD        ?C?PLDIXDATA

BL51 BANKED LINKER/LOCATER V6.22                                                      08/16/2019  15:59:24  PAGE 62


  -------         MODULE        ?C?PSTXDATA
  C:28F7H         PUBLIC        ?C?PSTXDATA
  -------         ENDMOD        ?C?PSTXDATA

  -------         MODULE        ?C?CCASE
  C:2900H         PUBLIC        ?C?CCASE
  -------         ENDMOD        ?C?CCASE

  -------         MODULE        PUTCHAR
  C:6F39H         PUBLIC        _PUTCHAR
  -------         ENDMOD        PUTCHAR

  -------         MODULE        ABS
  C:71DDH         PUBLIC        _ABS
  -------         ENDMOD        ABS

  -------         MODULE        ATOI
  C:6263H         PUBLIC        _atoi
  -------         ENDMOD        ATOI

  -------         MODULE        ?C?IILDX
  C:2926H         PUBLIC        ?C?IILDX
  -------         ENDMOD        ?C?IILDX

  -------         MODULE        ?C?ULDIV
  C:2978H         PUBLIC        ?C?ULDIV
  -------         ENDMOD        ?C?ULDIV

  -------         MODULE        ?C?LLDIDATA
  C:2A0AH         PUBLIC        ?C?LLDIDATA
  -------         ENDMOD        ?C?LLDIDATA

  -------         MODULE        ?C?LLDPDATA
  C:2A16H         PUBLIC        ?C?LLDPDATA
  -------         ENDMOD        ?C?LLDPDATA

  -------         MODULE        ?C?LLDIDATA0
  C:2A22H         PUBLIC        ?C?LLDIDATA0
  -------         ENDMOD        ?C?LLDIDATA0

  -------         MODULE        ?C?LLDPDATA0
  C:2A2FH         PUBLIC        ?C?LLDPDATA0
  -------         ENDMOD        ?C?LLDPDATA0

  -------         MODULE        ?C?LSTIDATA
  C:2A3CH         PUBLIC        ?C?LSTIDATA
  -------         ENDMOD        ?C?LSTIDATA

  -------         MODULE        ?C?LSTPDATA
  C:2A48H         PUBLIC        ?C?LSTPDATA
  -------         ENDMOD        ?C?LSTPDATA

  -------         MODULE        ?C?LSTKIDATA
  C:2A54H         PUBLIC        ?C?LSTKIDATA
  -------         ENDMOD        ?C?LSTKIDATA

  -------         MODULE        ?C?LSTKPDATA
BL51 BANKED LINKER/LOCATER V6.22                                                      08/16/2019  15:59:24  PAGE 63


  C:2A6DH         PUBLIC        ?C?LSTKPDATA
  -------         ENDMOD        ?C?LSTKPDATA

  -------         MODULE        ISDIGIT
  C:719BH         PUBLIC        _isdigit
  -------         ENDMOD        ISDIGIT

  -------         MODULE        ISSPACE
  C:7136H         PUBLIC        _isspace
  -------         ENDMOD        ISSPACE

*** WARNING L16: UNCALLED SEGMENT, IGNORED FOR OVERLAY PROCESS
    SEGMENT: ?PR?_DAY_OF_YEAR?PCF85063BTL

*** WARNING L16: UNCALLED SEGMENT, IGNORED FOR OVERLAY PROCESS
    SEGMENT: ?PR?NOP?IOEXPANDER_PI4IOE5V96248

*** WARNING L16: UNCALLED SEGMENT, IGNORED FOR OVERLAY PROCESS
    SEGMENT: ?PR?UC_ACK?IOEXPANDER_PI4IOE5V96248

*** WARNING L16: UNCALLED SEGMENT, IGNORED FOR OVERLAY PROCESS
    SEGMENT: ?PR?UC_NACK?IOEXPANDER_PI4IOE5V96248

*** WARNING L16: UNCALLED SEGMENT, IGNORED FOR OVERLAY PROCESS
    SEGMENT: ?PR?_TEN?UART1

*** WARNING L16: UNCALLED SEGMENT, IGNORED FOR OVERLAY PROCESS
    SEGMENT: ?PR?_UNIT?UART1

*** WARNING L16: UNCALLED SEGMENT, IGNORED FOR OVERLAY PROCESS
    SEGMENT: ?PR?_DECTOBCD?UART1

*** WARNING L16: UNCALLED SEGMENT, IGNORED FOR OVERLAY PROCESS
    SEGMENT: ?PR?_ASCII_LETTER?UART1

*** WARNING L16: UNCALLED SEGMENT, IGNORED FOR OVERLAY PROCESS
    SEGMENT: ?PR?_ASCIITOBCD?UART1

Program Size: data=15.4 xdata=1622 code=29222
LINK/LOCATE RUN COMPLETE.  9 WARNING(S),  0 ERROR(S)
