BL51 BANKED LINKER/LOCATER V6.22                                                        08/14/2018  14:42:08  PAGE 1


BL51 BANKED LINKER/LOCATER V6.22, INVOKED BY:
C:\KEIL_V5\C51\BIN\BL51.EXE .\Obj\main.obj, .\Obj\PCF85063BTL.obj, .\Obj\UART1.obj, .\Obj\LCd_Driver_SPLC780D.obj, .\Obj
>> \KeyPad.obj, .\Obj\VCNL4035.obj, .\Obj\BipolarMotor.obj, .\Obj\STARTUP.obj TO .\Obj\GPIO_RTC_Test PRINT (.\Lis\GPIO_R
>> TC_Test.m51) RAMSIZE (256)


MEMORY MODEL: LARGE WITH FLOATING POINT ARITHMETIC


INPUT MODULES INCLUDED:
  .\Obj\main.obj (MAIN)
  .\Obj\PCF85063BTL.obj (PCF85063BTL)
  .\Obj\UART1.obj (UART1)
  .\Obj\LCd_Driver_SPLC780D.obj (LCD_DRIVER_SPLC780D)
  .\Obj\KeyPad.obj (KEYPAD)
  .\Obj\VCNL4035.obj (VCNL4035)
  .\Obj\BipolarMotor.obj (BIPOLARMOTOR)
  .\Obj\STARTUP.obj (?C_STARTUP)
  C:\KEIL_V5\C51\LIB\C51FPL.LIB (?C?FPADD)
  C:\KEIL_V5\C51\LIB\C51FPL.LIB (?C?FPMUL)
  C:\KEIL_V5\C51\LIB\C51FPL.LIB (?C?FPDIV)
  C:\KEIL_V5\C51\LIB\C51FPL.LIB (?C?FPCMP)
  C:\KEIL_V5\C51\LIB\C51FPL.LIB (?C?FPNEG)
  C:\KEIL_V5\C51\LIB\C51FPL.LIB (?C?FCAST)
  C:\KEIL_V5\C51\LIB\C51FPL.LIB (?C?CASTF)
  C:\KEIL_V5\C51\LIB\C51FPL.LIB (POW)
  C:\KEIL_V5\C51\LIB\C51FPL.LIB (?C?FPGETOPN)
  C:\KEIL_V5\C51\LIB\C51FPL.LIB (?C?CHKFLOAT)
  C:\KEIL_V5\C51\LIB\C51FPL.LIB (EXP)
  C:\KEIL_V5\C51\LIB\C51FPL.LIB (LOG)
  C:\KEIL_V5\C51\LIB\C51FPL.LIB (?C?FPSERIES)
  C:\KEIL_V5\C51\LIB\C51L.LIB (?C_INIT)
  C:\KEIL_V5\C51\LIB\C51L.LIB (?C?CLDPTR)
  C:\KEIL_V5\C51\LIB\C51L.LIB (?C?CSTPTR)
  C:\KEIL_V5\C51\LIB\C51L.LIB (?C?IMUL)
  C:\KEIL_V5\C51\LIB\C51L.LIB (?C?UIDIV)
  C:\KEIL_V5\C51\LIB\C51L.LIB (?C?SIDIV)
  C:\KEIL_V5\C51\LIB\C51L.LIB (?C?ILDIX)
  C:\KEIL_V5\C51\LIB\C51L.LIB (?C?LNEG)
  C:\KEIL_V5\C51\LIB\C51L.LIB (?C?LLDPTR)
  C:\KEIL_V5\C51\LIB\C51L.LIB (?C?LSTPTR)
  C:\KEIL_V5\C51\LIB\C51L.LIB (?C?LLDCODE)
  C:\KEIL_V5\C51\LIB\C51L.LIB (?C?LLDXDATA0)
  C:\KEIL_V5\C51\LIB\C51L.LIB (?C?LLDCODE0)
  C:\KEIL_V5\C51\LIB\C51L.LIB (?C?LLDPTR0)
  C:\KEIL_V5\C51\LIB\C51L.LIB (?C?LSTXDATA)
  C:\KEIL_V5\C51\LIB\C51L.LIB (?C?LSTKXDATA)
  C:\KEIL_V5\C51\LIB\C51L.LIB (?C?OFFXADD)
  C:\KEIL_V5\C51\LIB\C51L.LIB (ABS)
  C:\KEIL_V5\C51\LIB\C51L.LIB (ATOI)
  C:\KEIL_V5\C51\LIB\C51L.LIB (?C?IILDX)
  C:\KEIL_V5\C51\LIB\C51L.LIB (?C?LLDIDATA)
  C:\KEIL_V5\C51\LIB\C51L.LIB (?C?LLDXDATA)
  C:\KEIL_V5\C51\LIB\C51L.LIB (?C?LLDPDATA)
  C:\KEIL_V5\C51\LIB\C51L.LIB (?C?LLDIDATA0)
  C:\KEIL_V5\C51\LIB\C51L.LIB (?C?LLDPDATA0)
  C:\KEIL_V5\C51\LIB\C51L.LIB (?C?LSTIDATA)
  C:\KEIL_V5\C51\LIB\C51L.LIB (?C?LSTPDATA)
BL51 BANKED LINKER/LOCATER V6.22                                                      08/14/2018  14:42:08  PAGE 2


  C:\KEIL_V5\C51\LIB\C51L.LIB (ISDIGIT)
  C:\KEIL_V5\C51\LIB\C51L.LIB (ISSPACE)


LINK MAP OF MODULE:  .\Obj\GPIO_RTC_Test (MAIN)


            TYPE    BASE      LENGTH    RELOCATION   SEGMENT NAME
            -----------------------------------------------------

            * * * * * * *   D A T A   M E M O R Y   * * * * * * *
            REG     0000H     0008H     ABSOLUTE     "REG BANK 0"
            REG     0008H     0008H     ABSOLUTE     "REG BANK 1"
                    0010H     0010H                  *** GAP ***
            BIT     0020H.0   0000H.3   UNIT         ?BI?KEYPAD
            BIT     0020H.3   0000H.3   UNIT         _BIT_GROUP_
            BIT     0020H.6   0000H.1   UNIT         ?BI?MAIN
                    0020H.7   0000H.1                *** GAP ***
            IDATA   0021H     0001H     UNIT         ?STACK

            * * * * * * *  X D A T A   M E M O R Y  * * * * * * *
            XDATA   0000H     007CH     UNIT         ?XD?BIPOLARMOTOR
            XDATA   007CH     004AH     UNIT         _XDATA_GROUP_
            XDATA   00C6H     001CH     UNIT         ?XD?MAIN
            XDATA   00E2H     0009H     UNIT         ?XD?KEYPAD
            XDATA   00EBH     0008H     UNIT         ?XD?_READ_VCNL4035?VCNL4035
            XDATA   00F3H     0004H     UNIT         ?XD?_DISPLAY_PROX?MAIN
            XDATA   00F7H     0003H     UNIT         ?XD?_SENDSTRING?UART1
            XDATA   00FAH     0003H     UNIT         ?XD?_WRITE_VCNL4035X?VCNL4035
            XDATA   00FDH     0001H     UNIT         ?XD?I2C_ACK?VCNL4035
            XDATA   00FEH     0001H     UNIT         ?XD?UC_ACK?VCNL4035
            XDATA   00FFH     0001H     UNIT         ?XD?UC_NACK?VCNL4035
            XDATA   0100H     0001H     UNIT         ?XD?_DISPLAYLCD_VCNL4035?VCNL4035

            * * * * * * *   C O D E   M E M O R Y   * * * * * * *
            CODE    0000H     0003H     ABSOLUTE     
            CODE    0003H     0007H     UNIT         ?PR?KEYPAD_IO_INIT?KEYPAD
            CODE    000AH     0001H     UNIT         ?PR?TM0_ISR?MAIN
            CODE    000BH     0003H     ABSOLUTE     
            CODE    000EH     0015H     UNIT         ?PR?_DISPLAY_LINE?LCD_DRIVER_SPLC780D
            CODE    0023H     0003H     ABSOLUTE     
            CODE    0026H     0675H     UNIT         ?C?LIB_CODE
            CODE    069BH     028DH     UNIT         ?PR?KEY_PROCESS?KEYPAD
            CODE    0928H     0283H     UNIT         ?PR?MAIN?MAIN
            CODE    0BABH     022FH     UNIT         ?PR?_UPDATE_POSITION?BIPOLARMOTOR
            CODE    0DDAH     01F5H     UNIT         ?PR?_TREND_LINE_30_31?BIPOLARMOTOR
            CODE    0FCFH     01B5H     UNIT         ?PR?_DISPLAY_POS?MAIN
            CODE    1184H     0194H     UNIT         ?PR?KEY_SCAN?KEYPAD
            CODE    1318H     0166H     UNIT         ?PR?_POW?POW
            CODE    147EH     0129H     UNIT         ?PR?LOG?LOG
            CODE    15A7H     00DBH     UNIT         ?PR?_ATOI?ATOI
            CODE    1682H     00C5H     UNIT         ?C_INITSEG
            CODE    1747H     009BH     UNIT         ?PR?UART?MAIN
            CODE    17E2H     009AH     UNIT         ?PR?_READ_VCNL4035?VCNL4035
            CODE    187CH     009AH     UNIT         ?PR?EXP?EXP
            CODE    1916H     0095H     UNIT         ?PR?_DISPLAY_PROX?MAIN
            CODE    19ABH     008CH     UNIT         ?C_C51STARTUP
BL51 BANKED LINKER/LOCATER V6.22                                                      08/14/2018  14:42:08  PAGE 3


            CODE    1A37H     0084H     UNIT         ?PR?_DAY_OF_YEAR?PCF85063BTL
            CODE    1ABBH     0075H     UNIT         ?PR?_WRITEDATA?LCD_DRIVER_SPLC780D
            CODE    1B30H     006FH     UNIT         ?PR?_READ_TIME?PCF85063BTL
            CODE    1B9FH     0059H     UNIT         ?PR?_STEP_MOVE?BIPOLARMOTOR
            CODE    1BF8H     0058H     UNIT         ?PR?LCD_INIT?LCD_DRIVER_SPLC780D
            CODE    1C50H     0049H     UNIT         ?PR?_WRITE_VCNL4035X?VCNL4035
            CODE    1C99H     0040H     UNIT         ?PR?_COMMAND?LCD_DRIVER_SPLC780D
            CODE    1CD9H     0034H     UNIT         ?PR?_MOVE?BIPOLARMOTOR
            CODE    1D0DH     0033H     UNIT         ?PR?_SENDSTRING?UART1
            CODE    1D40H     002CH     UNIT         ?PR?I2C_RECEIVEBYTE?VCNL4035
            CODE    1D6CH     002BH     UNIT         ?PR?_WAIT_MS_I2C?VCNL4035
            CODE    1D97H     0024H     UNIT         ?PR?_WAIT_MS?LCD_DRIVER_SPLC780D
            CODE    1DBBH     0024H     UNIT         ?PR?_BCDTODEC1?BIPOLARMOTOR
            CODE    1DDFH     0022H     UNIT         ?PR?_I2C_SENDBYTE?VCNL4035
            CODE    1E01H     0020H     UNIT         ?PR?_SPI_SENDBYTE?PCF85063BTL
            CODE    1E21H     0020H     UNIT         ?PR?SPI_RECEIVEBYTE?PCF85063BTL
            CODE    1E41H     001EH     UNIT         ?PR?_DELAY_MS?KEYPAD
            CODE    1E5FH     001EH     UNIT         ?PR?_WAIT_MS_IIC?VCNL4035
            CODE    1E7DH     001DH     UNIT         ?PR?_DISPLAYLCD?LCD_DRIVER_SPLC780D
            CODE    1E9AH     001BH     UNIT         ?PR?I2C_ACK?VCNL4035
            CODE    1EB5H     0018H     UNIT         ?PR?_SPI_WRITETIME?PCF85063BTL
            CODE    1ECDH     0017H     UNIT         ?PR?_ASCIITOBCD?UART1
            CODE    1EE4H     0017H     UNIT         ?PR?I2C_INIT?VCNL4035
            CODE    1EFBH     0015H     UNIT         ?PR?I2C_STOP?VCNL4035
            CODE    1F10H     0014H     UNIT         ?PR?_PCF85063BTL_DELAY?PCF85063BTL
            CODE    1F24H     0014H     UNIT         ?PR?_ISSPACE?ISSPACE
            CODE    1F38H     0013H     UNIT         ?PR?I2C_START?VCNL4035
            CODE    1F4BH     0011H     UNIT         ?PR?_SPI_READTIME?PCF85063BTL
            CODE    1F5CH     0011H     UNIT         ?PR?_BCDTODEC?PCF85063BTL
            CODE    1F6DH     0011H     UNIT         ?PR?INITUART1?UART1
            CODE    1F7EH     000FH     UNIT         ?PR?UC_NACK?VCNL4035
            CODE    1F8DH     000FH     UNIT         ?PR?_ISDIGIT?ISDIGIT
            CODE    1F9CH     000DH     UNIT         ?PR?SPI_INIT?PCF85063BTL
            CODE    1FA9H     000CH     UNIT         ?PR?_ABS?ABS
            CODE    1FB5H     000AH     UNIT         ?PR?LCD_RETURN_HOME?LCD_DRIVER_SPLC780D
            CODE    1FBFH     000AH     UNIT         ?PR?LCD_CLEAR?LCD_DRIVER_SPLC780D
            CODE    1FC9H     0009H     UNIT         ?PR?_SENDUART1?MAIN
            CODE    1FD2H     0006H     UNIT         ?PR?_TEN?UART1
            CODE    1FD8H     0006H     UNIT         ?PR?UC_ACK?VCNL4035
            CODE    1FDEH     0006H     UNIT         ?PR?_DISPLAYLCD_VCNL4035?VCNL4035
            CODE    1FE4H     0005H     UNIT         ?PR?_UNIT?UART1
            CODE    1FE9H     0005H     UNIT         ?PR?_ASCII_LETTER?UART1
            CODE    1FEEH     0001H     UNIT         ?PR?_DECTOBCD?UART1
            CODE    1FEFH     0001H     UNIT         ?PR?NOP?VCNL4035



OVERLAY MAP OF MODULE:   .\Obj\GPIO_RTC_Test (MAIN)


SEGMENT                                            BIT_GROUP          XDATA_GROUP
  +--> CALLED SEGMENT                           START    LENGTH     START    LENGTH
-----------------------------------------------------------------------------------
?PR?UART?MAIN                                   -----    -----      -----    -----
  +--> ?PR?_ASCIITOBCD?UART1

?PR?_ASCIITOBCD?UART1                           -----    -----      -----    -----
BL51 BANKED LINKER/LOCATER V6.22                                                      08/14/2018  14:42:08  PAGE 4


  +--> ?PR?_ATOI?ATOI

?PR?_ATOI?ATOI                                  0020H.3  0000H.1    007CH    0005H
  +--> ?PR?_ISSPACE?ISSPACE
  +--> ?PR?_ISDIGIT?ISDIGIT

*** NEW ROOT ***************************************************

?C_C51STARTUP                                   -----    -----      -----    -----
  +--> ?PR?MAIN?MAIN
  +--> ?C_INITSEG

?PR?MAIN?MAIN                                   -----    -----      0081H    0017H
  +--> ?PR?LCD_INIT?LCD_DRIVER_SPLC780D
  +--> ?PR?KEYPAD_IO_INIT?KEYPAD
  +--> ?PR?_DELAY_MS?KEYPAD
  +--> ?PR?_DISPLAY_LINE?LCD_DRIVER_SPLC780D
  +--> ?PR?_WRITEDATA?LCD_DRIVER_SPLC780D
  +--> ?PR?KEY_PROCESS?KEYPAD
  +--> ?PR?_COMMAND?LCD_DRIVER_SPLC780D
  +--> ?PR?_DISPLAY_POS?MAIN
  +--> ?PR?_DISPLAYLCD?LCD_DRIVER_SPLC780D
  +--> ?PR?_STEP_MOVE?BIPOLARMOTOR
  +--> ?PR?LCD_RETURN_HOME?LCD_DRIVER_SPLC780D
  +--> ?PR?_READ_TIME?PCF85063BTL
  +--> ?PR?_UPDATE_POSITION?BIPOLARMOTOR
  +--> ?PR?_SPI_WRITETIME?PCF85063BTL
  +--> ?PR?_SENDUART1?MAIN

?PR?LCD_INIT?LCD_DRIVER_SPLC780D                -----    -----      -----    -----
  +--> ?PR?_WAIT_MS?LCD_DRIVER_SPLC780D
  +--> ?PR?_COMMAND?LCD_DRIVER_SPLC780D

?PR?_COMMAND?LCD_DRIVER_SPLC780D                -----    -----      -----    -----
  +--> ?PR?_WAIT_MS?LCD_DRIVER_SPLC780D

?PR?_DISPLAY_LINE?LCD_DRIVER_SPLC780D           -----    -----      -----    -----
  +--> ?PR?_COMMAND?LCD_DRIVER_SPLC780D

?PR?_WRITEDATA?LCD_DRIVER_SPLC780D              -----    -----      00A2H    0001H
  +--> ?PR?_WAIT_MS?LCD_DRIVER_SPLC780D

?PR?KEY_PROCESS?KEYPAD                          -----    -----      0098H    0006H
  +--> ?PR?KEY_SCAN?KEYPAD
  +--> ?PR?_SPI_WRITETIME?PCF85063BTL
  +--> ?PR?LCD_CLEAR?LCD_DRIVER_SPLC780D
  +--> ?PR?_COMMAND?LCD_DRIVER_SPLC780D
  +--> ?PR?_WRITEDATA?LCD_DRIVER_SPLC780D

?PR?KEY_SCAN?KEYPAD                             -----    -----      009EH    0003H
  +--> ?PR?_DELAY_MS?KEYPAD

?PR?_SPI_WRITETIME?PCF85063BTL                  -----    -----      -----    -----
  +--> ?PR?_SPI_SENDBYTE?PCF85063BTL

?PR?_SPI_SENDBYTE?PCF85063BTL                   -----    -----      -----    -----
  +--> ?PR?_PCF85063BTL_DELAY?PCF85063BTL
BL51 BANKED LINKER/LOCATER V6.22                                                      08/14/2018  14:42:08  PAGE 5



?PR?LCD_CLEAR?LCD_DRIVER_SPLC780D               -----    -----      -----    -----
  +--> ?PR?_COMMAND?LCD_DRIVER_SPLC780D

?PR?_DISPLAY_POS?MAIN                           -----    -----      0098H    000AH
  +--> ?PR?_ABS?ABS
  +--> ?PR?_WRITEDATA?LCD_DRIVER_SPLC780D

?PR?_DISPLAYLCD?LCD_DRIVER_SPLC780D             -----    -----      0098H    0001H
  +--> ?PR?_WRITEDATA?LCD_DRIVER_SPLC780D

?PR?_STEP_MOVE?BIPOLARMOTOR                     0020H.5  0000H.1    00B4H    0004H
  +--> ?PR?_WAIT_MS?LCD_DRIVER_SPLC780D

?PR?LCD_RETURN_HOME?LCD_DRIVER_SPLC780D         -----    -----      -----    -----
  +--> ?PR?_COMMAND?LCD_DRIVER_SPLC780D

?PR?_READ_TIME?PCF85063BTL                      -----    -----      0098H    000FH
  +--> ?PR?_SPI_READTIME?PCF85063BTL

?PR?_SPI_READTIME?PCF85063BTL                   -----    -----      -----    -----
  +--> ?PR?_SPI_SENDBYTE?PCF85063BTL
  +--> ?PR?SPI_RECEIVEBYTE?PCF85063BTL

?PR?SPI_RECEIVEBYTE?PCF85063BTL                 -----    -----      -----    -----
  +--> ?PR?_PCF85063BTL_DELAY?PCF85063BTL

?PR?_UPDATE_POSITION?BIPOLARMOTOR               -----    -----      0098H    0018H
  +--> ?PR?_DAY_OF_YEAR?PCF85063BTL
  +--> ?PR?_BCDTODEC1?BIPOLARMOTOR
  +--> ?PR?_TREND_LINE_30_31?BIPOLARMOTOR
  +--> ?PR?_MOVE?BIPOLARMOTOR

?PR?_DAY_OF_YEAR?PCF85063BTL                    -----    -----      -----    -----
  +--> ?PR?_BCDTODEC?PCF85063BTL

?PR?_TREND_LINE_30_31?BIPOLARMOTOR              -----    -----      00B0H    0008H
  +--> ?PR?_POW?POW

?PR?_POW?POW                                    -----    -----      00B8H    000AH
  +--> ?PR?LOG?LOG
  +--> ?PR?EXP?EXP

?PR?LOG?LOG                                     0020H.4  0000H.1    00C2H    0004H

?PR?_MOVE?BIPOLARMOTOR                          0020H.4  0000H.1    00B0H    0004H
  +--> ?PR?_STEP_MOVE?BIPOLARMOTOR



UNRESOLVED EXTERNAL SYMBOLS:
   AUTO_MODE



SYMBOL TABLE OF MODULE:  .\Obj\GPIO_RTC_Test (MAIN)

BL51 BANKED LINKER/LOCATER V6.22                                                      08/14/2018  14:42:08  PAGE 6


  VALUE           TYPE          NAME
  ----------------------------------

  -------         MODULE        MAIN
  C:0000H         SYMBOL        _ICE_DUMMY_
  D:0080H         PUBLIC        P0
  D:0090H         PUBLIC        P1
  D:00A0H         PUBLIC        P2
  D:00B0H         PUBLIC        P3
  D:00C0H         PUBLIC        P4
  D:00C8H         PUBLIC        P5
  X:00CEH         SYMBOL        PressedKey
  B:00A8H.7       PUBLIC        EA
  D:00E8H         PUBLIC        P6
  D:00F8H         PUBLIC        P7
  X:00D2H         PUBLIC        RX_Data_Uart_Cnt
  D:00A8H         PUBLIC        IE
  D:00B8H         PUBLIC        IP
  B:0098H.0       PUBLIC        RI
  B:0098H.1       PUBLIC        TI
  C:1747H         PUBLIC        Uart
  D:00D8H         PUBLIC        CCON
  C:0928H         PUBLIC        main
  D:0099H         PUBLIC        SBUF
  D:0098H         PUBLIC        SCON
  D:0089H         PUBLIC        TMOD
  D:0088H         PUBLIC        TCON
  B:00B0H.3       PUBLIC        P33
  X:00D4H         SYMBOL        KeyCount
  X:00D6H         PUBLIC        Rec_data_hour
  X:00D9H         PUBLIC        Rec_data_min
  D:008EH         PUBLIC        AUXR
  C:000AH         PUBLIC        tm0_isr
  B:0020H.6       PUBLIC        busy
  D:00E0H         PUBLIC        ACC
  B:00A8H.1       PUBLIC        ET0
  D:008CH         PUBLIC        TH0
  X:00DCH         PUBLIC        hour_count
  D:008AH         PUBLIC        TL0
  X:00DDH         PUBLIC        min_count
  B:0088H.4       PUBLIC        TR0
  X:00DEH         SYMBOL        KeyNum
  X:00DFH         SYMBOL        KeyNum_Old
  C:1916H         PUBLIC        _Display_Prox
  C:0FCFH         PUBLIC        _Display_Pos
  X:00E0H         PUBLIC        st_time
  D:00D0H         PUBLIC        PSW
  C:1FC9H         PUBLIC        _SendUART1
  -------         PROC          TM0_ISR
  C:000AH         LINE#         53
  C:000AH         LINE#         56
  -------         ENDPROC       TM0_ISR
  -------         PROC          MAIN
  -------         DO            
  X:0081H         SYMBOL        seconds
  X:0082H         SYMBOL        mins
  X:0083H         SYMBOL        hours
BL51 BANKED LINKER/LOCATER V6.22                                                      08/14/2018  14:42:08  PAGE 7


  X:0084H         SYMBOL        days
  X:0085H         SYMBOL        months
  X:0086H         SYMBOL        mins1
  X:0087H         SYMBOL        hours1
  X:0088H         SYMBOL        mins2
  X:0089H         SYMBOL        hours2
  X:008AH         SYMBOL        prox_data
  X:00C6H         SYMBOL        KeyCount
  X:00C8H         SYMBOL        KeyNum_Old
  X:00C9H         SYMBOL        KeyNum
  X:00CAH         SYMBOL        PressedKey
  X:008CH         SYMBOL        prox_flag
  X:008DH         SYMBOL        count
  X:008FH         SYMBOL        numStr
  X:0094H         SYMBOL        current_position
  -------         ENDDO         
  C:0928H         LINE#         58
  C:0928H         LINE#         59
  C:0928H         LINE#         64
  C:092EH         LINE#         66
  C:0933H         LINE#         68
  C:093DH         LINE#         69
  C:093FH         LINE#         70
  C:0941H         LINE#         71
  C:0943H         LINE#         72
  C:0945H         LINE#         81
  C:0948H         LINE#         83
  C:094BH         LINE#         87
  C:094EH         LINE#         88
  C:0951H         LINE#         89
  C:0954H         LINE#         90
  C:0956H         LINE#         91
  C:0958H         LINE#         92
  C:095AH         LINE#         94
  C:095CH         LINE#         96
  C:0963H         LINE#         98
  C:096AH         LINE#         102
  C:0971H         LINE#         103
  C:0976H         LINE#         104
  C:097BH         LINE#         105
  C:0980H         LINE#         106
  C:0985H         LINE#         107
  C:098AH         LINE#         110
  C:098AH         LINE#         111
  C:098AH         LINE#         112
  C:098DH         LINE#         113
  C:099BH         LINE#         115
  C:099BH         LINE#         118
  C:09A0H         LINE#         119
  C:09A5H         LINE#         121
  C:09AAH         LINE#         122
  C:09AFH         LINE#         123
  C:09B4H         LINE#         124
  C:09B9H         LINE#         126
  C:09CAH         LINE#         128
  C:09D1H         LINE#         129
  C:09D9H         LINE#         130
BL51 BANKED LINKER/LOCATER V6.22                                                      08/14/2018  14:42:08  PAGE 8


  C:09DEH         LINE#         131
  C:09E6H         LINE#         132
  C:09EBH         LINE#         133
  C:09F5H         LINE#         134
  C:09FAH         LINE#         135
  C:0A02H         LINE#         137
  C:0A0AH         LINE#         138
  C:0A0DH         LINE#         139
  C:0A0DH         LINE#         140
  C:0A0FH         LINE#         141
  C:0A11H         LINE#         143
  C:0A11H         LINE#         144
  C:0A16H         LINE#         145
  C:0A16H         LINE#         157
  C:0A19H         LINE#         158
  C:0A19H         LINE#         159
  C:0A24H         LINE#         160
  C:0A3BH         LINE#         161
  C:0A3BH         LINE#         162
  C:0A3DH         LINE#         163
  C:0A3FH         LINE#         165
  C:0A3FH         LINE#         166
  C:0A4AH         LINE#         167
  C:0A4AH         LINE#         168
  C:0A4FH         LINE#         169
  C:0A4FH         LINE#         170
  C:0A52H         LINE#         171
  C:0A52H         LINE#         172
  C:0A54H         LINE#         173
  C:0A5FH         LINE#         174
  C:0A76H         LINE#         175
  C:0A76H         LINE#         176
  C:0A78H         LINE#         177
  C:0A7AH         LINE#         179
  C:0A7AH         LINE#         180
  C:0A85H         LINE#         181
  C:0A85H         LINE#         182
  C:0A8AH         LINE#         183
  C:0A8AH         LINE#         191
  C:0AACH         LINE#         192
  C:0AACH         LINE#         193
  C:0AB6H         LINE#         194
  C:0ABCH         LINE#         195
  C:0ABEH         LINE#         196
  C:0AC0H         LINE#         197
  C:0AC2H         LINE#         198
  C:0AC2H         LINE#         199
  C:0AC5H         LINE#         201
  C:0AC5H         LINE#         202
  C:0ACDH         LINE#         203
  C:0AD5H         LINE#         204
  C:0ADDH         LINE#         205
  C:0AE5H         LINE#         206
  C:0B20H         LINE#         210
  C:0B23H         LINE#         211
  C:0B23H         LINE#         212
  C:0B4AH         LINE#         213
BL51 BANKED LINKER/LOCATER V6.22                                                      08/14/2018  14:42:08  PAGE 9


  C:0B70H         LINE#         214
  C:0B70H         LINE#         218
  C:0B7DH         LINE#         219
  C:0B7DH         LINE#         220
  C:0B87H         LINE#         221
  C:0B91H         LINE#         222
  C:0B98H         LINE#         223
  C:0BA0H         LINE#         224
  C:0BA8H         LINE#         225
  -------         ENDPROC       MAIN
  -------         PROC          UART
  C:1747H         LINE#         238
  C:1754H         LINE#         240
  C:1757H         LINE#         241
  C:1757H         LINE#         242
  C:1765H         LINE#         243
  C:1767H         LINE#         244
  C:1779H         LINE#         245
  C:1788H         LINE#         246
  C:1793H         LINE#         247
  C:1793H         LINE#         250
  C:17A0H         LINE#         251
  C:17A6H         LINE#         252
  C:17A6H         LINE#         253
  C:17ACH         LINE#         254
  C:17BAH         LINE#         255
  C:17C8H         LINE#         256
  C:17D0H         LINE#         261
  C:17D0H         LINE#         262
  C:17D0H         LINE#         265
  C:17D0H         LINE#         266
  C:17D3H         LINE#         267
  C:17D3H         LINE#         268
  C:17D5H         LINE#         269
  C:17D7H         LINE#         270
  C:17D7H         LINE#         271
  -------         ENDPROC       UART
  -------         PROC          _SENDUART1
  D:0007H         SYMBOL        dat
  C:1FC9H         LINE#         274
  C:1FC9H         LINE#         275
  C:1FC9H         LINE#         276
  C:1FCCH         LINE#         277
  C:1FCEH         LINE#         278
  C:1FCFH         LINE#         279
  C:1FD1H         LINE#         280
  -------         ENDPROC       _SENDUART1
  -------         PROC          _DISPLAY_PROX
  D:0002H         SYMBOL        dat
  -------         DO            
  X:00F3H         SYMBOL        unit
  X:00F4H         SYMBOL        ten
  X:00F5H         SYMBOL        hundred
  X:00F6H         SYMBOL        thousand
  -------         ENDDO         
  C:1916H         LINE#         283
  C:191AH         LINE#         284
BL51 BANKED LINKER/LOCATER V6.22                                                      08/14/2018  14:42:08  PAGE 10


  C:191AH         LINE#         286
  C:1926H         LINE#         287
  C:1936H         LINE#         288
  C:1952H         LINE#         289
  C:1982H         LINE#         290
  C:198CH         LINE#         291
  C:1996H         LINE#         292
  C:19A0H         LINE#         293
  C:19AAH         LINE#         295
  -------         ENDPROC       _DISPLAY_PROX
  -------         PROC          _DISPLAY_POS
  X:0098H         SYMBOL        sign_dat
  -------         DO            
  X:009CH         SYMBOL        unit
  X:009DH         SYMBOL        ten
  X:009EH         SYMBOL        hundred
  D:0003H         SYMBOL        thousand
  X:009FH         SYMBOL        after_dot
  X:00A0H         SYMBOL        dat
  -------         ENDDO         
  C:0FCFH         LINE#         298
  C:0FD5H         LINE#         299
  C:0FD5H         LINE#         303
  C:0FF1H         LINE#         304
  C:100BH         LINE#         305
  C:102FH         LINE#         307
  C:1079H         LINE#         309
  C:1090H         LINE#         310
  C:109DH         LINE#         311
  C:10BFH         LINE#         312
  C:10F4H         LINE#         313
  C:110CH         LINE#         314
  C:110CH         LINE#         316
  C:1116H         LINE#         317
  C:1120H         LINE#         318
  C:112AH         LINE#         319
  C:112FH         LINE#         320
  C:1139H         LINE#         321
  C:113EH         LINE#         322
  C:1143H         LINE#         323
  C:1145H         LINE#         324
  C:1147H         LINE#         326
  C:1147H         LINE#         328
  C:114CH         LINE#         329
  C:1156H         LINE#         330
  C:1160H         LINE#         331
  C:116AH         LINE#         332
  C:116FH         LINE#         333
  C:1179H         LINE#         334
  C:117EH         LINE#         335
  C:1183H         LINE#         337
  C:1183H         LINE#         339
  -------         ENDPROC       _DISPLAY_POS
  -------         ENDMOD        MAIN

  -------         MODULE        PCF85063BTL
  C:0000H         SYMBOL        _ICE_DUMMY_
BL51 BANKED LINKER/LOCATER V6.22                                                      08/14/2018  14:42:08  PAGE 11


  D:0096H         PUBLIC        P2M0
  D:0080H         PUBLIC        P0
  D:0095H         PUBLIC        P2M1
  D:0090H         PUBLIC        P1
  D:00A0H         PUBLIC        P2
  D:00B0H         PUBLIC        P3
  D:00C0H         PUBLIC        P4
  D:00C8H         PUBLIC        P5
  D:00E8H         PUBLIC        P6
  B:00A0H.2       PUBLIC        PCF85063BTL_SDI
  D:00F8H         PUBLIC        P7
  B:00A0H.1       PUBLIC        PCF85063BTL_SCK
  B:00A0H.2       PUBLIC        PCF85063BTL_SDO
  D:00A8H         PUBLIC        IE
  C:1B30H         PUBLIC        _Read_time
  C:1F16H         PUBLIC        _PCF85063BTL_Delay
  D:00B8H         PUBLIC        IP
  D:00D8H         PUBLIC        CCON
  C:1A37H         PUBLIC        _Day_Of_Year
  C:1E21H         PUBLIC        SPI_ReceiveByte
  D:0098H         PUBLIC        SCON
  D:0088H         PUBLIC        TCON
  C:1F5CH         PUBLIC        _BCDtoDec
  B:00A0H.0       PUBLIC        PCF85063BTL_CS
  C:1F4BH         PUBLIC        _SPI_ReadTime
  C:1F9CH         PUBLIC        SPI_Init
  C:1EB5H         PUBLIC        _SPI_WriteTime
  C:1E01H         PUBLIC        _SPI_SendByte
  D:00D0H         PUBLIC        PSW
  C:1F12H         SYMBOL        L?0047
  -------         PROC          L?0046
  -------         ENDPROC       L?0046
  C:1F12H         SYMBOL        L?0047
  -------         PROC          _PCF85063BTL_DELAY
  D:0006H         SYMBOL        us
  C:1F16H         LINE#         8
  C:1F16H         LINE#         9
  C:1F16H         LINE#         10
  C:1F20H         LINE#         11
  C:1F20H         LINE#         12
  C:1F21H         LINE#         13
  C:1F23H         LINE#         14
  -------         ENDPROC       _PCF85063BTL_DELAY
  -------         PROC          _SPI_SENDBYTE
  D:0005H         SYMBOL        dat
  -------         DO            
  D:0003H         SYMBOL        i
  -------         ENDDO         
  C:1E01H         LINE#         17
  C:1E03H         LINE#         18
  C:1E03H         LINE#         20
  C:1E05H         LINE#         21
  C:1E05H         LINE#         22
  C:1E07H         LINE#         23
  C:1E0BH         LINE#         24
  C:1E0BH         LINE#         25
  C:1E0DH         LINE#         26
BL51 BANKED LINKER/LOCATER V6.22                                                      08/14/2018  14:42:08  PAGE 12


  C:1E0FH         LINE#         28
  C:1E0FH         LINE#         29
  C:1E11H         LINE#         30
  C:1E11H         LINE#         31
  C:1E14H         LINE#         32
  C:1E14H         LINE#         33
  C:1E17H         LINE#         34
  C:1E1BH         LINE#         35
  C:1E20H         LINE#         36
  -------         ENDPROC       _SPI_SENDBYTE
  -------         PROC          SPI_RECEIVEBYTE
  -------         DO            
  D:0003H         SYMBOL        i
  D:0005H         SYMBOL        dat
  -------         ENDDO         
  C:1E21H         LINE#         39
  C:1E21H         LINE#         40
  C:1E21H         LINE#         42
  C:1E23H         LINE#         44
  C:1E25H         LINE#         45
  C:1E26H         LINE#         46
  C:1E26H         LINE#         47
  C:1E2AH         LINE#         48
  C:1E2CH         LINE#         49
  C:1E2FH         LINE#         51
  C:1E32H         LINE#         52
  C:1E32H         LINE#         53
  C:1E36H         LINE#         54
  C:1E36H         LINE#         55
  C:1E36H         LINE#         56
  C:1E39H         LINE#         57
  C:1E3EH         LINE#         58
  C:1E40H         LINE#         59
  -------         ENDPROC       SPI_RECEIVEBYTE
  -------         PROC          _SPI_READTIME
  D:0007H         SYMBOL        addr
  -------         DO            
  D:0006H         SYMBOL        dat
  -------         ENDDO         
  C:1F4BH         LINE#         61
  C:1F4BH         LINE#         62
  C:1F4BH         LINE#         64
  C:1F4DH         LINE#         65
  C:1F4FH         LINE#         66
  C:1F56H         LINE#         67
  C:1F59H         LINE#         68
  C:1F5BH         LINE#         69
  C:1F5BH         LINE#         70
  -------         ENDPROC       _SPI_READTIME
  -------         PROC          _SPI_WRITETIME
  D:0002H         SYMBOL        val
  D:0005H         SYMBOL        addr
  C:1EB5H         LINE#         71
  C:1EB7H         LINE#         72
  C:1EB7H         LINE#         74
  C:1EB9H         LINE#         75
  C:1EC0H         LINE#         76
BL51 BANKED LINKER/LOCATER V6.22                                                      08/14/2018  14:42:08  PAGE 13


  C:1EC5H         LINE#         77
  C:1ECAH         LINE#         78
  C:1ECCH         LINE#         79
  -------         ENDPROC       _SPI_WRITETIME
  -------         PROC          SPI_INIT
  C:1F9CH         LINE#         83
  C:1F9CH         LINE#         84
  C:1F9CH         LINE#         89
  C:1F9FH         LINE#         90
  C:1FA2H         LINE#         91
  C:1FA4H         LINE#         92
  C:1FA6H         LINE#         93
  C:1FA8H         LINE#         94
  -------         ENDPROC       SPI_INIT
  -------         PROC          _READ_TIME
  X:0098H         SYMBOL        months
  X:009BH         SYMBOL        days
  X:009EH         SYMBOL        hours
  X:00A1H         SYMBOL        mins
  X:00A4H         SYMBOL        seconds
  C:1B30H         LINE#         96
  C:1B3BH         LINE#         97
  C:1B3BH         LINE#         99
  C:1B4FH         LINE#         101
  C:1B63H         LINE#         103
  C:1B77H         LINE#         108
  C:1B8BH         LINE#         113
  -------         ENDPROC       _READ_TIME
  -------         PROC          _BCDTODEC
  D:0007H         SYMBOL        bcd
  -------         DO            
  D:0006H         SYMBOL        hi
  D:0007H         SYMBOL        lo
  -------         ENDDO         
  C:1F5CH         LINE#         119
  C:1F5CH         LINE#         120
  C:1F5CH         LINE#         122
  C:1F61H         LINE#         123
  C:1F65H         LINE#         124
  C:1F6CH         LINE#         125
  -------         ENDPROC       _BCDTODEC
  -------         PROC          _DAY_OF_YEAR
  D:0007H         SYMBOL        months_bcd
  D:0005H         SYMBOL        days_bcd
  -------         DO            
  D:0004H         SYMBOL        months
  D:0007H         SYMBOL        days
  -------         ENDDO         
  C:1A37H         LINE#         126
  C:1A37H         LINE#         127
  C:1A37H         LINE#         130
  C:1A3CH         LINE#         132
  C:1A41H         LINE#         134
  C:1A7AH         LINE#         135
  C:1A7AH         LINE#         136
  C:1A7AH         LINE#         137
  C:1A7DH         LINE#         138
BL51 BANKED LINKER/LOCATER V6.22                                                      08/14/2018  14:42:08  PAGE 14


  C:1A7DH         LINE#         139
  C:1A7DH         LINE#         140
  C:1A82H         LINE#         141
  C:1A82H         LINE#         142
  C:1A82H         LINE#         143
  C:1A87H         LINE#         144
  C:1A87H         LINE#         145
  C:1A87H         LINE#         146
  C:1A8CH         LINE#         147
  C:1A8CH         LINE#         148
  C:1A8CH         LINE#         149
  C:1A91H         LINE#         150
  C:1A91H         LINE#         151
  C:1A91H         LINE#         152
  C:1A96H         LINE#         153
  C:1A96H         LINE#         154
  C:1A96H         LINE#         155
  C:1A9BH         LINE#         156
  C:1A9BH         LINE#         157
  C:1A9BH         LINE#         158
  C:1AA0H         LINE#         159
  C:1AA0H         LINE#         160
  C:1AA0H         LINE#         161
  C:1AA8H         LINE#         162
  C:1AA8H         LINE#         163
  C:1AA8H         LINE#         164
  C:1AADH         LINE#         165
  C:1AADH         LINE#         166
  C:1AADH         LINE#         167
  C:1AB2H         LINE#         168
  C:1AB2H         LINE#         169
  C:1AB2H         LINE#         170
  C:1ABAH         LINE#         171
  C:1ABAH         LINE#         172
  C:1ABAH         LINE#         173
  -------         ENDPROC       _DAY_OF_YEAR
  -------         ENDMOD        PCF85063BTL

  -------         MODULE        UART1
  C:0000H         SYMBOL        _ICE_DUMMY_
  D:0080H         PUBLIC        P0
  D:0090H         PUBLIC        P1
  D:00A0H         PUBLIC        P2
  D:00B0H         PUBLIC        P3
  D:00C0H         PUBLIC        P4
  D:00C8H         PUBLIC        P5
  B:00A8H.7       PUBLIC        EA
  D:00E8H         PUBLIC        P6
  D:00F8H         PUBLIC        P7
  C:1D0DH         PUBLIC        _SendString
  D:00A8H         PUBLIC        IE
  B:00A8H.4       PUBLIC        ES
  D:00B8H         PUBLIC        IP
  C:1ECDH         PUBLIC        _ASCIItoBCD
  D:00D8H         PUBLIC        CCON
  C:1F6DH         PUBLIC        initUART1
  D:0098H         PUBLIC        SCON
BL51 BANKED LINKER/LOCATER V6.22                                                      08/14/2018  14:42:08  PAGE 15


  D:0088H         PUBLIC        TCON
  C:1FEEH         PUBLIC        _DectoBCD
  C:1FE9H         PUBLIC        _ASCII_Letter
  D:008EH         PUBLIC        AUXR
  C:1FE4H         PUBLIC        _unit
  C:1FD2H         PUBLIC        _ten
  D:00D6H         PUBLIC        T2H
  D:00D7H         PUBLIC        T2L
  D:00D0H         PUBLIC        PSW
  -------         PROC          INITUART1
  C:1F6DH         LINE#         21
  C:1F6DH         LINE#         22
  C:1F6DH         LINE#         23
  C:1F70H         LINE#         24
  C:1F73H         LINE#         25
  C:1F76H         LINE#         26
  C:1F79H         LINE#         27
  C:1F7BH         LINE#         28
  C:1F7DH         LINE#         30
  -------         ENDPROC       INITUART1
  -------         PROC          _SENDSTRING
  X:00F7H         SYMBOL        s
  C:1D0DH         LINE#         35
  C:1D18H         LINE#         36
  C:1D18H         LINE#         37
  C:1D28H         LINE#         38
  C:1D28H         LINE#         39
  C:1D3DH         LINE#         40
  C:1D3FH         LINE#         41
  -------         ENDPROC       _SENDSTRING
  -------         PROC          _TEN
  D:0007H         SYMBOL        BCD
  C:1FD2H         LINE#         43
  C:1FD2H         LINE#         44
  C:1FD2H         LINE#         45
  C:1FD7H         LINE#         46
  -------         ENDPROC       _TEN
  -------         PROC          _UNIT
  D:0007H         SYMBOL        BCD
  C:1FE4H         LINE#         47
  C:1FE4H         LINE#         48
  C:1FE4H         LINE#         52
  C:1FE8H         LINE#         53
  -------         ENDPROC       _UNIT
  -------         PROC          _DECTOBCD
  D:0007H         SYMBOL        dec
  C:1FEEH         LINE#         54
  C:1FEEH         LINE#         55
  C:1FEEH         LINE#         57
  C:1FEEH         LINE#         58
  -------         ENDPROC       _DECTOBCD
  -------         PROC          _ASCII_LETTER
  D:0007H         SYMBOL        dat
  C:1FE9H         LINE#         60
  C:1FE9H         LINE#         61
  C:1FE9H         LINE#         63
  C:1FEDH         LINE#         64
BL51 BANKED LINKER/LOCATER V6.22                                                      08/14/2018  14:42:08  PAGE 16


  -------         ENDPROC       _ASCII_LETTER
  -------         PROC          _ASCIITOBCD
  D:0001H         SYMBOL        ascii
  -------         DO            
  D:0007H         SYMBOL        dec_val
  D:0006H         SYMBOL        ten
  D:0007H         SYMBOL        unit
  -------         ENDDO         
  C:1ECDH         LINE#         66
  C:1ECDH         LINE#         67
  C:1ECDH         LINE#         69
  C:1ED0H         LINE#         70
  C:1ED6H         LINE#         71
  C:1EDDH         LINE#         72
  C:1EE3H         LINE#         74
  -------         ENDPROC       _ASCIITOBCD
  -------         ENDMOD        UART1

  -------         MODULE        LCD_DRIVER_SPLC780D
  C:0000H         SYMBOL        _ICE_DUMMY_
  D:0092H         PUBLIC        P1M0
  D:0091H         PUBLIC        P1M1
  D:0080H         PUBLIC        P0
  D:0090H         PUBLIC        P1
  D:00A0H         PUBLIC        P2
  D:00B0H         PUBLIC        P3
  D:00C0H         PUBLIC        P4
  D:00C8H         PUBLIC        P5
  D:00E8H         PUBLIC        P6
  D:00F8H         PUBLIC        P7
  C:1ABBH         PUBLIC        _WriteData
  D:00A8H         PUBLIC        IE
  D:00B8H         PUBLIC        IP
  D:00D8H         PUBLIC        CCON
  B:0090H.4       PUBLIC        LCD_D4
  B:0090H.5       PUBLIC        LCD_D5
  B:0090H.6       PUBLIC        LCD_D6
  C:1E7DH         PUBLIC        _DisplayLCD
  B:0090H.7       PUBLIC        LCD_D7
  D:0098H         PUBLIC        SCON
  D:0088H         PUBLIC        TCON
  C:1FBFH         PUBLIC        LCD_clear
  C:1C99H         PUBLIC        _Command
  C:000EH         PUBLIC        _Display_Line
  C:1BF8H         PUBLIC        LCD_Init
  C:1D9DH         PUBLIC        _Wait_ms
  B:0090H.1       PUBLIC        LCD_RS
  B:0090H.2       PUBLIC        LCD_RW
  C:1FB5H         PUBLIC        LCD_return_home
  B:0090H.3       PUBLIC        LCD_E
  D:00D0H         PUBLIC        PSW
  -------         PROC          LCD_INIT
  C:1BF8H         LINE#         9
  C:1BF8H         LINE#         10
  C:1BF8H         LINE#         11
  C:1BFBH         LINE#         12
  C:1BFDH         LINE#         14
BL51 BANKED LINKER/LOCATER V6.22                                                      08/14/2018  14:42:08  PAGE 17


  C:1C03H         LINE#         15
  C:1C08H         LINE#         17
  C:1C0FH         LINE#         18
  C:1C14H         LINE#         20
  C:1C17H         LINE#         21
  C:1C1CH         LINE#         23
  C:1C1FH         LINE#         24
  C:1C24H         LINE#         26
  C:1C2BH         LINE#         29
  C:1C30H         LINE#         30
  C:1C35H         LINE#         32
  C:1C3AH         LINE#         33
  C:1C3FH         LINE#         35
  C:1C44H         LINE#         36
  C:1C49H         LINE#         37
  -------         ENDPROC       LCD_INIT
  -------         PROC          _WRITEDATA
  X:00A2H         SYMBOL        dat
  C:1ABBH         LINE#         40
  C:1AC0H         LINE#         41
  C:1AC0H         LINE#         46
  C:1AC2H         LINE#         47
  C:1AC4H         LINE#         49
  C:1AD2H         LINE#         50
  C:1ADEH         LINE#         51
  C:1AEAH         LINE#         52
  C:1AF4H         LINE#         53
  C:1AF6H         LINE#         54
  C:1AFDH         LINE#         55
  C:1AFFH         LINE#         57
  C:1B0FH         LINE#         58
  C:1B1AH         LINE#         59
  C:1B24H         LINE#         60
  C:1B28H         LINE#         62
  C:1B28H         LINE#         63
  C:1B2BH         LINE#         64
  C:1B2DH         LINE#         65
  C:1B2FH         LINE#         67
  -------         ENDPROC       _WRITEDATA
  -------         PROC          _COMMAND
  D:0007H         SYMBOL        dat
  C:1C99H         LINE#         69
  C:1C99H         LINE#         70
  C:1C99H         LINE#         71
  C:1C9BH         LINE#         72
  C:1C9DH         LINE#         74
  C:1CA7H         LINE#         75
  C:1CABH         LINE#         77
  C:1CADH         LINE#         78
  C:1CB6H         LINE#         79
  C:1CBAH         LINE#         81
  C:1CBCH         LINE#         82
  C:1CC3H         LINE#         83
  C:1CC7H         LINE#         85
  C:1CC9H         LINE#         86
  C:1CCDH         LINE#         87
  C:1CD1H         LINE#         89
BL51 BANKED LINKER/LOCATER V6.22                                                      08/14/2018  14:42:08  PAGE 18


  C:1CD3H         LINE#         90
  C:1CD3H         LINE#         91
  C:1CD6H         LINE#         92
  C:1CD8H         LINE#         93
  -------         ENDPROC       _COMMAND
  C:1D99H         SYMBOL        L?0028
  -------         PROC          L?0027
  -------         ENDPROC       L?0027
  C:1D99H         SYMBOL        L?0028
  -------         PROC          _WAIT_MS
  D:0006H         SYMBOL        ms
  -------         DO            
  D:0004H         SYMBOL        De_Cnt
  -------         ENDDO         
  C:1D9DH         LINE#         95
  C:1D9DH         LINE#         96
  C:1D9DH         LINE#         98
  C:1DA7H         LINE#         99
  C:1DA7H         LINE#         100
  C:1DBAH         LINE#         101
  C:1DBAH         LINE#         102
  -------         ENDPROC       _WAIT_MS
  -------         PROC          _DISPLAYLCD
  D:0007H         SYMBOL        BCD
  -------         DO            
  D:0006H         SYMBOL        first_digit
  X:0098H         SYMBOL        second_digit
  -------         ENDDO         
  C:1E7DH         LINE#         103
  C:1E7DH         LINE#         104
  C:1E7DH         LINE#         106
  C:1E84H         LINE#         107
  C:1E8DH         LINE#         109
  C:1E92H         LINE#         111
  -------         ENDPROC       _DISPLAYLCD
  -------         PROC          LCD_RETURN_HOME
  C:1FB5H         LINE#         115
  C:1FB5H         LINE#         116
  C:1FB5H         LINE#         117
  C:1FBAH         LINE#         118
  -------         ENDPROC       LCD_RETURN_HOME
  -------         PROC          LCD_CLEAR
  C:1FBFH         LINE#         121
  C:1FBFH         LINE#         122
  C:1FBFH         LINE#         123
  C:1FC4H         LINE#         124
  -------         ENDPROC       LCD_CLEAR
  -------         PROC          _DISPLAY_LINE
  D:0006H         SYMBOL        line
  C:000EH         LINE#         128
  C:000EH         LINE#         129
  C:000EH         LINE#         130
  C:0014H         LINE#         131
  C:0014H         LINE#         132
  C:0016H         LINE#         133
  C:0016H         LINE#         134
  C:0018H         LINE#         136
BL51 BANKED LINKER/LOCATER V6.22                                                      08/14/2018  14:42:08  PAGE 19


  C:0018H         LINE#         137
  C:001DH         LINE#         138
  C:0022H         LINE#         139
  C:0022H         LINE#         140
  -------         ENDPROC       _DISPLAY_LINE
  -------         ENDMOD        LCD_DRIVER_SPLC780D

  -------         MODULE        KEYPAD
  C:0000H         SYMBOL        _ICE_DUMMY_
  D:0093H         PUBLIC        P0M1
  D:0080H         PUBLIC        P0
  D:0090H         PUBLIC        P1
  D:00A0H         PUBLIC        P2
  D:00B0H         PUBLIC        P3
  D:00C0H         PUBLIC        P4
  D:00C8H         PUBLIC        P5
  D:00E8H         PUBLIC        P6
  D:00F8H         PUBLIC        P7
  D:00A8H         PUBLIC        IE
  C:1184H         PUBLIC        Key_Scan
  D:00B8H         PUBLIC        IP
  D:00D8H         PUBLIC        CCON
  C:0003H         PUBLIC        KeyPad_IO_Init
  C:1E41H         PUBLIC        _Delay_ms
  D:0098H         PUBLIC        SCON
  D:0088H         PUBLIC        TCON
  B:0020H.0       PUBLIC        small_move
  B:0020H.1       PUBLIC        move
  B:0020H.2       PUBLIC        direction
  C:069BH         PUBLIC        Key_Process
  D:00D0H         PUBLIC        PSW
  D:0094H         PUBLIC        P0M0
  -------         PROC          _DELAY_MS
  D:0006H         SYMBOL        ms
  -------         DO            
  D:0004H         SYMBOL        De_Cnt
  -------         ENDDO         
  C:1E41H         LINE#         16
  C:1E41H         LINE#         17
  C:1E41H         LINE#         19
  C:1E4BH         LINE#         20
  C:1E4BH         LINE#         21
  C:1E5EH         LINE#         22
  C:1E5EH         LINE#         23
  -------         ENDPROC       _DELAY_MS
  -------         PROC          KEY_SCAN
  -------         DO            
  X:009EH         SYMBOL        KeyTemp1
  X:009FH         SYMBOL        KeyTemp2
  X:00A0H         SYMBOL        KeyValue
  -------         ENDDO         
  C:1184H         LINE#         24
  C:1184H         LINE#         25
  C:1184H         LINE#         30
  C:1187H         LINE#         33
  C:118AH         LINE#         35
  C:1192H         LINE#         36
BL51 BANKED LINKER/LOCATER V6.22                                                      08/14/2018  14:42:08  PAGE 20


  C:1199H         LINE#         37
  C:1199H         LINE#         38
  C:11A0H         LINE#         39
  C:11A5H         LINE#         40
  C:11ACH         LINE#         41
  C:11ACH         LINE#         44
  C:11AFH         LINE#         45
  C:11B2H         LINE#         46
  C:11B7H         LINE#         47
  C:11BBH         LINE#         48
  C:11BBH         LINE#         49
  C:11C3H         LINE#         50
  C:11C3H         LINE#         51
  C:11C6H         LINE#         52
  C:11CEH         LINE#         53
  C:11D0H         LINE#         55
  C:11E4H         LINE#         56
  C:11E4H         LINE#         57
  C:11E4H         LINE#         58
  C:11E4H         LINE#         59
  C:11EAH         LINE#         61
  C:11ECH         LINE#         62
  C:11ECH         LINE#         63
  C:11ECH         LINE#         64
  C:11F2H         LINE#         66
  C:11F4H         LINE#         67
  C:11F4H         LINE#         68
  C:11F4H         LINE#         69
  C:11FAH         LINE#         71
  C:11FCH         LINE#         72
  C:11FCH         LINE#         73
  C:11FCH         LINE#         74
  C:1202H         LINE#         76
  C:1202H         LINE#         77
  C:1202H         LINE#         78
  C:1202H         LINE#         81
  C:1205H         LINE#         82
  C:1208H         LINE#         83
  C:1210H         LINE#         84
  C:1214H         LINE#         85
  C:1214H         LINE#         86
  C:121CH         LINE#         87
  C:121CH         LINE#         88
  C:121FH         LINE#         89
  C:1227H         LINE#         90
  C:1229H         LINE#         91
  C:123DH         LINE#         92
  C:123DH         LINE#         93
  C:123DH         LINE#         94
  C:123DH         LINE#         95
  C:1243H         LINE#         97
  C:1245H         LINE#         98
  C:1245H         LINE#         99
  C:1245H         LINE#         100
  C:124BH         LINE#         102
  C:124DH         LINE#         103
  C:124DH         LINE#         104
BL51 BANKED LINKER/LOCATER V6.22                                                      08/14/2018  14:42:08  PAGE 21


  C:124DH         LINE#         105
  C:1253H         LINE#         107
  C:1255H         LINE#         108
  C:1255H         LINE#         109
  C:1255H         LINE#         110
  C:125AH         LINE#         112
  C:125AH         LINE#         113
  C:125AH         LINE#         114
  C:125AH         LINE#         117
  C:125DH         LINE#         118
  C:1260H         LINE#         119
  C:1268H         LINE#         120
  C:126CH         LINE#         121
  C:126CH         LINE#         122
  C:1274H         LINE#         123
  C:1274H         LINE#         124
  C:1277H         LINE#         125
  C:127FH         LINE#         126
  C:1281H         LINE#         127
  C:1295H         LINE#         128
  C:1295H         LINE#         129
  C:1295H         LINE#         130
  C:1295H         LINE#         131
  C:129BH         LINE#         133
  C:129DH         LINE#         134
  C:129DH         LINE#         135
  C:129DH         LINE#         136
  C:12A3H         LINE#         138
  C:12A5H         LINE#         139
  C:12A5H         LINE#         140
  C:12A5H         LINE#         141
  C:12ABH         LINE#         143
  C:12ADH         LINE#         144
  C:12ADH         LINE#         145
  C:12ADH         LINE#         146
  C:12B3H         LINE#         148
  C:12B3H         LINE#         149
  C:12B3H         LINE#         150
  C:12B3H         LINE#         154
  C:12B6H         LINE#         155
  C:12B9H         LINE#         156
  C:12C1H         LINE#         157
  C:12C5H         LINE#         158
  C:12C5H         LINE#         159
  C:12CDH         LINE#         160
  C:12CDH         LINE#         161
  C:12D0H         LINE#         162
  C:12D8H         LINE#         163
  C:12DAH         LINE#         164
  C:12EEH         LINE#         165
  C:12EEH         LINE#         166
  C:12EEH         LINE#         167
  C:12EEH         LINE#         168
  C:12F4H         LINE#         170
  C:12F6H         LINE#         171
  C:12F6H         LINE#         172
  C:12F6H         LINE#         173
BL51 BANKED LINKER/LOCATER V6.22                                                      08/14/2018  14:42:08  PAGE 22


  C:12FCH         LINE#         175
  C:12FEH         LINE#         176
  C:12FEH         LINE#         177
  C:12FEH         LINE#         178
  C:1304H         LINE#         180
  C:1306H         LINE#         181
  C:1306H         LINE#         182
  C:1306H         LINE#         183
  C:130CH         LINE#         185
  C:130CH         LINE#         186
  C:130CH         LINE#         187
  C:130CH         LINE#         189
  C:1312H         LINE#         190
  C:1312H         LINE#         192
  C:1312H         LINE#         193
  C:1315H         LINE#         194
  C:1315H         LINE#         195
  C:1315H         LINE#         197
  C:1315H         LINE#         198
  C:1317H         LINE#         199
  C:1317H         LINE#         200
  -------         ENDPROC       KEY_SCAN
  -------         PROC          KEY_PROCESS
  -------         DO            
  X:00E2H         SYMBOL        KeyCount
  X:00E4H         SYMBOL        KeyNum_Old
  X:00E5H         SYMBOL        KeyNum
  X:00E6H         SYMBOL        PressedKey
  X:0098H         SYMBOL        d
  D:0004H         SYMBOL        hours
  D:0006H         SYMBOL        mins
  X:009AH         SYMBOL        months
  X:009CH         SYMBOL        days
  -------         ENDDO         
  C:069BH         LINE#         201
  C:069BH         LINE#         202
  C:069BH         LINE#         206
  C:06A3H         LINE#         207
  C:06ABH         LINE#         209
  C:06B8H         LINE#         210
  C:06B8H         LINE#         211
  C:06BBH         LINE#         212
  C:06BEH         LINE#         214
  C:06C1H         LINE#         216
  C:06C1H         LINE#         217
  C:06CCH         LINE#         218
  C:06CCH         LINE#         219
  C:06CFH         LINE#         221
  C:06CFH         LINE#         222
  C:06D6H         LINE#         223
  C:06D6H         LINE#         224
  C:06D9H         LINE#         226
  C:06D9H         LINE#         227
  C:06E0H         LINE#         228
  C:06E0H         LINE#         229
  C:06E3H         LINE#         231
  C:06E3H         LINE#         232
BL51 BANKED LINKER/LOCATER V6.22                                                      08/14/2018  14:42:08  PAGE 23


  C:06EAH         LINE#         233
  C:06EAH         LINE#         234
  C:06EDH         LINE#         236
  C:06EDH         LINE#         238
  C:06F1H         LINE#         239
  C:06F1H         LINE#         240
  C:06F4H         LINE#         242
  C:06F4H         LINE#         244
  C:0704H         LINE#         245
  C:0704H         LINE#         246
  C:0716H         LINE#         247
  C:0724H         LINE#         248
  C:0733H         LINE#         249
  C:0733H         LINE#         251
  C:0739H         LINE#         255
  C:074FH         LINE#         256
  C:0760H         LINE#         257
  C:077BH         LINE#         258
  C:077BH         LINE#         259
  C:078BH         LINE#         260
  C:079CH         LINE#         261
  C:079CH         LINE#         265
  C:07B5H         LINE#         266
  C:07CCH         LINE#         267
  C:07ECH         LINE#         268
  C:07ECH         LINE#         269
  C:07F6H         LINE#         270
  C:07F6H         LINE#         271
  C:07FFH         LINE#         272
  C:07FFH         LINE#         273
  C:0813H         LINE#         274
  C:0813H         LINE#         275
  C:0813H         LINE#         276
  C:0813H         LINE#         277
  C:0813H         LINE#         278
  C:0815H         LINE#         280
  C:0815H         LINE#         281
  C:0821H         LINE#         282
  C:0821H         LINE#         283
  C:0832H         LINE#         284
  C:0832H         LINE#         285
  C:0832H         LINE#         286
  C:0832H         LINE#         287
  C:0832H         LINE#         289
  C:0834H         LINE#         291
  C:0834H         LINE#         292
  C:0845H         LINE#         293
  C:0845H         LINE#         294
  C:0845H         LINE#         295
  C:0845H         LINE#         296
  C:0845H         LINE#         298
  C:0845H         LINE#         300
  C:0845H         LINE#         301
  C:0847H         LINE#         303
  C:0847H         LINE#         304
  C:085AH         LINE#         305
  C:085AH         LINE#         306
BL51 BANKED LINKER/LOCATER V6.22                                                      08/14/2018  14:42:08  PAGE 24


  C:086BH         LINE#         307
  C:086BH         LINE#         308
  C:086BH         LINE#         309
  C:086BH         LINE#         310
  C:086BH         LINE#         311
  C:086DH         LINE#         313
  C:086DH         LINE#         314
  C:087EH         LINE#         315
  C:087EH         LINE#         316
  C:088FH         LINE#         317
  C:08A0H         LINE#         318
  C:08A0H         LINE#         319
  C:08A0H         LINE#         320
  C:08A0H         LINE#         321
  C:08A0H         LINE#         322
  C:08A3H         LINE#         323
  C:08A8H         LINE#         324
  C:08ADH         LINE#         325
  C:08B2H         LINE#         326
  C:08B7H         LINE#         327
  C:08BCH         LINE#         328
  C:08C1H         LINE#         329
  C:08C6H         LINE#         330
  C:08C6H         LINE#         332
  C:08E8H         LINE#         333
  C:08E8H         LINE#         334
  C:08F2H         LINE#         335
  C:08F2H         LINE#         336
  C:08F7H         LINE#         337
  C:0900H         LINE#         338
  C:0917H         LINE#         339
  C:0917H         LINE#         340
  C:0927H         LINE#         342
  C:0927H         LINE#         346
  -------         ENDPROC       KEY_PROCESS
  -------         PROC          KEYPAD_IO_INIT
  C:0003H         LINE#         349
  C:0003H         LINE#         350
  C:0003H         LINE#         351
  C:0006H         LINE#         352
  C:0009H         LINE#         353
  -------         ENDPROC       KEYPAD_IO_INIT
  -------         ENDMOD        KEYPAD

  -------         MODULE        VCNL4035
  C:0000H         SYMBOL        _ICE_DUMMY_
  D:0080H         PUBLIC        P0
  B:00B0H.2       PUBLIC        I2C_SCK
  D:00B2H         PUBLIC        P3M0
  D:0090H         PUBLIC        P1
  D:00B1H         PUBLIC        P3M1
  D:00A0H         PUBLIC        P2
  D:00B0H         PUBLIC        P3
  D:00C0H         PUBLIC        P4
  D:00C8H         PUBLIC        P5
  D:00E8H         PUBLIC        P6
  D:00F8H         PUBLIC        P7
BL51 BANKED LINKER/LOCATER V6.22                                                      08/14/2018  14:42:08  PAGE 25


  D:00A8H         PUBLIC        IE
  C:1FDEH         PUBLIC        _DisplayLCD_VCNL4035
  D:00B8H         PUBLIC        IP
  D:00D8H         PUBLIC        CCON
  C:1F38H         PUBLIC        I2C_Start
  D:0098H         PUBLIC        SCON
  C:1EE4H         PUBLIC        I2C_Init
  D:0088H         PUBLIC        TCON
  C:1F7EH         PUBLIC        uC_NACK
  C:1D79H         PUBLIC        _Wait_ms_i2c
  C:1DDFH         PUBLIC        _I2C_SendByte
  C:1EFBH         PUBLIC        I2C_Stop
  C:1C50H         PUBLIC        _Write_VCNL4035X
  C:1FEFH         PUBLIC        nop
  C:17E2H         PUBLIC        _Read_VCNL4035
  C:1FD8H         PUBLIC        uC_ACK
  C:1E9FH         PUBLIC        I2C_ACK
  C:1E5FH         PUBLIC        _Wait_ms_iic
  B:00B0H.1       PUBLIC        I2C_SDA
  D:00D0H         PUBLIC        PSW
  C:1D46H         PUBLIC        I2C_ReceiveByte
  -------         PROC          _WAIT_MS_IIC
  D:0006H         SYMBOL        ms
  -------         DO            
  D:0004H         SYMBOL        De_Cnt
  -------         ENDDO         
  C:1E5FH         LINE#         5
  C:1E5FH         LINE#         6
  C:1E5FH         LINE#         8
  C:1E69H         LINE#         9
  C:1E69H         LINE#         10
  C:1E7CH         LINE#         11
  C:1E7CH         LINE#         12
  -------         ENDPROC       _WAIT_MS_IIC
  C:1D73H         SYMBOL        L?0048
  C:1D75H         SYMBOL        L?0049
  -------         PROC          L?0047
  -------         ENDPROC       L?0047
  C:1D73H         SYMBOL        L?0048
  C:1D75H         SYMBOL        L?0049
  -------         PROC          _WAIT_MS_I2C
  D:0006H         SYMBOL        ms
  -------         DO            
  D:0004H         SYMBOL        De_Cnt
  -------         ENDDO         
  C:1D79H         LINE#         14
  C:1D79H         LINE#         15
  C:1D79H         LINE#         17
  C:1D83H         LINE#         18
  C:1D83H         LINE#         19
  C:1D96H         LINE#         20
  C:1D96H         LINE#         21
  -------         ENDPROC       _WAIT_MS_I2C
  -------         PROC          NOP
  C:1FEFH         LINE#         22
  C:1FEFH         LINE#         23
  C:1FEFH         LINE#         25
BL51 BANKED LINKER/LOCATER V6.22                                                      08/14/2018  14:42:08  PAGE 26


  -------         ENDPROC       NOP
  -------         PROC          I2C_START
  C:1F38H         LINE#         26
  C:1F38H         LINE#         27
  C:1F38H         LINE#         29
  C:1F3AH         LINE#         30
  C:1F3CH         LINE#         31
  C:1F43H         LINE#         32
  C:1F45H         LINE#         33
  C:1F48H         LINE#         34
  C:1F4AH         LINE#         37
  -------         ENDPROC       I2C_START
  -------         PROC          I2C_STOP
  C:1EFBH         LINE#         39
  C:1EFBH         LINE#         40
  C:1EFBH         LINE#         41
  C:1EFDH         LINE#         42
  C:1EFFH         LINE#         43
  C:1F02H         LINE#         44
  C:1F04H         LINE#         45
  C:1F06H         LINE#         46
  C:1F0DH         LINE#         47
  C:1F0FH         LINE#         50
  -------         ENDPROC       I2C_STOP
  -------         PROC          L?0050
  -------         ENDPROC       L?0050
  -------         PROC          I2C_ACK
  -------         DO            
  X:00FDH         SYMBOL        i
  D:0003H         SYMBOL        dat
  -------         ENDDO         
  C:1E9FH         LINE#         52
  C:1E9FH         LINE#         53
  C:1E9FH         LINE#         55
  C:1EA0H         LINE#         60
  C:1EA3H         LINE#         61
  C:1EA5H         LINE#         62
  C:1EA8H         LINE#         64
  C:1EABH         LINE#         65
  C:1EABH         LINE#         66
  C:1EAFH         LINE#         67
  C:1EAFH         LINE#         70
  C:1EAFH         LINE#         71
  C:1EB2H         LINE#         72
  C:1EB2H         LINE#         73
  C:1EB4H         LINE#         74
  -------         ENDPROC       I2C_ACK
  -------         PROC          UC_ACK
  -------         DO            
  X:00FEH         SYMBOL        i
  -------         ENDDO         
  C:1FD8H         LINE#         75
  C:1FD8H         LINE#         76
  C:1FD8H         LINE#         78
  C:1FD8H         LINE#         85
  C:1FD8H         LINE#         87
  C:1FD8H         LINE#         89
BL51 BANKED LINKER/LOCATER V6.22                                                      08/14/2018  14:42:08  PAGE 27


  C:1FD8H         LINE#         90
  C:1FD8H         LINE#         93
  C:1FDBH         LINE#         94
  C:1FDDH         LINE#         95
  C:1FDDH         LINE#         99
  -------         ENDPROC       UC_ACK
  -------         PROC          UC_NACK
  -------         DO            
  X:00FFH         SYMBOL        i
  -------         ENDDO         
  C:1F7EH         LINE#         101
  C:1F7EH         LINE#         102
  C:1F7EH         LINE#         104
  C:1F7EH         LINE#         108
  C:1F80H         LINE#         111
  C:1F80H         LINE#         112
  C:1F82H         LINE#         113
  C:1F82H         LINE#         115
  C:1F82H         LINE#         116
  C:1F82H         LINE#         119
  C:1F85H         LINE#         120
  C:1F87H         LINE#         121
  C:1F8AH         LINE#         122
  C:1F8CH         LINE#         123
  C:1F8CH         LINE#         127
  -------         ENDPROC       UC_NACK
  -------         PROC          I2C_INIT
  C:1EE4H         LINE#         129
  C:1EE4H         LINE#         130
  C:1EE4H         LINE#         133
  C:1EE7H         LINE#         134
  C:1EEAH         LINE#         139
  C:1EF2H         LINE#         141
  -------         ENDPROC       I2C_INIT
  -------         PROC          _I2C_SENDBYTE
  D:0001H         SYMBOL        dat
  -------         DO            
  D:0003H         SYMBOL        i
  -------         ENDDO         
  C:1DDFH         LINE#         145
  C:1DE1H         LINE#         146
  C:1DE1H         LINE#         149
  C:1DE3H         LINE#         150
  C:1DE3H         LINE#         151
  C:1DE5H         LINE#         153
  C:1DE9H         LINE#         154
  C:1DE9H         LINE#         155
  C:1DEBH         LINE#         156
  C:1DEDH         LINE#         158
  C:1DEDH         LINE#         159
  C:1DEFH         LINE#         160
  C:1DEFH         LINE#         161
  C:1DF2H         LINE#         162
  C:1DF4H         LINE#         164
  C:1DF8H         LINE#         165
  C:1DFBH         LINE#         166
  C:1E00H         LINE#         167
BL51 BANKED LINKER/LOCATER V6.22                                                      08/14/2018  14:42:08  PAGE 28


  -------         ENDPROC       _I2C_SENDBYTE
  -------         PROC          L?0051
  -------         ENDPROC       L?0051
  -------         PROC          I2C_RECEIVEBYTE
  -------         DO            
  D:0003H         SYMBOL        i
  D:0001H         SYMBOL        dat
  -------         ENDDO         
  C:1D46H         LINE#         171
  C:1D46H         LINE#         172
  C:1D46H         LINE#         174
  C:1D48H         LINE#         178
  C:1D49H         LINE#         179
  C:1D49H         LINE#         180
  C:1D4DH         LINE#         181
  C:1D4FH         LINE#         182
  C:1D52H         LINE#         184
  C:1D55H         LINE#         185
  C:1D55H         LINE#         186
  C:1D59H         LINE#         187
  C:1D59H         LINE#         188
  C:1D59H         LINE#         189
  C:1D5CH         LINE#         190
  C:1D60H         LINE#         191
  C:1D60H         LINE#         192
  C:1D62H         LINE#         193
  C:1D64H         LINE#         194
  C:1D64H         LINE#         196
  C:1D69H         LINE#         197
  C:1D6BH         LINE#         198
  -------         ENDPROC       I2C_RECEIVEBYTE
  -------         PROC          _WRITE_VCNL4035X
  X:00FAH         SYMBOL        command_code
  X:00FBH         SYMBOL        dat_h
  X:00FCH         SYMBOL        dat_l
  C:1C50H         LINE#         199
  C:1C5BH         LINE#         200
  C:1C5BH         LINE#         201
  C:1C5EH         LINE#         202
  C:1C65H         LINE#         203
  C:1C65H         LINE#         204
  C:1C6BH         LINE#         205
  C:1C6BH         LINE#         206
  C:1C73H         LINE#         207
  C:1C73H         LINE#         208
  C:1C79H         LINE#         209
  C:1C81H         LINE#         211
  C:1C87H         LINE#         212
  C:1C8FH         LINE#         214
  C:1C95H         LINE#         215
  C:1C98H         LINE#         216
  -------         ENDPROC       _WRITE_VCNL4035X
  -------         PROC          _READ_VCNL4035
  X:00EBH         SYMBOL        command_code
  -------         DO            
  X:00EDH         SYMBOL        temp_dat
  X:00EFH         SYMBOL        temp_dat_l
BL51 BANKED LINKER/LOCATER V6.22                                                      08/14/2018  14:42:08  PAGE 29


  X:00F1H         SYMBOL        temp_dat_h
  -------         ENDDO         
  C:17E2H         LINE#         218
  C:17EAH         LINE#         219
  C:17EAH         LINE#         220
  C:17F7H         LINE#         222
  C:17FAH         LINE#         223
  C:17FDH         LINE#         224
  C:1802H         LINE#         226
  C:1808H         LINE#         227
  C:1808H         LINE#         228
  C:1808H         LINE#         229
  C:1808H         LINE#         230
  C:1813H         LINE#         231
  C:1816H         LINE#         232
  C:1819H         LINE#         233
  C:1819H         LINE#         236
  C:181CH         LINE#         238
  C:1823H         LINE#         239
  C:1823H         LINE#         240
  C:1823H         LINE#         241
  C:182EH         LINE#         242
  C:1831H         LINE#         243
  C:1834H         LINE#         244
  C:1837H         LINE#         245
  C:183AH         LINE#         246
  C:183DH         LINE#         247
  C:1840H         LINE#         248
  C:1843H         LINE#         249
  C:1846H         LINE#         250
  C:1846H         LINE#         251
  C:184CH         LINE#         252
  C:184CH         LINE#         253
  C:1855H         LINE#         255
  C:1855H         LINE#         256
  C:185BH         LINE#         257
  C:185BH         LINE#         259
  C:185DH         LINE#         260
  C:1863H         LINE#         261
  C:1866H         LINE#         262
  C:186DH         LINE#         263
  C:186DH         LINE#         264
  C:187BH         LINE#         265
  -------         ENDPROC       _READ_VCNL4035
  -------         PROC          _DISPLAYLCD_VCNL4035
  X:0100H         SYMBOL        dat
  C:1FDEH         LINE#         267
  C:1FE3H         LINE#         268
  C:1FE3H         LINE#         270
  -------         ENDPROC       _DISPLAYLCD_VCNL4035
  -------         ENDMOD        VCNL4035

  -------         MODULE        BIPOLARMOTOR
  C:0000H         SYMBOL        _ICE_DUMMY_
  D:0080H         PUBLIC        P0
  D:0090H         PUBLIC        P1
  D:00A0H         PUBLIC        P2
BL51 BANKED LINKER/LOCATER V6.22                                                      08/14/2018  14:42:08  PAGE 30


  D:00B0H         PUBLIC        P3
  D:00C0H         PUBLIC        P4
  D:00C8H         PUBLIC        P5
  D:00E8H         PUBLIC        P6
  D:00F8H         PUBLIC        P7
  D:00A8H         PUBLIC        IE
  X:0000H         PUBLIC        receiver_pos
  X:0044H         PUBLIC        Time_stamp_PM
  C:1CD9H         PUBLIC        _Move
  D:00B8H         PUBLIC        IP
  X:0077H         PUBLIC        num_of_time_stamp
  D:00D8H         PUBLIC        CCON
  C:0DDAH         PUBLIC        _trend_line_30_31
  D:0098H         PUBLIC        SCON
  D:0088H         PUBLIC        TCON
  C:1B9FH         PUBLIC        _Step_move
  C:0BABH         PUBLIC        _Update_position
  C:1DCEH         PUBLIC        _BCDtoDec1
  X:0078H         PUBLIC        degree
  D:00D0H         PUBLIC        PSW
  -------         PROC          L?0024
  -------         ENDPROC       L?0024
  -------         PROC          _BCDTODEC1
  D:0007H         SYMBOL        bcd
  -------         DO            
  D:0006H         SYMBOL        hi
  D:0007H         SYMBOL        lo
  -------         ENDDO         
  C:1DCEH         LINE#         12
  C:1DCEH         LINE#         13
  C:1DCEH         LINE#         15
  C:1DD3H         LINE#         16
  C:1DD7H         LINE#         17
  C:1DDEH         LINE#         18
  -------         ENDPROC       _BCDTODEC1
  -------         PROC          _STEP_MOVE
  X:00B4H         SYMBOL        step
  B:0020H.5       SYMBOL        dir
  -------         DO            
  X:00B6H         SYMBOL        i
  -------         ENDDO         
  C:1B9FH         LINE#         24
  C:1BA7H         LINE#         25
  C:1BA7H         LINE#         26
  C:1BACH         LINE#         27
  C:1BAFH         LINE#         28
  C:1BB4H         LINE#         30
  C:1BB7H         LINE#         32
  C:1BD3H         LINE#         33
  C:1BD3H         LINE#         34
  C:1BD6H         LINE#         35
  C:1BDDH         LINE#         36
  C:1BE0H         LINE#         37
  C:1BE7H         LINE#         38
  C:1BF7H         LINE#         39
  -------         ENDPROC       _STEP_MOVE
  -------         PROC          _MOVE
BL51 BANKED LINKER/LOCATER V6.22                                                      08/14/2018  14:42:08  PAGE 31


  X:00B0H         SYMBOL        distance
  B:0020H.4       SYMBOL        direction
  -------         DO            
  D:0006H         SYMBOL        step
  -------         ENDDO         
  C:1CD9H         LINE#         41
  C:1CDFH         LINE#         42
  C:1CDFH         LINE#         44
  C:1D06H         LINE#         45
  -------         ENDPROC       _MOVE
  -------         PROC          _UPDATE_POSITION
  X:0098H         SYMBOL        mnths
  X:0099H         SYMBOL        dys
  X:009AH         SYMBOL        hurs
  X:009BH         SYMBOL        mns
  X:009CH         SYMBOL        sconds
  X:009DH         SYMBOL        currnt_pos
  -------         DO            
  X:00A0H         SYMBOL        date
  X:00A2H         SYMBOL        i
  X:00A4H         SYMBOL        desired_distance
  X:00A8H         SYMBOL        distance
  X:00ACH         SYMBOL        h_float
  D:0004H         SYMBOL        m_float
  -------         ENDDO         
  C:0BABH         LINE#         51
  C:0BB6H         LINE#         52
  C:0BB6H         LINE#         54
  C:0BC0H         LINE#         59
  C:0BD4H         LINE#         60
  C:0BE7H         LINE#         62
  C:0C06H         LINE#         63
  C:0C06H         LINE#         64
  C:0CDBH         LINE#         65
  C:0CDBH         LINE#         67
  C:0CDBH         LINE#         70
  C:0CE7H         LINE#         71
  C:0CE7H         LINE#         72
  C:0CFBH         LINE#         73
  C:0D09H         LINE#         75
  C:0D2DH         LINE#         76
  C:0D2DH         LINE#         77
  C:0D2DH         LINE#         78
  C:0D52H         LINE#         79
  C:0D6EH         LINE#         80
  C:0D88H         LINE#         81
  C:0D88H         LINE#         82
  C:0D98H         LINE#         83
  C:0D9AH         LINE#         84
  C:0DB2H         LINE#         85
  C:0DB2H         LINE#         86
  C:0DC8H         LINE#         87
  C:0DC8H         LINE#         89
  C:0DC8H         LINE#         90
  C:0DC8H         LINE#         92
  C:0DC8H         LINE#         94
  C:0DC8H         LINE#         96
BL51 BANKED LINKER/LOCATER V6.22                                                      08/14/2018  14:42:08  PAGE 32


  C:0DD9H         LINE#         97
  -------         ENDPROC       _UPDATE_POSITION
  -------         PROC          _TREND_LINE_30_31
  X:00B0H         SYMBOL        time
  -------         DO            
  X:00B4H         SYMBOL        offset
  -------         ENDDO         
  C:0DDAH         LINE#         99
  C:0DE0H         LINE#         100
  C:0DE0H         LINE#         102
  C:0F37H         LINE#         103
  C:0FCEH         LINE#         106
  -------         ENDPROC       _TREND_LINE_30_31
  -------         ENDMOD        BIPOLARMOTOR

  -------         MODULE        ?C_STARTUP
  C:19ABH         SEGMENT       ?C_C51STARTUP
  I:0021H         SEGMENT       ?STACK
  C:0000H         PUBLIC        ?C_STARTUP
  D:00E0H         SYMBOL        ACC
  D:00F0H         SYMBOL        B
  D:0083H         SYMBOL        DPH
  D:0082H         SYMBOL        DPL
  N:0000H         SYMBOL        IBPSTACK
  N:0100H         SYMBOL        IBPSTACKTOP
  N:0080H         SYMBOL        IDATALEN
  C:19AEH         SYMBOL        IDATALOOP
  N:0000H         SYMBOL        PBPSTACK
  N:0100H         SYMBOL        PBPSTACKTOP
  N:0000H         SYMBOL        PDATALEN
  N:0000H         SYMBOL        PDATASTART
  N:0000H         SYMBOL        PPAGE
  N:0000H         SYMBOL        PPAGEENABLE
  D:00A0H         SYMBOL        PPAGE_SFR
  D:0081H         SYMBOL        SP
  C:19ABH         SYMBOL        STARTUP1
  N:0000H         SYMBOL        XBPSTACK
  N:0000H         SYMBOL        XBPSTACKTOP
  N:0000H         SYMBOL        XDATALEN
  N:0000H         SYMBOL        XDATASTART
  C:0000H         LINE#         126
  C:19ABH         LINE#         133
  C:19ADH         LINE#         134
  C:19AEH         LINE#         135
  C:19AFH         LINE#         136
  C:19B1H         LINE#         185
  C:19B4H         LINE#         196
  -------         ENDMOD        ?C_STARTUP

  -------         MODULE        ?C?FPADD
  C:002DH         PUBLIC        ?C?FPADD
  C:0029H         PUBLIC        ?C?FPSUB
  -------         ENDMOD        ?C?FPADD

  -------         MODULE        ?C?FPMUL
  C:011EH         PUBLIC        ?C?FPMUL
  -------         ENDMOD        ?C?FPMUL
BL51 BANKED LINKER/LOCATER V6.22                                                      08/14/2018  14:42:08  PAGE 33



  -------         MODULE        ?C?FPDIV
  C:0227H         PUBLIC        ?C?FPDIV
  -------         ENDMOD        ?C?FPDIV

  -------         MODULE        ?C?FPCMP
  C:02C6H         PUBLIC        ?C?FPCMP
  C:02C4H         PUBLIC        ?C?FPCMP3
  -------         ENDMOD        ?C?FPCMP

  -------         MODULE        ?C?FPNEG
  C:033DH         PUBLIC        ?C?FPNEG
  -------         ENDMOD        ?C?FPNEG

  -------         MODULE        ?C?FCAST
  C:0358H         PUBLIC        ?C?FCASTC
  C:0353H         PUBLIC        ?C?FCASTI
  C:034EH         PUBLIC        ?C?FCASTL
  -------         ENDMOD        ?C?FCAST

  -------         MODULE        ?C?CASTF
  C:038CH         PUBLIC        ?C?CASTF
  -------         ENDMOD        ?C?CASTF

  -------         MODULE        POW
  X:00B8H         PUBLIC        ?_pow?BYTE
  C:1318H         PUBLIC        _pow
  -------         ENDMOD        POW

  -------         MODULE        ?C?CHKFLOAT
  C:040DH         PUBLIC        ?C?CHKFLOAT
  -------         ENDMOD        ?C?CHKFLOAT

  -------         MODULE        EXP
  C:18B4H         PUBLIC        _EXP
  -------         ENDMOD        EXP

  -------         MODULE        LOG
  C:14B2H         PUBLIC        _LOG
  C:14AEH         PUBLIC        _LOG10
  -------         ENDMOD        LOG

  -------         MODULE        ?C?CLDPTR
  C:0474H         PUBLIC        ?C?CLDPTR
  -------         ENDMOD        ?C?CLDPTR

  -------         MODULE        ?C?CSTPTR
  C:048DH         PUBLIC        ?C?CSTPTR
  -------         ENDMOD        ?C?CSTPTR

  -------         MODULE        ?C?IMUL
  C:049FH         PUBLIC        ?C?IMUL
  -------         ENDMOD        ?C?IMUL

  -------         MODULE        ?C?UIDIV
  C:04B1H         PUBLIC        ?C?UIDIV
  -------         ENDMOD        ?C?UIDIV
BL51 BANKED LINKER/LOCATER V6.22                                                      08/14/2018  14:42:08  PAGE 34



  -------         MODULE        ?C?SIDIV
  C:0506H         PUBLIC        ?C?SIDIV
  -------         ENDMOD        ?C?SIDIV

  -------         MODULE        ?C?ILDIX
  C:053CH         PUBLIC        ?C?ILDIX
  -------         ENDMOD        ?C?ILDIX

  -------         MODULE        ?C?LNEG
  C:0552H         PUBLIC        ?C?LNEG
  -------         ENDMOD        ?C?LNEG

  -------         MODULE        ?C?LLDPTR
  C:0560H         PUBLIC        ?C?LLDPTR
  -------         ENDMOD        ?C?LLDPTR

  -------         MODULE        ?C?LSTPTR
  C:0580H         PUBLIC        ?C?LSTPTR
  -------         ENDMOD        ?C?LSTPTR

  -------         MODULE        ?C?LLDCODE
  C:059AH         PUBLIC        ?C?LLDCODE
  -------         ENDMOD        ?C?LLDCODE

  -------         MODULE        ?C?LLDXDATA0
  C:05AAH         PUBLIC        ?C?LLDXDATA0
  -------         ENDMOD        ?C?LLDXDATA0

  -------         MODULE        ?C?LLDCODE0
  C:05B6H         PUBLIC        ?C?LLDCODE0
  -------         ENDMOD        ?C?LLDCODE0

  -------         MODULE        ?C?LLDPTR0
  C:05C6H         PUBLIC        ?C?LLDPTR0
  -------         ENDMOD        ?C?LLDPTR0

  -------         MODULE        ?C?LSTXDATA
  C:05E6H         PUBLIC        ?C?LSTXDATA
  -------         ENDMOD        ?C?LSTXDATA

  -------         MODULE        ?C?LSTKXDATA
  C:05F2H         PUBLIC        ?C?LSTKXDATA
  -------         ENDMOD        ?C?LSTKXDATA

  -------         MODULE        ?C?OFFXADD
  C:0623H         PUBLIC        ?C?OFFXADD
  -------         ENDMOD        ?C?OFFXADD

  -------         MODULE        ABS
  C:1FA9H         PUBLIC        _ABS
  -------         ENDMOD        ABS

  -------         MODULE        ATOI
  C:15A7H         PUBLIC        _atoi
  -------         ENDMOD        ATOI

BL51 BANKED LINKER/LOCATER V6.22                                                      08/14/2018  14:42:08  PAGE 35


  -------         MODULE        ?C?IILDX
  C:062FH         PUBLIC        ?C?IILDX
  -------         ENDMOD        ?C?IILDX

  -------         MODULE        ?C?LLDIDATA
  C:0645H         PUBLIC        ?C?LLDIDATA
  -------         ENDMOD        ?C?LLDIDATA

  -------         MODULE        ?C?LLDXDATA
  C:0651H         PUBLIC        ?C?LLDXDATA
  -------         ENDMOD        ?C?LLDXDATA

  -------         MODULE        ?C?LLDPDATA
  C:065DH         PUBLIC        ?C?LLDPDATA
  -------         ENDMOD        ?C?LLDPDATA

  -------         MODULE        ?C?LLDIDATA0
  C:0669H         PUBLIC        ?C?LLDIDATA0
  -------         ENDMOD        ?C?LLDIDATA0

  -------         MODULE        ?C?LLDPDATA0
  C:0676H         PUBLIC        ?C?LLDPDATA0
  -------         ENDMOD        ?C?LLDPDATA0

  -------         MODULE        ?C?LSTIDATA
  C:0683H         PUBLIC        ?C?LSTIDATA
  -------         ENDMOD        ?C?LSTIDATA

  -------         MODULE        ?C?LSTPDATA
  C:068FH         PUBLIC        ?C?LSTPDATA
  -------         ENDMOD        ?C?LSTPDATA

  -------         MODULE        ISDIGIT
  C:1F8DH         PUBLIC        _isdigit
  -------         ENDMOD        ISDIGIT

  -------         MODULE        ISSPACE
  C:1F24H         PUBLIC        _isspace
  -------         ENDMOD        ISSPACE

*** WARNING L16: UNCALLED SEGMENT, IGNORED FOR OVERLAY PROCESS
    SEGMENT: ?PR?_DISPLAY_PROX?MAIN

*** WARNING L16: UNCALLED SEGMENT, IGNORED FOR OVERLAY PROCESS
    SEGMENT: ?PR?SPI_INIT?PCF85063BTL

*** WARNING L16: UNCALLED SEGMENT, IGNORED FOR OVERLAY PROCESS
    SEGMENT: ?PR?INITUART1?UART1

*** WARNING L16: UNCALLED SEGMENT, IGNORED FOR OVERLAY PROCESS
    SEGMENT: ?PR?_SENDSTRING?UART1

*** WARNING L16: UNCALLED SEGMENT, IGNORED FOR OVERLAY PROCESS
    SEGMENT: ?PR?_TEN?UART1

*** WARNING L16: UNCALLED SEGMENT, IGNORED FOR OVERLAY PROCESS
    SEGMENT: ?PR?_UNIT?UART1
BL51 BANKED LINKER/LOCATER V6.22                                                      08/14/2018  14:42:08  PAGE 36



*** WARNING L16: UNCALLED SEGMENT, IGNORED FOR OVERLAY PROCESS
    SEGMENT: ?PR?_DECTOBCD?UART1

*** WARNING L16: UNCALLED SEGMENT, IGNORED FOR OVERLAY PROCESS
    SEGMENT: ?PR?_ASCII_LETTER?UART1

*** WARNING L16: UNCALLED SEGMENT, IGNORED FOR OVERLAY PROCESS
    SEGMENT: ?PR?NOP?VCNL4035

*** WARNING L16: UNCALLED SEGMENT, IGNORED FOR OVERLAY PROCESS
    SEGMENT: ?PR?I2C_INIT?VCNL4035

*** WARNING L16: UNCALLED SEGMENT, IGNORED FOR OVERLAY PROCESS
    SEGMENT: ?PR?_READ_VCNL4035?VCNL4035

*** WARNING L16: UNCALLED SEGMENT, IGNORED FOR OVERLAY PROCESS
    SEGMENT: ?PR?_DISPLAYLCD_VCNL4035?VCNL4035

*** WARNING L1: UNRESOLVED EXTERNAL SYMBOL
    SYMBOL:  AUTO_MODE
    MODULE:  .\Obj\main.obj (MAIN)

*** WARNING L2: REFERENCE MADE TO UNRESOLVED EXTERNAL
    SYMBOL:  AUTO_MODE
    MODULE:  .\Obj\main.obj (MAIN)
    ADDRESS: 0944H

*** WARNING L2: REFERENCE MADE TO UNRESOLVED EXTERNAL
    SYMBOL:  AUTO_MODE
    MODULE:  .\Obj\main.obj (MAIN)
    ADDRESS: 0A0BH

*** WARNING L2: REFERENCE MADE TO UNRESOLVED EXTERNAL
    SYMBOL:  AUTO_MODE
    MODULE:  .\Obj\main.obj (MAIN)
    ADDRESS: 0B21H

*** WARNING L1: UNRESOLVED EXTERNAL SYMBOL
    SYMBOL:  AUTO_MODE
    MODULE:  .\Obj\KeyPad.obj (KEYPAD)

*** WARNING L2: REFERENCE MADE TO UNRESOLVED EXTERNAL
    SYMBOL:  AUTO_MODE
    MODULE:  .\Obj\KeyPad.obj (KEYPAD)
    ADDRESS: 06DEH

*** WARNING L2: REFERENCE MADE TO UNRESOLVED EXTERNAL
    SYMBOL:  AUTO_MODE
    MODULE:  .\Obj\KeyPad.obj (KEYPAD)
    ADDRESS: 06E1H

*** WARNING L2: REFERENCE MADE TO UNRESOLVED EXTERNAL
    SYMBOL:  AUTO_MODE
    MODULE:  .\Obj\KeyPad.obj (KEYPAD)
    ADDRESS: 06E8H

BL51 BANKED LINKER/LOCATER V6.22                                                      08/14/2018  14:42:08  PAGE 37


*** WARNING L2: REFERENCE MADE TO UNRESOLVED EXTERNAL
    SYMBOL:  AUTO_MODE
    MODULE:  .\Obj\KeyPad.obj (KEYPAD)
    ADDRESS: 06EBH

Program Size: data=17.7 xdata=257 code=8176
LINK/LOCATE RUN COMPLETE.  21 WARNING(S),  0 ERROR(S)
