BL51 BANKED LINKER/LOCATER V6.22                                                        07/17/2018  22:11:51  PAGE 1


BL51 BANKED LINKER/LOCATER V6.22, INVOKED BY:
C:\KEIL_V5\C51\BIN\BL51.EXE .\Obj\main.obj, .\Obj\PCF85063BTL.obj, .\Obj\UART1.obj, .\Obj\LCd_Driver_SPLC780D.obj, .\Obj
>> \KeyPad.obj, .\Obj\VCNL4035.obj, .\Obj\BipolarMotor.obj, .\Obj\STARTUP.obj TO .\Obj\GPIO_RTC_Test PRINT (.\Lis\GPIO_R
>> TC_Test.m51) RAMSIZE (256)


MEMORY MODEL: LARGE WITH FLOATING POINT ARITHMETIC


INPUT MODULES INCLUDED:
  .\Obj\main.obj (MAIN)
  .\Obj\PCF85063BTL.obj (PCF85063BTL)
  .\Obj\UART1.obj (UART1)
  .\Obj\LCd_Driver_SPLC780D.obj (LCD_DRIVER_SPLC780D)
  .\Obj\KeyPad.obj (KEYPAD)
  .\Obj\VCNL4035.obj (VCNL4035)
  .\Obj\BipolarMotor.obj (BIPOLARMOTOR)
  .\Obj\STARTUP.obj (?C_STARTUP)
  C:\KEIL_V5\C51\LIB\C51FPL.LIB (?C?FPMUL)
  C:\KEIL_V5\C51\LIB\C51FPL.LIB (?C?FPDIV)
  C:\KEIL_V5\C51\LIB\C51FPL.LIB (?C?FCAST)
  C:\KEIL_V5\C51\LIB\C51FPL.LIB (?C?CASTF)
  C:\KEIL_V5\C51\LIB\C51FPL.LIB (?C?FPGETOPN)
  C:\KEIL_V5\C51\LIB\C51L.LIB (?C_INIT)
  C:\KEIL_V5\C51\LIB\C51L.LIB (?C?CLDPTR)
  C:\KEIL_V5\C51\LIB\C51L.LIB (?C?CSTPTR)
  C:\KEIL_V5\C51\LIB\C51L.LIB (?C?IMUL)
  C:\KEIL_V5\C51\LIB\C51L.LIB (?C?UIDIV)
  C:\KEIL_V5\C51\LIB\C51L.LIB (?C?SIDIV)
  C:\KEIL_V5\C51\LIB\C51L.LIB (?C?ILDIX)
  C:\KEIL_V5\C51\LIB\C51L.LIB (?C?ILDPTR)
  C:\KEIL_V5\C51\LIB\C51L.LIB (?C?ISTPTR)
  C:\KEIL_V5\C51\LIB\C51L.LIB (?C?LNEG)
  C:\KEIL_V5\C51\LIB\C51L.LIB (?C?LSTXDATA)
  C:\KEIL_V5\C51\LIB\C51L.LIB (?C?OFFXADD)
  C:\KEIL_V5\C51\LIB\C51L.LIB (ABS)
  C:\KEIL_V5\C51\LIB\C51L.LIB (ATOI)
  C:\KEIL_V5\C51\LIB\C51L.LIB (?C?IILDX)
  C:\KEIL_V5\C51\LIB\C51L.LIB (ISDIGIT)
  C:\KEIL_V5\C51\LIB\C51L.LIB (ISSPACE)


LINK MAP OF MODULE:  .\Obj\GPIO_RTC_Test (MAIN)


            TYPE    BASE      LENGTH    RELOCATION   SEGMENT NAME
            -----------------------------------------------------

            * * * * * * *   D A T A   M E M O R Y   * * * * * * *
            REG     0000H     0008H     ABSOLUTE     "REG BANK 0"
            REG     0008H     0008H     ABSOLUTE     "REG BANK 1"
                    0010H     0010H                  *** GAP ***
            BIT     0020H.0   0000H.3   UNIT         _BIT_GROUP_
            BIT     0020H.3   0000H.2   UNIT         ?BI?KEYPAD
            BIT     0020H.5   0000H.1   UNIT         ?BI?MAIN
                    0020H.6   0000H.2                *** GAP ***
            IDATA   0021H     0001H     UNIT         ?STACK

BL51 BANKED LINKER/LOCATER V6.22                                                      07/17/2018  22:11:51  PAGE 2


            * * * * * * *  X D A T A   M E M O R Y  * * * * * * *
            XDATA   0000H     0267H     UNIT         ?XD?BIPOLARMOTOR
            XDATA   0267H     002EH     UNIT         _XDATA_GROUP_
            XDATA   0295H     001CH     UNIT         ?XD?MAIN
            XDATA   02B1H     0009H     UNIT         ?XD?KEYPAD
            XDATA   02BAH     0003H     UNIT         ?XD?_SENDSTRING?UART1
            XDATA   02BDH     0001H     UNIT         ?XD?_DISPLAYLCD_VCNL4035?VCNL4035

            * * * * * * *   C O D E   M E M O R Y   * * * * * * *
            CODE    0000H     0003H     ABSOLUTE     
            CODE    0003H     0007H     UNIT         ?PR?KEYPAD_IO_INIT?KEYPAD
            CODE    000AH     0001H     UNIT         ?PR?TM0_ISR?MAIN
            CODE    000BH     0003H     ABSOLUTE     
            CODE    000EH     0015H     UNIT         ?PR?_DISPLAY_LINE?LCD_DRIVER_SPLC780D
            CODE    0023H     0003H     ABSOLUTE     
            CODE    0026H     03C9H     UNIT         ?C?LIB_CODE
            CODE    03EFH     02ABH     UNIT         ?C_INITSEG
            CODE    069AH     0272H     UNIT         ?PR?KEY_PROCESS?KEYPAD
            CODE    090CH     01F1H     UNIT         ?PR?MAIN?MAIN
            CODE    0AFDH     0194H     UNIT         ?PR?KEY_SCAN?KEYPAD
            CODE    0C91H     016EH     UNIT         ?PR?_UPDATE_POSITION?BIPOLARMOTOR
            CODE    0DFFH     00DBH     UNIT         ?PR?_ATOI?ATOI
            CODE    0EDAH     00DAH     UNIT         ?PR?_DISPLAY_POS?MAIN
            CODE    0FB4H     009BH     UNIT         ?PR?UART?MAIN
            CODE    104FH     009AH     UNIT         ?PR?_READ_VCNL4035?VCNL4035
            CODE    10E9H     0095H     UNIT         ?PR?_DISPLAY_PROX?MAIN
            CODE    117EH     008CH     UNIT         ?C_C51STARTUP
            CODE    120AH     0084H     UNIT         ?PR?_DAY_OF_YEAR?PCF85063BTL
            CODE    128EH     0075H     UNIT         ?PR?_WRITEDATA?LCD_DRIVER_SPLC780D
            CODE    1303H     006FH     UNIT         ?PR?_READ_TIME?PCF85063BTL
            CODE    1372H     0059H     UNIT         ?PR?_STEP_MOVE?BIPOLARMOTOR
            CODE    13CBH     0054H     UNIT         ?PR?LCD_INIT?LCD_DRIVER_SPLC780D
            CODE    141FH     0049H     UNIT         ?PR?_WRITE_VCNL4035X?VCNL4035
            CODE    1468H     0040H     UNIT         ?PR?_COMMAND?LCD_DRIVER_SPLC780D
            CODE    14A8H     0034H     UNIT         ?PR?_MOVE?BIPOLARMOTOR
            CODE    14DCH     0033H     UNIT         ?PR?_SENDSTRING?UART1
            CODE    150FH     002CH     UNIT         ?PR?I2C_RECEIVEBYTE?VCNL4035
            CODE    153BH     002BH     UNIT         ?PR?_WAIT_MS_I2C?VCNL4035
            CODE    1566H     0024H     UNIT         ?PR?_WAIT_MS?LCD_DRIVER_SPLC780D
            CODE    158AH     0022H     UNIT         ?PR?_I2C_SENDBYTE?VCNL4035
            CODE    15ACH     0020H     UNIT         ?PR?_SPI_SENDBYTE?PCF85063BTL
            CODE    15CCH     0020H     UNIT         ?PR?SPI_RECEIVEBYTE?PCF85063BTL
            CODE    15ECH     001EH     UNIT         ?PR?_DELAY_MS?KEYPAD
            CODE    160AH     001EH     UNIT         ?PR?_WAIT_MS_IIC?VCNL4035
            CODE    1628H     001DH     UNIT         ?PR?_DISPLAYLCD?LCD_DRIVER_SPLC780D
            CODE    1645H     001BH     UNIT         ?PR?I2C_ACK?VCNL4035
            CODE    1660H     0018H     UNIT         ?PR?_SPI_WRITETIME?PCF85063BTL
            CODE    1678H     0017H     UNIT         ?PR?_ASCIITOBCD?UART1
            CODE    168FH     0017H     UNIT         ?PR?I2C_INIT?VCNL4035
            CODE    16A6H     0015H     UNIT         ?PR?I2C_STOP?VCNL4035
            CODE    16BBH     0014H     UNIT         ?PR?_PCF85063BTL_DELAY?PCF85063BTL
            CODE    16CFH     0014H     UNIT         ?PR?_ISSPACE?ISSPACE
            CODE    16E3H     0013H     UNIT         ?PR?I2C_START?VCNL4035
            CODE    16F6H     0011H     UNIT         ?PR?_SPI_READTIME?PCF85063BTL
            CODE    1707H     0011H     UNIT         ?PR?_BCDTODEC?PCF85063BTL
            CODE    1718H     0011H     UNIT         ?PR?INITUART1?UART1
            CODE    1729H     0011H     UNIT         ?PR?_BCDTODEC1?BIPOLARMOTOR
BL51 BANKED LINKER/LOCATER V6.22                                                      07/17/2018  22:11:51  PAGE 3


            CODE    173AH     000FH     UNIT         ?PR?UC_NACK?VCNL4035
            CODE    1749H     000FH     UNIT         ?PR?_ISDIGIT?ISDIGIT
            CODE    1758H     000DH     UNIT         ?PR?SPI_INIT?PCF85063BTL
            CODE    1765H     000CH     UNIT         ?PR?_ABS?ABS
            CODE    1771H     000AH     UNIT         ?PR?LCD_RETURN_HOME?LCD_DRIVER_SPLC780D
            CODE    177BH     000AH     UNIT         ?PR?LCD_CLEAR?LCD_DRIVER_SPLC780D
            CODE    1785H     0009H     UNIT         ?PR?_SENDUART1?MAIN
            CODE    178EH     0006H     UNIT         ?PR?_TEN?UART1
            CODE    1794H     0006H     UNIT         ?PR?UC_ACK?VCNL4035
            CODE    179AH     0006H     UNIT         ?PR?_DISPLAYLCD_VCNL4035?VCNL4035
            CODE    17A0H     0005H     UNIT         ?PR?_UNIT?UART1
            CODE    17A5H     0005H     UNIT         ?PR?_ASCII_LETTER?UART1
            CODE    17AAH     0001H     UNIT         ?PR?_DECTOBCD?UART1
            CODE    17ABH     0001H     UNIT         ?PR?NOP?VCNL4035



OVERLAY MAP OF MODULE:   .\Obj\GPIO_RTC_Test (MAIN)


SEGMENT                                            BIT_GROUP          XDATA_GROUP
  +--> CALLED SEGMENT                           START    LENGTH     START    LENGTH
-----------------------------------------------------------------------------------
?PR?UART?MAIN                                   -----    -----      -----    -----
  +--> ?PR?_ASCIITOBCD?UART1

?PR?_ASCIITOBCD?UART1                           -----    -----      -----    -----
  +--> ?PR?_ATOI?ATOI

?PR?_ATOI?ATOI                                  0020H.0  0000H.1    0267H    0005H
  +--> ?PR?_ISSPACE?ISSPACE
  +--> ?PR?_ISDIGIT?ISDIGIT

*** NEW ROOT ***************************************************

?C_C51STARTUP                                   -----    -----      -----    -----
  +--> ?PR?MAIN?MAIN
  +--> ?C_INITSEG

?PR?MAIN?MAIN                                   -----    -----      026CH    0011H
  +--> ?PR?LCD_INIT?LCD_DRIVER_SPLC780D
  +--> ?PR?SPI_INIT?PCF85063BTL
  +--> ?PR?KEYPAD_IO_INIT?KEYPAD
  +--> ?PR?INITUART1?UART1
  +--> ?PR?I2C_INIT?VCNL4035
  +--> ?PR?_SPI_WRITETIME?PCF85063BTL
  +--> ?PR?_DELAY_MS?KEYPAD
  +--> ?PR?_DISPLAY_LINE?LCD_DRIVER_SPLC780D
  +--> ?PR?_WRITEDATA?LCD_DRIVER_SPLC780D
  +--> ?PR?KEY_PROCESS?KEYPAD
  +--> ?PR?_COMMAND?LCD_DRIVER_SPLC780D
  +--> ?PR?_DISPLAY_POS?MAIN
  +--> ?PR?_DISPLAYLCD?LCD_DRIVER_SPLC780D
  +--> ?PR?_READ_VCNL4035?VCNL4035
  +--> ?PR?_DISPLAY_PROX?MAIN
  +--> ?PR?_STEP_MOVE?BIPOLARMOTOR
  +--> ?PR?LCD_RETURN_HOME?LCD_DRIVER_SPLC780D
BL51 BANKED LINKER/LOCATER V6.22                                                      07/17/2018  22:11:51  PAGE 4


  +--> ?PR?_READ_TIME?PCF85063BTL
  +--> ?PR?_UPDATE_POSITION?BIPOLARMOTOR
  +--> ?PR?_SENDUART1?MAIN

?PR?LCD_INIT?LCD_DRIVER_SPLC780D                -----    -----      -----    -----
  +--> ?PR?_WAIT_MS?LCD_DRIVER_SPLC780D
  +--> ?PR?_COMMAND?LCD_DRIVER_SPLC780D

?PR?_COMMAND?LCD_DRIVER_SPLC780D                -----    -----      -----    -----
  +--> ?PR?_WAIT_MS?LCD_DRIVER_SPLC780D

?PR?I2C_INIT?VCNL4035                           -----    -----      -----    -----
  +--> ?PR?_WRITE_VCNL4035X?VCNL4035

?PR?_WRITE_VCNL4035X?VCNL4035                   -----    -----      027DH    0003H
  +--> ?PR?I2C_START?VCNL4035
  +--> ?PR?_WAIT_MS_I2C?VCNL4035
  +--> ?PR?I2C_ACK?VCNL4035
  +--> ?PR?_I2C_SENDBYTE?VCNL4035
  +--> ?PR?I2C_STOP?VCNL4035

?PR?I2C_START?VCNL4035                          -----    -----      -----    -----
  +--> ?PR?_WAIT_MS_IIC?VCNL4035
  +--> ?PR?_WAIT_MS_I2C?VCNL4035

?PR?I2C_ACK?VCNL4035                            -----    -----      0285H    0001H
  +--> ?PR?_I2C_SENDBYTE?VCNL4035
  +--> ?PR?_WAIT_MS_I2C?VCNL4035

?PR?_I2C_SENDBYTE?VCNL4035                      -----    -----      -----    -----
  +--> ?PR?_WAIT_MS_I2C?VCNL4035

?PR?I2C_STOP?VCNL4035                           -----    -----      -----    -----
  +--> ?PR?_WAIT_MS_I2C?VCNL4035

?PR?_SPI_WRITETIME?PCF85063BTL                  -----    -----      -----    -----
  +--> ?PR?_SPI_SENDBYTE?PCF85063BTL

?PR?_SPI_SENDBYTE?PCF85063BTL                   -----    -----      -----    -----
  +--> ?PR?_PCF85063BTL_DELAY?PCF85063BTL

?PR?_DISPLAY_LINE?LCD_DRIVER_SPLC780D           -----    -----      -----    -----
  +--> ?PR?_COMMAND?LCD_DRIVER_SPLC780D

?PR?_WRITEDATA?LCD_DRIVER_SPLC780D              -----    -----      0283H    0001H
  +--> ?PR?_WAIT_MS?LCD_DRIVER_SPLC780D

?PR?KEY_PROCESS?KEYPAD                          -----    -----      027DH    0006H
  +--> ?PR?KEY_SCAN?KEYPAD
  +--> ?PR?_SPI_WRITETIME?PCF85063BTL
  +--> ?PR?LCD_CLEAR?LCD_DRIVER_SPLC780D
  +--> ?PR?_COMMAND?LCD_DRIVER_SPLC780D
  +--> ?PR?_WRITEDATA?LCD_DRIVER_SPLC780D

?PR?KEY_SCAN?KEYPAD                             -----    -----      0283H    0003H
  +--> ?PR?_DELAY_MS?KEYPAD

BL51 BANKED LINKER/LOCATER V6.22                                                      07/17/2018  22:11:51  PAGE 5


?PR?LCD_CLEAR?LCD_DRIVER_SPLC780D               -----    -----      -----    -----
  +--> ?PR?_COMMAND?LCD_DRIVER_SPLC780D

?PR?_DISPLAY_POS?MAIN                           -----    -----      027DH    0006H
  +--> ?PR?_ABS?ABS
  +--> ?PR?_WRITEDATA?LCD_DRIVER_SPLC780D

?PR?_DISPLAYLCD?LCD_DRIVER_SPLC780D             -----    -----      027DH    0001H
  +--> ?PR?_WRITEDATA?LCD_DRIVER_SPLC780D

?PR?_READ_VCNL4035?VCNL4035                     -----    -----      027DH    0008H
  +--> ?PR?I2C_START?VCNL4035
  +--> ?PR?_WAIT_MS_I2C?VCNL4035
  +--> ?PR?_I2C_SENDBYTE?VCNL4035
  +--> ?PR?I2C_ACK?VCNL4035
  +--> ?PR?I2C_RECEIVEBYTE?VCNL4035
  +--> ?PR?UC_ACK?VCNL4035
  +--> ?PR?UC_NACK?VCNL4035
  +--> ?PR?I2C_STOP?VCNL4035
  +--> ?PR?_WAIT_MS_IIC?VCNL4035

?PR?I2C_RECEIVEBYTE?VCNL4035                    -----    -----      -----    -----
  +--> ?PR?_WAIT_MS_I2C?VCNL4035

?PR?UC_ACK?VCNL4035                             -----    -----      0285H    0001H
  +--> ?PR?_WAIT_MS_I2C?VCNL4035

?PR?UC_NACK?VCNL4035                            -----    -----      0285H    0001H
  +--> ?PR?_WAIT_MS_I2C?VCNL4035

?PR?_DISPLAY_PROX?MAIN                          -----    -----      027DH    0004H
  +--> ?PR?_WRITEDATA?LCD_DRIVER_SPLC780D

?PR?_STEP_MOVE?BIPOLARMOTOR                     0020H.2  0000H.1    0291H    0004H
  +--> ?PR?_WAIT_MS?LCD_DRIVER_SPLC780D

?PR?LCD_RETURN_HOME?LCD_DRIVER_SPLC780D         -----    -----      -----    -----
  +--> ?PR?_COMMAND?LCD_DRIVER_SPLC780D

?PR?_READ_TIME?PCF85063BTL                      -----    -----      027DH    000FH
  +--> ?PR?_SPI_READTIME?PCF85063BTL

?PR?_SPI_READTIME?PCF85063BTL                   -----    -----      -----    -----
  +--> ?PR?_SPI_SENDBYTE?PCF85063BTL
  +--> ?PR?SPI_RECEIVEBYTE?PCF85063BTL

?PR?SPI_RECEIVEBYTE?PCF85063BTL                 -----    -----      -----    -----
  +--> ?PR?_PCF85063BTL_DELAY?PCF85063BTL

?PR?_UPDATE_POSITION?BIPOLARMOTOR               -----    -----      027DH    0010H
  +--> ?PR?_DAY_OF_YEAR?PCF85063BTL
  +--> ?PR?_BCDTODEC1?BIPOLARMOTOR
  +--> ?PR?_ABS?ABS
  +--> ?PR?_MOVE?BIPOLARMOTOR

?PR?_DAY_OF_YEAR?PCF85063BTL                    -----    -----      -----    -----
  +--> ?PR?_BCDTODEC?PCF85063BTL
BL51 BANKED LINKER/LOCATER V6.22                                                      07/17/2018  22:11:51  PAGE 6



?PR?_MOVE?BIPOLARMOTOR                          0020H.1  0000H.1    028DH    0004H
  +--> ?PR?_STEP_MOVE?BIPOLARMOTOR



SYMBOL TABLE OF MODULE:  .\Obj\GPIO_RTC_Test (MAIN)

  VALUE           TYPE          NAME
  ----------------------------------

  -------         MODULE        MAIN
  C:0000H         SYMBOL        _ICE_DUMMY_
  D:0080H         PUBLIC        P0
  D:0090H         PUBLIC        P1
  D:00A0H         PUBLIC        P2
  D:00B0H         PUBLIC        P3
  D:00C0H         PUBLIC        P4
  D:00C8H         PUBLIC        P5
  X:029DH         SYMBOL        PressedKey
  B:00A8H.7       PUBLIC        EA
  D:00E8H         PUBLIC        P6
  D:00F8H         PUBLIC        P7
  X:02A1H         PUBLIC        RX_Data_Uart_Cnt
  D:00A8H         PUBLIC        IE
  D:00B8H         PUBLIC        IP
  B:0098H.0       PUBLIC        RI
  B:0098H.1       PUBLIC        TI
  C:0FB4H         PUBLIC        Uart
  D:00D8H         PUBLIC        CCON
  C:090CH         PUBLIC        main
  D:0099H         PUBLIC        SBUF
  D:0098H         PUBLIC        SCON
  D:0089H         PUBLIC        TMOD
  D:0088H         PUBLIC        TCON
  X:02A3H         SYMBOL        KeyCount
  X:02A5H         PUBLIC        Rec_data_hour
  X:02A8H         PUBLIC        Rec_data_min
  D:008EH         PUBLIC        AUXR
  C:000AH         PUBLIC        tm0_isr
  B:0020H.5       PUBLIC        busy
  D:00E0H         PUBLIC        ACC
  B:00A8H.1       PUBLIC        ET0
  D:008CH         PUBLIC        TH0
  X:02ABH         PUBLIC        hour_count
  D:008AH         PUBLIC        TL0
  X:02ACH         PUBLIC        min_count
  B:0088H.4       PUBLIC        TR0
  X:02ADH         SYMBOL        KeyNum
  X:02AEH         SYMBOL        KeyNum_Old
  C:10E9H         PUBLIC        _Display_Prox
  C:0EDAH         PUBLIC        _Display_Pos
  X:02AFH         PUBLIC        st_time
  D:00D0H         PUBLIC        PSW
  C:1785H         PUBLIC        _SendUART1
  -------         PROC          TM0_ISR
  C:000AH         LINE#         53
BL51 BANKED LINKER/LOCATER V6.22                                                      07/17/2018  22:11:51  PAGE 7


  C:000AH         LINE#         56
  -------         ENDPROC       TM0_ISR
  -------         PROC          MAIN
  -------         DO            
  X:026CH         SYMBOL        seconds
  X:026DH         SYMBOL        mins
  X:026EH         SYMBOL        hours
  X:026FH         SYMBOL        days
  X:0270H         SYMBOL        months
  X:0271H         SYMBOL        prox_data
  X:0295H         SYMBOL        KeyCount
  X:0297H         SYMBOL        KeyNum_Old
  X:0298H         SYMBOL        KeyNum
  X:0299H         SYMBOL        PressedKey
  X:0273H         SYMBOL        prox_flag
  X:0274H         SYMBOL        count
  X:0276H         SYMBOL        numStr
  X:027BH         SYMBOL        current_position
  -------         ENDDO         
  C:090CH         LINE#         58
  C:090CH         LINE#         59
  C:090CH         LINE#         66
  C:0913H         LINE#         68
  C:0919H         LINE#         69
  C:091BH         LINE#         70
  C:091DH         LINE#         79
  C:0920H         LINE#         80
  C:0923H         LINE#         81
  C:0926H         LINE#         82
  C:0929H         LINE#         83
  C:092CH         LINE#         85
  C:092FH         LINE#         86
  C:0932H         LINE#         87
  C:0935H         LINE#         88
  C:0937H         LINE#         89
  C:0939H         LINE#         90
  C:093BH         LINE#         92
  C:093DH         LINE#         93
  C:0944H         LINE#         94
  C:094BH         LINE#         95
  C:0952H         LINE#         96
  C:0959H         LINE#         100
  C:0960H         LINE#         101
  C:0965H         LINE#         102
  C:096AH         LINE#         103
  C:096FH         LINE#         104
  C:0974H         LINE#         105
  C:0979H         LINE#         108
  C:0979H         LINE#         109
  C:0979H         LINE#         110
  C:097CH         LINE#         111
  C:098AH         LINE#         113
  C:098AH         LINE#         116
  C:098FH         LINE#         117
  C:0994H         LINE#         119
  C:0999H         LINE#         120
  C:099EH         LINE#         121
BL51 BANKED LINKER/LOCATER V6.22                                                      07/17/2018  22:11:51  PAGE 8


  C:09A3H         LINE#         122
  C:09A8H         LINE#         124
  C:09B3H         LINE#         126
  C:09BAH         LINE#         127
  C:09C2H         LINE#         128
  C:09C7H         LINE#         129
  C:09CFH         LINE#         130
  C:09D4H         LINE#         131
  C:09DEH         LINE#         133
  C:09E6H         LINE#         135
  C:09EEH         LINE#         137
  C:09FDH         LINE#         138
  C:0A00H         LINE#         146
  C:0A03H         LINE#         147
  C:0A03H         LINE#         148
  C:0A0EH         LINE#         149
  C:0A11H         LINE#         150
  C:0A11H         LINE#         151
  C:0A1FH         LINE#         152
  C:0A21H         LINE#         154
  C:0A21H         LINE#         155
  C:0A2FH         LINE#         156
  C:0A2FH         LINE#         157
  C:0A34H         LINE#         158
  C:0A34H         LINE#         159
  C:0A49H         LINE#         160
  C:0A49H         LINE#         161
  C:0A4FH         LINE#         162
  C:0A54H         LINE#         163
  C:0A56H         LINE#         164
  C:0A56H         LINE#         171
  C:0A59H         LINE#         173
  C:0A59H         LINE#         174
  C:0A94H         LINE#         175
  C:0AC2H         LINE#         179
  C:0ACFH         LINE#         180
  C:0ACFH         LINE#         181
  C:0AD9H         LINE#         182
  C:0AE3H         LINE#         183
  C:0AEAH         LINE#         184
  C:0AF2H         LINE#         185
  C:0AFAH         LINE#         186
  -------         ENDPROC       MAIN
  -------         PROC          UART
  C:0FB4H         LINE#         199
  C:0FC1H         LINE#         201
  C:0FC4H         LINE#         202
  C:0FC4H         LINE#         203
  C:0FD2H         LINE#         204
  C:0FD4H         LINE#         205
  C:0FE6H         LINE#         206
  C:0FF5H         LINE#         207
  C:1000H         LINE#         208
  C:1000H         LINE#         211
  C:100DH         LINE#         212
  C:1013H         LINE#         213
  C:1013H         LINE#         214
BL51 BANKED LINKER/LOCATER V6.22                                                      07/17/2018  22:11:51  PAGE 9


  C:1019H         LINE#         215
  C:1027H         LINE#         216
  C:1035H         LINE#         217
  C:103DH         LINE#         222
  C:103DH         LINE#         223
  C:103DH         LINE#         226
  C:103DH         LINE#         227
  C:1040H         LINE#         228
  C:1040H         LINE#         229
  C:1042H         LINE#         230
  C:1044H         LINE#         231
  C:1044H         LINE#         232
  -------         ENDPROC       UART
  -------         PROC          _SENDUART1
  D:0007H         SYMBOL        dat
  C:1785H         LINE#         235
  C:1785H         LINE#         236
  C:1785H         LINE#         237
  C:1788H         LINE#         238
  C:178AH         LINE#         239
  C:178BH         LINE#         240
  C:178DH         LINE#         241
  -------         ENDPROC       _SENDUART1
  -------         PROC          _DISPLAY_PROX
  D:0002H         SYMBOL        dat
  -------         DO            
  X:027DH         SYMBOL        unit
  X:027EH         SYMBOL        ten
  X:027FH         SYMBOL        hundred
  X:0280H         SYMBOL        thousand
  -------         ENDDO         
  C:10E9H         LINE#         244
  C:10EDH         LINE#         245
  C:10EDH         LINE#         247
  C:10F9H         LINE#         248
  C:1109H         LINE#         249
  C:1125H         LINE#         250
  C:1155H         LINE#         251
  C:115FH         LINE#         252
  C:1169H         LINE#         253
  C:1173H         LINE#         254
  C:117DH         LINE#         256
  -------         ENDPROC       _DISPLAY_PROX
  -------         PROC          _DISPLAY_POS
  X:027DH         SYMBOL        sign_dat
  -------         DO            
  X:027FH         SYMBOL        unit
  X:0280H         SYMBOL        ten
  X:0281H         SYMBOL        hundred
  X:0282H         SYMBOL        thousand
  D:0002H         SYMBOL        dat
  -------         ENDDO         
  C:0EDAH         LINE#         259
  C:0EE2H         LINE#         260
  C:0EE2H         LINE#         263
  C:0EE9H         LINE#         264
  C:0EF5H         LINE#         265
BL51 BANKED LINKER/LOCATER V6.22                                                      07/17/2018  22:11:51  PAGE 10


  C:0F05H         LINE#         266
  C:0F21H         LINE#         267
  C:0F52H         LINE#         268
  C:0F5DH         LINE#         269
  C:0F5DH         LINE#         271
  C:0F64H         LINE#         272
  C:0F6EH         LINE#         273
  C:0F78H         LINE#         274
  C:0F7DH         LINE#         275
  C:0F82H         LINE#         276
  C:0F84H         LINE#         277
  C:0F86H         LINE#         279
  C:0F86H         LINE#         281
  C:0F8BH         LINE#         282
  C:0F95H         LINE#         283
  C:0F9FH         LINE#         284
  C:0FA9H         LINE#         285
  C:0FAEH         LINE#         286
  C:0FB3H         LINE#         288
  C:0FB3H         LINE#         290
  -------         ENDPROC       _DISPLAY_POS
  -------         ENDMOD        MAIN

  -------         MODULE        PCF85063BTL
  C:0000H         SYMBOL        _ICE_DUMMY_
  D:0096H         PUBLIC        P2M0
  D:0080H         PUBLIC        P0
  D:0095H         PUBLIC        P2M1
  D:0090H         PUBLIC        P1
  D:00A0H         PUBLIC        P2
  D:00B0H         PUBLIC        P3
  D:00C0H         PUBLIC        P4
  D:00C8H         PUBLIC        P5
  D:00E8H         PUBLIC        P6
  B:00A0H.2       PUBLIC        PCF85063BTL_SDI
  D:00F8H         PUBLIC        P7
  B:00A0H.1       PUBLIC        PCF85063BTL_SCK
  B:00A0H.2       PUBLIC        PCF85063BTL_SDO
  D:00A8H         PUBLIC        IE
  C:1303H         PUBLIC        _Read_time
  C:16C1H         PUBLIC        _PCF85063BTL_Delay
  D:00B8H         PUBLIC        IP
  D:00D8H         PUBLIC        CCON
  C:120AH         PUBLIC        _Day_Of_Year
  C:15CCH         PUBLIC        SPI_ReceiveByte
  D:0098H         PUBLIC        SCON
  D:0088H         PUBLIC        TCON
  C:1707H         PUBLIC        _BCDtoDec
  B:00A0H.0       PUBLIC        PCF85063BTL_CS
  C:16F6H         PUBLIC        _SPI_ReadTime
  C:1758H         PUBLIC        SPI_Init
  C:1660H         PUBLIC        _SPI_WriteTime
  C:15ACH         PUBLIC        _SPI_SendByte
  D:00D0H         PUBLIC        PSW
  C:16BDH         SYMBOL        L?0047
  -------         PROC          L?0046
  -------         ENDPROC       L?0046
BL51 BANKED LINKER/LOCATER V6.22                                                      07/17/2018  22:11:51  PAGE 11


  C:16BDH         SYMBOL        L?0047
  -------         PROC          _PCF85063BTL_DELAY
  D:0006H         SYMBOL        us
  C:16C1H         LINE#         8
  C:16C1H         LINE#         9
  C:16C1H         LINE#         10
  C:16CBH         LINE#         11
  C:16CBH         LINE#         12
  C:16CCH         LINE#         13
  C:16CEH         LINE#         14
  -------         ENDPROC       _PCF85063BTL_DELAY
  -------         PROC          _SPI_SENDBYTE
  D:0005H         SYMBOL        dat
  -------         DO            
  D:0003H         SYMBOL        i
  -------         ENDDO         
  C:15ACH         LINE#         17
  C:15AEH         LINE#         18
  C:15AEH         LINE#         20
  C:15B0H         LINE#         21
  C:15B0H         LINE#         22
  C:15B2H         LINE#         23
  C:15B6H         LINE#         24
  C:15B6H         LINE#         25
  C:15B8H         LINE#         26
  C:15BAH         LINE#         28
  C:15BAH         LINE#         29
  C:15BCH         LINE#         30
  C:15BCH         LINE#         31
  C:15BFH         LINE#         32
  C:15BFH         LINE#         33
  C:15C2H         LINE#         34
  C:15C6H         LINE#         35
  C:15CBH         LINE#         36
  -------         ENDPROC       _SPI_SENDBYTE
  -------         PROC          SPI_RECEIVEBYTE
  -------         DO            
  D:0003H         SYMBOL        i
  D:0005H         SYMBOL        dat
  -------         ENDDO         
  C:15CCH         LINE#         39
  C:15CCH         LINE#         40
  C:15CCH         LINE#         42
  C:15CEH         LINE#         44
  C:15D0H         LINE#         45
  C:15D1H         LINE#         46
  C:15D1H         LINE#         47
  C:15D5H         LINE#         48
  C:15D7H         LINE#         49
  C:15DAH         LINE#         51
  C:15DDH         LINE#         52
  C:15DDH         LINE#         53
  C:15E1H         LINE#         54
  C:15E1H         LINE#         55
  C:15E1H         LINE#         56
  C:15E4H         LINE#         57
  C:15E9H         LINE#         58
BL51 BANKED LINKER/LOCATER V6.22                                                      07/17/2018  22:11:51  PAGE 12


  C:15EBH         LINE#         59
  -------         ENDPROC       SPI_RECEIVEBYTE
  -------         PROC          _SPI_READTIME
  D:0007H         SYMBOL        addr
  -------         DO            
  D:0006H         SYMBOL        dat
  -------         ENDDO         
  C:16F6H         LINE#         61
  C:16F6H         LINE#         62
  C:16F6H         LINE#         64
  C:16F8H         LINE#         65
  C:16FAH         LINE#         66
  C:1701H         LINE#         67
  C:1704H         LINE#         68
  C:1706H         LINE#         69
  C:1706H         LINE#         70
  -------         ENDPROC       _SPI_READTIME
  -------         PROC          _SPI_WRITETIME
  D:0002H         SYMBOL        val
  D:0005H         SYMBOL        addr
  C:1660H         LINE#         71
  C:1662H         LINE#         72
  C:1662H         LINE#         74
  C:1664H         LINE#         75
  C:166BH         LINE#         76
  C:1670H         LINE#         77
  C:1675H         LINE#         78
  C:1677H         LINE#         79
  -------         ENDPROC       _SPI_WRITETIME
  -------         PROC          SPI_INIT
  C:1758H         LINE#         83
  C:1758H         LINE#         84
  C:1758H         LINE#         89
  C:175BH         LINE#         90
  C:175EH         LINE#         91
  C:1760H         LINE#         92
  C:1762H         LINE#         93
  C:1764H         LINE#         94
  -------         ENDPROC       SPI_INIT
  -------         PROC          _READ_TIME
  X:027DH         SYMBOL        months
  X:0280H         SYMBOL        days
  X:0283H         SYMBOL        hours
  X:0286H         SYMBOL        mins
  X:0289H         SYMBOL        seconds
  C:1303H         LINE#         96
  C:130EH         LINE#         97
  C:130EH         LINE#         99
  C:1322H         LINE#         101
  C:1336H         LINE#         103
  C:134AH         LINE#         108
  C:135EH         LINE#         113
  -------         ENDPROC       _READ_TIME
  -------         PROC          _BCDTODEC
  D:0007H         SYMBOL        bcd
  -------         DO            
  D:0006H         SYMBOL        hi
BL51 BANKED LINKER/LOCATER V6.22                                                      07/17/2018  22:11:51  PAGE 13


  D:0007H         SYMBOL        lo
  -------         ENDDO         
  C:1707H         LINE#         119
  C:1707H         LINE#         120
  C:1707H         LINE#         122
  C:170CH         LINE#         123
  C:1710H         LINE#         124
  C:1717H         LINE#         125
  -------         ENDPROC       _BCDTODEC
  -------         PROC          _DAY_OF_YEAR
  D:0007H         SYMBOL        months_bcd
  D:0005H         SYMBOL        days_bcd
  -------         DO            
  D:0004H         SYMBOL        months
  D:0007H         SYMBOL        days
  -------         ENDDO         
  C:120AH         LINE#         126
  C:120AH         LINE#         127
  C:120AH         LINE#         130
  C:120FH         LINE#         132
  C:1214H         LINE#         134
  C:124DH         LINE#         135
  C:124DH         LINE#         136
  C:124DH         LINE#         137
  C:1250H         LINE#         138
  C:1250H         LINE#         139
  C:1250H         LINE#         140
  C:1255H         LINE#         141
  C:1255H         LINE#         142
  C:1255H         LINE#         143
  C:125AH         LINE#         144
  C:125AH         LINE#         145
  C:125AH         LINE#         146
  C:125FH         LINE#         147
  C:125FH         LINE#         148
  C:125FH         LINE#         149
  C:1264H         LINE#         150
  C:1264H         LINE#         151
  C:1264H         LINE#         152
  C:1269H         LINE#         153
  C:1269H         LINE#         154
  C:1269H         LINE#         155
  C:126EH         LINE#         156
  C:126EH         LINE#         157
  C:126EH         LINE#         158
  C:1273H         LINE#         159
  C:1273H         LINE#         160
  C:1273H         LINE#         161
  C:127BH         LINE#         162
  C:127BH         LINE#         163
  C:127BH         LINE#         164
  C:1280H         LINE#         165
  C:1280H         LINE#         166
  C:1280H         LINE#         167
  C:1285H         LINE#         168
  C:1285H         LINE#         169
  C:1285H         LINE#         170
BL51 BANKED LINKER/LOCATER V6.22                                                      07/17/2018  22:11:51  PAGE 14


  C:128DH         LINE#         171
  C:128DH         LINE#         172
  C:128DH         LINE#         173
  -------         ENDPROC       _DAY_OF_YEAR
  -------         ENDMOD        PCF85063BTL

  -------         MODULE        UART1
  C:0000H         SYMBOL        _ICE_DUMMY_
  D:0080H         PUBLIC        P0
  D:0090H         PUBLIC        P1
  D:00A0H         PUBLIC        P2
  D:00B0H         PUBLIC        P3
  D:00C0H         PUBLIC        P4
  D:00C8H         PUBLIC        P5
  B:00A8H.7       PUBLIC        EA
  D:00E8H         PUBLIC        P6
  D:00F8H         PUBLIC        P7
  C:14DCH         PUBLIC        _SendString
  D:00A8H         PUBLIC        IE
  B:00A8H.4       PUBLIC        ES
  D:00B8H         PUBLIC        IP
  C:1678H         PUBLIC        _ASCIItoBCD
  D:00D8H         PUBLIC        CCON
  C:1718H         PUBLIC        initUART1
  D:0098H         PUBLIC        SCON
  D:0088H         PUBLIC        TCON
  C:17AAH         PUBLIC        _DectoBCD
  C:17A5H         PUBLIC        _ASCII_Letter
  D:008EH         PUBLIC        AUXR
  C:17A0H         PUBLIC        _unit
  C:178EH         PUBLIC        _ten
  D:00D6H         PUBLIC        T2H
  D:00D7H         PUBLIC        T2L
  D:00D0H         PUBLIC        PSW
  -------         PROC          INITUART1
  C:1718H         LINE#         21
  C:1718H         LINE#         22
  C:1718H         LINE#         23
  C:171BH         LINE#         24
  C:171EH         LINE#         25
  C:1721H         LINE#         26
  C:1724H         LINE#         27
  C:1726H         LINE#         28
  C:1728H         LINE#         30
  -------         ENDPROC       INITUART1
  -------         PROC          _SENDSTRING
  X:02BAH         SYMBOL        s
  C:14DCH         LINE#         35
  C:14E7H         LINE#         36
  C:14E7H         LINE#         37
  C:14F7H         LINE#         38
  C:14F7H         LINE#         39
  C:150CH         LINE#         40
  C:150EH         LINE#         41
  -------         ENDPROC       _SENDSTRING
  -------         PROC          _TEN
  D:0007H         SYMBOL        BCD
BL51 BANKED LINKER/LOCATER V6.22                                                      07/17/2018  22:11:51  PAGE 15


  C:178EH         LINE#         43
  C:178EH         LINE#         44
  C:178EH         LINE#         45
  C:1793H         LINE#         46
  -------         ENDPROC       _TEN
  -------         PROC          _UNIT
  D:0007H         SYMBOL        BCD
  C:17A0H         LINE#         47
  C:17A0H         LINE#         48
  C:17A0H         LINE#         52
  C:17A4H         LINE#         53
  -------         ENDPROC       _UNIT
  -------         PROC          _DECTOBCD
  D:0007H         SYMBOL        dec
  C:17AAH         LINE#         54
  C:17AAH         LINE#         55
  C:17AAH         LINE#         57
  C:17AAH         LINE#         58
  -------         ENDPROC       _DECTOBCD
  -------         PROC          _ASCII_LETTER
  D:0007H         SYMBOL        dat
  C:17A5H         LINE#         60
  C:17A5H         LINE#         61
  C:17A5H         LINE#         63
  C:17A9H         LINE#         64
  -------         ENDPROC       _ASCII_LETTER
  -------         PROC          _ASCIITOBCD
  D:0001H         SYMBOL        ascii
  -------         DO            
  D:0007H         SYMBOL        dec_val
  D:0006H         SYMBOL        ten
  D:0007H         SYMBOL        unit
  -------         ENDDO         
  C:1678H         LINE#         66
  C:1678H         LINE#         67
  C:1678H         LINE#         69
  C:167BH         LINE#         70
  C:1681H         LINE#         71
  C:1688H         LINE#         72
  C:168EH         LINE#         74
  -------         ENDPROC       _ASCIITOBCD
  -------         ENDMOD        UART1

  -------         MODULE        LCD_DRIVER_SPLC780D
  C:0000H         SYMBOL        _ICE_DUMMY_
  D:0080H         PUBLIC        P0
  D:0090H         PUBLIC        P1
  D:00A0H         PUBLIC        P2
  D:00B0H         PUBLIC        P3
  D:00C0H         PUBLIC        P4
  D:00C8H         PUBLIC        P5
  D:00E8H         PUBLIC        P6
  D:00F8H         PUBLIC        P7
  C:128EH         PUBLIC        _WriteData
  D:00A8H         PUBLIC        IE
  D:00B8H         PUBLIC        IP
  D:00D8H         PUBLIC        CCON
BL51 BANKED LINKER/LOCATER V6.22                                                      07/17/2018  22:11:51  PAGE 16


  B:0090H.4       PUBLIC        LCD_D4
  B:0090H.5       PUBLIC        LCD_D5
  B:0090H.6       PUBLIC        LCD_D6
  C:1628H         PUBLIC        _DisplayLCD
  B:0090H.7       PUBLIC        LCD_D7
  D:0098H         PUBLIC        SCON
  D:0088H         PUBLIC        TCON
  C:177BH         PUBLIC        LCD_clear
  C:1468H         PUBLIC        _Command
  C:000EH         PUBLIC        _Display_Line
  C:13CBH         PUBLIC        LCD_Init
  C:156CH         PUBLIC        _Wait_ms
  B:0090H.1       PUBLIC        LCD_RS
  B:0090H.2       PUBLIC        LCD_RW
  C:1771H         PUBLIC        LCD_return_home
  B:0090H.3       PUBLIC        LCD_E
  D:00D0H         PUBLIC        PSW
  -------         PROC          LCD_INIT
  C:13CBH         LINE#         9
  C:13CBH         LINE#         10
  C:13CBH         LINE#         12
  C:13D2H         LINE#         13
  C:13D7H         LINE#         15
  C:13DEH         LINE#         16
  C:13E3H         LINE#         18
  C:13E6H         LINE#         19
  C:13EBH         LINE#         21
  C:13EEH         LINE#         22
  C:13F3H         LINE#         24
  C:13FAH         LINE#         27
  C:13FFH         LINE#         28
  C:1404H         LINE#         30
  C:1409H         LINE#         31
  C:140EH         LINE#         33
  C:1413H         LINE#         34
  C:1418H         LINE#         35
  -------         ENDPROC       LCD_INIT
  -------         PROC          _WRITEDATA
  X:0283H         SYMBOL        dat
  C:128EH         LINE#         38
  C:1293H         LINE#         39
  C:1293H         LINE#         44
  C:1295H         LINE#         45
  C:1297H         LINE#         47
  C:12A5H         LINE#         48
  C:12B1H         LINE#         49
  C:12BDH         LINE#         50
  C:12C7H         LINE#         51
  C:12C9H         LINE#         52
  C:12D0H         LINE#         53
  C:12D2H         LINE#         55
  C:12E2H         LINE#         56
  C:12EDH         LINE#         57
  C:12F7H         LINE#         58
  C:12FBH         LINE#         60
  C:12FBH         LINE#         61
  C:12FEH         LINE#         62
BL51 BANKED LINKER/LOCATER V6.22                                                      07/17/2018  22:11:51  PAGE 17


  C:1300H         LINE#         63
  C:1302H         LINE#         65
  -------         ENDPROC       _WRITEDATA
  -------         PROC          _COMMAND
  D:0007H         SYMBOL        dat
  C:1468H         LINE#         67
  C:1468H         LINE#         68
  C:1468H         LINE#         69
  C:146AH         LINE#         70
  C:146CH         LINE#         72
  C:1476H         LINE#         73
  C:147AH         LINE#         75
  C:147CH         LINE#         76
  C:1485H         LINE#         77
  C:1489H         LINE#         79
  C:148BH         LINE#         80
  C:1492H         LINE#         81
  C:1496H         LINE#         83
  C:1498H         LINE#         84
  C:149CH         LINE#         85
  C:14A0H         LINE#         87
  C:14A2H         LINE#         88
  C:14A2H         LINE#         89
  C:14A5H         LINE#         90
  C:14A7H         LINE#         91
  -------         ENDPROC       _COMMAND
  C:1568H         SYMBOL        L?0028
  -------         PROC          L?0027
  -------         ENDPROC       L?0027
  C:1568H         SYMBOL        L?0028
  -------         PROC          _WAIT_MS
  D:0006H         SYMBOL        ms
  -------         DO            
  D:0004H         SYMBOL        De_Cnt
  -------         ENDDO         
  C:156CH         LINE#         93
  C:156CH         LINE#         94
  C:156CH         LINE#         96
  C:1576H         LINE#         97
  C:1576H         LINE#         98
  C:1589H         LINE#         99
  C:1589H         LINE#         100
  -------         ENDPROC       _WAIT_MS
  -------         PROC          _DISPLAYLCD
  D:0007H         SYMBOL        BCD
  -------         DO            
  D:0006H         SYMBOL        first_digit
  X:027DH         SYMBOL        second_digit
  -------         ENDDO         
  C:1628H         LINE#         101
  C:1628H         LINE#         102
  C:1628H         LINE#         104
  C:162FH         LINE#         105
  C:1638H         LINE#         107
  C:163DH         LINE#         109
  -------         ENDPROC       _DISPLAYLCD
  -------         PROC          LCD_RETURN_HOME
BL51 BANKED LINKER/LOCATER V6.22                                                      07/17/2018  22:11:51  PAGE 18


  C:1771H         LINE#         113
  C:1771H         LINE#         114
  C:1771H         LINE#         115
  C:1776H         LINE#         116
  -------         ENDPROC       LCD_RETURN_HOME
  -------         PROC          LCD_CLEAR
  C:177BH         LINE#         119
  C:177BH         LINE#         120
  C:177BH         LINE#         121
  C:1780H         LINE#         122
  -------         ENDPROC       LCD_CLEAR
  -------         PROC          _DISPLAY_LINE
  D:0006H         SYMBOL        line
  C:000EH         LINE#         126
  C:000EH         LINE#         127
  C:000EH         LINE#         128
  C:0014H         LINE#         129
  C:0014H         LINE#         130
  C:0016H         LINE#         131
  C:0016H         LINE#         132
  C:0018H         LINE#         134
  C:0018H         LINE#         135
  C:001DH         LINE#         136
  C:0022H         LINE#         137
  C:0022H         LINE#         138
  -------         ENDPROC       _DISPLAY_LINE
  -------         ENDMOD        LCD_DRIVER_SPLC780D

  -------         MODULE        KEYPAD
  C:0000H         SYMBOL        _ICE_DUMMY_
  D:0093H         PUBLIC        P0M1
  D:0080H         PUBLIC        P0
  D:0090H         PUBLIC        P1
  D:00A0H         PUBLIC        P2
  D:00B0H         PUBLIC        P3
  D:00C0H         PUBLIC        P4
  D:00C8H         PUBLIC        P5
  D:00E8H         PUBLIC        P6
  D:00F8H         PUBLIC        P7
  D:00A8H         PUBLIC        IE
  C:0AFDH         PUBLIC        Key_Scan
  D:00B8H         PUBLIC        IP
  D:00D8H         PUBLIC        CCON
  C:0003H         PUBLIC        KeyPad_IO_Init
  C:15ECH         PUBLIC        _Delay_ms
  D:0098H         PUBLIC        SCON
  D:0088H         PUBLIC        TCON
  B:0020H.3       PUBLIC        move
  B:0020H.4       PUBLIC        direction
  C:069AH         PUBLIC        Key_Process
  D:00D0H         PUBLIC        PSW
  D:0094H         PUBLIC        P0M0
  -------         PROC          _DELAY_MS
  D:0006H         SYMBOL        ms
  -------         DO            
  D:0004H         SYMBOL        De_Cnt
  -------         ENDDO         
BL51 BANKED LINKER/LOCATER V6.22                                                      07/17/2018  22:11:51  PAGE 19


  C:15ECH         LINE#         15
  C:15ECH         LINE#         16
  C:15ECH         LINE#         18
  C:15F6H         LINE#         19
  C:15F6H         LINE#         20
  C:1609H         LINE#         21
  C:1609H         LINE#         22
  -------         ENDPROC       _DELAY_MS
  -------         PROC          KEY_SCAN
  -------         DO            
  X:0283H         SYMBOL        KeyTemp1
  X:0284H         SYMBOL        KeyTemp2
  X:0285H         SYMBOL        KeyValue
  -------         ENDDO         
  C:0AFDH         LINE#         23
  C:0AFDH         LINE#         24
  C:0AFDH         LINE#         29
  C:0B00H         LINE#         32
  C:0B03H         LINE#         34
  C:0B0BH         LINE#         35
  C:0B12H         LINE#         36
  C:0B12H         LINE#         37
  C:0B19H         LINE#         38
  C:0B1EH         LINE#         39
  C:0B25H         LINE#         40
  C:0B25H         LINE#         43
  C:0B28H         LINE#         44
  C:0B2BH         LINE#         45
  C:0B30H         LINE#         46
  C:0B34H         LINE#         47
  C:0B34H         LINE#         48
  C:0B3CH         LINE#         49
  C:0B3CH         LINE#         50
  C:0B3FH         LINE#         51
  C:0B47H         LINE#         52
  C:0B49H         LINE#         54
  C:0B5DH         LINE#         55
  C:0B5DH         LINE#         56
  C:0B5DH         LINE#         57
  C:0B5DH         LINE#         58
  C:0B63H         LINE#         60
  C:0B65H         LINE#         61
  C:0B65H         LINE#         62
  C:0B65H         LINE#         63
  C:0B6BH         LINE#         65
  C:0B6DH         LINE#         66
  C:0B6DH         LINE#         67
  C:0B6DH         LINE#         68
  C:0B73H         LINE#         70
  C:0B75H         LINE#         71
  C:0B75H         LINE#         72
  C:0B75H         LINE#         73
  C:0B7BH         LINE#         75
  C:0B7BH         LINE#         76
  C:0B7BH         LINE#         77
  C:0B7BH         LINE#         80
  C:0B7EH         LINE#         81
BL51 BANKED LINKER/LOCATER V6.22                                                      07/17/2018  22:11:51  PAGE 20


  C:0B81H         LINE#         82
  C:0B89H         LINE#         83
  C:0B8DH         LINE#         84
  C:0B8DH         LINE#         85
  C:0B95H         LINE#         86
  C:0B95H         LINE#         87
  C:0B98H         LINE#         88
  C:0BA0H         LINE#         89
  C:0BA2H         LINE#         90
  C:0BB6H         LINE#         91
  C:0BB6H         LINE#         92
  C:0BB6H         LINE#         93
  C:0BB6H         LINE#         94
  C:0BBCH         LINE#         96
  C:0BBEH         LINE#         97
  C:0BBEH         LINE#         98
  C:0BBEH         LINE#         99
  C:0BC4H         LINE#         101
  C:0BC6H         LINE#         102
  C:0BC6H         LINE#         103
  C:0BC6H         LINE#         104
  C:0BCCH         LINE#         106
  C:0BCEH         LINE#         107
  C:0BCEH         LINE#         108
  C:0BCEH         LINE#         109
  C:0BD3H         LINE#         111
  C:0BD3H         LINE#         112
  C:0BD3H         LINE#         113
  C:0BD3H         LINE#         116
  C:0BD6H         LINE#         117
  C:0BD9H         LINE#         118
  C:0BE1H         LINE#         119
  C:0BE5H         LINE#         120
  C:0BE5H         LINE#         121
  C:0BEDH         LINE#         122
  C:0BEDH         LINE#         123
  C:0BF0H         LINE#         124
  C:0BF8H         LINE#         125
  C:0BFAH         LINE#         126
  C:0C0EH         LINE#         127
  C:0C0EH         LINE#         128
  C:0C0EH         LINE#         129
  C:0C0EH         LINE#         130
  C:0C14H         LINE#         132
  C:0C16H         LINE#         133
  C:0C16H         LINE#         134
  C:0C16H         LINE#         135
  C:0C1CH         LINE#         137
  C:0C1EH         LINE#         138
  C:0C1EH         LINE#         139
  C:0C1EH         LINE#         140
  C:0C24H         LINE#         142
  C:0C26H         LINE#         143
  C:0C26H         LINE#         144
  C:0C26H         LINE#         145
  C:0C2CH         LINE#         147
  C:0C2CH         LINE#         148
BL51 BANKED LINKER/LOCATER V6.22                                                      07/17/2018  22:11:51  PAGE 21


  C:0C2CH         LINE#         149
  C:0C2CH         LINE#         153
  C:0C2FH         LINE#         154
  C:0C32H         LINE#         155
  C:0C3AH         LINE#         156
  C:0C3EH         LINE#         157
  C:0C3EH         LINE#         158
  C:0C46H         LINE#         159
  C:0C46H         LINE#         160
  C:0C49H         LINE#         161
  C:0C51H         LINE#         162
  C:0C53H         LINE#         163
  C:0C67H         LINE#         164
  C:0C67H         LINE#         165
  C:0C67H         LINE#         166
  C:0C67H         LINE#         167
  C:0C6DH         LINE#         169
  C:0C6FH         LINE#         170
  C:0C6FH         LINE#         171
  C:0C6FH         LINE#         172
  C:0C75H         LINE#         174
  C:0C77H         LINE#         175
  C:0C77H         LINE#         176
  C:0C77H         LINE#         177
  C:0C7DH         LINE#         179
  C:0C7FH         LINE#         180
  C:0C7FH         LINE#         181
  C:0C7FH         LINE#         182
  C:0C85H         LINE#         184
  C:0C85H         LINE#         185
  C:0C85H         LINE#         186
  C:0C85H         LINE#         188
  C:0C8BH         LINE#         189
  C:0C8BH         LINE#         191
  C:0C8BH         LINE#         192
  C:0C8EH         LINE#         193
  C:0C8EH         LINE#         194
  C:0C8EH         LINE#         196
  C:0C8EH         LINE#         197
  C:0C90H         LINE#         198
  C:0C90H         LINE#         199
  -------         ENDPROC       KEY_SCAN
  -------         PROC          KEY_PROCESS
  -------         DO            
  X:02B1H         SYMBOL        KeyCount
  X:02B3H         SYMBOL        KeyNum_Old
  X:02B4H         SYMBOL        KeyNum
  X:02B5H         SYMBOL        PressedKey
  X:027DH         SYMBOL        d
  D:0004H         SYMBOL        hours
  D:0006H         SYMBOL        mins
  X:027FH         SYMBOL        months
  X:0281H         SYMBOL        days
  -------         ENDDO         
  C:069AH         LINE#         200
  C:069AH         LINE#         201
  C:069AH         LINE#         205
BL51 BANKED LINKER/LOCATER V6.22                                                      07/17/2018  22:11:51  PAGE 22


  C:06A2H         LINE#         206
  C:06AAH         LINE#         208
  C:06B7H         LINE#         209
  C:06B7H         LINE#         210
  C:06BAH         LINE#         211
  C:06BDH         LINE#         213
  C:06C0H         LINE#         215
  C:06C0H         LINE#         216
  C:06CBH         LINE#         217
  C:06CBH         LINE#         218
  C:06CEH         LINE#         220
  C:06CEH         LINE#         221
  C:06D5H         LINE#         222
  C:06D5H         LINE#         223
  C:06D8H         LINE#         225
  C:06D8H         LINE#         226
  C:06E8H         LINE#         227
  C:06E8H         LINE#         228
  C:06FAH         LINE#         229
  C:0708H         LINE#         230
  C:0717H         LINE#         231
  C:0717H         LINE#         233
  C:071DH         LINE#         237
  C:0733H         LINE#         238
  C:0744H         LINE#         239
  C:075FH         LINE#         240
  C:075FH         LINE#         241
  C:076FH         LINE#         242
  C:0780H         LINE#         243
  C:0780H         LINE#         247
  C:0799H         LINE#         248
  C:07B0H         LINE#         249
  C:07D0H         LINE#         250
  C:07D0H         LINE#         251
  C:07DAH         LINE#         252
  C:07DAH         LINE#         253
  C:07E3H         LINE#         254
  C:07E3H         LINE#         255
  C:07F7H         LINE#         256
  C:07F7H         LINE#         257
  C:07F7H         LINE#         258
  C:07F7H         LINE#         259
  C:07F7H         LINE#         260
  C:07F9H         LINE#         262
  C:07F9H         LINE#         263
  C:0805H         LINE#         264
  C:0805H         LINE#         265
  C:0816H         LINE#         266
  C:0816H         LINE#         267
  C:0816H         LINE#         268
  C:0816H         LINE#         269
  C:0816H         LINE#         271
  C:0818H         LINE#         273
  C:0818H         LINE#         274
  C:0829H         LINE#         275
  C:0829H         LINE#         276
  C:0829H         LINE#         277
BL51 BANKED LINKER/LOCATER V6.22                                                      07/17/2018  22:11:51  PAGE 23


  C:0829H         LINE#         278
  C:0829H         LINE#         280
  C:0829H         LINE#         282
  C:0829H         LINE#         283
  C:082BH         LINE#         285
  C:082BH         LINE#         286
  C:083EH         LINE#         287
  C:083EH         LINE#         288
  C:084FH         LINE#         289
  C:084FH         LINE#         290
  C:084FH         LINE#         291
  C:084FH         LINE#         292
  C:084FH         LINE#         293
  C:0851H         LINE#         295
  C:0851H         LINE#         296
  C:0862H         LINE#         297
  C:0862H         LINE#         298
  C:0873H         LINE#         299
  C:0884H         LINE#         300
  C:0884H         LINE#         301
  C:0884H         LINE#         302
  C:0884H         LINE#         303
  C:0884H         LINE#         304
  C:0887H         LINE#         305
  C:088CH         LINE#         306
  C:0891H         LINE#         307
  C:0896H         LINE#         308
  C:089BH         LINE#         309
  C:08A0H         LINE#         310
  C:08A5H         LINE#         311
  C:08AAH         LINE#         312
  C:08AAH         LINE#         314
  C:08CCH         LINE#         315
  C:08CCH         LINE#         316
  C:08D6H         LINE#         317
  C:08D6H         LINE#         318
  C:08DBH         LINE#         319
  C:08E4H         LINE#         320
  C:08FBH         LINE#         321
  C:08FBH         LINE#         322
  C:090BH         LINE#         324
  C:090BH         LINE#         328
  -------         ENDPROC       KEY_PROCESS
  -------         PROC          KEYPAD_IO_INIT
  C:0003H         LINE#         331
  C:0003H         LINE#         332
  C:0003H         LINE#         333
  C:0006H         LINE#         334
  C:0009H         LINE#         335
  -------         ENDPROC       KEYPAD_IO_INIT
  -------         ENDMOD        KEYPAD

  -------         MODULE        VCNL4035
  C:0000H         SYMBOL        _ICE_DUMMY_
  D:0080H         PUBLIC        P0
  B:00B0H.2       PUBLIC        I2C_SCK
  D:00B2H         PUBLIC        P3M0
BL51 BANKED LINKER/LOCATER V6.22                                                      07/17/2018  22:11:51  PAGE 24


  D:0090H         PUBLIC        P1
  D:00B1H         PUBLIC        P3M1
  D:00A0H         PUBLIC        P2
  D:00B0H         PUBLIC        P3
  D:00C0H         PUBLIC        P4
  D:00C8H         PUBLIC        P5
  D:00E8H         PUBLIC        P6
  D:00F8H         PUBLIC        P7
  D:00A8H         PUBLIC        IE
  C:179AH         PUBLIC        _DisplayLCD_VCNL4035
  D:00B8H         PUBLIC        IP
  D:00D8H         PUBLIC        CCON
  C:16E3H         PUBLIC        I2C_Start
  D:0098H         PUBLIC        SCON
  C:168FH         PUBLIC        I2C_Init
  D:0088H         PUBLIC        TCON
  C:173AH         PUBLIC        uC_NACK
  C:1548H         PUBLIC        _Wait_ms_i2c
  C:158AH         PUBLIC        _I2C_SendByte
  C:16A6H         PUBLIC        I2C_Stop
  C:141FH         PUBLIC        _Write_VCNL4035X
  C:17ABH         PUBLIC        nop
  C:104FH         PUBLIC        _Read_VCNL4035
  C:1794H         PUBLIC        uC_ACK
  C:164AH         PUBLIC        I2C_ACK
  C:160AH         PUBLIC        _Wait_ms_iic
  B:00B0H.1       PUBLIC        I2C_SDA
  D:00D0H         PUBLIC        PSW
  C:1515H         PUBLIC        I2C_ReceiveByte
  -------         PROC          _WAIT_MS_IIC
  D:0006H         SYMBOL        ms
  -------         DO            
  D:0004H         SYMBOL        De_Cnt
  -------         ENDDO         
  C:160AH         LINE#         5
  C:160AH         LINE#         6
  C:160AH         LINE#         8
  C:1614H         LINE#         9
  C:1614H         LINE#         10
  C:1627H         LINE#         11
  C:1627H         LINE#         12
  -------         ENDPROC       _WAIT_MS_IIC
  C:1542H         SYMBOL        L?0048
  C:1544H         SYMBOL        L?0049
  -------         PROC          L?0047
  -------         ENDPROC       L?0047
  C:1542H         SYMBOL        L?0048
  C:1544H         SYMBOL        L?0049
  -------         PROC          _WAIT_MS_I2C
  D:0006H         SYMBOL        ms
  -------         DO            
  D:0004H         SYMBOL        De_Cnt
  -------         ENDDO         
  C:1548H         LINE#         14
  C:1548H         LINE#         15
  C:1548H         LINE#         17
  C:1552H         LINE#         18
BL51 BANKED LINKER/LOCATER V6.22                                                      07/17/2018  22:11:51  PAGE 25


  C:1552H         LINE#         19
  C:1565H         LINE#         20
  C:1565H         LINE#         21
  -------         ENDPROC       _WAIT_MS_I2C
  -------         PROC          NOP
  C:17ABH         LINE#         22
  C:17ABH         LINE#         23
  C:17ABH         LINE#         25
  -------         ENDPROC       NOP
  -------         PROC          I2C_START
  C:16E3H         LINE#         26
  C:16E3H         LINE#         27
  C:16E3H         LINE#         29
  C:16E5H         LINE#         30
  C:16E7H         LINE#         31
  C:16EEH         LINE#         32
  C:16F0H         LINE#         33
  C:16F3H         LINE#         34
  C:16F5H         LINE#         37
  -------         ENDPROC       I2C_START
  -------         PROC          I2C_STOP
  C:16A6H         LINE#         39
  C:16A6H         LINE#         40
  C:16A6H         LINE#         41
  C:16A8H         LINE#         42
  C:16AAH         LINE#         43
  C:16ADH         LINE#         44
  C:16AFH         LINE#         45
  C:16B1H         LINE#         46
  C:16B8H         LINE#         47
  C:16BAH         LINE#         50
  -------         ENDPROC       I2C_STOP
  -------         PROC          L?0050
  -------         ENDPROC       L?0050
  -------         PROC          I2C_ACK
  -------         DO            
  X:0285H         SYMBOL        i
  D:0003H         SYMBOL        dat
  -------         ENDDO         
  C:164AH         LINE#         52
  C:164AH         LINE#         53
  C:164AH         LINE#         55
  C:164BH         LINE#         60
  C:164EH         LINE#         61
  C:1650H         LINE#         62
  C:1653H         LINE#         64
  C:1656H         LINE#         65
  C:1656H         LINE#         66
  C:165AH         LINE#         67
  C:165AH         LINE#         70
  C:165AH         LINE#         71
  C:165DH         LINE#         72
  C:165DH         LINE#         73
  C:165FH         LINE#         74
  -------         ENDPROC       I2C_ACK
  -------         PROC          UC_ACK
  -------         DO            
BL51 BANKED LINKER/LOCATER V6.22                                                      07/17/2018  22:11:51  PAGE 26


  X:0285H         SYMBOL        i
  -------         ENDDO         
  C:1794H         LINE#         75
  C:1794H         LINE#         76
  C:1794H         LINE#         78
  C:1794H         LINE#         85
  C:1794H         LINE#         87
  C:1794H         LINE#         89
  C:1794H         LINE#         90
  C:1794H         LINE#         93
  C:1797H         LINE#         94
  C:1799H         LINE#         95
  C:1799H         LINE#         99
  -------         ENDPROC       UC_ACK
  -------         PROC          UC_NACK
  -------         DO            
  X:0285H         SYMBOL        i
  -------         ENDDO         
  C:173AH         LINE#         101
  C:173AH         LINE#         102
  C:173AH         LINE#         104
  C:173AH         LINE#         108
  C:173CH         LINE#         111
  C:173CH         LINE#         112
  C:173EH         LINE#         113
  C:173EH         LINE#         115
  C:173EH         LINE#         116
  C:173EH         LINE#         119
  C:1741H         LINE#         120
  C:1743H         LINE#         121
  C:1746H         LINE#         122
  C:1748H         LINE#         123
  C:1748H         LINE#         127
  -------         ENDPROC       UC_NACK
  -------         PROC          I2C_INIT
  C:168FH         LINE#         129
  C:168FH         LINE#         130
  C:168FH         LINE#         133
  C:1692H         LINE#         134
  C:1695H         LINE#         139
  C:169DH         LINE#         141
  -------         ENDPROC       I2C_INIT
  -------         PROC          _I2C_SENDBYTE
  D:0001H         SYMBOL        dat
  -------         DO            
  D:0003H         SYMBOL        i
  -------         ENDDO         
  C:158AH         LINE#         145
  C:158CH         LINE#         146
  C:158CH         LINE#         149
  C:158EH         LINE#         150
  C:158EH         LINE#         151
  C:1590H         LINE#         153
  C:1594H         LINE#         154
  C:1594H         LINE#         155
  C:1596H         LINE#         156
  C:1598H         LINE#         158
BL51 BANKED LINKER/LOCATER V6.22                                                      07/17/2018  22:11:51  PAGE 27


  C:1598H         LINE#         159
  C:159AH         LINE#         160
  C:159AH         LINE#         161
  C:159DH         LINE#         162
  C:159FH         LINE#         164
  C:15A3H         LINE#         165
  C:15A6H         LINE#         166
  C:15ABH         LINE#         167
  -------         ENDPROC       _I2C_SENDBYTE
  -------         PROC          L?0051
  -------         ENDPROC       L?0051
  -------         PROC          I2C_RECEIVEBYTE
  -------         DO            
  D:0003H         SYMBOL        i
  D:0001H         SYMBOL        dat
  -------         ENDDO         
  C:1515H         LINE#         171
  C:1515H         LINE#         172
  C:1515H         LINE#         174
  C:1517H         LINE#         178
  C:1518H         LINE#         179
  C:1518H         LINE#         180
  C:151CH         LINE#         181
  C:151EH         LINE#         182
  C:1521H         LINE#         184
  C:1524H         LINE#         185
  C:1524H         LINE#         186
  C:1528H         LINE#         187
  C:1528H         LINE#         188
  C:1528H         LINE#         189
  C:152BH         LINE#         190
  C:152FH         LINE#         191
  C:152FH         LINE#         192
  C:1531H         LINE#         193
  C:1533H         LINE#         194
  C:1533H         LINE#         196
  C:1538H         LINE#         197
  C:153AH         LINE#         198
  -------         ENDPROC       I2C_RECEIVEBYTE
  -------         PROC          _WRITE_VCNL4035X
  X:027DH         SYMBOL        command_code
  X:027EH         SYMBOL        dat_h
  X:027FH         SYMBOL        dat_l
  C:141FH         LINE#         199
  C:142AH         LINE#         200
  C:142AH         LINE#         201
  C:142DH         LINE#         202
  C:1434H         LINE#         203
  C:1434H         LINE#         204
  C:143AH         LINE#         205
  C:143AH         LINE#         206
  C:1442H         LINE#         207
  C:1442H         LINE#         208
  C:1448H         LINE#         209
  C:1450H         LINE#         211
  C:1456H         LINE#         212
  C:145EH         LINE#         214
BL51 BANKED LINKER/LOCATER V6.22                                                      07/17/2018  22:11:51  PAGE 28


  C:1464H         LINE#         215
  C:1467H         LINE#         216
  -------         ENDPROC       _WRITE_VCNL4035X
  -------         PROC          _READ_VCNL4035
  X:027DH         SYMBOL        command_code
  -------         DO            
  X:027FH         SYMBOL        temp_dat
  X:0281H         SYMBOL        temp_dat_l
  X:0283H         SYMBOL        temp_dat_h
  -------         ENDDO         
  C:104FH         LINE#         218
  C:1057H         LINE#         219
  C:1057H         LINE#         220
  C:1064H         LINE#         222
  C:1067H         LINE#         223
  C:106AH         LINE#         224
  C:106FH         LINE#         226
  C:1075H         LINE#         227
  C:1075H         LINE#         228
  C:1075H         LINE#         229
  C:1075H         LINE#         230
  C:1080H         LINE#         231
  C:1083H         LINE#         232
  C:1086H         LINE#         233
  C:1086H         LINE#         236
  C:1089H         LINE#         238
  C:1090H         LINE#         239
  C:1090H         LINE#         240
  C:1090H         LINE#         241
  C:109BH         LINE#         242
  C:109EH         LINE#         243
  C:10A1H         LINE#         244
  C:10A4H         LINE#         245
  C:10A7H         LINE#         246
  C:10AAH         LINE#         247
  C:10ADH         LINE#         248
  C:10B0H         LINE#         249
  C:10B3H         LINE#         250
  C:10B3H         LINE#         251
  C:10B9H         LINE#         252
  C:10B9H         LINE#         253
  C:10C2H         LINE#         255
  C:10C2H         LINE#         256
  C:10C8H         LINE#         257
  C:10C8H         LINE#         259
  C:10CAH         LINE#         260
  C:10D0H         LINE#         261
  C:10D3H         LINE#         262
  C:10DAH         LINE#         263
  C:10DAH         LINE#         264
  C:10E8H         LINE#         265
  -------         ENDPROC       _READ_VCNL4035
  -------         PROC          _DISPLAYLCD_VCNL4035
  X:02BDH         SYMBOL        dat
  C:179AH         LINE#         267
  C:179FH         LINE#         268
  C:179FH         LINE#         270
BL51 BANKED LINKER/LOCATER V6.22                                                      07/17/2018  22:11:51  PAGE 29


  -------         ENDPROC       _DISPLAYLCD_VCNL4035
  -------         ENDMOD        VCNL4035

  -------         MODULE        BIPOLARMOTOR
  C:0000H         SYMBOL        _ICE_DUMMY_
  D:0080H         PUBLIC        P0
  D:0090H         PUBLIC        P1
  D:00A0H         PUBLIC        P2
  D:00B0H         PUBLIC        P3
  D:00C0H         PUBLIC        P4
  D:00C8H         PUBLIC        P5
  D:00E8H         PUBLIC        P6
  D:00F8H         PUBLIC        P7
  D:00A8H         PUBLIC        IE
  X:0000H         PUBLIC        receiver_pos
  X:01D6H         PUBLIC        Time_stamp_PM
  C:14A8H         PUBLIC        _Move
  D:00B8H         PUBLIC        IP
  D:00D8H         PUBLIC        CCON
  D:0098H         PUBLIC        SCON
  D:0088H         PUBLIC        TCON
  C:1372H         PUBLIC        _Step_move
  C:0C91H         PUBLIC        _Update_position
  C:1729H         PUBLIC        _BCDtoDec1
  X:0263H         PUBLIC        degree
  D:00D0H         PUBLIC        PSW
  -------         PROC          _BCDTODEC1
  D:0007H         SYMBOL        bcd
  -------         DO            
  D:0006H         SYMBOL        hi
  D:0007H         SYMBOL        lo
  -------         ENDDO         
  C:1729H         LINE#         11
  C:1729H         LINE#         12
  C:1729H         LINE#         14
  C:172EH         LINE#         15
  C:1732H         LINE#         16
  C:1739H         LINE#         17
  -------         ENDPROC       _BCDTODEC1
  -------         PROC          _STEP_MOVE
  X:0291H         SYMBOL        step
  B:0020H.2       SYMBOL        dir
  -------         DO            
  X:0293H         SYMBOL        i
  -------         ENDDO         
  C:1372H         LINE#         23
  C:137AH         LINE#         24
  C:137AH         LINE#         25
  C:137FH         LINE#         26
  C:1382H         LINE#         27
  C:1387H         LINE#         29
  C:138AH         LINE#         31
  C:13A6H         LINE#         32
  C:13A6H         LINE#         33
  C:13A9H         LINE#         34
  C:13B0H         LINE#         35
  C:13B3H         LINE#         36
BL51 BANKED LINKER/LOCATER V6.22                                                      07/17/2018  22:11:51  PAGE 30


  C:13BAH         LINE#         37
  C:13CAH         LINE#         38
  -------         ENDPROC       _STEP_MOVE
  -------         PROC          _MOVE
  X:028DH         SYMBOL        distance
  B:0020H.1       SYMBOL        direction
  -------         DO            
  D:0006H         SYMBOL        step
  -------         ENDDO         
  C:14A8H         LINE#         40
  C:14AEH         LINE#         41
  C:14AEH         LINE#         43
  C:14D5H         LINE#         44
  -------         ENDPROC       _MOVE
  -------         PROC          _UPDATE_POSITION
  D:0007H         SYMBOL        mnths
  D:0005H         SYMBOL        dys
  X:027FH         SYMBOL        hurs
  X:0280H         SYMBOL        mns
  X:0281H         SYMBOL        sconds
  X:0282H         SYMBOL        currnt_pos
  -------         DO            
  X:0285H         SYMBOL        date
  X:0287H         SYMBOL        i
  X:0289H         SYMBOL        desired_distance
  X:028BH         SYMBOL        distance
  -------         ENDDO         
  C:0C91H         LINE#         50
  C:0C96H         LINE#         51
  C:0C96H         LINE#         57
  C:0CA1H         LINE#         59
  C:0CA6H         LINE#         60
  C:0CA6H         LINE#         61
  C:0D21H         LINE#         62
  C:0D21H         LINE#         63
  C:0D3EH         LINE#         64
  C:0D3EH         LINE#         65
  C:0D3EH         LINE#         66
  C:0D41H         LINE#         67
  C:0D43H         LINE#         68
  C:0D43H         LINE#         69
  C:0D46H         LINE#         70
  C:0D48H         LINE#         71
  C:0D48H         LINE#         72
  C:0D4BH         LINE#         73
  C:0D4DH         LINE#         74
  C:0D4DH         LINE#         75
  C:0D50H         LINE#         76
  C:0D52H         LINE#         77
  C:0D52H         LINE#         78
  C:0D71H         LINE#         79
  C:0D71H         LINE#         80
  C:0D71H         LINE#         83
  C:0D94H         LINE#         84
  C:0D9AH         LINE#         85
  C:0DA5H         LINE#         86
  C:0DA5H         LINE#         87
BL51 BANKED LINKER/LOCATER V6.22                                                      07/17/2018  22:11:51  PAGE 31


  C:0DBAH         LINE#         88
  C:0DBCH         LINE#         89
  C:0DCCH         LINE#         90
  C:0DCCH         LINE#         91
  C:0DDCH         LINE#         92
  C:0DDCH         LINE#         94
  C:0DDCH         LINE#         95
  C:0DDCH         LINE#         96
  C:0DFEH         LINE#         97
  -------         ENDPROC       _UPDATE_POSITION
  -------         ENDMOD        BIPOLARMOTOR

  -------         MODULE        ?C_STARTUP
  C:117EH         SEGMENT       ?C_C51STARTUP
  I:0021H         SEGMENT       ?STACK
  C:0000H         PUBLIC        ?C_STARTUP
  D:00E0H         SYMBOL        ACC
  D:00F0H         SYMBOL        B
  D:0083H         SYMBOL        DPH
  D:0082H         SYMBOL        DPL
  N:0000H         SYMBOL        IBPSTACK
  N:0100H         SYMBOL        IBPSTACKTOP
  N:0080H         SYMBOL        IDATALEN
  C:1181H         SYMBOL        IDATALOOP
  N:0000H         SYMBOL        PBPSTACK
  N:0100H         SYMBOL        PBPSTACKTOP
  N:0000H         SYMBOL        PDATALEN
  N:0000H         SYMBOL        PDATASTART
  N:0000H         SYMBOL        PPAGE
  N:0000H         SYMBOL        PPAGEENABLE
  D:00A0H         SYMBOL        PPAGE_SFR
  D:0081H         SYMBOL        SP
  C:117EH         SYMBOL        STARTUP1
  N:0000H         SYMBOL        XBPSTACK
  N:0000H         SYMBOL        XBPSTACKTOP
  N:0000H         SYMBOL        XDATALEN
  N:0000H         SYMBOL        XDATASTART
  C:0000H         LINE#         126
  C:117EH         LINE#         133
  C:1180H         LINE#         134
  C:1181H         LINE#         135
  C:1182H         LINE#         136
  C:1184H         LINE#         185
  C:1187H         LINE#         196
  -------         ENDMOD        ?C_STARTUP

  -------         MODULE        ?C?FPMUL
  C:0026H         PUBLIC        ?C?FPMUL
  -------         ENDMOD        ?C?FPMUL

  -------         MODULE        ?C?FPDIV
  C:012FH         PUBLIC        ?C?FPDIV
  -------         ENDMOD        ?C?FPDIV

  -------         MODULE        ?C?FCAST
  C:01D6H         PUBLIC        ?C?FCASTC
  C:01D1H         PUBLIC        ?C?FCASTI
BL51 BANKED LINKER/LOCATER V6.22                                                      07/17/2018  22:11:51  PAGE 32


  C:01CCH         PUBLIC        ?C?FCASTL
  -------         ENDMOD        ?C?FCAST

  -------         MODULE        ?C?CASTF
  C:020AH         PUBLIC        ?C?CASTF
  -------         ENDMOD        ?C?CASTF

  -------         MODULE        ?C?CLDPTR
  C:028BH         PUBLIC        ?C?CLDPTR
  -------         ENDMOD        ?C?CLDPTR

  -------         MODULE        ?C?CSTPTR
  C:02A4H         PUBLIC        ?C?CSTPTR
  -------         ENDMOD        ?C?CSTPTR

  -------         MODULE        ?C?IMUL
  C:02B6H         PUBLIC        ?C?IMUL
  -------         ENDMOD        ?C?IMUL

  -------         MODULE        ?C?UIDIV
  C:02C8H         PUBLIC        ?C?UIDIV
  -------         ENDMOD        ?C?UIDIV

  -------         MODULE        ?C?SIDIV
  C:031DH         PUBLIC        ?C?SIDIV
  -------         ENDMOD        ?C?SIDIV

  -------         MODULE        ?C?ILDIX
  C:0353H         PUBLIC        ?C?ILDIX
  -------         ENDMOD        ?C?ILDIX

  -------         MODULE        ?C?ILDPTR
  C:0369H         PUBLIC        ?C?ILDPTR
  -------         ENDMOD        ?C?ILDPTR

  -------         MODULE        ?C?ISTPTR
  C:0394H         PUBLIC        ?C?ISTPTR
  -------         ENDMOD        ?C?ISTPTR

  -------         MODULE        ?C?LNEG
  C:03B3H         PUBLIC        ?C?LNEG
  -------         ENDMOD        ?C?LNEG

  -------         MODULE        ?C?LSTXDATA
  C:03C1H         PUBLIC        ?C?LSTXDATA
  -------         ENDMOD        ?C?LSTXDATA

  -------         MODULE        ?C?OFFXADD
  C:03CDH         PUBLIC        ?C?OFFXADD
  -------         ENDMOD        ?C?OFFXADD

  -------         MODULE        ABS
  C:1765H         PUBLIC        _ABS
  -------         ENDMOD        ABS

  -------         MODULE        ATOI
  C:0DFFH         PUBLIC        _atoi
BL51 BANKED LINKER/LOCATER V6.22                                                      07/17/2018  22:11:51  PAGE 33


  -------         ENDMOD        ATOI

  -------         MODULE        ?C?IILDX
  C:03D9H         PUBLIC        ?C?IILDX
  -------         ENDMOD        ?C?IILDX

  -------         MODULE        ISDIGIT
  C:1749H         PUBLIC        _isdigit
  -------         ENDMOD        ISDIGIT

  -------         MODULE        ISSPACE
  C:16CFH         PUBLIC        _isspace
  -------         ENDMOD        ISSPACE

*** WARNING L16: UNCALLED SEGMENT, IGNORED FOR OVERLAY PROCESS
    SEGMENT: ?PR?_SENDSTRING?UART1

*** WARNING L16: UNCALLED SEGMENT, IGNORED FOR OVERLAY PROCESS
    SEGMENT: ?PR?_TEN?UART1

*** WARNING L16: UNCALLED SEGMENT, IGNORED FOR OVERLAY PROCESS
    SEGMENT: ?PR?_UNIT?UART1

*** WARNING L16: UNCALLED SEGMENT, IGNORED FOR OVERLAY PROCESS
    SEGMENT: ?PR?_DECTOBCD?UART1

*** WARNING L16: UNCALLED SEGMENT, IGNORED FOR OVERLAY PROCESS
    SEGMENT: ?PR?_ASCII_LETTER?UART1

*** WARNING L16: UNCALLED SEGMENT, IGNORED FOR OVERLAY PROCESS
    SEGMENT: ?PR?NOP?VCNL4035

*** WARNING L16: UNCALLED SEGMENT, IGNORED FOR OVERLAY PROCESS
    SEGMENT: ?PR?_DISPLAYLCD_VCNL4035?VCNL4035

Program Size: data=17.6 xdata=702 code=6060
LINK/LOCATE RUN COMPLETE.  7 WARNING(S),  0 ERROR(S)
