BL51 BANKED LINKER/LOCATER V6.22                                                        08/03/2018  17:26:11  PAGE 1


BL51 BANKED LINKER/LOCATER V6.22, INVOKED BY:
C:\KEIL_V5\C51\BIN\BL51.EXE .\Obj\main.obj, .\Obj\PCF85063BTL.obj, .\Obj\UART1.obj, .\Obj\LCd_Driver_SPLC780D.obj, .\Obj
>> \KeyPad.obj, .\Obj\VCNL4035.obj, .\Obj\BipolarMotor.obj, .\Obj\STARTUP.obj TO .\Obj\GPIO_RTC_Test PRINT (.\Lis\GPIO_R
>> TC_Test.m51) RAMSIZE (256)


MEMORY MODEL: LARGE WITH FLOATING POINT ARITHMETIC


INPUT MODULES INCLUDED:
  .\Obj\main.obj (MAIN)
  .\Obj\PCF85063BTL.obj (PCF85063BTL)
  .\Obj\UART1.obj (UART1)
  .\Obj\LCd_Driver_SPLC780D.obj (LCD_DRIVER_SPLC780D)
  .\Obj\KeyPad.obj (KEYPAD)
  .\Obj\VCNL4035.obj (VCNL4035)
  .\Obj\BipolarMotor.obj (BIPOLARMOTOR)
  .\Obj\STARTUP.obj (?C_STARTUP)
  C:\KEIL_V5\C51\LIB\C51FPL.LIB (?C?FPADD)
  C:\KEIL_V5\C51\LIB\C51FPL.LIB (?C?FPMUL)
  C:\KEIL_V5\C51\LIB\C51FPL.LIB (?C?FPDIV)
  C:\KEIL_V5\C51\LIB\C51FPL.LIB (?C?FPCMP)
  C:\KEIL_V5\C51\LIB\C51FPL.LIB (?C?FPNEG)
  C:\KEIL_V5\C51\LIB\C51FPL.LIB (?C?FCAST)
  C:\KEIL_V5\C51\LIB\C51FPL.LIB (?C?CASTF)
  C:\KEIL_V5\C51\LIB\C51FPL.LIB (?C?FPGETOPN)
  C:\KEIL_V5\C51\LIB\C51L.LIB (?C_INIT)
  C:\KEIL_V5\C51\LIB\C51L.LIB (?C?CLDPTR)
  C:\KEIL_V5\C51\LIB\C51L.LIB (?C?CSTPTR)
  C:\KEIL_V5\C51\LIB\C51L.LIB (?C?IMUL)
  C:\KEIL_V5\C51\LIB\C51L.LIB (?C?UIDIV)
  C:\KEIL_V5\C51\LIB\C51L.LIB (?C?SIDIV)
  C:\KEIL_V5\C51\LIB\C51L.LIB (?C?ILDIX)
  C:\KEIL_V5\C51\LIB\C51L.LIB (?C?LNEG)
  C:\KEIL_V5\C51\LIB\C51L.LIB (?C?LLDPTR)
  C:\KEIL_V5\C51\LIB\C51L.LIB (?C?LSTPTR)
  C:\KEIL_V5\C51\LIB\C51L.LIB (?C?LLDPTR0)
  C:\KEIL_V5\C51\LIB\C51L.LIB (?C?LSTXDATA)
  C:\KEIL_V5\C51\LIB\C51L.LIB (?C?LSTKXDATA)
  C:\KEIL_V5\C51\LIB\C51L.LIB (?C?OFFXADD)
  C:\KEIL_V5\C51\LIB\C51L.LIB (ABS)
  C:\KEIL_V5\C51\LIB\C51L.LIB (ATOI)
  C:\KEIL_V5\C51\LIB\C51L.LIB (?C?IILDX)
  C:\KEIL_V5\C51\LIB\C51L.LIB (?C?LLDIDATA)
  C:\KEIL_V5\C51\LIB\C51L.LIB (?C?LLDXDATA)
  C:\KEIL_V5\C51\LIB\C51L.LIB (?C?LLDPDATA)
  C:\KEIL_V5\C51\LIB\C51L.LIB (?C?LLDCODE)
  C:\KEIL_V5\C51\LIB\C51L.LIB (?C?LLDIDATA0)
  C:\KEIL_V5\C51\LIB\C51L.LIB (?C?LLDXDATA0)
  C:\KEIL_V5\C51\LIB\C51L.LIB (?C?LLDPDATA0)
  C:\KEIL_V5\C51\LIB\C51L.LIB (?C?LLDCODE0)
  C:\KEIL_V5\C51\LIB\C51L.LIB (?C?LSTIDATA)
  C:\KEIL_V5\C51\LIB\C51L.LIB (?C?LSTPDATA)
  C:\KEIL_V5\C51\LIB\C51L.LIB (ISDIGIT)
  C:\KEIL_V5\C51\LIB\C51L.LIB (ISSPACE)


LINK MAP OF MODULE:  .\Obj\GPIO_RTC_Test (MAIN)
BL51 BANKED LINKER/LOCATER V6.22                                                      08/03/2018  17:26:11  PAGE 2




            TYPE    BASE      LENGTH    RELOCATION   SEGMENT NAME
            -----------------------------------------------------

            * * * * * * *   D A T A   M E M O R Y   * * * * * * *
            REG     0000H     0008H     ABSOLUTE     "REG BANK 0"
            REG     0008H     0008H     ABSOLUTE     "REG BANK 1"
                    0010H     0010H                  *** GAP ***
            BIT     0020H.0   0000H.3   UNIT         ?BI?KEYPAD
            BIT     0020H.3   0000H.3   UNIT         _BIT_GROUP_
            BIT     0020H.6   0000H.1   UNIT         ?BI?MAIN
                    0020H.7   0000H.1                *** GAP ***
            IDATA   0021H     0001H     UNIT         ?STACK

            * * * * * * *  X D A T A   M E M O R Y  * * * * * * *
            XDATA   0000H     007CH     UNIT         ?XD?BIPOLARMOTOR
            XDATA   007CH     0034H     UNIT         _XDATA_GROUP_
            XDATA   00B0H     001CH     UNIT         ?XD?MAIN
            XDATA   00CCH     0009H     UNIT         ?XD?KEYPAD
            XDATA   00D5H     0008H     UNIT         ?XD?_READ_VCNL4035?VCNL4035
            XDATA   00DDH     0004H     UNIT         ?XD?_DISPLAY_PROX?MAIN
            XDATA   00E1H     0003H     UNIT         ?XD?_SENDSTRING?UART1
            XDATA   00E4H     0001H     UNIT         ?XD?UC_ACK?VCNL4035
            XDATA   00E5H     0001H     UNIT         ?XD?UC_NACK?VCNL4035
            XDATA   00E6H     0001H     UNIT         ?XD?_DISPLAYLCD_VCNL4035?VCNL4035

            * * * * * * *   C O D E   M E M O R Y   * * * * * * *
            CODE    0000H     0003H     ABSOLUTE     
            CODE    0003H     0007H     UNIT         ?PR?KEYPAD_IO_INIT?KEYPAD
            CODE    000AH     0001H     UNIT         ?PR?TM0_ISR?MAIN
            CODE    000BH     0003H     ABSOLUTE     
            CODE    000EH     0015H     UNIT         ?PR?_DISPLAY_LINE?LCD_DRIVER_SPLC780D
            CODE    0023H     0003H     ABSOLUTE     
            CODE    0026H     060EH     UNIT         ?C?LIB_CODE
            CODE    0634H     0279H     UNIT         ?PR?KEY_PROCESS?KEYPAD
            CODE    08ADH     0246H     UNIT         ?PR?_UPDATE_POSITION?BIPOLARMOTOR
            CODE    0AF3H     022CH     UNIT         ?PR?MAIN?MAIN
            CODE    0D1FH     01B5H     UNIT         ?PR?_DISPLAY_POS?MAIN
            CODE    0ED4H     0194H     UNIT         ?PR?KEY_SCAN?KEYPAD
            CODE    1068H     00DBH     UNIT         ?PR?_ATOI?ATOI
            CODE    1143H     00C5H     UNIT         ?C_INITSEG
            CODE    1208H     009BH     UNIT         ?PR?UART?MAIN
            CODE    12A3H     009AH     UNIT         ?PR?_READ_VCNL4035?VCNL4035
            CODE    133DH     0095H     UNIT         ?PR?_DISPLAY_PROX?MAIN
            CODE    13D2H     008CH     UNIT         ?C_C51STARTUP
            CODE    145EH     0084H     UNIT         ?PR?_DAY_OF_YEAR?PCF85063BTL
            CODE    14E2H     0075H     UNIT         ?PR?_WRITEDATA?LCD_DRIVER_SPLC780D
            CODE    1557H     006FH     UNIT         ?PR?_READ_TIME?PCF85063BTL
            CODE    15C6H     0068H     UNIT         ?PR?_TREND_LINE_30_31?BIPOLARMOTOR
            CODE    162EH     0059H     UNIT         ?PR?_STEP_MOVE?BIPOLARMOTOR
            CODE    1687H     0054H     UNIT         ?PR?LCD_INIT?LCD_DRIVER_SPLC780D
            CODE    16DBH     0049H     UNIT         ?PR?_WRITE_VCNL4035X?VCNL4035
            CODE    1724H     0040H     UNIT         ?PR?_COMMAND?LCD_DRIVER_SPLC780D
            CODE    1764H     0034H     UNIT         ?PR?_MOVE?BIPOLARMOTOR
            CODE    1798H     0033H     UNIT         ?PR?_SENDSTRING?UART1
            CODE    17CBH     002CH     UNIT         ?PR?I2C_RECEIVEBYTE?VCNL4035
BL51 BANKED LINKER/LOCATER V6.22                                                      08/03/2018  17:26:11  PAGE 3


            CODE    17F7H     002BH     UNIT         ?PR?_WAIT_MS_I2C?VCNL4035
            CODE    1822H     0024H     UNIT         ?PR?_WAIT_MS?LCD_DRIVER_SPLC780D
            CODE    1846H     0024H     UNIT         ?PR?_BCDTODEC1?BIPOLARMOTOR
            CODE    186AH     0022H     UNIT         ?PR?_I2C_SENDBYTE?VCNL4035
            CODE    188CH     0020H     UNIT         ?PR?_SPI_SENDBYTE?PCF85063BTL
            CODE    18ACH     0020H     UNIT         ?PR?SPI_RECEIVEBYTE?PCF85063BTL
            CODE    18CCH     001EH     UNIT         ?PR?_DELAY_MS?KEYPAD
            CODE    18EAH     001EH     UNIT         ?PR?_WAIT_MS_IIC?VCNL4035
            CODE    1908H     001DH     UNIT         ?PR?_DISPLAYLCD?LCD_DRIVER_SPLC780D
            CODE    1925H     001BH     UNIT         ?PR?I2C_ACK?VCNL4035
            CODE    1940H     0018H     UNIT         ?PR?_SPI_WRITETIME?PCF85063BTL
            CODE    1958H     0017H     UNIT         ?PR?_ASCIITOBCD?UART1
            CODE    196FH     0017H     UNIT         ?PR?I2C_INIT?VCNL4035
            CODE    1986H     0015H     UNIT         ?PR?I2C_STOP?VCNL4035
            CODE    199BH     0014H     UNIT         ?PR?_PCF85063BTL_DELAY?PCF85063BTL
            CODE    19AFH     0014H     UNIT         ?PR?_ISSPACE?ISSPACE
            CODE    19C3H     0013H     UNIT         ?PR?I2C_START?VCNL4035
            CODE    19D6H     0011H     UNIT         ?PR?_SPI_READTIME?PCF85063BTL
            CODE    19E7H     0011H     UNIT         ?PR?_BCDTODEC?PCF85063BTL
            CODE    19F8H     0011H     UNIT         ?PR?INITUART1?UART1
            CODE    1A09H     000FH     UNIT         ?PR?UC_NACK?VCNL4035
            CODE    1A18H     000FH     UNIT         ?PR?_ISDIGIT?ISDIGIT
            CODE    1A27H     000DH     UNIT         ?PR?SPI_INIT?PCF85063BTL
            CODE    1A34H     000CH     UNIT         ?PR?_ABS?ABS
            CODE    1A40H     000AH     UNIT         ?PR?LCD_RETURN_HOME?LCD_DRIVER_SPLC780D
            CODE    1A4AH     000AH     UNIT         ?PR?LCD_CLEAR?LCD_DRIVER_SPLC780D
            CODE    1A54H     0009H     UNIT         ?PR?_SENDUART1?MAIN
            CODE    1A5DH     0006H     UNIT         ?PR?_TEN?UART1
            CODE    1A63H     0006H     UNIT         ?PR?UC_ACK?VCNL4035
            CODE    1A69H     0006H     UNIT         ?PR?_DISPLAYLCD_VCNL4035?VCNL4035
            CODE    1A6FH     0005H     UNIT         ?PR?_UNIT?UART1
            CODE    1A74H     0005H     UNIT         ?PR?_ASCII_LETTER?UART1
            CODE    1A79H     0001H     UNIT         ?PR?_DECTOBCD?UART1
            CODE    1A7AH     0001H     UNIT         ?PR?NOP?VCNL4035



OVERLAY MAP OF MODULE:   .\Obj\GPIO_RTC_Test (MAIN)


SEGMENT                                            BIT_GROUP          XDATA_GROUP
  +--> CALLED SEGMENT                           START    LENGTH     START    LENGTH
-----------------------------------------------------------------------------------
?PR?UART?MAIN                                   -----    -----      -----    -----
  +--> ?PR?_ASCIITOBCD?UART1

?PR?_ASCIITOBCD?UART1                           -----    -----      -----    -----
  +--> ?PR?_ATOI?ATOI

?PR?_ATOI?ATOI                                  0020H.3  0000H.1    007CH    0005H
  +--> ?PR?_ISSPACE?ISSPACE
  +--> ?PR?_ISDIGIT?ISDIGIT

*** NEW ROOT ***************************************************

?C_C51STARTUP                                   -----    -----      -----    -----
  +--> ?PR?MAIN?MAIN
BL51 BANKED LINKER/LOCATER V6.22                                                      08/03/2018  17:26:11  PAGE 4


  +--> ?C_INITSEG

?PR?MAIN?MAIN                                   -----    -----      0081H    0013H
  +--> ?PR?LCD_INIT?LCD_DRIVER_SPLC780D
  +--> ?PR?SPI_INIT?PCF85063BTL
  +--> ?PR?KEYPAD_IO_INIT?KEYPAD
  +--> ?PR?INITUART1?UART1
  +--> ?PR?I2C_INIT?VCNL4035
  +--> ?PR?_SPI_WRITETIME?PCF85063BTL
  +--> ?PR?_DELAY_MS?KEYPAD
  +--> ?PR?_DISPLAY_LINE?LCD_DRIVER_SPLC780D
  +--> ?PR?_WRITEDATA?LCD_DRIVER_SPLC780D
  +--> ?PR?KEY_PROCESS?KEYPAD
  +--> ?PR?_COMMAND?LCD_DRIVER_SPLC780D
  +--> ?PR?_DISPLAY_POS?MAIN
  +--> ?PR?_DISPLAYLCD?LCD_DRIVER_SPLC780D
  +--> ?PR?_STEP_MOVE?BIPOLARMOTOR
  +--> ?PR?LCD_RETURN_HOME?LCD_DRIVER_SPLC780D
  +--> ?PR?_READ_TIME?PCF85063BTL
  +--> ?PR?_UPDATE_POSITION?BIPOLARMOTOR
  +--> ?PR?_SENDUART1?MAIN

?PR?LCD_INIT?LCD_DRIVER_SPLC780D                -----    -----      -----    -----
  +--> ?PR?_WAIT_MS?LCD_DRIVER_SPLC780D
  +--> ?PR?_COMMAND?LCD_DRIVER_SPLC780D

?PR?_COMMAND?LCD_DRIVER_SPLC780D                -----    -----      -----    -----
  +--> ?PR?_WAIT_MS?LCD_DRIVER_SPLC780D

?PR?I2C_INIT?VCNL4035                           -----    -----      -----    -----
  +--> ?PR?_WRITE_VCNL4035X?VCNL4035

?PR?_WRITE_VCNL4035X?VCNL4035                   -----    -----      0094H    0003H
  +--> ?PR?I2C_START?VCNL4035
  +--> ?PR?_WAIT_MS_I2C?VCNL4035
  +--> ?PR?I2C_ACK?VCNL4035
  +--> ?PR?_I2C_SENDBYTE?VCNL4035
  +--> ?PR?I2C_STOP?VCNL4035

?PR?I2C_START?VCNL4035                          -----    -----      -----    -----
  +--> ?PR?_WAIT_MS_IIC?VCNL4035
  +--> ?PR?_WAIT_MS_I2C?VCNL4035

?PR?I2C_ACK?VCNL4035                            -----    -----      0097H    0001H
  +--> ?PR?_I2C_SENDBYTE?VCNL4035
  +--> ?PR?_WAIT_MS_I2C?VCNL4035

?PR?_I2C_SENDBYTE?VCNL4035                      -----    -----      -----    -----
  +--> ?PR?_WAIT_MS_I2C?VCNL4035

?PR?I2C_STOP?VCNL4035                           -----    -----      -----    -----
  +--> ?PR?_WAIT_MS_I2C?VCNL4035

?PR?_SPI_WRITETIME?PCF85063BTL                  -----    -----      -----    -----
  +--> ?PR?_SPI_SENDBYTE?PCF85063BTL

?PR?_SPI_SENDBYTE?PCF85063BTL                   -----    -----      -----    -----
BL51 BANKED LINKER/LOCATER V6.22                                                      08/03/2018  17:26:11  PAGE 5


  +--> ?PR?_PCF85063BTL_DELAY?PCF85063BTL

?PR?_DISPLAY_LINE?LCD_DRIVER_SPLC780D           -----    -----      -----    -----
  +--> ?PR?_COMMAND?LCD_DRIVER_SPLC780D

?PR?_WRITEDATA?LCD_DRIVER_SPLC780D              -----    -----      009EH    0001H
  +--> ?PR?_WAIT_MS?LCD_DRIVER_SPLC780D

?PR?KEY_PROCESS?KEYPAD                          -----    -----      0094H    0006H
  +--> ?PR?KEY_SCAN?KEYPAD
  +--> ?PR?_SPI_WRITETIME?PCF85063BTL
  +--> ?PR?LCD_CLEAR?LCD_DRIVER_SPLC780D
  +--> ?PR?_COMMAND?LCD_DRIVER_SPLC780D
  +--> ?PR?_WRITEDATA?LCD_DRIVER_SPLC780D

?PR?KEY_SCAN?KEYPAD                             -----    -----      009AH    0003H
  +--> ?PR?_DELAY_MS?KEYPAD

?PR?LCD_CLEAR?LCD_DRIVER_SPLC780D               -----    -----      -----    -----
  +--> ?PR?_COMMAND?LCD_DRIVER_SPLC780D

?PR?_DISPLAY_POS?MAIN                           -----    -----      0094H    000AH
  +--> ?PR?_ABS?ABS
  +--> ?PR?_WRITEDATA?LCD_DRIVER_SPLC780D

?PR?_DISPLAYLCD?LCD_DRIVER_SPLC780D             -----    -----      0094H    0001H
  +--> ?PR?_WRITEDATA?LCD_DRIVER_SPLC780D

?PR?_STEP_MOVE?BIPOLARMOTOR                     0020H.5  0000H.1    00ACH    0004H
  +--> ?PR?_WAIT_MS?LCD_DRIVER_SPLC780D

?PR?LCD_RETURN_HOME?LCD_DRIVER_SPLC780D         -----    -----      -----    -----
  +--> ?PR?_COMMAND?LCD_DRIVER_SPLC780D

?PR?_READ_TIME?PCF85063BTL                      -----    -----      0094H    000FH
  +--> ?PR?_SPI_READTIME?PCF85063BTL

?PR?_SPI_READTIME?PCF85063BTL                   -----    -----      -----    -----
  +--> ?PR?_SPI_SENDBYTE?PCF85063BTL
  +--> ?PR?SPI_RECEIVEBYTE?PCF85063BTL

?PR?SPI_RECEIVEBYTE?PCF85063BTL                 -----    -----      -----    -----
  +--> ?PR?_PCF85063BTL_DELAY?PCF85063BTL

?PR?_UPDATE_POSITION?BIPOLARMOTOR               -----    -----      0094H    0014H
  +--> ?PR?_DAY_OF_YEAR?PCF85063BTL
  +--> ?PR?_BCDTODEC1?BIPOLARMOTOR
  +--> ?PR?_TREND_LINE_30_31?BIPOLARMOTOR
  +--> ?PR?_MOVE?BIPOLARMOTOR

?PR?_DAY_OF_YEAR?PCF85063BTL                    -----    -----      -----    -----
  +--> ?PR?_BCDTODEC?PCF85063BTL

?PR?_TREND_LINE_30_31?BIPOLARMOTOR              -----    -----      00A8H    0004H

?PR?_MOVE?BIPOLARMOTOR                          0020H.4  0000H.1    00A8H    0004H
  +--> ?PR?_STEP_MOVE?BIPOLARMOTOR
BL51 BANKED LINKER/LOCATER V6.22                                                      08/03/2018  17:26:11  PAGE 6





SYMBOL TABLE OF MODULE:  .\Obj\GPIO_RTC_Test (MAIN)

  VALUE           TYPE          NAME
  ----------------------------------

  -------         MODULE        MAIN
  C:0000H         SYMBOL        _ICE_DUMMY_
  D:0080H         PUBLIC        P0
  D:0090H         PUBLIC        P1
  D:00A0H         PUBLIC        P2
  D:00B0H         PUBLIC        P3
  D:00C0H         PUBLIC        P4
  D:00C8H         PUBLIC        P5
  X:00B8H         SYMBOL        PressedKey
  B:00A8H.7       PUBLIC        EA
  D:00E8H         PUBLIC        P6
  D:00F8H         PUBLIC        P7
  X:00BCH         PUBLIC        RX_Data_Uart_Cnt
  D:00A8H         PUBLIC        IE
  D:00B8H         PUBLIC        IP
  B:0098H.0       PUBLIC        RI
  B:0098H.1       PUBLIC        TI
  C:1208H         PUBLIC        Uart
  D:00D8H         PUBLIC        CCON
  C:0AF3H         PUBLIC        main
  D:0099H         PUBLIC        SBUF
  D:0098H         PUBLIC        SCON
  D:0089H         PUBLIC        TMOD
  D:0088H         PUBLIC        TCON
  B:00B0H.3       PUBLIC        P33
  X:00BEH         SYMBOL        KeyCount
  X:00C0H         PUBLIC        Rec_data_hour
  X:00C3H         PUBLIC        Rec_data_min
  D:008EH         PUBLIC        AUXR
  C:000AH         PUBLIC        tm0_isr
  B:0020H.6       PUBLIC        busy
  D:00E0H         PUBLIC        ACC
  B:00A8H.1       PUBLIC        ET0
  D:008CH         PUBLIC        TH0
  X:00C6H         PUBLIC        hour_count
  D:008AH         PUBLIC        TL0
  X:00C7H         PUBLIC        min_count
  B:0088H.4       PUBLIC        TR0
  X:00C8H         SYMBOL        KeyNum
  X:00C9H         SYMBOL        KeyNum_Old
  C:133DH         PUBLIC        _Display_Prox
  C:0D1FH         PUBLIC        _Display_Pos
  X:00CAH         PUBLIC        st_time
  D:00D0H         PUBLIC        PSW
  C:1A54H         PUBLIC        _SendUART1
  -------         PROC          TM0_ISR
  C:000AH         LINE#         53
  C:000AH         LINE#         56
  -------         ENDPROC       TM0_ISR
BL51 BANKED LINKER/LOCATER V6.22                                                      08/03/2018  17:26:11  PAGE 7


  -------         PROC          MAIN
  -------         DO            
  X:0081H         SYMBOL        seconds
  X:0082H         SYMBOL        mins
  X:0083H         SYMBOL        hours
  X:0084H         SYMBOL        days
  X:0085H         SYMBOL        months
  X:0086H         SYMBOL        prox_data
  X:00B0H         SYMBOL        KeyCount
  X:00B2H         SYMBOL        KeyNum_Old
  X:00B3H         SYMBOL        KeyNum
  X:00B4H         SYMBOL        PressedKey
  X:0088H         SYMBOL        prox_flag
  X:0089H         SYMBOL        count
  X:008BH         SYMBOL        numStr
  X:0090H         SYMBOL        current_position
  -------         ENDDO         
  C:0AF3H         LINE#         58
  C:0AF3H         LINE#         59
  C:0AF3H         LINE#         64
  C:0AF9H         LINE#         66
  C:0AFEH         LINE#         68
  C:0B08H         LINE#         69
  C:0B0AH         LINE#         70
  C:0B0CH         LINE#         71
  C:0B0EH         LINE#         80
  C:0B11H         LINE#         81
  C:0B14H         LINE#         82
  C:0B17H         LINE#         83
  C:0B1AH         LINE#         84
  C:0B1DH         LINE#         86
  C:0B20H         LINE#         87
  C:0B23H         LINE#         88
  C:0B26H         LINE#         89
  C:0B28H         LINE#         90
  C:0B2AH         LINE#         91
  C:0B2CH         LINE#         93
  C:0B2EH         LINE#         94
  C:0B35H         LINE#         95
  C:0B3CH         LINE#         96
  C:0B43H         LINE#         97
  C:0B4AH         LINE#         101
  C:0B51H         LINE#         102
  C:0B56H         LINE#         103
  C:0B5BH         LINE#         104
  C:0B60H         LINE#         105
  C:0B65H         LINE#         106
  C:0B6AH         LINE#         109
  C:0B6AH         LINE#         110
  C:0B6AH         LINE#         111
  C:0B6DH         LINE#         112
  C:0B7BH         LINE#         114
  C:0B7BH         LINE#         117
  C:0B80H         LINE#         118
  C:0B85H         LINE#         120
  C:0B8AH         LINE#         121
  C:0B8FH         LINE#         122
BL51 BANKED LINKER/LOCATER V6.22                                                      08/03/2018  17:26:11  PAGE 8


  C:0B94H         LINE#         123
  C:0B99H         LINE#         125
  C:0BAAH         LINE#         127
  C:0BB1H         LINE#         128
  C:0BB9H         LINE#         129
  C:0BBEH         LINE#         130
  C:0BC6H         LINE#         131
  C:0BCBH         LINE#         132
  C:0BD5H         LINE#         134
  C:0BDDH         LINE#         136
  C:0BE5H         LINE#         148
  C:0BE8H         LINE#         149
  C:0BE8H         LINE#         150
  C:0BF3H         LINE#         151
  C:0C0AH         LINE#         152
  C:0C0AH         LINE#         153
  C:0C0CH         LINE#         154
  C:0C0EH         LINE#         156
  C:0C0EH         LINE#         157
  C:0C19H         LINE#         158
  C:0C19H         LINE#         159
  C:0C1EH         LINE#         160
  C:0C1EH         LINE#         161
  C:0C21H         LINE#         162
  C:0C21H         LINE#         163
  C:0C23H         LINE#         164
  C:0C2EH         LINE#         165
  C:0C45H         LINE#         166
  C:0C45H         LINE#         167
  C:0C47H         LINE#         168
  C:0C49H         LINE#         170
  C:0C49H         LINE#         171
  C:0C54H         LINE#         172
  C:0C54H         LINE#         173
  C:0C59H         LINE#         174
  C:0C59H         LINE#         182
  C:0C62H         LINE#         183
  C:0C62H         LINE#         184
  C:0C6CH         LINE#         185
  C:0C72H         LINE#         186
  C:0C74H         LINE#         187
  C:0C76H         LINE#         188
  C:0C78H         LINE#         189
  C:0C78H         LINE#         190
  C:0C7BH         LINE#         192
  C:0C7BH         LINE#         193
  C:0CB6H         LINE#         194
  C:0CE4H         LINE#         198
  C:0CF1H         LINE#         199
  C:0CF1H         LINE#         200
  C:0CFBH         LINE#         201
  C:0D05H         LINE#         202
  C:0D0CH         LINE#         203
  C:0D14H         LINE#         204
  C:0D1CH         LINE#         205
  -------         ENDPROC       MAIN
  -------         PROC          UART
BL51 BANKED LINKER/LOCATER V6.22                                                      08/03/2018  17:26:11  PAGE 9


  C:1208H         LINE#         218
  C:1215H         LINE#         220
  C:1218H         LINE#         221
  C:1218H         LINE#         222
  C:1226H         LINE#         223
  C:1228H         LINE#         224
  C:123AH         LINE#         225
  C:1249H         LINE#         226
  C:1254H         LINE#         227
  C:1254H         LINE#         230
  C:1261H         LINE#         231
  C:1267H         LINE#         232
  C:1267H         LINE#         233
  C:126DH         LINE#         234
  C:127BH         LINE#         235
  C:1289H         LINE#         236
  C:1291H         LINE#         241
  C:1291H         LINE#         242
  C:1291H         LINE#         245
  C:1291H         LINE#         246
  C:1294H         LINE#         247
  C:1294H         LINE#         248
  C:1296H         LINE#         249
  C:1298H         LINE#         250
  C:1298H         LINE#         251
  -------         ENDPROC       UART
  -------         PROC          _SENDUART1
  D:0007H         SYMBOL        dat
  C:1A54H         LINE#         254
  C:1A54H         LINE#         255
  C:1A54H         LINE#         256
  C:1A57H         LINE#         257
  C:1A59H         LINE#         258
  C:1A5AH         LINE#         259
  C:1A5CH         LINE#         260
  -------         ENDPROC       _SENDUART1
  -------         PROC          _DISPLAY_PROX
  D:0002H         SYMBOL        dat
  -------         DO            
  X:00DDH         SYMBOL        unit
  X:00DEH         SYMBOL        ten
  X:00DFH         SYMBOL        hundred
  X:00E0H         SYMBOL        thousand
  -------         ENDDO         
  C:133DH         LINE#         263
  C:1341H         LINE#         264
  C:1341H         LINE#         266
  C:134DH         LINE#         267
  C:135DH         LINE#         268
  C:1379H         LINE#         269
  C:13A9H         LINE#         270
  C:13B3H         LINE#         271
  C:13BDH         LINE#         272
  C:13C7H         LINE#         273
  C:13D1H         LINE#         275
  -------         ENDPROC       _DISPLAY_PROX
  -------         PROC          _DISPLAY_POS
BL51 BANKED LINKER/LOCATER V6.22                                                      08/03/2018  17:26:11  PAGE 10


  X:0094H         SYMBOL        sign_dat
  -------         DO            
  X:0098H         SYMBOL        unit
  X:0099H         SYMBOL        ten
  X:009AH         SYMBOL        hundred
  D:0003H         SYMBOL        thousand
  X:009BH         SYMBOL        after_dot
  X:009CH         SYMBOL        dat
  -------         ENDDO         
  C:0D1FH         LINE#         278
  C:0D25H         LINE#         279
  C:0D25H         LINE#         283
  C:0D41H         LINE#         284
  C:0D5BH         LINE#         285
  C:0D7FH         LINE#         287
  C:0DC9H         LINE#         289
  C:0DE0H         LINE#         290
  C:0DEDH         LINE#         291
  C:0E0FH         LINE#         292
  C:0E44H         LINE#         293
  C:0E5CH         LINE#         294
  C:0E5CH         LINE#         296
  C:0E66H         LINE#         297
  C:0E70H         LINE#         298
  C:0E7AH         LINE#         299
  C:0E7FH         LINE#         300
  C:0E89H         LINE#         301
  C:0E8EH         LINE#         302
  C:0E93H         LINE#         303
  C:0E95H         LINE#         304
  C:0E97H         LINE#         306
  C:0E97H         LINE#         308
  C:0E9CH         LINE#         309
  C:0EA6H         LINE#         310
  C:0EB0H         LINE#         311
  C:0EBAH         LINE#         312
  C:0EBFH         LINE#         313
  C:0EC9H         LINE#         314
  C:0ECEH         LINE#         315
  C:0ED3H         LINE#         317
  C:0ED3H         LINE#         319
  -------         ENDPROC       _DISPLAY_POS
  -------         ENDMOD        MAIN

  -------         MODULE        PCF85063BTL
  C:0000H         SYMBOL        _ICE_DUMMY_
  D:0096H         PUBLIC        P2M0
  D:0080H         PUBLIC        P0
  D:0095H         PUBLIC        P2M1
  D:0090H         PUBLIC        P1
  D:00A0H         PUBLIC        P2
  D:00B0H         PUBLIC        P3
  D:00C0H         PUBLIC        P4
  D:00C8H         PUBLIC        P5
  D:00E8H         PUBLIC        P6
  B:00A0H.2       PUBLIC        PCF85063BTL_SDI
  D:00F8H         PUBLIC        P7
BL51 BANKED LINKER/LOCATER V6.22                                                      08/03/2018  17:26:11  PAGE 11


  B:00A0H.1       PUBLIC        PCF85063BTL_SCK
  B:00A0H.2       PUBLIC        PCF85063BTL_SDO
  D:00A8H         PUBLIC        IE
  C:1557H         PUBLIC        _Read_time
  C:19A1H         PUBLIC        _PCF85063BTL_Delay
  D:00B8H         PUBLIC        IP
  D:00D8H         PUBLIC        CCON
  C:145EH         PUBLIC        _Day_Of_Year
  C:18ACH         PUBLIC        SPI_ReceiveByte
  D:0098H         PUBLIC        SCON
  D:0088H         PUBLIC        TCON
  C:19E7H         PUBLIC        _BCDtoDec
  B:00A0H.0       PUBLIC        PCF85063BTL_CS
  C:19D6H         PUBLIC        _SPI_ReadTime
  C:1A27H         PUBLIC        SPI_Init
  C:1940H         PUBLIC        _SPI_WriteTime
  C:188CH         PUBLIC        _SPI_SendByte
  D:00D0H         PUBLIC        PSW
  C:199DH         SYMBOL        L?0047
  -------         PROC          L?0046
  -------         ENDPROC       L?0046
  C:199DH         SYMBOL        L?0047
  -------         PROC          _PCF85063BTL_DELAY
  D:0006H         SYMBOL        us
  C:19A1H         LINE#         8
  C:19A1H         LINE#         9
  C:19A1H         LINE#         10
  C:19ABH         LINE#         11
  C:19ABH         LINE#         12
  C:19ACH         LINE#         13
  C:19AEH         LINE#         14
  -------         ENDPROC       _PCF85063BTL_DELAY
  -------         PROC          _SPI_SENDBYTE
  D:0005H         SYMBOL        dat
  -------         DO            
  D:0003H         SYMBOL        i
  -------         ENDDO         
  C:188CH         LINE#         17
  C:188EH         LINE#         18
  C:188EH         LINE#         20
  C:1890H         LINE#         21
  C:1890H         LINE#         22
  C:1892H         LINE#         23
  C:1896H         LINE#         24
  C:1896H         LINE#         25
  C:1898H         LINE#         26
  C:189AH         LINE#         28
  C:189AH         LINE#         29
  C:189CH         LINE#         30
  C:189CH         LINE#         31
  C:189FH         LINE#         32
  C:189FH         LINE#         33
  C:18A2H         LINE#         34
  C:18A6H         LINE#         35
  C:18ABH         LINE#         36
  -------         ENDPROC       _SPI_SENDBYTE
  -------         PROC          SPI_RECEIVEBYTE
BL51 BANKED LINKER/LOCATER V6.22                                                      08/03/2018  17:26:11  PAGE 12


  -------         DO            
  D:0003H         SYMBOL        i
  D:0005H         SYMBOL        dat
  -------         ENDDO         
  C:18ACH         LINE#         39
  C:18ACH         LINE#         40
  C:18ACH         LINE#         42
  C:18AEH         LINE#         44
  C:18B0H         LINE#         45
  C:18B1H         LINE#         46
  C:18B1H         LINE#         47
  C:18B5H         LINE#         48
  C:18B7H         LINE#         49
  C:18BAH         LINE#         51
  C:18BDH         LINE#         52
  C:18BDH         LINE#         53
  C:18C1H         LINE#         54
  C:18C1H         LINE#         55
  C:18C1H         LINE#         56
  C:18C4H         LINE#         57
  C:18C9H         LINE#         58
  C:18CBH         LINE#         59
  -------         ENDPROC       SPI_RECEIVEBYTE
  -------         PROC          _SPI_READTIME
  D:0007H         SYMBOL        addr
  -------         DO            
  D:0006H         SYMBOL        dat
  -------         ENDDO         
  C:19D6H         LINE#         61
  C:19D6H         LINE#         62
  C:19D6H         LINE#         64
  C:19D8H         LINE#         65
  C:19DAH         LINE#         66
  C:19E1H         LINE#         67
  C:19E4H         LINE#         68
  C:19E6H         LINE#         69
  C:19E6H         LINE#         70
  -------         ENDPROC       _SPI_READTIME
  -------         PROC          _SPI_WRITETIME
  D:0002H         SYMBOL        val
  D:0005H         SYMBOL        addr
  C:1940H         LINE#         71
  C:1942H         LINE#         72
  C:1942H         LINE#         74
  C:1944H         LINE#         75
  C:194BH         LINE#         76
  C:1950H         LINE#         77
  C:1955H         LINE#         78
  C:1957H         LINE#         79
  -------         ENDPROC       _SPI_WRITETIME
  -------         PROC          SPI_INIT
  C:1A27H         LINE#         83
  C:1A27H         LINE#         84
  C:1A27H         LINE#         89
  C:1A2AH         LINE#         90
  C:1A2DH         LINE#         91
  C:1A2FH         LINE#         92
BL51 BANKED LINKER/LOCATER V6.22                                                      08/03/2018  17:26:11  PAGE 13


  C:1A31H         LINE#         93
  C:1A33H         LINE#         94
  -------         ENDPROC       SPI_INIT
  -------         PROC          _READ_TIME
  X:0094H         SYMBOL        months
  X:0097H         SYMBOL        days
  X:009AH         SYMBOL        hours
  X:009DH         SYMBOL        mins
  X:00A0H         SYMBOL        seconds
  C:1557H         LINE#         96
  C:1562H         LINE#         97
  C:1562H         LINE#         99
  C:1576H         LINE#         101
  C:158AH         LINE#         103
  C:159EH         LINE#         108
  C:15B2H         LINE#         113
  -------         ENDPROC       _READ_TIME
  -------         PROC          _BCDTODEC
  D:0007H         SYMBOL        bcd
  -------         DO            
  D:0006H         SYMBOL        hi
  D:0007H         SYMBOL        lo
  -------         ENDDO         
  C:19E7H         LINE#         119
  C:19E7H         LINE#         120
  C:19E7H         LINE#         122
  C:19ECH         LINE#         123
  C:19F0H         LINE#         124
  C:19F7H         LINE#         125
  -------         ENDPROC       _BCDTODEC
  -------         PROC          _DAY_OF_YEAR
  D:0007H         SYMBOL        months_bcd
  D:0005H         SYMBOL        days_bcd
  -------         DO            
  D:0004H         SYMBOL        months
  D:0007H         SYMBOL        days
  -------         ENDDO         
  C:145EH         LINE#         126
  C:145EH         LINE#         127
  C:145EH         LINE#         130
  C:1463H         LINE#         132
  C:1468H         LINE#         134
  C:14A1H         LINE#         135
  C:14A1H         LINE#         136
  C:14A1H         LINE#         137
  C:14A4H         LINE#         138
  C:14A4H         LINE#         139
  C:14A4H         LINE#         140
  C:14A9H         LINE#         141
  C:14A9H         LINE#         142
  C:14A9H         LINE#         143
  C:14AEH         LINE#         144
  C:14AEH         LINE#         145
  C:14AEH         LINE#         146
  C:14B3H         LINE#         147
  C:14B3H         LINE#         148
  C:14B3H         LINE#         149
BL51 BANKED LINKER/LOCATER V6.22                                                      08/03/2018  17:26:11  PAGE 14


  C:14B8H         LINE#         150
  C:14B8H         LINE#         151
  C:14B8H         LINE#         152
  C:14BDH         LINE#         153
  C:14BDH         LINE#         154
  C:14BDH         LINE#         155
  C:14C2H         LINE#         156
  C:14C2H         LINE#         157
  C:14C2H         LINE#         158
  C:14C7H         LINE#         159
  C:14C7H         LINE#         160
  C:14C7H         LINE#         161
  C:14CFH         LINE#         162
  C:14CFH         LINE#         163
  C:14CFH         LINE#         164
  C:14D4H         LINE#         165
  C:14D4H         LINE#         166
  C:14D4H         LINE#         167
  C:14D9H         LINE#         168
  C:14D9H         LINE#         169
  C:14D9H         LINE#         170
  C:14E1H         LINE#         171
  C:14E1H         LINE#         172
  C:14E1H         LINE#         173
  -------         ENDPROC       _DAY_OF_YEAR
  -------         ENDMOD        PCF85063BTL

  -------         MODULE        UART1
  C:0000H         SYMBOL        _ICE_DUMMY_
  D:0080H         PUBLIC        P0
  D:0090H         PUBLIC        P1
  D:00A0H         PUBLIC        P2
  D:00B0H         PUBLIC        P3
  D:00C0H         PUBLIC        P4
  D:00C8H         PUBLIC        P5
  B:00A8H.7       PUBLIC        EA
  D:00E8H         PUBLIC        P6
  D:00F8H         PUBLIC        P7
  C:1798H         PUBLIC        _SendString
  D:00A8H         PUBLIC        IE
  B:00A8H.4       PUBLIC        ES
  D:00B8H         PUBLIC        IP
  C:1958H         PUBLIC        _ASCIItoBCD
  D:00D8H         PUBLIC        CCON
  C:19F8H         PUBLIC        initUART1
  D:0098H         PUBLIC        SCON
  D:0088H         PUBLIC        TCON
  C:1A79H         PUBLIC        _DectoBCD
  C:1A74H         PUBLIC        _ASCII_Letter
  D:008EH         PUBLIC        AUXR
  C:1A6FH         PUBLIC        _unit
  C:1A5DH         PUBLIC        _ten
  D:00D6H         PUBLIC        T2H
  D:00D7H         PUBLIC        T2L
  D:00D0H         PUBLIC        PSW
  -------         PROC          INITUART1
  C:19F8H         LINE#         21
BL51 BANKED LINKER/LOCATER V6.22                                                      08/03/2018  17:26:11  PAGE 15


  C:19F8H         LINE#         22
  C:19F8H         LINE#         23
  C:19FBH         LINE#         24
  C:19FEH         LINE#         25
  C:1A01H         LINE#         26
  C:1A04H         LINE#         27
  C:1A06H         LINE#         28
  C:1A08H         LINE#         30
  -------         ENDPROC       INITUART1
  -------         PROC          _SENDSTRING
  X:00E1H         SYMBOL        s
  C:1798H         LINE#         35
  C:17A3H         LINE#         36
  C:17A3H         LINE#         37
  C:17B3H         LINE#         38
  C:17B3H         LINE#         39
  C:17C8H         LINE#         40
  C:17CAH         LINE#         41
  -------         ENDPROC       _SENDSTRING
  -------         PROC          _TEN
  D:0007H         SYMBOL        BCD
  C:1A5DH         LINE#         43
  C:1A5DH         LINE#         44
  C:1A5DH         LINE#         45
  C:1A62H         LINE#         46
  -------         ENDPROC       _TEN
  -------         PROC          _UNIT
  D:0007H         SYMBOL        BCD
  C:1A6FH         LINE#         47
  C:1A6FH         LINE#         48
  C:1A6FH         LINE#         52
  C:1A73H         LINE#         53
  -------         ENDPROC       _UNIT
  -------         PROC          _DECTOBCD
  D:0007H         SYMBOL        dec
  C:1A79H         LINE#         54
  C:1A79H         LINE#         55
  C:1A79H         LINE#         57
  C:1A79H         LINE#         58
  -------         ENDPROC       _DECTOBCD
  -------         PROC          _ASCII_LETTER
  D:0007H         SYMBOL        dat
  C:1A74H         LINE#         60
  C:1A74H         LINE#         61
  C:1A74H         LINE#         63
  C:1A78H         LINE#         64
  -------         ENDPROC       _ASCII_LETTER
  -------         PROC          _ASCIITOBCD
  D:0001H         SYMBOL        ascii
  -------         DO            
  D:0007H         SYMBOL        dec_val
  D:0006H         SYMBOL        ten
  D:0007H         SYMBOL        unit
  -------         ENDDO         
  C:1958H         LINE#         66
  C:1958H         LINE#         67
  C:1958H         LINE#         69
BL51 BANKED LINKER/LOCATER V6.22                                                      08/03/2018  17:26:11  PAGE 16


  C:195BH         LINE#         70
  C:1961H         LINE#         71
  C:1968H         LINE#         72
  C:196EH         LINE#         74
  -------         ENDPROC       _ASCIITOBCD
  -------         ENDMOD        UART1

  -------         MODULE        LCD_DRIVER_SPLC780D
  C:0000H         SYMBOL        _ICE_DUMMY_
  D:0080H         PUBLIC        P0
  D:0090H         PUBLIC        P1
  D:00A0H         PUBLIC        P2
  D:00B0H         PUBLIC        P3
  D:00C0H         PUBLIC        P4
  D:00C8H         PUBLIC        P5
  D:00E8H         PUBLIC        P6
  D:00F8H         PUBLIC        P7
  C:14E2H         PUBLIC        _WriteData
  D:00A8H         PUBLIC        IE
  D:00B8H         PUBLIC        IP
  D:00D8H         PUBLIC        CCON
  B:0090H.4       PUBLIC        LCD_D4
  B:0090H.5       PUBLIC        LCD_D5
  B:0090H.6       PUBLIC        LCD_D6
  C:1908H         PUBLIC        _DisplayLCD
  B:0090H.7       PUBLIC        LCD_D7
  D:0098H         PUBLIC        SCON
  D:0088H         PUBLIC        TCON
  C:1A4AH         PUBLIC        LCD_clear
  C:1724H         PUBLIC        _Command
  C:000EH         PUBLIC        _Display_Line
  C:1687H         PUBLIC        LCD_Init
  C:1828H         PUBLIC        _Wait_ms
  B:0090H.1       PUBLIC        LCD_RS
  B:0090H.2       PUBLIC        LCD_RW
  C:1A40H         PUBLIC        LCD_return_home
  B:0090H.3       PUBLIC        LCD_E
  D:00D0H         PUBLIC        PSW
  -------         PROC          LCD_INIT
  C:1687H         LINE#         9
  C:1687H         LINE#         10
  C:1687H         LINE#         12
  C:168EH         LINE#         13
  C:1693H         LINE#         15
  C:169AH         LINE#         16
  C:169FH         LINE#         18
  C:16A2H         LINE#         19
  C:16A7H         LINE#         21
  C:16AAH         LINE#         22
  C:16AFH         LINE#         24
  C:16B6H         LINE#         27
  C:16BBH         LINE#         28
  C:16C0H         LINE#         30
  C:16C5H         LINE#         31
  C:16CAH         LINE#         33
  C:16CFH         LINE#         34
  C:16D4H         LINE#         35
BL51 BANKED LINKER/LOCATER V6.22                                                      08/03/2018  17:26:11  PAGE 17


  -------         ENDPROC       LCD_INIT
  -------         PROC          _WRITEDATA
  X:009EH         SYMBOL        dat
  C:14E2H         LINE#         38
  C:14E7H         LINE#         39
  C:14E7H         LINE#         44
  C:14E9H         LINE#         45
  C:14EBH         LINE#         47
  C:14F9H         LINE#         48
  C:1505H         LINE#         49
  C:1511H         LINE#         50
  C:151BH         LINE#         51
  C:151DH         LINE#         52
  C:1524H         LINE#         53
  C:1526H         LINE#         55
  C:1536H         LINE#         56
  C:1541H         LINE#         57
  C:154BH         LINE#         58
  C:154FH         LINE#         60
  C:154FH         LINE#         61
  C:1552H         LINE#         62
  C:1554H         LINE#         63
  C:1556H         LINE#         65
  -------         ENDPROC       _WRITEDATA
  -------         PROC          _COMMAND
  D:0007H         SYMBOL        dat
  C:1724H         LINE#         67
  C:1724H         LINE#         68
  C:1724H         LINE#         69
  C:1726H         LINE#         70
  C:1728H         LINE#         72
  C:1732H         LINE#         73
  C:1736H         LINE#         75
  C:1738H         LINE#         76
  C:1741H         LINE#         77
  C:1745H         LINE#         79
  C:1747H         LINE#         80
  C:174EH         LINE#         81
  C:1752H         LINE#         83
  C:1754H         LINE#         84
  C:1758H         LINE#         85
  C:175CH         LINE#         87
  C:175EH         LINE#         88
  C:175EH         LINE#         89
  C:1761H         LINE#         90
  C:1763H         LINE#         91
  -------         ENDPROC       _COMMAND
  C:1824H         SYMBOL        L?0028
  -------         PROC          L?0027
  -------         ENDPROC       L?0027
  C:1824H         SYMBOL        L?0028
  -------         PROC          _WAIT_MS
  D:0006H         SYMBOL        ms
  -------         DO            
  D:0004H         SYMBOL        De_Cnt
  -------         ENDDO         
  C:1828H         LINE#         93
BL51 BANKED LINKER/LOCATER V6.22                                                      08/03/2018  17:26:11  PAGE 18


  C:1828H         LINE#         94
  C:1828H         LINE#         96
  C:1832H         LINE#         97
  C:1832H         LINE#         98
  C:1845H         LINE#         99
  C:1845H         LINE#         100
  -------         ENDPROC       _WAIT_MS
  -------         PROC          _DISPLAYLCD
  D:0007H         SYMBOL        BCD
  -------         DO            
  D:0006H         SYMBOL        first_digit
  X:0094H         SYMBOL        second_digit
  -------         ENDDO         
  C:1908H         LINE#         101
  C:1908H         LINE#         102
  C:1908H         LINE#         104
  C:190FH         LINE#         105
  C:1918H         LINE#         107
  C:191DH         LINE#         109
  -------         ENDPROC       _DISPLAYLCD
  -------         PROC          LCD_RETURN_HOME
  C:1A40H         LINE#         113
  C:1A40H         LINE#         114
  C:1A40H         LINE#         115
  C:1A45H         LINE#         116
  -------         ENDPROC       LCD_RETURN_HOME
  -------         PROC          LCD_CLEAR
  C:1A4AH         LINE#         119
  C:1A4AH         LINE#         120
  C:1A4AH         LINE#         121
  C:1A4FH         LINE#         122
  -------         ENDPROC       LCD_CLEAR
  -------         PROC          _DISPLAY_LINE
  D:0006H         SYMBOL        line
  C:000EH         LINE#         126
  C:000EH         LINE#         127
  C:000EH         LINE#         128
  C:0014H         LINE#         129
  C:0014H         LINE#         130
  C:0016H         LINE#         131
  C:0016H         LINE#         132
  C:0018H         LINE#         134
  C:0018H         LINE#         135
  C:001DH         LINE#         136
  C:0022H         LINE#         137
  C:0022H         LINE#         138
  -------         ENDPROC       _DISPLAY_LINE
  -------         ENDMOD        LCD_DRIVER_SPLC780D

  -------         MODULE        KEYPAD
  C:0000H         SYMBOL        _ICE_DUMMY_
  D:0093H         PUBLIC        P0M1
  D:0080H         PUBLIC        P0
  D:0090H         PUBLIC        P1
  D:00A0H         PUBLIC        P2
  D:00B0H         PUBLIC        P3
  D:00C0H         PUBLIC        P4
BL51 BANKED LINKER/LOCATER V6.22                                                      08/03/2018  17:26:11  PAGE 19


  D:00C8H         PUBLIC        P5
  D:00E8H         PUBLIC        P6
  D:00F8H         PUBLIC        P7
  D:00A8H         PUBLIC        IE
  C:0ED4H         PUBLIC        Key_Scan
  D:00B8H         PUBLIC        IP
  D:00D8H         PUBLIC        CCON
  C:0003H         PUBLIC        KeyPad_IO_Init
  C:18CCH         PUBLIC        _Delay_ms
  D:0098H         PUBLIC        SCON
  D:0088H         PUBLIC        TCON
  B:0020H.0       PUBLIC        small_move
  B:0020H.1       PUBLIC        move
  B:0020H.2       PUBLIC        direction
  C:0634H         PUBLIC        Key_Process
  D:00D0H         PUBLIC        PSW
  D:0094H         PUBLIC        P0M0
  -------         PROC          _DELAY_MS
  D:0006H         SYMBOL        ms
  -------         DO            
  D:0004H         SYMBOL        De_Cnt
  -------         ENDDO         
  C:18CCH         LINE#         16
  C:18CCH         LINE#         17
  C:18CCH         LINE#         19
  C:18D6H         LINE#         20
  C:18D6H         LINE#         21
  C:18E9H         LINE#         22
  C:18E9H         LINE#         23
  -------         ENDPROC       _DELAY_MS
  -------         PROC          KEY_SCAN
  -------         DO            
  X:009AH         SYMBOL        KeyTemp1
  X:009BH         SYMBOL        KeyTemp2
  X:009CH         SYMBOL        KeyValue
  -------         ENDDO         
  C:0ED4H         LINE#         24
  C:0ED4H         LINE#         25
  C:0ED4H         LINE#         30
  C:0ED7H         LINE#         33
  C:0EDAH         LINE#         35
  C:0EE2H         LINE#         36
  C:0EE9H         LINE#         37
  C:0EE9H         LINE#         38
  C:0EF0H         LINE#         39
  C:0EF5H         LINE#         40
  C:0EFCH         LINE#         41
  C:0EFCH         LINE#         44
  C:0EFFH         LINE#         45
  C:0F02H         LINE#         46
  C:0F07H         LINE#         47
  C:0F0BH         LINE#         48
  C:0F0BH         LINE#         49
  C:0F13H         LINE#         50
  C:0F13H         LINE#         51
  C:0F16H         LINE#         52
  C:0F1EH         LINE#         53
BL51 BANKED LINKER/LOCATER V6.22                                                      08/03/2018  17:26:11  PAGE 20


  C:0F20H         LINE#         55
  C:0F34H         LINE#         56
  C:0F34H         LINE#         57
  C:0F34H         LINE#         58
  C:0F34H         LINE#         59
  C:0F3AH         LINE#         61
  C:0F3CH         LINE#         62
  C:0F3CH         LINE#         63
  C:0F3CH         LINE#         64
  C:0F42H         LINE#         66
  C:0F44H         LINE#         67
  C:0F44H         LINE#         68
  C:0F44H         LINE#         69
  C:0F4AH         LINE#         71
  C:0F4CH         LINE#         72
  C:0F4CH         LINE#         73
  C:0F4CH         LINE#         74
  C:0F52H         LINE#         76
  C:0F52H         LINE#         77
  C:0F52H         LINE#         78
  C:0F52H         LINE#         81
  C:0F55H         LINE#         82
  C:0F58H         LINE#         83
  C:0F60H         LINE#         84
  C:0F64H         LINE#         85
  C:0F64H         LINE#         86
  C:0F6CH         LINE#         87
  C:0F6CH         LINE#         88
  C:0F6FH         LINE#         89
  C:0F77H         LINE#         90
  C:0F79H         LINE#         91
  C:0F8DH         LINE#         92
  C:0F8DH         LINE#         93
  C:0F8DH         LINE#         94
  C:0F8DH         LINE#         95
  C:0F93H         LINE#         97
  C:0F95H         LINE#         98
  C:0F95H         LINE#         99
  C:0F95H         LINE#         100
  C:0F9BH         LINE#         102
  C:0F9DH         LINE#         103
  C:0F9DH         LINE#         104
  C:0F9DH         LINE#         105
  C:0FA3H         LINE#         107
  C:0FA5H         LINE#         108
  C:0FA5H         LINE#         109
  C:0FA5H         LINE#         110
  C:0FAAH         LINE#         112
  C:0FAAH         LINE#         113
  C:0FAAH         LINE#         114
  C:0FAAH         LINE#         117
  C:0FADH         LINE#         118
  C:0FB0H         LINE#         119
  C:0FB8H         LINE#         120
  C:0FBCH         LINE#         121
  C:0FBCH         LINE#         122
  C:0FC4H         LINE#         123
BL51 BANKED LINKER/LOCATER V6.22                                                      08/03/2018  17:26:11  PAGE 21


  C:0FC4H         LINE#         124
  C:0FC7H         LINE#         125
  C:0FCFH         LINE#         126
  C:0FD1H         LINE#         127
  C:0FE5H         LINE#         128
  C:0FE5H         LINE#         129
  C:0FE5H         LINE#         130
  C:0FE5H         LINE#         131
  C:0FEBH         LINE#         133
  C:0FEDH         LINE#         134
  C:0FEDH         LINE#         135
  C:0FEDH         LINE#         136
  C:0FF3H         LINE#         138
  C:0FF5H         LINE#         139
  C:0FF5H         LINE#         140
  C:0FF5H         LINE#         141
  C:0FFBH         LINE#         143
  C:0FFDH         LINE#         144
  C:0FFDH         LINE#         145
  C:0FFDH         LINE#         146
  C:1003H         LINE#         148
  C:1003H         LINE#         149
  C:1003H         LINE#         150
  C:1003H         LINE#         154
  C:1006H         LINE#         155
  C:1009H         LINE#         156
  C:1011H         LINE#         157
  C:1015H         LINE#         158
  C:1015H         LINE#         159
  C:101DH         LINE#         160
  C:101DH         LINE#         161
  C:1020H         LINE#         162
  C:1028H         LINE#         163
  C:102AH         LINE#         164
  C:103EH         LINE#         165
  C:103EH         LINE#         166
  C:103EH         LINE#         167
  C:103EH         LINE#         168
  C:1044H         LINE#         170
  C:1046H         LINE#         171
  C:1046H         LINE#         172
  C:1046H         LINE#         173
  C:104CH         LINE#         175
  C:104EH         LINE#         176
  C:104EH         LINE#         177
  C:104EH         LINE#         178
  C:1054H         LINE#         180
  C:1056H         LINE#         181
  C:1056H         LINE#         182
  C:1056H         LINE#         183
  C:105CH         LINE#         185
  C:105CH         LINE#         186
  C:105CH         LINE#         187
  C:105CH         LINE#         189
  C:1062H         LINE#         190
  C:1062H         LINE#         192
  C:1062H         LINE#         193
BL51 BANKED LINKER/LOCATER V6.22                                                      08/03/2018  17:26:11  PAGE 22


  C:1065H         LINE#         194
  C:1065H         LINE#         195
  C:1065H         LINE#         197
  C:1065H         LINE#         198
  C:1067H         LINE#         199
  C:1067H         LINE#         200
  -------         ENDPROC       KEY_SCAN
  -------         PROC          KEY_PROCESS
  -------         DO            
  X:00CCH         SYMBOL        KeyCount
  X:00CEH         SYMBOL        KeyNum_Old
  X:00CFH         SYMBOL        KeyNum
  X:00D0H         SYMBOL        PressedKey
  X:0094H         SYMBOL        d
  D:0004H         SYMBOL        hours
  D:0006H         SYMBOL        mins
  X:0096H         SYMBOL        months
  X:0098H         SYMBOL        days
  -------         ENDDO         
  C:0634H         LINE#         201
  C:0634H         LINE#         202
  C:0634H         LINE#         206
  C:063CH         LINE#         207
  C:0644H         LINE#         209
  C:0651H         LINE#         210
  C:0651H         LINE#         211
  C:0654H         LINE#         212
  C:0657H         LINE#         214
  C:065AH         LINE#         216
  C:065AH         LINE#         217
  C:0665H         LINE#         218
  C:0665H         LINE#         219
  C:0668H         LINE#         221
  C:0668H         LINE#         222
  C:066FH         LINE#         223
  C:066FH         LINE#         224
  C:0672H         LINE#         226
  C:0672H         LINE#         228
  C:0676H         LINE#         229
  C:0676H         LINE#         230
  C:0679H         LINE#         232
  C:0679H         LINE#         233
  C:0689H         LINE#         234
  C:0689H         LINE#         235
  C:069BH         LINE#         236
  C:06A9H         LINE#         237
  C:06B8H         LINE#         238
  C:06B8H         LINE#         240
  C:06BEH         LINE#         244
  C:06D4H         LINE#         245
  C:06E5H         LINE#         246
  C:0700H         LINE#         247
  C:0700H         LINE#         248
  C:0710H         LINE#         249
  C:0721H         LINE#         250
  C:0721H         LINE#         254
  C:073AH         LINE#         255
BL51 BANKED LINKER/LOCATER V6.22                                                      08/03/2018  17:26:11  PAGE 23


  C:0751H         LINE#         256
  C:0771H         LINE#         257
  C:0771H         LINE#         258
  C:077BH         LINE#         259
  C:077BH         LINE#         260
  C:0784H         LINE#         261
  C:0784H         LINE#         262
  C:0798H         LINE#         263
  C:0798H         LINE#         264
  C:0798H         LINE#         265
  C:0798H         LINE#         266
  C:0798H         LINE#         267
  C:079AH         LINE#         269
  C:079AH         LINE#         270
  C:07A6H         LINE#         271
  C:07A6H         LINE#         272
  C:07B7H         LINE#         273
  C:07B7H         LINE#         274
  C:07B7H         LINE#         275
  C:07B7H         LINE#         276
  C:07B7H         LINE#         278
  C:07B9H         LINE#         280
  C:07B9H         LINE#         281
  C:07CAH         LINE#         282
  C:07CAH         LINE#         283
  C:07CAH         LINE#         284
  C:07CAH         LINE#         285
  C:07CAH         LINE#         287
  C:07CAH         LINE#         289
  C:07CAH         LINE#         290
  C:07CCH         LINE#         292
  C:07CCH         LINE#         293
  C:07DFH         LINE#         294
  C:07DFH         LINE#         295
  C:07F0H         LINE#         296
  C:07F0H         LINE#         297
  C:07F0H         LINE#         298
  C:07F0H         LINE#         299
  C:07F0H         LINE#         300
  C:07F2H         LINE#         302
  C:07F2H         LINE#         303
  C:0803H         LINE#         304
  C:0803H         LINE#         305
  C:0814H         LINE#         306
  C:0825H         LINE#         307
  C:0825H         LINE#         308
  C:0825H         LINE#         309
  C:0825H         LINE#         310
  C:0825H         LINE#         311
  C:0828H         LINE#         312
  C:082DH         LINE#         313
  C:0832H         LINE#         314
  C:0837H         LINE#         315
  C:083CH         LINE#         316
  C:0841H         LINE#         317
  C:0846H         LINE#         318
  C:084BH         LINE#         319
BL51 BANKED LINKER/LOCATER V6.22                                                      08/03/2018  17:26:11  PAGE 24


  C:084BH         LINE#         321
  C:086DH         LINE#         322
  C:086DH         LINE#         323
  C:0877H         LINE#         324
  C:0877H         LINE#         325
  C:087CH         LINE#         326
  C:0885H         LINE#         327
  C:089CH         LINE#         328
  C:089CH         LINE#         329
  C:08ACH         LINE#         331
  C:08ACH         LINE#         335
  -------         ENDPROC       KEY_PROCESS
  -------         PROC          KEYPAD_IO_INIT
  C:0003H         LINE#         338
  C:0003H         LINE#         339
  C:0003H         LINE#         340
  C:0006H         LINE#         341
  C:0009H         LINE#         342
  -------         ENDPROC       KEYPAD_IO_INIT
  -------         ENDMOD        KEYPAD

  -------         MODULE        VCNL4035
  C:0000H         SYMBOL        _ICE_DUMMY_
  D:0080H         PUBLIC        P0
  B:00B0H.2       PUBLIC        I2C_SCK
  D:00B2H         PUBLIC        P3M0
  D:0090H         PUBLIC        P1
  D:00B1H         PUBLIC        P3M1
  D:00A0H         PUBLIC        P2
  D:00B0H         PUBLIC        P3
  D:00C0H         PUBLIC        P4
  D:00C8H         PUBLIC        P5
  D:00E8H         PUBLIC        P6
  D:00F8H         PUBLIC        P7
  D:00A8H         PUBLIC        IE
  C:1A69H         PUBLIC        _DisplayLCD_VCNL4035
  D:00B8H         PUBLIC        IP
  D:00D8H         PUBLIC        CCON
  C:19C3H         PUBLIC        I2C_Start
  D:0098H         PUBLIC        SCON
  C:196FH         PUBLIC        I2C_Init
  D:0088H         PUBLIC        TCON
  C:1A09H         PUBLIC        uC_NACK
  C:1804H         PUBLIC        _Wait_ms_i2c
  C:186AH         PUBLIC        _I2C_SendByte
  C:1986H         PUBLIC        I2C_Stop
  C:16DBH         PUBLIC        _Write_VCNL4035X
  C:1A7AH         PUBLIC        nop
  C:12A3H         PUBLIC        _Read_VCNL4035
  C:1A63H         PUBLIC        uC_ACK
  C:192AH         PUBLIC        I2C_ACK
  C:18EAH         PUBLIC        _Wait_ms_iic
  B:00B0H.1       PUBLIC        I2C_SDA
  D:00D0H         PUBLIC        PSW
  C:17D1H         PUBLIC        I2C_ReceiveByte
  -------         PROC          _WAIT_MS_IIC
  D:0006H         SYMBOL        ms
BL51 BANKED LINKER/LOCATER V6.22                                                      08/03/2018  17:26:11  PAGE 25


  -------         DO            
  D:0004H         SYMBOL        De_Cnt
  -------         ENDDO         
  C:18EAH         LINE#         5
  C:18EAH         LINE#         6
  C:18EAH         LINE#         8
  C:18F4H         LINE#         9
  C:18F4H         LINE#         10
  C:1907H         LINE#         11
  C:1907H         LINE#         12
  -------         ENDPROC       _WAIT_MS_IIC
  C:17FEH         SYMBOL        L?0048
  C:1800H         SYMBOL        L?0049
  -------         PROC          L?0047
  -------         ENDPROC       L?0047
  C:17FEH         SYMBOL        L?0048
  C:1800H         SYMBOL        L?0049
  -------         PROC          _WAIT_MS_I2C
  D:0006H         SYMBOL        ms
  -------         DO            
  D:0004H         SYMBOL        De_Cnt
  -------         ENDDO         
  C:1804H         LINE#         14
  C:1804H         LINE#         15
  C:1804H         LINE#         17
  C:180EH         LINE#         18
  C:180EH         LINE#         19
  C:1821H         LINE#         20
  C:1821H         LINE#         21
  -------         ENDPROC       _WAIT_MS_I2C
  -------         PROC          NOP
  C:1A7AH         LINE#         22
  C:1A7AH         LINE#         23
  C:1A7AH         LINE#         25
  -------         ENDPROC       NOP
  -------         PROC          I2C_START
  C:19C3H         LINE#         26
  C:19C3H         LINE#         27
  C:19C3H         LINE#         29
  C:19C5H         LINE#         30
  C:19C7H         LINE#         31
  C:19CEH         LINE#         32
  C:19D0H         LINE#         33
  C:19D3H         LINE#         34
  C:19D5H         LINE#         37
  -------         ENDPROC       I2C_START
  -------         PROC          I2C_STOP
  C:1986H         LINE#         39
  C:1986H         LINE#         40
  C:1986H         LINE#         41
  C:1988H         LINE#         42
  C:198AH         LINE#         43
  C:198DH         LINE#         44
  C:198FH         LINE#         45
  C:1991H         LINE#         46
  C:1998H         LINE#         47
  C:199AH         LINE#         50
BL51 BANKED LINKER/LOCATER V6.22                                                      08/03/2018  17:26:11  PAGE 26


  -------         ENDPROC       I2C_STOP
  -------         PROC          L?0050
  -------         ENDPROC       L?0050
  -------         PROC          I2C_ACK
  -------         DO            
  X:0097H         SYMBOL        i
  D:0003H         SYMBOL        dat
  -------         ENDDO         
  C:192AH         LINE#         52
  C:192AH         LINE#         53
  C:192AH         LINE#         55
  C:192BH         LINE#         60
  C:192EH         LINE#         61
  C:1930H         LINE#         62
  C:1933H         LINE#         64
  C:1936H         LINE#         65
  C:1936H         LINE#         66
  C:193AH         LINE#         67
  C:193AH         LINE#         70
  C:193AH         LINE#         71
  C:193DH         LINE#         72
  C:193DH         LINE#         73
  C:193FH         LINE#         74
  -------         ENDPROC       I2C_ACK
  -------         PROC          UC_ACK
  -------         DO            
  X:00E4H         SYMBOL        i
  -------         ENDDO         
  C:1A63H         LINE#         75
  C:1A63H         LINE#         76
  C:1A63H         LINE#         78
  C:1A63H         LINE#         85
  C:1A63H         LINE#         87
  C:1A63H         LINE#         89
  C:1A63H         LINE#         90
  C:1A63H         LINE#         93
  C:1A66H         LINE#         94
  C:1A68H         LINE#         95
  C:1A68H         LINE#         99
  -------         ENDPROC       UC_ACK
  -------         PROC          UC_NACK
  -------         DO            
  X:00E5H         SYMBOL        i
  -------         ENDDO         
  C:1A09H         LINE#         101
  C:1A09H         LINE#         102
  C:1A09H         LINE#         104
  C:1A09H         LINE#         108
  C:1A0BH         LINE#         111
  C:1A0BH         LINE#         112
  C:1A0DH         LINE#         113
  C:1A0DH         LINE#         115
  C:1A0DH         LINE#         116
  C:1A0DH         LINE#         119
  C:1A10H         LINE#         120
  C:1A12H         LINE#         121
  C:1A15H         LINE#         122
BL51 BANKED LINKER/LOCATER V6.22                                                      08/03/2018  17:26:11  PAGE 27


  C:1A17H         LINE#         123
  C:1A17H         LINE#         127
  -------         ENDPROC       UC_NACK
  -------         PROC          I2C_INIT
  C:196FH         LINE#         129
  C:196FH         LINE#         130
  C:196FH         LINE#         133
  C:1972H         LINE#         134
  C:1975H         LINE#         139
  C:197DH         LINE#         141
  -------         ENDPROC       I2C_INIT
  -------         PROC          _I2C_SENDBYTE
  D:0001H         SYMBOL        dat
  -------         DO            
  D:0003H         SYMBOL        i
  -------         ENDDO         
  C:186AH         LINE#         145
  C:186CH         LINE#         146
  C:186CH         LINE#         149
  C:186EH         LINE#         150
  C:186EH         LINE#         151
  C:1870H         LINE#         153
  C:1874H         LINE#         154
  C:1874H         LINE#         155
  C:1876H         LINE#         156
  C:1878H         LINE#         158
  C:1878H         LINE#         159
  C:187AH         LINE#         160
  C:187AH         LINE#         161
  C:187DH         LINE#         162
  C:187FH         LINE#         164
  C:1883H         LINE#         165
  C:1886H         LINE#         166
  C:188BH         LINE#         167
  -------         ENDPROC       _I2C_SENDBYTE
  -------         PROC          L?0051
  -------         ENDPROC       L?0051
  -------         PROC          I2C_RECEIVEBYTE
  -------         DO            
  D:0003H         SYMBOL        i
  D:0001H         SYMBOL        dat
  -------         ENDDO         
  C:17D1H         LINE#         171
  C:17D1H         LINE#         172
  C:17D1H         LINE#         174
  C:17D3H         LINE#         178
  C:17D4H         LINE#         179
  C:17D4H         LINE#         180
  C:17D8H         LINE#         181
  C:17DAH         LINE#         182
  C:17DDH         LINE#         184
  C:17E0H         LINE#         185
  C:17E0H         LINE#         186
  C:17E4H         LINE#         187
  C:17E4H         LINE#         188
  C:17E4H         LINE#         189
  C:17E7H         LINE#         190
BL51 BANKED LINKER/LOCATER V6.22                                                      08/03/2018  17:26:11  PAGE 28


  C:17EBH         LINE#         191
  C:17EBH         LINE#         192
  C:17EDH         LINE#         193
  C:17EFH         LINE#         194
  C:17EFH         LINE#         196
  C:17F4H         LINE#         197
  C:17F6H         LINE#         198
  -------         ENDPROC       I2C_RECEIVEBYTE
  -------         PROC          _WRITE_VCNL4035X
  X:0094H         SYMBOL        command_code
  X:0095H         SYMBOL        dat_h
  X:0096H         SYMBOL        dat_l
  C:16DBH         LINE#         199
  C:16E6H         LINE#         200
  C:16E6H         LINE#         201
  C:16E9H         LINE#         202
  C:16F0H         LINE#         203
  C:16F0H         LINE#         204
  C:16F6H         LINE#         205
  C:16F6H         LINE#         206
  C:16FEH         LINE#         207
  C:16FEH         LINE#         208
  C:1704H         LINE#         209
  C:170CH         LINE#         211
  C:1712H         LINE#         212
  C:171AH         LINE#         214
  C:1720H         LINE#         215
  C:1723H         LINE#         216
  -------         ENDPROC       _WRITE_VCNL4035X
  -------         PROC          _READ_VCNL4035
  X:00D5H         SYMBOL        command_code
  -------         DO            
  X:00D7H         SYMBOL        temp_dat
  X:00D9H         SYMBOL        temp_dat_l
  X:00DBH         SYMBOL        temp_dat_h
  -------         ENDDO         
  C:12A3H         LINE#         218
  C:12ABH         LINE#         219
  C:12ABH         LINE#         220
  C:12B8H         LINE#         222
  C:12BBH         LINE#         223
  C:12BEH         LINE#         224
  C:12C3H         LINE#         226
  C:12C9H         LINE#         227
  C:12C9H         LINE#         228
  C:12C9H         LINE#         229
  C:12C9H         LINE#         230
  C:12D4H         LINE#         231
  C:12D7H         LINE#         232
  C:12DAH         LINE#         233
  C:12DAH         LINE#         236
  C:12DDH         LINE#         238
  C:12E4H         LINE#         239
  C:12E4H         LINE#         240
  C:12E4H         LINE#         241
  C:12EFH         LINE#         242
  C:12F2H         LINE#         243
BL51 BANKED LINKER/LOCATER V6.22                                                      08/03/2018  17:26:11  PAGE 29


  C:12F5H         LINE#         244
  C:12F8H         LINE#         245
  C:12FBH         LINE#         246
  C:12FEH         LINE#         247
  C:1301H         LINE#         248
  C:1304H         LINE#         249
  C:1307H         LINE#         250
  C:1307H         LINE#         251
  C:130DH         LINE#         252
  C:130DH         LINE#         253
  C:1316H         LINE#         255
  C:1316H         LINE#         256
  C:131CH         LINE#         257
  C:131CH         LINE#         259
  C:131EH         LINE#         260
  C:1324H         LINE#         261
  C:1327H         LINE#         262
  C:132EH         LINE#         263
  C:132EH         LINE#         264
  C:133CH         LINE#         265
  -------         ENDPROC       _READ_VCNL4035
  -------         PROC          _DISPLAYLCD_VCNL4035
  X:00E6H         SYMBOL        dat
  C:1A69H         LINE#         267
  C:1A6EH         LINE#         268
  C:1A6EH         LINE#         270
  -------         ENDPROC       _DISPLAYLCD_VCNL4035
  -------         ENDMOD        VCNL4035

  -------         MODULE        BIPOLARMOTOR
  C:0000H         SYMBOL        _ICE_DUMMY_
  D:0080H         PUBLIC        P0
  D:0090H         PUBLIC        P1
  D:00A0H         PUBLIC        P2
  D:00B0H         PUBLIC        P3
  D:00C0H         PUBLIC        P4
  D:00C8H         PUBLIC        P5
  D:00E8H         PUBLIC        P6
  D:00F8H         PUBLIC        P7
  D:00A8H         PUBLIC        IE
  X:0000H         PUBLIC        receiver_pos
  X:0044H         PUBLIC        Time_stamp_PM
  C:1764H         PUBLIC        _Move
  D:00B8H         PUBLIC        IP
  X:0077H         PUBLIC        num_of_time_stamp
  D:00D8H         PUBLIC        CCON
  C:15C6H         PUBLIC        _trend_line_30_31
  D:0098H         PUBLIC        SCON
  D:0088H         PUBLIC        TCON
  C:162EH         PUBLIC        _Step_move
  C:08ADH         PUBLIC        _Update_position
  C:1859H         PUBLIC        _BCDtoDec1
  X:0078H         PUBLIC        degree
  D:00D0H         PUBLIC        PSW
  -------         PROC          L?0024
  -------         ENDPROC       L?0024
  -------         PROC          _BCDTODEC1
BL51 BANKED LINKER/LOCATER V6.22                                                      08/03/2018  17:26:11  PAGE 30


  D:0007H         SYMBOL        bcd
  -------         DO            
  D:0006H         SYMBOL        hi
  D:0007H         SYMBOL        lo
  -------         ENDDO         
  C:1859H         LINE#         12
  C:1859H         LINE#         13
  C:1859H         LINE#         15
  C:185EH         LINE#         16
  C:1862H         LINE#         17
  C:1869H         LINE#         18
  -------         ENDPROC       _BCDTODEC1
  -------         PROC          _STEP_MOVE
  X:00ACH         SYMBOL        step
  B:0020H.5       SYMBOL        dir
  -------         DO            
  X:00AEH         SYMBOL        i
  -------         ENDDO         
  C:162EH         LINE#         24
  C:1636H         LINE#         25
  C:1636H         LINE#         26
  C:163BH         LINE#         27
  C:163EH         LINE#         28
  C:1643H         LINE#         30
  C:1646H         LINE#         32
  C:1662H         LINE#         33
  C:1662H         LINE#         34
  C:1665H         LINE#         35
  C:166CH         LINE#         36
  C:166FH         LINE#         37
  C:1676H         LINE#         38
  C:1686H         LINE#         39
  -------         ENDPROC       _STEP_MOVE
  -------         PROC          _MOVE
  X:00A8H         SYMBOL        distance
  B:0020H.4       SYMBOL        direction
  -------         DO            
  D:0006H         SYMBOL        step
  -------         ENDDO         
  C:1764H         LINE#         41
  C:176AH         LINE#         42
  C:176AH         LINE#         44
  C:1791H         LINE#         45
  -------         ENDPROC       _MOVE
  -------         PROC          _UPDATE_POSITION
  X:0094H         SYMBOL        mnths
  X:0095H         SYMBOL        dys
  X:0096H         SYMBOL        hurs
  X:0097H         SYMBOL        mns
  X:0098H         SYMBOL        sconds
  X:0099H         SYMBOL        currnt_pos
  -------         DO            
  X:009CH         SYMBOL        date
  X:009EH         SYMBOL        i
  X:00A0H         SYMBOL        desired_distance
  X:00A4H         SYMBOL        distance
  -------         ENDDO         
BL51 BANKED LINKER/LOCATER V6.22                                                      08/03/2018  17:26:11  PAGE 31


  C:08ADH         LINE#         51
  C:08B8H         LINE#         52
  C:08B8H         LINE#         54
  C:08C2H         LINE#         58
  C:08D6H         LINE#         59
  C:08E9H         LINE#         61
  C:0908H         LINE#         62
  C:0908H         LINE#         63
  C:09D8H         LINE#         64
  C:09D8H         LINE#         65
  C:09E8H         LINE#         66
  C:09E8H         LINE#         67
  C:09E8H         LINE#         68
  C:0A46H         LINE#         69
  C:0A46H         LINE#         70
  C:0A6BH         LINE#         71
  C:0A87H         LINE#         72
  C:0AA1H         LINE#         73
  C:0AA1H         LINE#         74
  C:0AB1H         LINE#         75
  C:0AB3H         LINE#         76
  C:0ACBH         LINE#         77
  C:0ACBH         LINE#         78
  C:0AE1H         LINE#         79
  C:0AE1H         LINE#         81
  C:0AE1H         LINE#         82
  C:0AE1H         LINE#         84
  C:0AE1H         LINE#         86
  C:0AE1H         LINE#         88
  C:0AF2H         LINE#         89
  -------         ENDPROC       _UPDATE_POSITION
  -------         PROC          _TREND_LINE_30_31
  X:00A8H         SYMBOL        time
  C:15C6H         LINE#         91
  C:15CCH         LINE#         92
  C:15CCH         LINE#         93
  C:162DH         LINE#         95
  -------         ENDPROC       _TREND_LINE_30_31
  -------         ENDMOD        BIPOLARMOTOR

  -------         MODULE        ?C_STARTUP
  C:13D2H         SEGMENT       ?C_C51STARTUP
  I:0021H         SEGMENT       ?STACK
  C:0000H         PUBLIC        ?C_STARTUP
  D:00E0H         SYMBOL        ACC
  D:00F0H         SYMBOL        B
  D:0083H         SYMBOL        DPH
  D:0082H         SYMBOL        DPL
  N:0000H         SYMBOL        IBPSTACK
  N:0100H         SYMBOL        IBPSTACKTOP
  N:0080H         SYMBOL        IDATALEN
  C:13D5H         SYMBOL        IDATALOOP
  N:0000H         SYMBOL        PBPSTACK
  N:0100H         SYMBOL        PBPSTACKTOP
  N:0000H         SYMBOL        PDATALEN
  N:0000H         SYMBOL        PDATASTART
  N:0000H         SYMBOL        PPAGE
BL51 BANKED LINKER/LOCATER V6.22                                                      08/03/2018  17:26:11  PAGE 32


  N:0000H         SYMBOL        PPAGEENABLE
  D:00A0H         SYMBOL        PPAGE_SFR
  D:0081H         SYMBOL        SP
  C:13D2H         SYMBOL        STARTUP1
  N:0000H         SYMBOL        XBPSTACK
  N:0000H         SYMBOL        XBPSTACKTOP
  N:0000H         SYMBOL        XDATALEN
  N:0000H         SYMBOL        XDATASTART
  C:0000H         LINE#         126
  C:13D2H         LINE#         133
  C:13D4H         LINE#         134
  C:13D5H         LINE#         135
  C:13D6H         LINE#         136
  C:13D8H         LINE#         185
  C:13DBH         LINE#         196
  -------         ENDMOD        ?C_STARTUP

  -------         MODULE        ?C?FPADD
  C:002DH         PUBLIC        ?C?FPADD
  C:0029H         PUBLIC        ?C?FPSUB
  -------         ENDMOD        ?C?FPADD

  -------         MODULE        ?C?FPMUL
  C:011EH         PUBLIC        ?C?FPMUL
  -------         ENDMOD        ?C?FPMUL

  -------         MODULE        ?C?FPDIV
  C:0227H         PUBLIC        ?C?FPDIV
  -------         ENDMOD        ?C?FPDIV

  -------         MODULE        ?C?FPCMP
  C:02C6H         PUBLIC        ?C?FPCMP
  C:02C4H         PUBLIC        ?C?FPCMP3
  -------         ENDMOD        ?C?FPCMP

  -------         MODULE        ?C?FPNEG
  C:033DH         PUBLIC        ?C?FPNEG
  -------         ENDMOD        ?C?FPNEG

  -------         MODULE        ?C?FCAST
  C:0358H         PUBLIC        ?C?FCASTC
  C:0353H         PUBLIC        ?C?FCASTI
  C:034EH         PUBLIC        ?C?FCASTL
  -------         ENDMOD        ?C?FCAST

  -------         MODULE        ?C?CASTF
  C:038CH         PUBLIC        ?C?CASTF
  -------         ENDMOD        ?C?CASTF

  -------         MODULE        ?C?CLDPTR
  C:040DH         PUBLIC        ?C?CLDPTR
  -------         ENDMOD        ?C?CLDPTR

  -------         MODULE        ?C?CSTPTR
  C:0426H         PUBLIC        ?C?CSTPTR
  -------         ENDMOD        ?C?CSTPTR

BL51 BANKED LINKER/LOCATER V6.22                                                      08/03/2018  17:26:11  PAGE 33


  -------         MODULE        ?C?IMUL
  C:0438H         PUBLIC        ?C?IMUL
  -------         ENDMOD        ?C?IMUL

  -------         MODULE        ?C?UIDIV
  C:044AH         PUBLIC        ?C?UIDIV
  -------         ENDMOD        ?C?UIDIV

  -------         MODULE        ?C?SIDIV
  C:049FH         PUBLIC        ?C?SIDIV
  -------         ENDMOD        ?C?SIDIV

  -------         MODULE        ?C?ILDIX
  C:04D5H         PUBLIC        ?C?ILDIX
  -------         ENDMOD        ?C?ILDIX

  -------         MODULE        ?C?LNEG
  C:04EBH         PUBLIC        ?C?LNEG
  -------         ENDMOD        ?C?LNEG

  -------         MODULE        ?C?LLDPTR
  C:04F9H         PUBLIC        ?C?LLDPTR
  -------         ENDMOD        ?C?LLDPTR

  -------         MODULE        ?C?LSTPTR
  C:0519H         PUBLIC        ?C?LSTPTR
  -------         ENDMOD        ?C?LSTPTR

  -------         MODULE        ?C?LLDPTR0
  C:0533H         PUBLIC        ?C?LLDPTR0
  -------         ENDMOD        ?C?LLDPTR0

  -------         MODULE        ?C?LSTXDATA
  C:0553H         PUBLIC        ?C?LSTXDATA
  -------         ENDMOD        ?C?LSTXDATA

  -------         MODULE        ?C?LSTKXDATA
  C:055FH         PUBLIC        ?C?LSTKXDATA
  -------         ENDMOD        ?C?LSTKXDATA

  -------         MODULE        ?C?OFFXADD
  C:0590H         PUBLIC        ?C?OFFXADD
  -------         ENDMOD        ?C?OFFXADD

  -------         MODULE        ABS
  C:1A34H         PUBLIC        _ABS
  -------         ENDMOD        ABS

  -------         MODULE        ATOI
  C:1068H         PUBLIC        _atoi
  -------         ENDMOD        ATOI

  -------         MODULE        ?C?IILDX
  C:059CH         PUBLIC        ?C?IILDX
  -------         ENDMOD        ?C?IILDX

  -------         MODULE        ?C?LLDIDATA
BL51 BANKED LINKER/LOCATER V6.22                                                      08/03/2018  17:26:11  PAGE 34


  C:05B2H         PUBLIC        ?C?LLDIDATA
  -------         ENDMOD        ?C?LLDIDATA

  -------         MODULE        ?C?LLDXDATA
  C:05BEH         PUBLIC        ?C?LLDXDATA
  -------         ENDMOD        ?C?LLDXDATA

  -------         MODULE        ?C?LLDPDATA
  C:05CAH         PUBLIC        ?C?LLDPDATA
  -------         ENDMOD        ?C?LLDPDATA

  -------         MODULE        ?C?LLDCODE
  C:05D6H         PUBLIC        ?C?LLDCODE
  -------         ENDMOD        ?C?LLDCODE

  -------         MODULE        ?C?LLDIDATA0
  C:05E6H         PUBLIC        ?C?LLDIDATA0
  -------         ENDMOD        ?C?LLDIDATA0

  -------         MODULE        ?C?LLDXDATA0
  C:05F3H         PUBLIC        ?C?LLDXDATA0
  -------         ENDMOD        ?C?LLDXDATA0

  -------         MODULE        ?C?LLDPDATA0
  C:05FFH         PUBLIC        ?C?LLDPDATA0
  -------         ENDMOD        ?C?LLDPDATA0

  -------         MODULE        ?C?LLDCODE0
  C:060CH         PUBLIC        ?C?LLDCODE0
  -------         ENDMOD        ?C?LLDCODE0

  -------         MODULE        ?C?LSTIDATA
  C:061CH         PUBLIC        ?C?LSTIDATA
  -------         ENDMOD        ?C?LSTIDATA

  -------         MODULE        ?C?LSTPDATA
  C:0628H         PUBLIC        ?C?LSTPDATA
  -------         ENDMOD        ?C?LSTPDATA

  -------         MODULE        ISDIGIT
  C:1A18H         PUBLIC        _isdigit
  -------         ENDMOD        ISDIGIT

  -------         MODULE        ISSPACE
  C:19AFH         PUBLIC        _isspace
  -------         ENDMOD        ISSPACE

*** WARNING L16: UNCALLED SEGMENT, IGNORED FOR OVERLAY PROCESS
    SEGMENT: ?PR?_DISPLAY_PROX?MAIN

*** WARNING L16: UNCALLED SEGMENT, IGNORED FOR OVERLAY PROCESS
    SEGMENT: ?PR?_SENDSTRING?UART1

*** WARNING L16: UNCALLED SEGMENT, IGNORED FOR OVERLAY PROCESS
    SEGMENT: ?PR?_TEN?UART1

*** WARNING L16: UNCALLED SEGMENT, IGNORED FOR OVERLAY PROCESS
BL51 BANKED LINKER/LOCATER V6.22                                                      08/03/2018  17:26:11  PAGE 35


    SEGMENT: ?PR?_UNIT?UART1

*** WARNING L16: UNCALLED SEGMENT, IGNORED FOR OVERLAY PROCESS
    SEGMENT: ?PR?_DECTOBCD?UART1

*** WARNING L16: UNCALLED SEGMENT, IGNORED FOR OVERLAY PROCESS
    SEGMENT: ?PR?_ASCII_LETTER?UART1

*** WARNING L16: UNCALLED SEGMENT, IGNORED FOR OVERLAY PROCESS
    SEGMENT: ?PR?NOP?VCNL4035

*** WARNING L16: UNCALLED SEGMENT, IGNORED FOR OVERLAY PROCESS
    SEGMENT: ?PR?_READ_VCNL4035?VCNL4035

*** WARNING L16: UNCALLED SEGMENT, IGNORED FOR OVERLAY PROCESS
    SEGMENT: ?PR?_DISPLAYLCD_VCNL4035?VCNL4035

Program Size: data=17.7 xdata=231 code=6779
LINK/LOCATE RUN COMPLETE.  9 WARNING(S),  0 ERROR(S)
