BL51 BANKED LINKER/LOCATER V6.22                                                        05/31/2019  12:29:07  PAGE 1


BL51 BANKED LINKER/LOCATER V6.22, INVOKED BY:
C:\KEIL_V5\C51\BIN\BL51.EXE .\Obj\main.obj, .\Obj\PCF85063BTL.obj, .\Obj\LCd_Driver_SPLC780D.obj, .\Obj\KeyPad.obj, .\Ob
>> j\BipolarMotor.obj, .\Obj\SunPos.obj, .\Obj\ADC.obj, .\Obj\Calibration.obj, .\Obj\IOExpander_PI4IOE5V96248.obj, .\Obj
>> \AT25SF041.obj, .\Obj\SI1120.obj, .\Obj\UART1.obj, .\Obj\STARTUP.obj TO .\Obj\GPIO_RTC_Test PRINT (.\Lis\GPIO_RTC_Tes
>> t.m51) RAMSIZE (256)


MEMORY MODEL: LARGE WITH FLOATING POINT ARITHMETIC


INPUT MODULES INCLUDED:
  .\Obj\main.obj (MAIN)
  .\Obj\PCF85063BTL.obj (PCF85063BTL)
  .\Obj\LCd_Driver_SPLC780D.obj (LCD_DRIVER_SPLC780D)
  .\Obj\KeyPad.obj (KEYPAD)
  .\Obj\BipolarMotor.obj (BIPOLARMOTOR)
  .\Obj\SunPos.obj (SUNPOS)
  .\Obj\ADC.obj (ADC)
  .\Obj\Calibration.obj (CALIBRATION)
  .\Obj\IOExpander_PI4IOE5V96248.obj (IOEXPANDER_PI4IOE5V96248)
  .\Obj\AT25SF041.obj (AT25SF041)
  .\Obj\SI1120.obj (SI1120)
  .\Obj\UART1.obj (UART1)
  .\Obj\STARTUP.obj (?C_STARTUP)
  C:\KEIL_V5\C51\LIB\C51FPL.LIB (?C?FPADD)
  C:\KEIL_V5\C51\LIB\C51FPL.LIB (?C?FPMUL)
  C:\KEIL_V5\C51\LIB\C51FPL.LIB (?C?FPDIV)
  C:\KEIL_V5\C51\LIB\C51FPL.LIB (?C?FPCMP)
  C:\KEIL_V5\C51\LIB\C51FPL.LIB (?C?FPNEG)
  C:\KEIL_V5\C51\LIB\C51FPL.LIB (?C?FCAST)
  C:\KEIL_V5\C51\LIB\C51FPL.LIB (?C?CASTF)
  C:\KEIL_V5\C51\LIB\C51FPL.LIB (PRINTF)
  C:\KEIL_V5\C51\LIB\C51FPL.LIB (ATAN2)
  C:\KEIL_V5\C51\LIB\C51FPL.LIB (SIN)
  C:\KEIL_V5\C51\LIB\C51FPL.LIB (ACOS)
  C:\KEIL_V5\C51\LIB\C51FPL.LIB (ASIN)
  C:\KEIL_V5\C51\LIB\C51FPL.LIB (POW)
  C:\KEIL_V5\C51\LIB\C51FPL.LIB (?C?FPGETOPN)
  C:\KEIL_V5\C51\LIB\C51FPL.LIB (?C?CHKFLOAT)
  C:\KEIL_V5\C51\LIB\C51FPL.LIB (?C?FPROUND)
  C:\KEIL_V5\C51\LIB\C51FPL.LIB (?C?FPCONVERT)
  C:\KEIL_V5\C51\LIB\C51FPL.LIB (?C?FPSERIES)
  C:\KEIL_V5\C51\LIB\C51FPL.LIB (EXP)
  C:\KEIL_V5\C51\LIB\C51FPL.LIB (LOG)
  C:\KEIL_V5\C51\LIB\C51FPL.LIB (SQRT)
  C:\KEIL_V5\C51\LIB\C51FPL.LIB (ATAN)
  C:\KEIL_V5\C51\LIB\C51FPL.LIB (?C?FTNPWR)
  C:\KEIL_V5\C51\LIB\C51L.LIB (?C_INIT)
  C:\KEIL_V5\C51\LIB\C51L.LIB (?C?COPY)
  C:\KEIL_V5\C51\LIB\C51L.LIB (?C?CLDPTR)
  C:\KEIL_V5\C51\LIB\C51L.LIB (?C?CLDOPTR)
  C:\KEIL_V5\C51\LIB\C51L.LIB (?C?CSTPTR)
  C:\KEIL_V5\C51\LIB\C51L.LIB (?C?IMUL)
  C:\KEIL_V5\C51\LIB\C51L.LIB (?C?UIDIV)
  C:\KEIL_V5\C51\LIB\C51L.LIB (?C?SIDIV)
  C:\KEIL_V5\C51\LIB\C51L.LIB (?C?ILDIX)
  C:\KEIL_V5\C51\LIB\C51L.LIB (?C?ILDOPTR)
  C:\KEIL_V5\C51\LIB\C51L.LIB (?C?ISTPTR)
BL51 BANKED LINKER/LOCATER V6.22                                                      05/31/2019  12:29:07  PAGE 2


  C:\KEIL_V5\C51\LIB\C51L.LIB (?C?LMUL)
  C:\KEIL_V5\C51\LIB\C51L.LIB (?C?SLDIV)
  C:\KEIL_V5\C51\LIB\C51L.LIB (?C?LNEG)
  C:\KEIL_V5\C51\LIB\C51L.LIB (?C?ULCMP)
  C:\KEIL_V5\C51\LIB\C51L.LIB (?C?LSHL)
  C:\KEIL_V5\C51\LIB\C51L.LIB (?C?LLDPTR)
  C:\KEIL_V5\C51\LIB\C51L.LIB (?C?LLDOPTR)
  C:\KEIL_V5\C51\LIB\C51L.LIB (?C?LSTPTR)
  C:\KEIL_V5\C51\LIB\C51L.LIB (?C?LSTOPTR)
  C:\KEIL_V5\C51\LIB\C51L.LIB (?C?LLDXDATA)
  C:\KEIL_V5\C51\LIB\C51L.LIB (?C?LLDCODE)
  C:\KEIL_V5\C51\LIB\C51L.LIB (?C?LLDXDATA0)
  C:\KEIL_V5\C51\LIB\C51L.LIB (?C?LLDCODE0)
  C:\KEIL_V5\C51\LIB\C51L.LIB (?C?LLDPTR0)
  C:\KEIL_V5\C51\LIB\C51L.LIB (?C?LSTXDATA)
  C:\KEIL_V5\C51\LIB\C51L.LIB (?C?LSTKXDATA)
  C:\KEIL_V5\C51\LIB\C51L.LIB (?C?LSTKPTR)
  C:\KEIL_V5\C51\LIB\C51L.LIB (?C?OFFXADD)
  C:\KEIL_V5\C51\LIB\C51L.LIB (?C?PLDIXDATA)
  C:\KEIL_V5\C51\LIB\C51L.LIB (?C?PSTXDATA)
  C:\KEIL_V5\C51\LIB\C51L.LIB (?C?CCASE)
  C:\KEIL_V5\C51\LIB\C51L.LIB (PUTCHAR)
  C:\KEIL_V5\C51\LIB\C51L.LIB (ATOI)
  C:\KEIL_V5\C51\LIB\C51L.LIB (?C?IILDX)
  C:\KEIL_V5\C51\LIB\C51L.LIB (?C?ULDIV)
  C:\KEIL_V5\C51\LIB\C51L.LIB (?C?LLDIDATA)
  C:\KEIL_V5\C51\LIB\C51L.LIB (?C?LLDPDATA)
  C:\KEIL_V5\C51\LIB\C51L.LIB (?C?LLDIDATA0)
  C:\KEIL_V5\C51\LIB\C51L.LIB (?C?LLDPDATA0)
  C:\KEIL_V5\C51\LIB\C51L.LIB (?C?LSTIDATA)
  C:\KEIL_V5\C51\LIB\C51L.LIB (?C?LSTPDATA)
  C:\KEIL_V5\C51\LIB\C51L.LIB (?C?LSTKIDATA)
  C:\KEIL_V5\C51\LIB\C51L.LIB (?C?LSTKPDATA)
  C:\KEIL_V5\C51\LIB\C51L.LIB (ISDIGIT)
  C:\KEIL_V5\C51\LIB\C51L.LIB (ISSPACE)


LINK MAP OF MODULE:  .\Obj\GPIO_RTC_Test (MAIN)


            TYPE    BASE      LENGTH    RELOCATION   SEGMENT NAME
            -----------------------------------------------------

            * * * * * * *   D A T A   M E M O R Y   * * * * * * *
            REG     0000H     0008H     ABSOLUTE     "REG BANK 0"
            DATA    0008H     0005H     UNIT         _DATA_GROUP_
                    000DH     0013H                  *** GAP ***
            BIT     0020H.0   0001H.2   UNIT         _BIT_GROUP_
            BIT     0021H.2   0000H.1   UNIT         ?BI?MAIN
            BIT     0021H.3   0000H.1   UNIT         ?BI?_ATOI?ATOI
                    0021H.4   0000H.4                *** GAP ***
            IDATA   0022H     0001H     UNIT         ?STACK

            * * * * * * *  X D A T A   M E M O R Y  * * * * * * *
            XDATA   0000H     03BCH     UNIT         ?XD?BIPOLARMOTOR
            XDATA   03BCH     0151H     UNIT         _XDATA_GROUP_
            XDATA   050DH     0107H     UNIT         ?XD?MAIN
BL51 BANKED LINKER/LOCATER V6.22                                                      05/31/2019  12:29:07  PAGE 3


            XDATA   0614H     0019H     UNIT         ?XD?KEYPAD
            XDATA   062DH     000EH     UNIT         ?XD?SPI_NOR_WRITE_DATA?AT25SF041
            XDATA   063BH     0008H     UNIT         ?XD?_AT25SF041_READ?AT25SF041
            XDATA   0643H     0005H     UNIT         ?XD?_ATOI?ATOI
            XDATA   0648H     0001H     UNIT         ?XD?UC_ACK?IOEXPANDER_PI4IOE5V96248
            XDATA   0649H     0001H     UNIT         ?XD?UC_NACK?IOEXPANDER_PI4IOE5V96248

            * * * * * * *   C O D E   M E M O R Y   * * * * * * *
            CODE    0000H     0003H     ABSOLUTE     
            CODE    0003H     0003H     ABSOLUTE     
            CODE    0006H     0005H     UNIT         ?PR?_UNIT?UART1
            CODE    000BH     0003H     ABSOLUTE     
            CODE    000EH     000DH     UNIT         ?PR?UART?MAIN
            CODE    001BH     0003H     ABSOLUTE     
            CODE    001EH     0005H     UNIT         ?PR?_ASCII_LETTER?UART1
            CODE    0023H     0003H     ABSOLUTE     
            CODE    0026H     0BC8H     UNIT         ?C?LIB_CODE
            CODE    0BEEH     0BB6H     UNIT         ?PR?MAIN?MAIN
            CODE    17A4H     07A2H     UNIT         ?PR?SUNPOS?SUNPOS
            CODE    1F46H     063CH     UNIT         ?PR?_UPDATE_POSITION?BIPOLARMOTOR
            CODE    2582H     04FBH     UNIT         ?PR?_THEORICALJP_POSITION?BIPOLARMOTOR
            CODE    2A7DH     04B2H     UNIT         ?PR?_FIND_REAL_MAX?CALIBRATION
            CODE    2F2FH     0483H     UNIT         ?PR?PRINTF?PRINTF
            CODE    33B2H     040EH     UNIT         ?C_INITSEG
            CODE    37C0H     038CH     UNIT         ?PR?KEY_PROCESS?KEYPAD
            CODE    3B4CH     0380H     UNIT         ?PR?_ELEVATION_CALCULATION?BIPOLARMOTOR
            CODE    3ECCH     01C7H     UNIT         ?PR?_CALIBRATION?CALIBRATION
            CODE    4093H     018DH     UNIT         ?PR?KEY_SCAN?KEYPAD
            CODE    4220H     0189H     UNIT         ?PR?SPI_NOR_WRITE_DATA?AT25SF041
            CODE    43A9H     0188H     UNIT         ?PR?SIN?SIN
            CODE    4531H     0166H     UNIT         ?PR?_POW?POW
            CODE    4697H     0155H     UNIT         ?PR?_DISPLAY_POS?LCD_DRIVER_SPLC780D
            CODE    47ECH     0129H     UNIT         ?PR?LOG?LOG
            CODE    4915H     0122H     UNIT         ?PR?ATAN?ATAN
            CODE    4A37H     0110H     UNIT         ?PR?_AT25SF041_READ?AT25SF041
            CODE    4B47H     0102H     UNIT         ?PR?_AT25SF041_WRITE?AT25SF041
            CODE    4C49H     00F5H     UNIT         ?PR?EXINT0?MAIN
            CODE    4D3EH     00DBH     UNIT         ?PR?_ATOI?ATOI
            CODE    4E19H     00C3H     UNIT         ?PR?LINEAR_INTERPOLATE?BIPOLARMOTOR
            CODE    4EDCH     00BBH     UNIT         ?PR?VOLTAGE_IS_STABLE?CALIBRATION
            CODE    4F97H     00ADH     UNIT         ?PR?_WRITE_PI4IOE5V96248?IOEXPANDER_PI4IOE5V96248
            CODE    5044H     00ACH     UNIT         ?PR?SQRT?SQRT
            CODE    50F0H     00A1H     UNIT         ?PR?UCREAD_STATUS_REGISTER_BYTE1?AT25SF041
            CODE    5191H     009DH     UNIT         ?PR?_ATAN2?ATAN2
            CODE    522EH     009CH     UNIT         ?PR?_MAX_VALUE?CALIBRATION
            CODE    52CAH     009AH     UNIT         ?PR?EXP?EXP
            CODE    5364H     008CH     UNIT         ?C_C51STARTUP
            CODE    53F0H     0088H     UNIT         ?PR?_DAY_OF_YEAR?PCF85063BTL
            CODE    5478H     0079H     UNIT         ?PR?_WRITEDATA?LCD_DRIVER_SPLC780D
            CODE    54F1H     0072H     UNIT         ?PR?AT25SF041_WRITEENABLE?AT25SF041
            CODE    5563H     006FH     UNIT         ?PR?_READ_TIME?PCF85063BTL
            CODE    55D2H     005AH     UNIT         ?PR?AT25SF041_CHIPERASE?AT25SF041
            CODE    562CH     0059H     UNIT         ?PR?LCD_INIT?LCD_DRIVER_SPLC780D
            CODE    5685H     004BH     UNIT         ?CO?UART1
            CODE    56D0H     004AH     UNIT         ?PR?VONESTEPMOVE?BIPOLARMOTOR
            CODE    571AH     004AH     UNIT         ?PR?ACOS?ACOS
            CODE    5764H     0044H     UNIT         ?C?LDIV
BL51 BANKED LINKER/LOCATER V6.22                                                      05/31/2019  12:29:07  PAGE 4


            CODE    57A8H     0040H     UNIT         ?PR?_COMMAND?LCD_DRIVER_SPLC780D
            CODE    57E8H     0040H     UNIT         ?PR?_STEP_MOVE?BIPOLARMOTOR
            CODE    5828H     003BH     UNIT         ?PR?ASIN?ASIN
            CODE    5863H     0033H     UNIT         ?PR?_SENDSTRING?UART1
            CODE    5896H     0031H     UNIT         ?PR?SI1120_CONFIG_MODE_VIRH?SI1120
            CODE    58C7H     002BH     UNIT         ?PR?_WAIT_MS_I2C?IOEXPANDER_PI4IOE5V96248
            CODE    58F2H     002BH     UNIT         ?PR?_WAIT_MS_SPINOR?AT25SF041
            CODE    591DH     002AH     UNIT         ?PR?_ADC_GETRESULT?ADC
            CODE    5947H     0028H     UNIT         ?PR?_MOVE?BIPOLARMOTOR
            CODE    596FH     0027H     UNIT         ?PR?_I2C_SENDBYTE?IOEXPANDER_PI4IOE5V96248
            CODE    5996H     0027H     UNIT         ?PR?PUTCHAR?PUTCHAR
            CODE    59BDH     0025H     UNIT         ?PR?_FINDCLOSESTSAMEDAYCALIBTIME?CALIBRATION
            CODE    59E2H     0024H     UNIT         ?PR?_WAIT_MS?LCD_DRIVER_SPLC780D
            CODE    5A06H     0024H     UNIT         ?PR?_UART1_SENDTOTCPSERVER?UART1
            CODE    5A2AH     0021H     UNIT         ?PR?TM0_ISR?MAIN
            CODE    5A4BH     0020H     UNIT         ?PR?_SPI_SENDBYTE?PCF85063BTL
            CODE    5A6BH     0020H     UNIT         ?PR?SPI_RECEIVEBYTE?PCF85063BTL
            CODE    5A8BH     0020H     UNIT         ?CO?CALIBRATION
            CODE    5AABH     001EH     UNIT         ?PR?_DELAY_MS?KEYPAD
            CODE    5AC9H     001DH     UNIT         ?PR?_DISPLAYLCD?LCD_DRIVER_SPLC780D
            CODE    5AE6H     001CH     UNIT         ?CO?MAIN
            CODE    5B02H     001BH     UNIT         ?PR?_BCDTODEC1?BIPOLARMOTOR
            CODE    5B1DH     001AH     UNIT         ?PR?ADC_INIT?ADC
            CODE    5B37H     0018H     UNIT         ?PR?_SPI_WRITETIME?PCF85063BTL
            CODE    5B4FH     0017H     UNIT         ?PR?_ASCIITOBCD?UART1
            CODE    5B66H     0016H     UNIT         ?PR?I2C_ACK?IOEXPANDER_PI4IOE5V96248
            CODE    5B7CH     0015H     UNIT         ?PR?_DISPLAY_LINE?LCD_DRIVER_SPLC780D
            CODE    5B91H     0015H     UNIT         ?PR?VSETLOCATION?BIPOLARMOTOR
            CODE    5BA6H     0015H     UNIT         ?PR?I2C_STOP?IOEXPANDER_PI4IOE5V96248
            CODE    5BBBH     0014H     UNIT         ?PR?_PCF85063BTL_DELAY?PCF85063BTL
            CODE    5BCFH     0014H     UNIT         ?PR?_ABS?LCD_DRIVER_SPLC780D
            CODE    5BE3H     0014H     UNIT         ?PR?_ISSPACE?ISSPACE
            CODE    5BF7H     0011H     UNIT         ?PR?_SPI_READTIME?PCF85063BTL
            CODE    5C08H     0011H     UNIT         ?PR?_BCDTODEC?PCF85063BTL
            CODE    5C19H     0011H     UNIT         ?PR?INITUART1?UART1
            CODE    5C2AH     000FH     UNIT         ?PR?I2C_START?IOEXPANDER_PI4IOE5V96248
            CODE    5C39H     000FH     UNIT         ?PR?UC_NACK?IOEXPANDER_PI4IOE5V96248
            CODE    5C48H     000FH     UNIT         ?PR?_ISDIGIT?ISDIGIT
            CODE    5C57H     000DH     UNIT         ?PR?SPI_INIT?PCF85063BTL
            CODE    5C64H     000DH     UNIT         ?PR?ENABLE_EXTINT0?SI1120
            CODE    5C71H     000CH     UNIT         ?PR?KEYPAD_IO_INIT?KEYPAD
            CODE    5C7DH     000AH     UNIT         ?PR?LCD_RETURN_HOME?LCD_DRIVER_SPLC780D
            CODE    5C87H     000AH     UNIT         ?PR?LCD_CLEAR?LCD_DRIVER_SPLC780D
            CODE    5C91H     0009H     UNIT         ?PR?TM1_ISR?MAIN
            CODE    5C9AH     0009H     UNIT         ?PR?_SENDUART1?MAIN
            CODE    5CA3H     0009H     UNIT         ?PR?UART1_INITTCPCONN?UART1
            CODE    5CACH     0006H     UNIT         ?PR?UC_ACK?IOEXPANDER_PI4IOE5V96248
            CODE    5CB2H     0006H     UNIT         ?PR?_TEN?UART1
            CODE    5CB8H     0001H     UNIT         ?PR?NOP?IOEXPANDER_PI4IOE5V96248
            CODE    5CB9H     0001H     UNIT         ?PR?_DECTOBCD?UART1



OVERLAY MAP OF MODULE:   .\Obj\GPIO_RTC_Test (MAIN)


SEGMENT                                             BIT_GROUP          DATA_GROUP          XDATA_GROUP
BL51 BANKED LINKER/LOCATER V6.22                                                      05/31/2019  12:29:07  PAGE 5


  +--> CALLED SEGMENT                            START    LENGTH     START    LENGTH     START    LENGTH
--------------------------------------------------------------------------------------------------------
?PR?EXINT0?MAIN                                  -----    -----      -----    -----      -----    -----
  +--> ?PR?_POW?POW

?PR?_POW?POW                                     -----    -----      -----    -----      03BCH    000AH
  +--> ?PR?LOG?LOG
  +--> ?PR?EXP?EXP

?PR?LOG?LOG                                      0020H.0  0000H.1    -----    -----      03C6H    0004H

*** NEW ROOT ***************************************************

?C_C51STARTUP                                    -----    -----      -----    -----      -----    -----
  +--> ?PR?MAIN?MAIN
  +--> ?C_INITSEG

?PR?MAIN?MAIN                                    -----    -----      -----    -----      03CAH    002EH
  +--> ?PR?LCD_INIT?LCD_DRIVER_SPLC780D
  +--> ?PR?SPI_INIT?PCF85063BTL
  +--> ?PR?KEYPAD_IO_INIT?KEYPAD
  +--> ?PR?ADC_INIT?ADC
  +--> ?PR?SI1120_CONFIG_MODE_VIRH?SI1120
  +--> ?PR?ENABLE_EXTINT0?SI1120
  +--> ?PR?VSETLOCATION?BIPOLARMOTOR
  +--> ?PR?_SPI_WRITETIME?PCF85063BTL
  +--> ?PR?_DELAY_MS?KEYPAD
  +--> ?PR?_DISPLAY_LINE?LCD_DRIVER_SPLC780D
  +--> ?PR?_WRITEDATA?LCD_DRIVER_SPLC780D
  +--> ?PR?INITUART1?UART1
  +--> ?PR?UART1_INITTCPCONN?UART1
  +--> ?CO?MAIN
  +--> ?PR?_UART1_SENDTOTCPSERVER?UART1
  +--> ?PR?KEY_PROCESS?KEYPAD
  +--> ?PR?_COMMAND?LCD_DRIVER_SPLC780D
  +--> ?PR?_DISPLAY_POS?LCD_DRIVER_SPLC780D
  +--> ?PR?_DISPLAYLCD?LCD_DRIVER_SPLC780D
  +--> ?PR?_STEP_MOVE?BIPOLARMOTOR
  +--> ?PR?LCD_RETURN_HOME?LCD_DRIVER_SPLC780D
  +--> ?PR?_READ_TIME?PCF85063BTL
  +--> ?PR?_BCDTODEC1?BIPOLARMOTOR
  +--> ?PR?_ELEVATION_CALCULATION?BIPOLARMOTOR
  +--> ?PR?PRINTF?PRINTF
  +--> ?PR?_SENDSTRING?UART1
  +--> ?PR?_CALIBRATION?CALIBRATION
  +--> ?PR?_UPDATE_POSITION?BIPOLARMOTOR
  +--> ?PR?AT25SF041_WRITEENABLE?AT25SF041
  +--> ?PR?_AT25SF041_WRITE?AT25SF041
  +--> ?PR?_WAIT_MS_SPINOR?AT25SF041
  +--> ?PR?_ADC_GETRESULT?ADC
  +--> ?PR?LINEAR_INTERPOLATE?BIPOLARMOTOR
  +--> ?PR?_FINDCLOSESTSAMEDAYCALIBTIME?CALI...
  +--> ?PR?LCD_CLEAR?LCD_DRIVER_SPLC780D
  +--> ?PR?AT25SF041_CHIPERASE?AT25SF041

?PR?LCD_INIT?LCD_DRIVER_SPLC780D                 -----    -----      -----    -----      -----    -----
  +--> ?PR?_WAIT_MS?LCD_DRIVER_SPLC780D
BL51 BANKED LINKER/LOCATER V6.22                                                      05/31/2019  12:29:07  PAGE 6


  +--> ?PR?_COMMAND?LCD_DRIVER_SPLC780D

?PR?_COMMAND?LCD_DRIVER_SPLC780D                 -----    -----      -----    -----      -----    -----
  +--> ?PR?_WAIT_MS?LCD_DRIVER_SPLC780D

?PR?SI1120_CONFIG_MODE_VIRH?SI1120               -----    -----      -----    -----      -----    -----
  +--> ?PR?_WAIT_MS?LCD_DRIVER_SPLC780D

?PR?_SPI_WRITETIME?PCF85063BTL                   -----    -----      -----    -----      -----    -----
  +--> ?PR?_SPI_SENDBYTE?PCF85063BTL

?PR?_SPI_SENDBYTE?PCF85063BTL                    -----    -----      -----    -----      -----    -----
  +--> ?PR?_PCF85063BTL_DELAY?PCF85063BTL

?PR?_DISPLAY_LINE?LCD_DRIVER_SPLC780D            -----    -----      -----    -----      -----    -----
  +--> ?PR?_COMMAND?LCD_DRIVER_SPLC780D

?PR?_WRITEDATA?LCD_DRIVER_SPLC780D               -----    -----      -----    -----      04E8H    0001H
  +--> ?PR?_WAIT_MS?LCD_DRIVER_SPLC780D

?PR?UART1_INITTCPCONN?UART1                      -----    -----      -----    -----      -----    -----
  +--> ?CO?UART1
  +--> ?PR?_SENDSTRING?UART1

?PR?_SENDSTRING?UART1                            -----    -----      -----    -----      04DDH    0003H
  +--> ?PR?_SENDUART1?MAIN

?PR?_UART1_SENDTOTCPSERVER?UART1                 -----    -----      -----    -----      03F8H    0003H
  +--> ?CO?UART1
  +--> ?PR?_SENDSTRING?UART1
  +--> ?PR?_DELAY_MS?KEYPAD

?PR?KEY_PROCESS?KEYPAD                           -----    -----      -----    -----      03F8H    0006H
  +--> ?PR?KEY_SCAN?KEYPAD
  +--> ?PR?_SPI_WRITETIME?PCF85063BTL
  +--> ?PR?LCD_CLEAR?LCD_DRIVER_SPLC780D
  +--> ?PR?_COMMAND?LCD_DRIVER_SPLC780D
  +--> ?PR?_WRITEDATA?LCD_DRIVER_SPLC780D

?PR?KEY_SCAN?KEYPAD                              -----    -----      -----    -----      03FEH    0003H

?PR?LCD_CLEAR?LCD_DRIVER_SPLC780D                -----    -----      -----    -----      -----    -----
  +--> ?PR?_COMMAND?LCD_DRIVER_SPLC780D

?PR?_DISPLAY_POS?LCD_DRIVER_SPLC780D             -----    -----      -----    -----      04DDH    000BH
  +--> ?PR?_ABS?LCD_DRIVER_SPLC780D
  +--> ?PR?_WRITEDATA?LCD_DRIVER_SPLC780D

?PR?_DISPLAYLCD?LCD_DRIVER_SPLC780D              -----    -----      -----    -----      03F8H    0001H
  +--> ?PR?_WRITEDATA?LCD_DRIVER_SPLC780D

?PR?_STEP_MOVE?BIPOLARMOTOR                      0020H.2  0000H.1    -----    -----      04E1H    0004H
  +--> ?PR?VONESTEPMOVE?BIPOLARMOTOR

?PR?VONESTEPMOVE?BIPOLARMOTOR                    0020H.3  0000H.1    -----    -----      -----    -----
  +--> ?PR?_WRITE_PI4IOE5V96248?IOEXPANDER_P...
  +--> ?PR?_DELAY_MS?KEYPAD
BL51 BANKED LINKER/LOCATER V6.22                                                      05/31/2019  12:29:07  PAGE 7



?PR?_WRITE_PI4IOE5V96248?IOEXPANDER_P...         -----    -----      -----    -----      04E5H    0003H
  +--> ?PR?I2C_START?IOEXPANDER_PI4IOE5V96248
  +--> ?PR?_WAIT_MS_I2C?IOEXPANDER_PI4IOE5V9...
  +--> ?PR?_I2C_SENDBYTE?IOEXPANDER_PI4IOE5V...
  +--> ?PR?I2C_ACK?IOEXPANDER_PI4IOE5V96248
  +--> ?PR?I2C_STOP?IOEXPANDER_PI4IOE5V96248

?PR?I2C_START?IOEXPANDER_PI4IOE5V96248           -----    -----      -----    -----      -----    -----
  +--> ?PR?_WAIT_MS_I2C?IOEXPANDER_PI4IOE5V9...

?PR?_I2C_SENDBYTE?IOEXPANDER_PI4IOE5V...         -----    -----      -----    -----      -----    -----
  +--> ?PR?_WAIT_MS_I2C?IOEXPANDER_PI4IOE5V9...

?PR?I2C_ACK?IOEXPANDER_PI4IOE5V96248             -----    -----      -----    -----      04E8H    0001H
  +--> ?PR?_WAIT_MS_I2C?IOEXPANDER_PI4IOE5V9...

?PR?I2C_STOP?IOEXPANDER_PI4IOE5V96248            -----    -----      -----    -----      -----    -----
  +--> ?PR?_WAIT_MS_I2C?IOEXPANDER_PI4IOE5V9...

?PR?LCD_RETURN_HOME?LCD_DRIVER_SPLC780D          -----    -----      -----    -----      -----    -----
  +--> ?PR?_COMMAND?LCD_DRIVER_SPLC780D

?PR?_READ_TIME?PCF85063BTL                       -----    -----      -----    -----      03F8H    000FH
  +--> ?PR?_SPI_READTIME?PCF85063BTL

?PR?_SPI_READTIME?PCF85063BTL                    -----    -----      -----    -----      -----    -----
  +--> ?PR?_SPI_SENDBYTE?PCF85063BTL
  +--> ?PR?SPI_RECEIVEBYTE?PCF85063BTL

?PR?SPI_RECEIVEBYTE?PCF85063BTL                  -----    -----      -----    -----      -----    -----
  +--> ?PR?_PCF85063BTL_DELAY?PCF85063BTL

?PR?_ELEVATION_CALCULATION?BIPOLARMOTOR          -----    -----      -----    -----      03F8H    0005H
  +--> ?PR?_BCDTODEC1?BIPOLARMOTOR
  +--> ?PR?SUNPOS?SUNPOS
  +--> ?PR?SIN?SIN
  +--> ?PR?ASIN?ASIN

?PR?SUNPOS?SUNPOS                                -----    -----      -----    -----      0442H    005DH
  +--> ?PR?SIN?SIN
  +--> ?PR?_ATAN2?ATAN2
  +--> ?PR?ASIN?ASIN
  +--> ?PR?ACOS?ACOS

?PR?SIN?SIN                                      0020H.1  0000H.1    -----    -----      049FH    0004H

?PR?_ATAN2?ATAN2                                 -----    -----      -----    -----      049FH    0008H
  +--> ?PR?ATAN?ATAN

?PR?ATAN?ATAN                                    0020H.1  0000H.2    -----    -----      04A7H    0004H

?PR?ASIN?ASIN                                    -----    -----      -----    -----      -----    -----
  +--> ?PR?SQRT?SQRT
  +--> ?PR?ATAN?ATAN

?PR?SQRT?SQRT                                    -----    -----      -----    -----      049FH    0004H
BL51 BANKED LINKER/LOCATER V6.22                                                      05/31/2019  12:29:07  PAGE 8



?PR?ACOS?ACOS                                    -----    -----      -----    -----      -----    -----
  +--> ?PR?SQRT?SQRT
  +--> ?PR?ATAN?ATAN

?PR?PRINTF?PRINTF                                0020H.1  0001H.1    0008H    0005H      04DDH    0030H
  +--> ?PR?PUTCHAR?PUTCHAR

?PR?_CALIBRATION?CALIBRATION                     -----    -----      -----    -----      03F8H    0024H
  +--> ?PR?VOLTAGE_IS_STABLE?CALIBRATION
  +--> ?PR?_UPDATE_POSITION?BIPOLARMOTOR
  +--> ?PR?_FIND_REAL_MAX?CALIBRATION

?PR?VOLTAGE_IS_STABLE?CALIBRATION                -----    -----      -----    -----      041CH    0018H
  +--> ?PR?_ADC_GETRESULT?ADC
  +--> ?PR?_ABS?LCD_DRIVER_SPLC780D

?PR?_UPDATE_POSITION?BIPOLARMOTOR                -----    -----      -----    -----      041CH    0026H
  +--> ?PR?_BCDTODEC1?BIPOLARMOTOR
  +--> ?PR?SUNPOS?SUNPOS
  +--> ?PR?SIN?SIN
  +--> ?PR?ASIN?ASIN
  +--> ?PR?_THEORICALJP_POSITION?BIPOLARMOTOR
  +--> ?PR?_ABS?LCD_DRIVER_SPLC780D
  +--> ?PR?_MOVE?BIPOLARMOTOR

?PR?_THEORICALJP_POSITION?BIPOLARMOTOR           -----    -----      -----    -----      0442H    005CH
  +--> ?PR?LINEAR_INTERPOLATE?BIPOLARMOTOR

?PR?LINEAR_INTERPOLATE?BIPOLARMOTOR              -----    -----      -----    -----      049EH    0014H

?PR?_MOVE?BIPOLARMOTOR                           0020H.1  0000H.1    -----    -----      04DDH    0004H
  +--> ?PR?_STEP_MOVE?BIPOLARMOTOR

?PR?_FIND_REAL_MAX?CALIBRATION                   -----    -----      -----    -----      041CH    00C1H
  +--> ?PR?_ADC_GETRESULT?ADC
  +--> ?PR?_WAIT_MS?LCD_DRIVER_SPLC780D
  +--> ?CO?CALIBRATION
  +--> ?PR?PRINTF?PRINTF
  +--> ?PR?_SENDSTRING?UART1
  +--> ?PR?_COMMAND?LCD_DRIVER_SPLC780D
  +--> ?PR?_WRITEDATA?LCD_DRIVER_SPLC780D
  +--> ?PR?_DISPLAY_POS?LCD_DRIVER_SPLC780D
  +--> ?PR?_MOVE?BIPOLARMOTOR
  +--> ?PR?_MAX_VALUE?CALIBRATION

?PR?_MAX_VALUE?CALIBRATION                       -----    -----      -----    -----      04DDH    0004H

?PR?AT25SF041_WRITEENABLE?AT25SF041              -----    -----      -----    -----      03F8H    0002H
  +--> ?PR?_WAIT_MS_SPINOR?AT25SF041
  +--> ?PR?UCREAD_STATUS_REGISTER_BYTE1?AT25...

?PR?UCREAD_STATUS_REGISTER_BYTE1?AT25...         -----    -----      -----    -----      0400H    0003H
  +--> ?PR?_WAIT_MS_SPINOR?AT25SF041

?PR?_AT25SF041_WRITE?AT25SF041                   -----    -----      -----    -----      03F8H    0008H
  +--> ?PR?_WAIT_MS_SPINOR?AT25SF041
BL51 BANKED LINKER/LOCATER V6.22                                                      05/31/2019  12:29:07  PAGE 9


  +--> ?PR?UCREAD_STATUS_REGISTER_BYTE1?AT25...

?PR?AT25SF041_CHIPERASE?AT25SF041                -----    -----      -----    -----      03F8H    0002H
  +--> ?PR?_WAIT_MS_SPINOR?AT25SF041
  +--> ?PR?UCREAD_STATUS_REGISTER_BYTE1?AT25...



SYMBOL TABLE OF MODULE:  .\Obj\GPIO_RTC_Test (MAIN)

  VALUE           TYPE          NAME
  ----------------------------------

  -------         MODULE        MAIN
  C:0000H         SYMBOL        _ICE_DUMMY_
  X:0515H         PUBLIC        calib_value
  D:0080H         PUBLIC        P0
  D:0090H         PUBLIC        P1
  D:00A0H         PUBLIC        P2
  D:00B0H         PUBLIC        P3
  D:00C0H         PUBLIC        P4
  D:00C8H         PUBLIC        P5
  X:0569H         SYMBOL        PressedKey
  B:00A8H.7       PUBLIC        EA
  D:00E8H         PUBLIC        P6
  X:056DH         PUBLIC        calib_stamp
  D:00F8H         PUBLIC        P7
  X:056EH         PUBLIC        sTempString
  X:0574H         PUBLIC        calib_bool
  X:059EH         PUBLIC        pwm_time_min
  D:00A8H         PUBLIC        IE
  X:05A2H         PUBLIC        calib_time
  X:05F6H         PUBLIC        pwm_time_max
  D:00B8H         PUBLIC        IP
  B:0098H.0       PUBLIC        RI
  B:00B0H.2       PUBLIC        INT0
  X:05FAH         PUBLIC        months
  B:0098H.1       PUBLIC        TI
  C:000EH         PUBLIC        Uart
  D:00D8H         PUBLIC        CCON
  C:0BEEH         PUBLIC        main
  X:05FBH         PUBLIC        count
  D:0099H         PUBLIC        SBUF
  X:05FDH         PUBLIC        days
  X:05FEH         PUBLIC        hours
  D:0098H         PUBLIC        SCON
  D:0089H         PUBLIC        TMOD
  D:0088H         PUBLIC        TCON
  B:00A0H.3       PUBLIC        P23
  X:05FFH         SYMBOL        KeyCount
  X:0601H         PUBLIC        mins
  B:00C8H.5       PUBLIC        P55
  D:008EH         PUBLIC        AUXR
  C:5A2AH         PUBLIC        tm0_isr
  B:0090H.5       PUBLIC        SI1120_STX
  C:5C91H         PUBLIC        tm1_isr
  B:0021H.2       PUBLIC        busy
BL51 BANKED LINKER/LOCATER V6.22                                                      05/31/2019  12:29:07  PAGE 10


  D:00E0H         PUBLIC        ACC
  B:00A8H.1       PUBLIC        ET0
  B:00A8H.3       PUBLIC        ET1
  X:0602H         PUBLIC        SPI_NOR_INTERNAL_FLASH_ADDR
  D:008CH         PUBLIC        TH0
  D:008DH         PUBLIC        TH1
  D:008AH         PUBLIC        TL0
  D:008BH         PUBLIC        TL1
  B:0088H.4       PUBLIC        TR0
  B:0088H.6       PUBLIC        TR1
  C:4C49H         PUBLIC        exint0
  X:0606H         SYMBOL        KeyNum
  X:0607H         SYMBOL        KeyNum_Old
  X:0608H         PUBLIC        timer0_count
  X:060AH         PUBLIC        current_position
  X:060EH         PUBLIC        pwm_time
  X:0612H         PUBLIC        start_timer0_count
  X:0613H         PUBLIC        seconds
  D:00D0H         PUBLIC        PSW
  C:5C9AH         PUBLIC        _SendUART1
  -------         PROC          TM0_ISR
  C:5A2AH         LINE#         100
  C:5A30H         LINE#         104
  C:5A33H         LINE#         105
  C:5A36H         LINE#         106
  C:5A44H         LINE#         107
  -------         ENDPROC       TM0_ISR
  -------         PROC          TM1_ISR
  C:5C91H         LINE#         108
  C:5C91H         LINE#         110
  C:5C93H         LINE#         112
  C:5C96H         LINE#         113
  C:5C99H         LINE#         114
  -------         ENDPROC       TM1_ISR
  -------         PROC          EXINT0
  C:4C49H         LINE#         115
  C:4C66H         LINE#         119
  C:4C69H         LINE#         120
  C:4C69H         LINE#         121
  C:4C6CH         LINE#         122
  C:4C6FH         LINE#         123
  C:4C71H         LINE#         124
  C:4C73H         LINE#         128
  C:4C76H         LINE#         131
  C:4C76H         LINE#         132
  C:4C78H         LINE#         134
  C:4C84H         LINE#         135
  C:4CDEH         LINE#         136
  C:4D1CH         LINE#         137
  C:4D23H         LINE#         142
  C:4D23H         LINE#         144
  -------         ENDPROC       EXINT0
  -------         PROC          MAIN
  -------         DO            
  X:050DH         SYMBOL        KeyCount
  X:050FH         SYMBOL        KeyNum_Old
  X:0510H         SYMBOL        KeyNum
BL51 BANKED LINKER/LOCATER V6.22                                                      05/31/2019  12:29:07  PAGE 11


  X:0511H         SYMBOL        PressedKey
  X:03CAH         SYMBOL        prox_flag
  X:03CBH         SYMBOL        iUse_prevday_calib_value
  X:03CDH         SYMBOL        max_ADC_Val_JP
  X:03CFH         SYMBOL        max_ADC_Val
  X:03D1H         SYMBOL        calib_point1
  X:03D9H         SYMBOL        calib_point2
  X:03E1H         SYMBOL        dat_to_store
  X:03ECH         SYMBOL        calib_day
  X:03EEH         SYMBOL        calib_count
  X:03F0H         SYMBOL        theorical_JP_max_pos
  X:03F4H         SYMBOL        elevation
  -------         ENDDO         
  C:0BEEH         LINE#         146
  C:0BEEH         LINE#         147
  C:0BEEH         LINE#         152
  C:0BF4H         LINE#         153
  C:0BF9H         LINE#         155
  C:0C01H         LINE#         159
  C:0C07H         LINE#         160
  C:0C11H         LINE#         167
  C:0C19H         LINE#         168
  C:0C20H         LINE#         169
  C:0C26H         LINE#         171
  C:0C2CH         LINE#         183
  C:0C2FH         LINE#         184
  C:0C32H         LINE#         185
  C:0C35H         LINE#         187
  C:0C38H         LINE#         190
  C:0C3BH         LINE#         191
  C:0C3EH         LINE#         193
  C:0C41H         LINE#         195
  C:0C44H         LINE#         196
  C:0C47H         LINE#         197
  C:0C4AH         LINE#         198
  C:0C4CH         LINE#         199
  C:0C4EH         LINE#         200
  C:0C51H         LINE#         201
  C:0C53H         LINE#         202
  C:0C55H         LINE#         204
  C:0C57H         LINE#         205
  C:0C5EH         LINE#         206
  C:0C65H         LINE#         207
  C:0C6CH         LINE#         208
  C:0C73H         LINE#         212
  C:0C7AH         LINE#         213
  C:0C7FH         LINE#         214
  C:0C84H         LINE#         215
  C:0C89H         LINE#         216
  C:0C8EH         LINE#         217
  C:0C93H         LINE#         220
  C:0CACH         LINE#         221
  C:0CACH         LINE#         222
  C:0CC8H         LINE#         223
  C:0D0FH         LINE#         224
  C:0D20H         LINE#         225
  C:0D23H         LINE#         228
BL51 BANKED LINKER/LOCATER V6.22                                                      05/31/2019  12:29:07  PAGE 12


  C:0D2AH         LINE#         231
  C:0D2DH         LINE#         233
  C:0D34H         LINE#         234
  C:0D3DH         LINE#         237
  C:0D3DH         LINE#         238
  C:0D3DH         LINE#         239
  C:0D40H         LINE#         249
  C:0D40H         LINE#         253
  C:0D45H         LINE#         254
  C:0D4AH         LINE#         256
  C:0D4FH         LINE#         258
  C:0D54H         LINE#         259
  C:0D59H         LINE#         261
  C:0D6AH         LINE#         264
  C:0D6FH         LINE#         265
  C:0D74H         LINE#         267
  C:0D7BH         LINE#         268
  C:0D83H         LINE#         269
  C:0D88H         LINE#         270
  C:0D90H         LINE#         271
  C:0D95H         LINE#         272
  C:0D9FH         LINE#         273
  C:0DA4H         LINE#         274
  C:0DACH         LINE#         276
  C:0DB4H         LINE#         277
  C:0DB9H         LINE#         278
  C:0DC3H         LINE#         279
  C:0DC3H         LINE#         280
  C:0DC5H         LINE#         281
  C:0DC7H         LINE#         282
  C:0DD1H         LINE#         283
  C:0DD1H         LINE#         284
  C:0DD6H         LINE#         285
  C:0DD6H         LINE#         297
  C:0DEAH         LINE#         298
  C:0DEAH         LINE#         299
  C:0DFFH         LINE#         300
  C:0E0EH         LINE#         301
  C:0E0EH         LINE#         302
  C:0E21H         LINE#         303
  C:0E23H         LINE#         305
  C:0E23H         LINE#         306
  C:0E3FH         LINE#         307
  C:0E3FH         LINE#         308
  C:0E44H         LINE#         309
  C:0E44H         LINE#         310
  C:0E58H         LINE#         311
  C:0E58H         LINE#         314
  C:0E6DH         LINE#         315
  C:0E7CH         LINE#         316
  C:0E7CH         LINE#         317
  C:0E8FH         LINE#         318
  C:0E91H         LINE#         320
  C:0E91H         LINE#         321
  C:0EADH         LINE#         322
  C:0EADH         LINE#         323
  C:0EB2H         LINE#         324
BL51 BANKED LINKER/LOCATER V6.22                                                      05/31/2019  12:29:07  PAGE 13


  C:0EB8H         LINE#         325
  C:0EB8H         LINE#         327
  C:0EDAH         LINE#         328
  C:0EDAH         LINE#         329
  C:0EE4H         LINE#         330
  C:0EEAH         LINE#         331
  C:0EF1H         LINE#         332
  C:0EF7H         LINE#         333
  C:0EFEH         LINE#         334
  C:0EFEH         LINE#         335
  C:0F01H         LINE#         337
  C:0F01H         LINE#         342
  C:0F3CH         LINE#         354
  C:0F49H         LINE#         355
  C:0F49H         LINE#         359
  C:0F49H         LINE#         360
  C:0F71H         LINE#         361
  C:0F71H         LINE#         362
  C:0F93H         LINE#         363
  C:0F93H         LINE#         365
  C:0FB9H         LINE#         377
  C:0FB9H         LINE#         378
  C:100FH         LINE#         379
  C:1018H         LINE#         380
  C:101FH         LINE#         381
  C:1028H         LINE#         382
  C:1031H         LINE#         383
  C:1038H         LINE#         384
  C:10B4H         LINE#         385
  C:10CDH         LINE#         386
  C:1157H         LINE#         391
  C:1185H         LINE#         392
  C:1185H         LINE#         394
  C:11BBH         LINE#         395
  C:11DEH         LINE#         396
  C:11F3H         LINE#         399
  C:11F3H         LINE#         400
  C:11F3H         LINE#         402
  C:11F3H         LINE#         404
  C:11FAH         LINE#         405
  C:11FAH         LINE#         406
  C:11FDH         LINE#         407
  C:121BH         LINE#         408
  C:1222H         LINE#         409
  C:1241H         LINE#         410
  C:1260H         LINE#         412
  C:12DCH         LINE#         413
  C:12F4H         LINE#         416
  C:134CH         LINE#         417
  C:1387H         LINE#         418
  C:1394H         LINE#         419
  C:13A3H         LINE#         420
  C:13A3H         LINE#         440
  C:13A5H         LINE#         442
  C:13B3H         LINE#         443
  C:13B3H         LINE#         444
  C:13BBH         LINE#         446
BL51 BANKED LINKER/LOCATER V6.22                                                      05/31/2019  12:29:07  PAGE 14


  C:13BBH         LINE#         449
  C:13BBH         LINE#         450
  C:13C8H         LINE#         451
  C:13C8H         LINE#         452
  C:13EAH         LINE#         453
  C:13EAH         LINE#         454
  C:1466H         LINE#         455
  C:14BBH         LINE#         456
  C:14BBH         LINE#         458
  C:14BEH         LINE#         462
  C:14BEH         LINE#         465
  C:14E0H         LINE#         466
  C:14E0H         LINE#         467
  C:155CH         LINE#         469
  C:1589H         LINE#         470
  C:15A4H         LINE#         471
  C:15D1H         LINE#         472
  C:1604H         LINE#         473
  C:1604H         LINE#         474
  C:162EH         LINE#         475
  C:16C7H         LINE#         476
  C:16C9H         LINE#         478
  C:16C9H         LINE#         479
  C:172CH         LINE#         480
  C:172CH         LINE#         484
  C:172CH         LINE#         486
  C:172CH         LINE#         487
  C:172CH         LINE#         489
  C:172CH         LINE#         492
  C:1748H         LINE#         493
  C:174CH         LINE#         495
  C:174EH         LINE#         498
  C:175DH         LINE#         499
  C:175DH         LINE#         500
  C:1760H         LINE#         501
  C:1767H         LINE#         502
  C:176CH         LINE#         503
  C:1771H         LINE#         504
  C:1776H         LINE#         505
  C:177BH         LINE#         506
  C:1780H         LINE#         516
  C:1783H         LINE#         518
  C:1786H         LINE#         519
  C:178DH         LINE#         520
  C:1797H         LINE#         521
  C:179EH         LINE#         523
  C:17A1H         LINE#         532
  C:17A1H         LINE#         533
  -------         ENDPROC       MAIN
  -------         PROC          UART
  C:000EH         LINE#         547
  C:000EH         LINE#         549
  C:0011H         LINE#         550
  C:0011H         LINE#         551
  C:0013H         LINE#         553
  C:0013H         LINE#         554
  C:0016H         LINE#         555
BL51 BANKED LINKER/LOCATER V6.22                                                      05/31/2019  12:29:07  PAGE 15


  C:0016H         LINE#         556
  C:0018H         LINE#         557
  C:001AH         LINE#         558
  C:001AH         LINE#         559
  -------         ENDPROC       UART
  -------         PROC          _SENDUART1
  D:0007H         SYMBOL        dat
  C:5C9AH         LINE#         561
  C:5C9AH         LINE#         562
  C:5C9AH         LINE#         563
  C:5C9DH         LINE#         564
  C:5C9FH         LINE#         565
  C:5CA0H         LINE#         566
  C:5CA2H         LINE#         567
  -------         ENDPROC       _SENDUART1
  -------         ENDMOD        MAIN

  -------         MODULE        PCF85063BTL
  C:0000H         SYMBOL        _ICE_DUMMY_
  D:0096H         PUBLIC        P2M0
  D:0080H         PUBLIC        P0
  D:0095H         PUBLIC        P2M1
  D:0090H         PUBLIC        P1
  D:00A0H         PUBLIC        P2
  D:00B0H         PUBLIC        P3
  D:00C0H         PUBLIC        P4
  D:00C8H         PUBLIC        P5
  D:00E8H         PUBLIC        P6
  B:00A0H.1       PUBLIC        PCF85063BTL_SDI
  D:00F8H         PUBLIC        P7
  B:00A0H.2       PUBLIC        PCF85063BTL_SCK
  B:00A0H.1       PUBLIC        PCF85063BTL_SDO
  D:00A8H         PUBLIC        IE
  C:5563H         PUBLIC        _Read_time
  C:5BC1H         PUBLIC        _PCF85063BTL_Delay
  D:00B8H         PUBLIC        IP
  D:00D8H         PUBLIC        CCON
  C:53F0H         PUBLIC        _Day_Of_Year
  C:5A6BH         PUBLIC        SPI_ReceiveByte
  D:0098H         PUBLIC        SCON
  D:0088H         PUBLIC        TCON
  C:5C08H         PUBLIC        _BCDtoDec
  B:00A0H.0       PUBLIC        PCF85063BTL_CS
  C:5BF7H         PUBLIC        _SPI_ReadTime
  C:5C57H         PUBLIC        SPI_Init
  C:5B37H         PUBLIC        _SPI_WriteTime
  C:5A4BH         PUBLIC        _SPI_SendByte
  D:00D0H         PUBLIC        PSW
  C:5BBDH         SYMBOL        L?0048
  -------         PROC          L?0047
  -------         ENDPROC       L?0047
  C:5BBDH         SYMBOL        L?0048
  -------         PROC          _PCF85063BTL_DELAY
  D:0006H         SYMBOL        us
  C:5BC1H         LINE#         8
  C:5BC1H         LINE#         9
  C:5BC1H         LINE#         10
BL51 BANKED LINKER/LOCATER V6.22                                                      05/31/2019  12:29:07  PAGE 16


  C:5BCBH         LINE#         11
  C:5BCBH         LINE#         12
  C:5BCCH         LINE#         13
  C:5BCEH         LINE#         14
  -------         ENDPROC       _PCF85063BTL_DELAY
  -------         PROC          _SPI_SENDBYTE
  D:0005H         SYMBOL        dat
  -------         DO            
  D:0003H         SYMBOL        i
  -------         ENDDO         
  C:5A4BH         LINE#         17
  C:5A4DH         LINE#         18
  C:5A4DH         LINE#         20
  C:5A4FH         LINE#         21
  C:5A4FH         LINE#         22
  C:5A51H         LINE#         23
  C:5A55H         LINE#         24
  C:5A55H         LINE#         25
  C:5A57H         LINE#         26
  C:5A59H         LINE#         28
  C:5A59H         LINE#         29
  C:5A5BH         LINE#         30
  C:5A5BH         LINE#         31
  C:5A5EH         LINE#         32
  C:5A5EH         LINE#         33
  C:5A61H         LINE#         34
  C:5A65H         LINE#         35
  C:5A6AH         LINE#         36
  -------         ENDPROC       _SPI_SENDBYTE
  -------         PROC          SPI_RECEIVEBYTE
  -------         DO            
  D:0003H         SYMBOL        i
  D:0005H         SYMBOL        dat
  -------         ENDDO         
  C:5A6BH         LINE#         39
  C:5A6BH         LINE#         40
  C:5A6BH         LINE#         42
  C:5A6DH         LINE#         44
  C:5A6FH         LINE#         45
  C:5A70H         LINE#         46
  C:5A70H         LINE#         47
  C:5A74H         LINE#         48
  C:5A76H         LINE#         49
  C:5A79H         LINE#         51
  C:5A7CH         LINE#         52
  C:5A7CH         LINE#         53
  C:5A80H         LINE#         54
  C:5A80H         LINE#         55
  C:5A80H         LINE#         56
  C:5A83H         LINE#         57
  C:5A88H         LINE#         58
  C:5A8AH         LINE#         59
  -------         ENDPROC       SPI_RECEIVEBYTE
  -------         PROC          _SPI_READTIME
  D:0007H         SYMBOL        addr
  -------         DO            
  D:0006H         SYMBOL        dat
BL51 BANKED LINKER/LOCATER V6.22                                                      05/31/2019  12:29:07  PAGE 17


  -------         ENDDO         
  C:5BF7H         LINE#         61
  C:5BF7H         LINE#         62
  C:5BF7H         LINE#         64
  C:5BF9H         LINE#         65
  C:5BFBH         LINE#         66
  C:5C02H         LINE#         67
  C:5C05H         LINE#         68
  C:5C07H         LINE#         69
  C:5C07H         LINE#         70
  -------         ENDPROC       _SPI_READTIME
  -------         PROC          _SPI_WRITETIME
  D:0002H         SYMBOL        val
  D:0005H         SYMBOL        addr
  C:5B37H         LINE#         71
  C:5B39H         LINE#         72
  C:5B39H         LINE#         74
  C:5B3BH         LINE#         75
  C:5B42H         LINE#         76
  C:5B47H         LINE#         77
  C:5B4CH         LINE#         78
  C:5B4EH         LINE#         79
  -------         ENDPROC       _SPI_WRITETIME
  -------         PROC          SPI_INIT
  C:5C57H         LINE#         83
  C:5C57H         LINE#         84
  C:5C57H         LINE#         89
  C:5C5AH         LINE#         90
  C:5C5DH         LINE#         91
  C:5C5FH         LINE#         92
  C:5C61H         LINE#         93
  C:5C63H         LINE#         94
  -------         ENDPROC       SPI_INIT
  -------         PROC          _READ_TIME
  X:03F8H         SYMBOL        months
  X:03FBH         SYMBOL        days
  X:03FEH         SYMBOL        hours
  X:0401H         SYMBOL        mins
  X:0404H         SYMBOL        seconds
  C:5563H         LINE#         96
  C:556EH         LINE#         97
  C:556EH         LINE#         99
  C:5582H         LINE#         101
  C:5596H         LINE#         103
  C:55AAH         LINE#         108
  C:55BEH         LINE#         113
  -------         ENDPROC       _READ_TIME
  -------         PROC          _BCDTODEC
  D:0007H         SYMBOL        bcd
  -------         DO            
  D:0006H         SYMBOL        hi
  D:0007H         SYMBOL        lo
  -------         ENDDO         
  C:5C08H         LINE#         119
  C:5C08H         LINE#         120
  C:5C08H         LINE#         122
  C:5C0DH         LINE#         123
BL51 BANKED LINKER/LOCATER V6.22                                                      05/31/2019  12:29:07  PAGE 18


  C:5C11H         LINE#         124
  C:5C18H         LINE#         125
  -------         ENDPROC       _BCDTODEC
  -------         PROC          _DAY_OF_YEAR
  D:0007H         SYMBOL        months_bcd
  D:0005H         SYMBOL        days_bcd
  -------         DO            
  D:0004H         SYMBOL        months
  D:0007H         SYMBOL        days
  -------         ENDDO         
  C:53F0H         LINE#         126
  C:53F0H         LINE#         127
  C:53F0H         LINE#         130
  C:53F5H         LINE#         132
  C:53FAH         LINE#         134
  C:5433H         LINE#         135
  C:5433H         LINE#         136
  C:5433H         LINE#         137
  C:5436H         LINE#         138
  C:5436H         LINE#         139
  C:5436H         LINE#         140
  C:543BH         LINE#         141
  C:543BH         LINE#         142
  C:543BH         LINE#         143
  C:5440H         LINE#         144
  C:5440H         LINE#         145
  C:5440H         LINE#         146
  C:5445H         LINE#         147
  C:5445H         LINE#         148
  C:5445H         LINE#         149
  C:544AH         LINE#         150
  C:544AH         LINE#         151
  C:544AH         LINE#         152
  C:544FH         LINE#         153
  C:544FH         LINE#         154
  C:544FH         LINE#         155
  C:5454H         LINE#         156
  C:5454H         LINE#         157
  C:5454H         LINE#         158
  C:5459H         LINE#         159
  C:5459H         LINE#         160
  C:5459H         LINE#         161
  C:5461H         LINE#         162
  C:5461H         LINE#         163
  C:5461H         LINE#         164
  C:5466H         LINE#         165
  C:5466H         LINE#         166
  C:5466H         LINE#         167
  C:546BH         LINE#         168
  C:546BH         LINE#         169
  C:546BH         LINE#         170
  C:5474H         LINE#         171
  C:5474H         LINE#         172
  C:5474H         LINE#         173
  C:5477H         LINE#         174
  C:5477H         LINE#         175
  -------         ENDPROC       _DAY_OF_YEAR
BL51 BANKED LINKER/LOCATER V6.22                                                      05/31/2019  12:29:07  PAGE 19


  -------         ENDMOD        PCF85063BTL

  -------         MODULE        LCD_DRIVER_SPLC780D
  C:0000H         SYMBOL        _ICE_DUMMY_
  D:0092H         PUBLIC        P1M0
  D:0091H         PUBLIC        P1M1
  D:0080H         PUBLIC        P0
  D:0090H         PUBLIC        P1
  D:00A0H         PUBLIC        P2
  D:00B0H         PUBLIC        P3
  D:00C0H         PUBLIC        P4
  D:00C8H         PUBLIC        P5
  D:00E8H         PUBLIC        P6
  D:00F8H         PUBLIC        P7
  C:547CH         PUBLIC        _WriteData
  D:00A8H         PUBLIC        IE
  D:00B8H         PUBLIC        IP
  D:00D8H         PUBLIC        CCON
  B:00B0H.4       PUBLIC        LCD_D4
  B:00B0H.5       PUBLIC        LCD_D5
  B:00B0H.6       PUBLIC        LCD_D6
  C:5AC9H         PUBLIC        _DisplayLCD
  B:00B0H.7       PUBLIC        LCD_D7
  D:0098H         PUBLIC        SCON
  D:0088H         PUBLIC        TCON
  C:5BCFH         PUBLIC        _abs
  C:5C87H         PUBLIC        LCD_clear
  C:57A8H         PUBLIC        _Command
  C:5B7CH         PUBLIC        _Display_Line
  C:562CH         PUBLIC        LCD_Init
  C:59E8H         PUBLIC        _Wait_ms
  B:00C0H.0       PUBLIC        LCD_RS
  B:0090H.3       PUBLIC        LCD_RW
  C:5C7DH         PUBLIC        LCD_return_home
  C:4697H         PUBLIC        _Display_Pos
  B:00B0H.3       PUBLIC        LCD_E
  D:00D0H         PUBLIC        PSW
  -------         PROC          LCD_INIT
  C:562CH         LINE#         9
  C:562CH         LINE#         10
  C:562CH         LINE#         11
  C:562FH         LINE#         12
  C:5632H         LINE#         14
  C:5638H         LINE#         15
  C:563DH         LINE#         17
  C:5644H         LINE#         18
  C:5649H         LINE#         20
  C:564CH         LINE#         21
  C:5651H         LINE#         23
  C:5654H         LINE#         24
  C:5659H         LINE#         26
  C:5660H         LINE#         29
  C:5665H         LINE#         30
  C:566AH         LINE#         32
  C:566FH         LINE#         33
  C:5674H         LINE#         35
  C:5679H         LINE#         36
BL51 BANKED LINKER/LOCATER V6.22                                                      05/31/2019  12:29:07  PAGE 20


  C:567EH         LINE#         37
  -------         ENDPROC       LCD_INIT
  C:5478H         SYMBOL        L?0038
  -------         PROC          L?0037
  -------         ENDPROC       L?0037
  C:5478H         SYMBOL        L?0038
  -------         PROC          _WRITEDATA
  X:04E8H         SYMBOL        dat
  C:547CH         LINE#         40
  C:5481H         LINE#         41
  C:5481H         LINE#         46
  C:5483H         LINE#         47
  C:5485H         LINE#         49
  C:5493H         LINE#         50
  C:549FH         LINE#         51
  C:54ABH         LINE#         52
  C:54B5H         LINE#         53
  C:54B7H         LINE#         54
  C:54BEH         LINE#         55
  C:54C0H         LINE#         57
  C:54D0H         LINE#         58
  C:54DBH         LINE#         59
  C:54E5H         LINE#         60
  C:54E9H         LINE#         62
  C:54E9H         LINE#         63
  C:54ECH         LINE#         64
  C:54EEH         LINE#         65
  C:54F0H         LINE#         67
  -------         ENDPROC       _WRITEDATA
  -------         PROC          _COMMAND
  D:0007H         SYMBOL        dat
  C:57A8H         LINE#         69
  C:57A8H         LINE#         70
  C:57A8H         LINE#         71
  C:57AAH         LINE#         72
  C:57ACH         LINE#         74
  C:57B6H         LINE#         75
  C:57BAH         LINE#         77
  C:57BCH         LINE#         78
  C:57C5H         LINE#         79
  C:57C9H         LINE#         81
  C:57CBH         LINE#         82
  C:57D2H         LINE#         83
  C:57D6H         LINE#         85
  C:57D8H         LINE#         86
  C:57DCH         LINE#         87
  C:57E0H         LINE#         89
  C:57E2H         LINE#         90
  C:57E2H         LINE#         91
  C:57E5H         LINE#         92
  C:57E7H         LINE#         93
  -------         ENDPROC       _COMMAND
  C:59E4H         SYMBOL        L?0040
  -------         PROC          L?0039
  -------         ENDPROC       L?0039
  C:59E4H         SYMBOL        L?0040
  -------         PROC          _WAIT_MS
BL51 BANKED LINKER/LOCATER V6.22                                                      05/31/2019  12:29:07  PAGE 21


  D:0006H         SYMBOL        ms
  -------         DO            
  D:0004H         SYMBOL        De_Cnt
  -------         ENDDO         
  C:59E8H         LINE#         95
  C:59E8H         LINE#         96
  C:59E8H         LINE#         98
  C:59F2H         LINE#         99
  C:59F2H         LINE#         100
  C:5A05H         LINE#         101
  C:5A05H         LINE#         102
  -------         ENDPROC       _WAIT_MS
  -------         PROC          _DISPLAYLCD
  D:0007H         SYMBOL        BCD
  -------         DO            
  D:0006H         SYMBOL        first_digit
  X:03F8H         SYMBOL        second_digit
  -------         ENDDO         
  C:5AC9H         LINE#         103
  C:5AC9H         LINE#         104
  C:5AC9H         LINE#         106
  C:5AD0H         LINE#         107
  C:5AD9H         LINE#         109
  C:5ADEH         LINE#         111
  -------         ENDPROC       _DISPLAYLCD
  -------         PROC          LCD_RETURN_HOME
  C:5C7DH         LINE#         115
  C:5C7DH         LINE#         116
  C:5C7DH         LINE#         117
  C:5C82H         LINE#         118
  -------         ENDPROC       LCD_RETURN_HOME
  -------         PROC          LCD_CLEAR
  C:5C87H         LINE#         121
  C:5C87H         LINE#         122
  C:5C87H         LINE#         123
  C:5C8CH         LINE#         124
  -------         ENDPROC       LCD_CLEAR
  -------         PROC          _DISPLAY_LINE
  D:0006H         SYMBOL        line
  C:5B7CH         LINE#         128
  C:5B7CH         LINE#         129
  C:5B7CH         LINE#         130
  C:5B82H         LINE#         131
  C:5B82H         LINE#         132
  C:5B84H         LINE#         133
  C:5B84H         LINE#         134
  C:5B86H         LINE#         136
  C:5B86H         LINE#         137
  C:5B8BH         LINE#         138
  C:5B90H         LINE#         139
  C:5B90H         LINE#         140
  -------         ENDPROC       _DISPLAY_LINE
  -------         PROC          _DISPLAY_POS
  X:04DDH         SYMBOL        sign_dat
  -------         DO            
  X:04E1H         SYMBOL        unit
  X:04E2H         SYMBOL        ten
BL51 BANKED LINKER/LOCATER V6.22                                                      05/31/2019  12:29:07  PAGE 22


  X:04E3H         SYMBOL        hundred
  X:04E4H         SYMBOL        thousand
  X:04E5H         SYMBOL        after_dot
  X:04E6H         SYMBOL        dat
  -------         ENDDO         
  C:4697H         LINE#         142
  C:469DH         LINE#         143
  C:469DH         LINE#         147
  C:46B9H         LINE#         148
  C:46D3H         LINE#         149
  C:46F7H         LINE#         151
  C:4741H         LINE#         153
  C:4758H         LINE#         154
  C:476AH         LINE#         155
  C:478FH         LINE#         156
  C:47A9H         LINE#         157
  C:47C1H         LINE#         158
  C:47C1H         LINE#         159
  C:47C1H         LINE#         160
  C:47C1H         LINE#         161
  C:47C1H         LINE#         162
  C:47C1H         LINE#         163
  C:47C1H         LINE#         164
  C:47C1H         LINE#         168
  C:47C3H         LINE#         170
  C:47C3H         LINE#         172
  C:47C8H         LINE#         173
  C:47CEH         LINE#         174
  C:47D4H         LINE#         175
  C:47DAH         LINE#         176
  C:47E0H         LINE#         177
  C:47E5H         LINE#         178
  C:47EBH         LINE#         182
  C:47EBH         LINE#         184
  -------         ENDPROC       _DISPLAY_POS
  -------         PROC          _ABS
  D:0006H         SYMBOL        dat
  C:5BCFH         LINE#         186
  C:5BCFH         LINE#         187
  C:5BCFH         LINE#         188
  C:5BDAH         LINE#         189
  C:5BDBH         LINE#         191
  C:5BE2H         LINE#         192
  -------         ENDPROC       _ABS
  -------         ENDMOD        LCD_DRIVER_SPLC780D

  -------         MODULE        KEYPAD
  C:0000H         SYMBOL        _ICE_DUMMY_
  D:0093H         PUBLIC        P0M1
  D:0080H         PUBLIC        P0
  D:0090H         PUBLIC        P1
  D:00A0H         PUBLIC        P2
  D:00B0H         PUBLIC        P3
  D:00C0H         PUBLIC        P4
  D:00C8H         PUBLIC        P5
  D:00E8H         PUBLIC        P6
  D:00F8H         PUBLIC        P7
BL51 BANKED LINKER/LOCATER V6.22                                                      05/31/2019  12:29:07  PAGE 23


  D:00A8H         PUBLIC        IE
  C:4093H         PUBLIC        Key_Scan
  D:00B8H         PUBLIC        IP
  D:00D8H         PUBLIC        CCON
  C:5C71H         PUBLIC        KeyPad_IO_Init
  C:5AABH         PUBLIC        _Delay_ms
  D:0098H         PUBLIC        SCON
  D:0088H         PUBLIC        TCON
  X:0623H         PUBLIC        small_move
  X:0625H         PUBLIC        move
  X:0627H         PUBLIC        auto_mode
  X:0629H         PUBLIC        direction
  X:062BH         PUBLIC        SPI_NOR_ClearEnable
  C:37C0H         PUBLIC        Key_Process
  D:00D0H         PUBLIC        PSW
  D:0094H         PUBLIC        P0M0
  -------         PROC          _DELAY_MS
  D:0006H         SYMBOL        ms
  -------         DO            
  D:0004H         SYMBOL        De_Cnt
  -------         ENDDO         
  C:5AABH         LINE#         20
  C:5AABH         LINE#         21
  C:5AABH         LINE#         23
  C:5AB5H         LINE#         24
  C:5AB5H         LINE#         25
  C:5AC8H         LINE#         26
  C:5AC8H         LINE#         27
  -------         ENDPROC       _DELAY_MS
  -------         PROC          KEY_SCAN
  -------         DO            
  X:03FEH         SYMBOL        KeyTemp1
  X:03FFH         SYMBOL        KeyTemp2
  X:0400H         SYMBOL        KeyValue
  -------         ENDDO         
  C:4093H         LINE#         28
  C:4093H         LINE#         29
  C:4093H         LINE#         34
  C:4096H         LINE#         37
  C:4099H         LINE#         39
  C:40A1H         LINE#         40
  C:40A8H         LINE#         41
  C:40A8H         LINE#         43
  C:40ADH         LINE#         44
  C:40B4H         LINE#         45
  C:40B4H         LINE#         48
  C:40B7H         LINE#         49
  C:40BAH         LINE#         50
  C:40BFH         LINE#         51
  C:40C3H         LINE#         52
  C:40C3H         LINE#         53
  C:40CBH         LINE#         54
  C:40CBH         LINE#         55
  C:40CEH         LINE#         56
  C:40D6H         LINE#         57
  C:40D8H         LINE#         59
  C:40ECH         LINE#         60
BL51 BANKED LINKER/LOCATER V6.22                                                      05/31/2019  12:29:07  PAGE 24


  C:40ECH         LINE#         61
  C:40ECH         LINE#         62
  C:40ECH         LINE#         63
  C:40F2H         LINE#         65
  C:40F4H         LINE#         66
  C:40F4H         LINE#         67
  C:40F4H         LINE#         68
  C:40FAH         LINE#         70
  C:40FCH         LINE#         71
  C:40FCH         LINE#         72
  C:40FCH         LINE#         73
  C:4102H         LINE#         75
  C:4104H         LINE#         76
  C:4104H         LINE#         77
  C:4104H         LINE#         78
  C:410AH         LINE#         80
  C:410AH         LINE#         81
  C:410AH         LINE#         82
  C:410AH         LINE#         85
  C:410DH         LINE#         86
  C:4110H         LINE#         87
  C:4118H         LINE#         88
  C:411CH         LINE#         89
  C:411CH         LINE#         90
  C:4124H         LINE#         91
  C:4124H         LINE#         92
  C:4127H         LINE#         93
  C:412FH         LINE#         94
  C:4131H         LINE#         95
  C:4145H         LINE#         96
  C:4145H         LINE#         97
  C:4145H         LINE#         98
  C:4145H         LINE#         99
  C:414BH         LINE#         101
  C:414DH         LINE#         102
  C:414DH         LINE#         103
  C:414DH         LINE#         104
  C:4153H         LINE#         106
  C:4155H         LINE#         107
  C:4155H         LINE#         108
  C:4155H         LINE#         109
  C:415BH         LINE#         111
  C:415DH         LINE#         112
  C:415DH         LINE#         113
  C:415DH         LINE#         114
  C:4162H         LINE#         116
  C:4162H         LINE#         117
  C:4162H         LINE#         118
  C:4162H         LINE#         121
  C:4165H         LINE#         122
  C:4168H         LINE#         123
  C:4170H         LINE#         124
  C:4174H         LINE#         125
  C:4174H         LINE#         126
  C:417CH         LINE#         127
  C:417CH         LINE#         128
  C:417FH         LINE#         129
BL51 BANKED LINKER/LOCATER V6.22                                                      05/31/2019  12:29:07  PAGE 25


  C:4187H         LINE#         130
  C:4189H         LINE#         131
  C:419DH         LINE#         132
  C:419DH         LINE#         133
  C:419DH         LINE#         134
  C:419DH         LINE#         135
  C:41A3H         LINE#         137
  C:41A5H         LINE#         138
  C:41A5H         LINE#         139
  C:41A5H         LINE#         140
  C:41ABH         LINE#         142
  C:41ADH         LINE#         143
  C:41ADH         LINE#         144
  C:41ADH         LINE#         145
  C:41B3H         LINE#         147
  C:41B5H         LINE#         148
  C:41B5H         LINE#         149
  C:41B5H         LINE#         150
  C:41BBH         LINE#         152
  C:41BBH         LINE#         153
  C:41BBH         LINE#         154
  C:41BBH         LINE#         158
  C:41BEH         LINE#         159
  C:41C1H         LINE#         160
  C:41C9H         LINE#         161
  C:41CDH         LINE#         162
  C:41CDH         LINE#         163
  C:41D5H         LINE#         164
  C:41D5H         LINE#         165
  C:41D8H         LINE#         166
  C:41E0H         LINE#         167
  C:41E2H         LINE#         168
  C:41F6H         LINE#         169
  C:41F6H         LINE#         170
  C:41F6H         LINE#         171
  C:41F6H         LINE#         172
  C:41FCH         LINE#         174
  C:41FEH         LINE#         175
  C:41FEH         LINE#         176
  C:41FEH         LINE#         177
  C:4204H         LINE#         179
  C:4206H         LINE#         180
  C:4206H         LINE#         181
  C:4206H         LINE#         182
  C:420CH         LINE#         184
  C:420EH         LINE#         185
  C:420EH         LINE#         186
  C:420EH         LINE#         187
  C:4214H         LINE#         189
  C:4214H         LINE#         190
  C:4214H         LINE#         191
  C:4214H         LINE#         193
  C:421AH         LINE#         194
  C:421AH         LINE#         196
  C:421AH         LINE#         197
  C:421DH         LINE#         198
  C:421DH         LINE#         199
BL51 BANKED LINKER/LOCATER V6.22                                                      05/31/2019  12:29:07  PAGE 26


  C:421DH         LINE#         201
  C:421DH         LINE#         202
  C:421FH         LINE#         203
  C:421FH         LINE#         204
  -------         ENDPROC       KEY_SCAN
  -------         PROC          KEY_PROCESS
  -------         DO            
  X:0614H         SYMBOL        KeyCount
  X:0615H         SYMBOL        KeyNum_Old
  X:0617H         SYMBOL        KeyNum
  X:0619H         SYMBOL        PressedKey
  X:03F8H         SYMBOL        d
  D:0002H         SYMBOL        hours
  D:0006H         SYMBOL        mins
  X:03FAH         SYMBOL        months
  X:03FCH         SYMBOL        days
  -------         ENDDO         
  C:37C0H         LINE#         205
  C:37C0H         LINE#         206
  C:37C0H         LINE#         210
  C:37CFH         LINE#         211
  C:37DCH         LINE#         213
  C:37E0H         LINE#         214
  C:37E0H         LINE#         215
  C:37E6H         LINE#         217
  C:37E6H         LINE#         218
  C:37FDH         LINE#         219
  C:37FDH         LINE#         220
  C:3807H         LINE#         221
  C:380DH         LINE#         223
  C:3813H         LINE#         225
  C:3813H         LINE#         226
  C:382AH         LINE#         227
  C:382AH         LINE#         228
  C:382FH         LINE#         230
  C:382FH         LINE#         231
  C:383FH         LINE#         232
  C:383FH         LINE#         233
  C:3845H         LINE#         235
  C:3845H         LINE#         236
  C:3857H         LINE#         237
  C:3857H         LINE#         238
  C:3861H         LINE#         239
  C:3869H         LINE#         241
  C:3872H         LINE#         243
  C:3872H         LINE#         252
  C:3891H         LINE#         253
  C:3891H         LINE#         254
  C:38B0H         LINE#         255
  C:38B6H         LINE#         256
  C:38BEH         LINE#         257
  C:38BEH         LINE#         259
  C:38BFH         LINE#         265
  C:38CBH         LINE#         266
  C:38CBH         LINE#         267
  C:38E8H         LINE#         268
  C:38FFH         LINE#         269
BL51 BANKED LINKER/LOCATER V6.22                                                      05/31/2019  12:29:07  PAGE 27


  C:3916H         LINE#         270
  C:3916H         LINE#         271
  C:3929H         LINE#         272
  C:393CH         LINE#         273
  C:393CH         LINE#         274
  C:393CH         LINE#         275
  C:393FH         LINE#         280
  C:394EH         LINE#         281
  C:394EH         LINE#         282
  C:3971H         LINE#         283
  C:398EH         LINE#         284
  C:3997H         LINE#         285
  C:3997H         LINE#         286
  C:399EH         LINE#         287
  C:399EH         LINE#         288
  C:39AFH         LINE#         289
  C:39AFH         LINE#         290
  C:39BEH         LINE#         291
  C:39BEH         LINE#         292
  C:39BEH         LINE#         293
  C:39C1H         LINE#         295
  C:39C1H         LINE#         296
  C:39CDH         LINE#         297
  C:39CDH         LINE#         298
  C:39DFH         LINE#         299
  C:39DFH         LINE#         300
  C:39EFH         LINE#         301
  C:39EFH         LINE#         302
  C:39EFH         LINE#         304
  C:39F1H         LINE#         306
  C:39F1H         LINE#         307
  C:3A00H         LINE#         308
  C:3A00H         LINE#         309
  C:3A10H         LINE#         310
  C:3A10H         LINE#         311
  C:3A10H         LINE#         313
  C:3A10H         LINE#         315
  C:3A10H         LINE#         316
  C:3A12H         LINE#         318
  C:3A12H         LINE#         319
  C:3A19H         LINE#         320
  C:3A19H         LINE#         321
  C:3A28H         LINE#         322
  C:3A28H         LINE#         323
  C:3A38H         LINE#         324
  C:3A38H         LINE#         325
  C:3A38H         LINE#         326
  C:3A3AH         LINE#         328
  C:3A3AH         LINE#         329
  C:3A49H         LINE#         330
  C:3A49H         LINE#         331
  C:3A5CH         LINE#         332
  C:3A6FH         LINE#         333
  C:3A6FH         LINE#         334
  C:3A6FH         LINE#         335
  C:3A6FH         LINE#         336
  C:3A78H         LINE#         338
BL51 BANKED LINKER/LOCATER V6.22                                                      05/31/2019  12:29:07  PAGE 28


  C:3A78H         LINE#         340
  C:3AB2H         LINE#         341
  C:3AB2H         LINE#         342
  C:3AB9H         LINE#         343
  C:3AB9H         LINE#         344
  C:3AC3H         LINE#         345
  C:3AC3H         LINE#         346
  C:3AC6H         LINE#         347
  C:3ACBH         LINE#         348
  C:3AD0H         LINE#         349
  C:3AD5H         LINE#         350
  C:3ADAH         LINE#         351
  C:3ADFH         LINE#         352
  C:3AE4H         LINE#         353
  C:3AE9H         LINE#         354
  C:3AE9H         LINE#         355
  C:3AE9H         LINE#         357
  C:3B07H         LINE#         358
  C:3B07H         LINE#         359
  C:3B0EH         LINE#         360
  C:3B0EH         LINE#         361
  C:3B13H         LINE#         362
  C:3B1CH         LINE#         363
  C:3B3BH         LINE#         364
  C:3B3BH         LINE#         365
  C:3B4BH         LINE#         367
  C:3B4BH         LINE#         371
  -------         ENDPROC       KEY_PROCESS
  -------         PROC          KEYPAD_IO_INIT
  C:5C71H         LINE#         374
  C:5C71H         LINE#         375
  C:5C71H         LINE#         376
  C:5C74H         LINE#         377
  C:5C77H         LINE#         378
  C:5C7AH         LINE#         379
  C:5C7CH         LINE#         380
  -------         ENDPROC       KEYPAD_IO_INIT
  -------         ENDMOD        KEYPAD

  -------         MODULE        BIPOLARMOTOR
  C:0000H         SYMBOL        _ICE_DUMMY_
  X:0000H         PUBLIC        UTC_time
  D:0080H         PUBLIC        P0
  D:0090H         PUBLIC        P1
  X:0004H         PUBLIC        RX_pos_test
  D:00A0H         PUBLIC        P2
  D:00B0H         PUBLIC        P3
  D:00C0H         PUBLIC        P4
  D:00C8H         PUBLIC        P5
  D:00E8H         PUBLIC        P6
  D:00F8H         PUBLIC        P7
  X:00A4H         PUBLIC        low_date_azimuth_mapping
  D:00A8H         PUBLIC        IE
  C:4E3CH         PUBLIC        linear_interpolate
  X:00CCH         PUBLIC        declination
  C:5947H         PUBLIC        _Move
  D:00B8H         PUBLIC        IP
BL51 BANKED LINKER/LOCATER V6.22                                                      05/31/2019  12:29:07  PAGE 29


  X:00D0H         PUBLIC        time_offset
  D:00D8H         PUBLIC        CCON
  X:00D4H         PUBLIC        previous_move_time
  X:00D5H         PUBLIC        time
  D:0098H         PUBLIC        SCON
  D:0088H         PUBLIC        TCON
  C:57E8H         PUBLIC        _Step_move
  X:00E7H         PUBLIC        dat
  X:00EDH         PUBLIC        current_local_sun_time
  C:1F46H         PUBLIC        _Update_position
  C:3B4CH         PUBLIC        _elevation_calculation
  X:00F1H         PUBLIC        sunCoord
  C:56D0H         PUBLIC        vOneStepMove
  X:00F4H         PUBLIC        elevation_stamp
  X:0130H         PUBLIC        date_azimuth_mapping
  X:0158H         PUBLIC        location
  X:0160H         PUBLIC        RX_pos
  C:5B91H         PUBLIC        vSetLocation
  C:5B0CH         PUBLIC        _BCDtoDec1
  X:03B8H         PUBLIC        degree
  C:2582H         PUBLIC        _TheoricalJP_Position
  D:00D0H         PUBLIC        PSW
  -------         PROC          VSETLOCATION
  C:5B91H         LINE#         44
  C:5B91H         LINE#         45
  C:5B91H         LINE#         46
  C:5B9BH         LINE#         47
  C:5BA5H         LINE#         48
  -------         ENDPROC       VSETLOCATION
  C:5B08H         SYMBOL        L?0060
  -------         PROC          L?0059
  -------         ENDPROC       L?0059
  C:5B08H         SYMBOL        L?0060
  -------         PROC          _BCDTODEC1
  D:0007H         SYMBOL        bcd
  -------         DO            
  D:0006H         SYMBOL        hi
  D:0007H         SYMBOL        lo
  -------         ENDDO         
  C:5B0CH         LINE#         49
  C:5B0CH         LINE#         50
  C:5B0CH         LINE#         52
  C:5B11H         LINE#         53
  C:5B15H         LINE#         54
  C:5B1CH         LINE#         55
  -------         ENDPROC       _BCDTODEC1
  -------         PROC          VONESTEPMOVE
  B:0020H.3       SYMBOL        bDir
  C:56D0H         LINE#         59
  C:56D0H         LINE#         60
  C:56D0H         LINE#         62
  C:56D6H         LINE#         63
  C:56D6H         LINE#         64
  C:56D9H         LINE#         65
  C:56E2H         LINE#         66
  C:56E9H         LINE#         67
  C:56EEH         LINE#         68
BL51 BANKED LINKER/LOCATER V6.22                                                      05/31/2019  12:29:07  PAGE 30


  C:56EEH         LINE#         69
  C:56EEH         LINE#         71
  C:56F0H         LINE#         74
  C:56F0H         LINE#         75
  C:56F3H         LINE#         76
  C:56FCH         LINE#         77
  C:5703H         LINE#         78
  C:5709H         LINE#         79
  C:5712H         LINE#         80
  C:5719H         LINE#         81
  C:5719H         LINE#         85
  -------         ENDPROC       VONESTEPMOVE
  -------         PROC          _STEP_MOVE
  X:04E1H         SYMBOL        step
  B:0020H.2       SYMBOL        dir
  -------         DO            
  X:04E3H         SYMBOL        i
  -------         ENDDO         
  C:57E8H         LINE#         87
  C:57F0H         LINE#         88
  C:57F0H         LINE#         90
  C:57F5H         LINE#         93
  C:5810H         LINE#         94
  C:5810H         LINE#         95
  C:5817H         LINE#         97
  C:5827H         LINE#         99
  -------         ENDPROC       _STEP_MOVE
  -------         PROC          _MOVE
  X:04DDH         SYMBOL        distance
  B:0020H.1       SYMBOL        direction
  -------         DO            
  D:0006H         SYMBOL        step
  -------         ENDDO         
  C:5947H         LINE#         101
  C:594DH         LINE#         102
  C:594DH         LINE#         105
  C:5968H         LINE#         106
  -------         ENDPROC       _MOVE
  C:4E2BH         SYMBOL        L?0058
  -------         PROC          L?0057
  -------         ENDPROC       L?0057
  C:4E2BH         SYMBOL        L?0058
  -------         PROC          LINEAR_INTERPOLATE
  X:049EH         SYMBOL        p1
  X:04A6H         SYMBOL        p2
  X:04AEH         SYMBOL        x
  -------         DO            
  D:0004H         SYMBOL        fx
  -------         ENDDO         
  C:4E3CH         LINE#         139
  C:4E3CH         LINE#         140
  C:4E3CH         LINE#         143
  C:4EDBH         LINE#         145
  C:4EDBH         LINE#         146
  -------         ENDPROC       LINEAR_INTERPOLATE
  -------         PROC          _THEORICALJP_POSITION
  X:0442H         SYMBOL        azimuth
BL51 BANKED LINKER/LOCATER V6.22                                                      05/31/2019  12:29:07  PAGE 31


  X:0446H         SYMBOL        elevation
  -------         DO            
  X:044AH         SYMBOL        pos_interpolate_azimuth
  X:0486H         SYMBOL        JP_pos
  X:048AH         SYMBOL        i
  X:048CH         SYMBOL        yy
  X:048EH         SYMBOL        p1
  X:0496H         SYMBOL        p2
  -------         ENDDO         
  C:2582H         LINE#         149
  C:2588H         LINE#         150
  C:2588H         LINE#         152
  C:2592H         LINE#         155
  C:25AEH         LINE#         156
  C:25AEH         LINE#         157
  C:261EH         LINE#         158
  C:261EH         LINE#         159
  C:2625H         LINE#         160
  C:2625H         LINE#         161
  C:2652H         LINE#         162
  C:266DH         LINE#         164
  C:26B4H         LINE#         165
  C:26E8H         LINE#         167
  C:272EH         LINE#         168
  C:2753H         LINE#         170
  C:2753H         LINE#         172
  C:27C9H         LINE#         173
  C:27C9H         LINE#         174
  C:27D0H         LINE#         175
  C:27D0H         LINE#         176
  C:27FDH         LINE#         177
  C:2818H         LINE#         179
  C:285FH         LINE#         180
  C:2893H         LINE#         182
  C:28D9H         LINE#         183
  C:28FBH         LINE#         185
  C:28FBH         LINE#         186
  C:290FH         LINE#         189
  C:292BH         LINE#         190
  C:292BH         LINE#         191
  C:299BH         LINE#         192
  C:299BH         LINE#         193
  C:29C8H         LINE#         194
  C:29E3H         LINE#         196
  C:2A10H         LINE#         197
  C:2A2BH         LINE#         199
  C:2A5DH         LINE#         202
  C:2A5DH         LINE#         204
  C:2A6EH         LINE#         205
  C:2A7CH         LINE#         207
  -------         ENDPROC       _THEORICALJP_POSITION
  -------         PROC          _UPDATE_POSITION
  D:0001H         SYMBOL        mnths
  D:0002H         SYMBOL        dys
  X:041EH         SYMBOL        hurs
  X:041FH         SYMBOL        mns
  X:0420H         SYMBOL        sconds
BL51 BANKED LINKER/LOCATER V6.22                                                      05/31/2019  12:29:07  PAGE 32


  X:0421H         SYMBOL        currnt_pos
  X:0424H         SYMBOL        offset_calib
  -------         DO            
  X:0428H         SYMBOL        date
  X:042AH         SYMBOL        i
  X:042CH         SYMBOL        yy
  X:042EH         SYMBOL        desired_distance
  X:0432H         SYMBOL        distance
  X:0436H         SYMBOL        JP_pos
  X:043AH         SYMBOL        elevation
  X:043EH         SYMBOL        azimuth
  -------         ENDDO         
  C:1F46H         LINE#         210
  C:1F4FH         LINE#         213
  C:1F4FH         LINE#         214
  C:1F5AH         LINE#         216
  C:1F76H         LINE#         223
  C:1F80H         LINE#         224
  C:1F8BH         LINE#         225
  C:1F96H         LINE#         226
  C:1FAFH         LINE#         227
  C:1FC0H         LINE#         228
  C:1FCFH         LINE#         231
  C:1FE3H         LINE#         235
  C:2035H         LINE#         236
  C:2199H         LINE#         237
  C:21E9H         LINE#         240
  C:2311H         LINE#         243
  C:23E0H         LINE#         250
  C:2427H         LINE#         251
  C:2427H         LINE#         253
  C:2452H         LINE#         254
  C:2481H         LINE#         256
  C:24A6H         LINE#         257
  C:250BH         LINE#         258
  C:250BH         LINE#         259
  C:2525H         LINE#         260
  C:2537H         LINE#         261
  C:254FH         LINE#         262
  C:2565H         LINE#         264
  C:2581H         LINE#         265
  C:2581H         LINE#         266
  C:2581H         LINE#         269
  -------         ENDPROC       _UPDATE_POSITION
  -------         PROC          _ELEVATION_CALCULATION
  D:0007H         SYMBOL        mnths
  D:0005H         SYMBOL        dys
  X:03FAH         SYMBOL        hurs
  X:03FBH         SYMBOL        mns
  X:03FCH         SYMBOL        sconds
  C:3B4CH         LINE#         271
  C:3B51H         LINE#         273
  C:3B51H         LINE#         274
  C:3B5BH         LINE#         275
  C:3B64H         LINE#         276
  C:3B6FH         LINE#         277
  C:3B88H         LINE#         278
BL51 BANKED LINKER/LOCATER V6.22                                                      05/31/2019  12:29:07  PAGE 33


  C:3B9CH         LINE#         279
  C:3BAEH         LINE#         283
  C:3C00H         LINE#         284
  C:3D64H         LINE#         285
  C:3DB4H         LINE#         287
  C:3ECBH         LINE#         289
  -------         ENDPROC       _ELEVATION_CALCULATION
  -------         ENDMOD        BIPOLARMOTOR

  -------         MODULE        SUNPOS
  C:0000H         SYMBOL        _ICE_DUMMY_
  C:17A4H         PUBLIC        sunpos
  -------         PROC          SUNPOS
  X:0442H         SYMBOL        udtTime
  X:0454H         SYMBOL        udtLocation
  X:045CH         SYMBOL        udtSunCoordinates
  -------         DO            
  X:045FH         SYMBOL        dElapsedJulianDays
  X:0463H         SYMBOL        dDecimalHours
  X:0467H         SYMBOL        dEclipticLongitude
  X:046BH         SYMBOL        dEclipticObliquity
  X:046FH         SYMBOL        dRightAscension
  X:0473H         SYMBOL        dDeclination
  X:0477H         SYMBOL        dY
  X:047BH         SYMBOL        dX
  -------         DO            
  X:047FH         SYMBOL        dJulianDate
  X:0483H         SYMBOL        liAux1
  X:0487H         SYMBOL        liAux2
  X:047FH         SYMBOL        dMeanLongitude
  X:0483H         SYMBOL        dMeanAnomaly
  X:0487H         SYMBOL        dOmega
  X:047FH         SYMBOL        dSin_EclipticLongitude
  X:047FH         SYMBOL        dGreenwichMeanSiderealTime
  X:0483H         SYMBOL        dLocalMeanSiderealTime
  X:0487H         SYMBOL        dLatitudeInRadians
  X:048BH         SYMBOL        dHourAngle
  X:048FH         SYMBOL        dCos_Latitude
  X:0493H         SYMBOL        dSin_Latitude
  X:0497H         SYMBOL        dCos_HourAngle
  X:049BH         SYMBOL        dParallax
  -------         ENDDO         
  -------         DO            
  X:047FH         SYMBOL        dMeanLongitude
  X:0483H         SYMBOL        dMeanAnomaly
  X:0487H         SYMBOL        dOmega
  X:047FH         SYMBOL        dSin_EclipticLongitude
  X:047FH         SYMBOL        dGreenwichMeanSiderealTime
  X:0483H         SYMBOL        dLocalMeanSiderealTime
  X:0487H         SYMBOL        dLatitudeInRadians
  X:048BH         SYMBOL        dHourAngle
  X:048FH         SYMBOL        dCos_Latitude
  X:0493H         SYMBOL        dSin_Latitude
  X:0497H         SYMBOL        dCos_HourAngle
  X:049BH         SYMBOL        dParallax
  -------         ENDDO         
  -------         DO            
BL51 BANKED LINKER/LOCATER V6.22                                                      05/31/2019  12:29:07  PAGE 34


  X:047FH         SYMBOL        dSin_EclipticLongitude
  X:047FH         SYMBOL        dGreenwichMeanSiderealTime
  X:0483H         SYMBOL        dLocalMeanSiderealTime
  X:0487H         SYMBOL        dLatitudeInRadians
  X:048BH         SYMBOL        dHourAngle
  X:048FH         SYMBOL        dCos_Latitude
  X:0493H         SYMBOL        dSin_Latitude
  X:0497H         SYMBOL        dCos_HourAngle
  X:049BH         SYMBOL        dParallax
  -------         ENDDO         
  -------         DO            
  X:047FH         SYMBOL        dGreenwichMeanSiderealTime
  X:0483H         SYMBOL        dLocalMeanSiderealTime
  X:0487H         SYMBOL        dLatitudeInRadians
  X:048BH         SYMBOL        dHourAngle
  X:048FH         SYMBOL        dCos_Latitude
  X:0493H         SYMBOL        dSin_Latitude
  X:0497H         SYMBOL        dCos_HourAngle
  X:049BH         SYMBOL        dParallax
  -------         ENDDO         
  -------         ENDDO         
  C:17A4H         LINE#         6
  C:17A4H         LINE#         7
  C:17A4H         LINE#         9
  C:17A4H         LINE#         27
  C:17EEH         LINE#         30
  C:180FH         LINE#         31
  C:1956H         LINE#         34
  C:19A2H         LINE#         36
  C:19C1H         LINE#         37
  C:19C1H         LINE#         42
  C:19C1H         LINE#         46
  C:19F3H         LINE#         47
  C:1A1DH         LINE#         48
  C:1A47H         LINE#         49
  C:1AF4H         LINE#         52
  C:1B55H         LINE#         54
  C:1B55H         LINE#         59
  C:1B55H         LINE#         61
  C:1B6CH         LINE#         62
  C:1B94H         LINE#         63
  C:1BABH         LINE#         64
  C:1BD6H         LINE#         65
  C:1C0DH         LINE#         66
  C:1C38H         LINE#         67
  C:1C38H         LINE#         70
  C:1C38H         LINE#         79
  C:1C73H         LINE#         82
  C:1CADH         LINE#         84
  C:1CD2H         LINE#         85
  C:1CF1H         LINE#         86
  C:1D08H         LINE#         87
  C:1D1FH         LINE#         88
  C:1D36H         LINE#         89
  C:1DBFH         LINE#         91
  C:1DD9H         LINE#         92
  C:1E3BH         LINE#         93
BL51 BANKED LINKER/LOCATER V6.22                                                      05/31/2019  12:29:07  PAGE 35


  C:1E71H         LINE#         94
  C:1E83H         LINE#         95
  C:1EB0H         LINE#         96
  C:1EDDH         LINE#         98
  C:1EFFH         LINE#         100
  C:1F37H         LINE#         103
  C:1F37H         LINE#         104
  C:1F45H         LINE#         105
  -------         ENDPROC       SUNPOS
  -------         ENDMOD        SUNPOS

  -------         MODULE        ADC
  C:0000H         SYMBOL        _ICE_DUMMY_
  D:0092H         PUBLIC        P1M0
  D:0091H         PUBLIC        P1M1
  D:0080H         PUBLIC        P0
  D:0090H         PUBLIC        P1
  D:00A0H         PUBLIC        P2
  D:00B0H         PUBLIC        P3
  D:00C0H         PUBLIC        P4
  D:00C8H         PUBLIC        P5
  D:00E8H         PUBLIC        P6
  D:00F8H         PUBLIC        P7
  D:00A8H         PUBLIC        IE
  D:00BDH         PUBLIC        ADC_RES
  D:00B8H         PUBLIC        IP
  D:0097H         PUBLIC        CLK_DIV
  D:00D8H         PUBLIC        CCON
  D:00BCH         PUBLIC        ADC_CONTR
  D:0098H         PUBLIC        SCON
  D:0088H         PUBLIC        TCON
  B:00A0H.4       PUBLIC        P24
  B:00A0H.5       PUBLIC        P25
  B:00A0H.6       PUBLIC        P26
  C:5B1DH         PUBLIC        ADC_Init
  C:591DH         PUBLIC        _ADC_GetResult
  D:009DH         PUBLIC        P1ASF
  D:00BEH         PUBLIC        ADC_RESL
  D:00D0H         PUBLIC        PSW
  -------         PROC          ADC_INIT
  C:5B1DH         LINE#         7
  C:5B1DH         LINE#         8
  C:5B1DH         LINE#         10
  C:5B1FH         LINE#         11
  C:5B21H         LINE#         12
  C:5B23H         LINE#         13
  C:5B26H         LINE#         14
  C:5B29H         LINE#         15
  C:5B2CH         LINE#         16
  C:5B2FH         LINE#         18
  C:5B31H         LINE#         19
  C:5B33H         LINE#         20
  C:5B36H         LINE#         24
  -------         ENDPROC       ADC_INIT
  -------         PROC          _ADC_GETRESULT
  D:0007H         SYMBOL        ch
  -------         DO            
BL51 BANKED LINKER/LOCATER V6.22                                                      05/31/2019  12:29:07  PAGE 36


  D:0006H         SYMBOL        ADC_Value_H
  D:0004H         SYMBOL        ADC_Value_L
  D:0006H         SYMBOL        ADC_Value
  -------         ENDDO         
  C:591DH         LINE#         27
  C:591DH         LINE#         28
  C:591DH         LINE#         30
  C:5922H         LINE#         31
  C:5923H         LINE#         32
  C:5924H         LINE#         35
  C:5929H         LINE#         36
  C:592CH         LINE#         37
  C:5930H         LINE#         38
  C:5934H         LINE#         40
  C:5946H         LINE#         41
  C:5946H         LINE#         42
  -------         ENDPROC       _ADC_GETRESULT
  -------         ENDMOD        ADC

  -------         MODULE        CALIBRATION
  C:0000H         SYMBOL        _ICE_DUMMY_
  D:0080H         PUBLIC        P0
  D:0090H         PUBLIC        P1
  D:00A0H         PUBLIC        P2
  D:00B0H         PUBLIC        P3
  D:00C0H         PUBLIC        P4
  D:00C8H         PUBLIC        P5
  D:00E8H         PUBLIC        P6
  D:00F8H         PUBLIC        P7
  C:522EH         PUBLIC        _Max_Value
  D:00A8H         PUBLIC        IE
  C:3ECCH         PUBLIC        _calibration
  C:4EDCH         PUBLIC        voltage_is_stable
  D:00B8H         PUBLIC        IP
  C:59BDH         PUBLIC        _FindClosestSamedayCalibTime
  D:00D8H         PUBLIC        CCON
  D:0098H         PUBLIC        SCON
  D:0088H         PUBLIC        TCON
  C:2A7DH         PUBLIC        _Find_Real_Max
  D:00D0H         PUBLIC        PSW
  -------         PROC          VOLTAGE_IS_STABLE
  -------         DO            
  X:041CH         SYMBOL        sample_voltage
  X:0430H         SYMBOL        i
  X:0432H         SYMBOL        ch
  -------         ENDDO         
  C:4EDCH         LINE#         25
  C:4EDCH         LINE#         26
  C:4EDCH         LINE#         28
  C:4EE3H         LINE#         29
  C:4EE9H         LINE#         30
  C:4EE9H         LINE#         31
  C:4F12H         LINE#         32
  C:4F31H         LINE#         34
  C:4F4BH         LINE#         35
  C:4F4BH         LINE#         36
  C:4F7EH         LINE#         37
BL51 BANKED LINKER/LOCATER V6.22                                                      05/31/2019  12:29:07  PAGE 37


  C:4F82H         LINE#         38
  C:4F92H         LINE#         39
  C:4F96H         LINE#         40
  -------         ENDPROC       VOLTAGE_IS_STABLE
  -------         PROC          _FIND_REAL_MAX
  X:041CH         SYMBOL        current_position
  X:041FH         SYMBOL        calib_max_ADC_Value
  X:0422H         SYMBOL        max_ADC_JP_value
  X:0425H         SYMBOL        address_to_write
  -------         DO            
  X:0428H         SYMBOL        ch
  X:0429H         SYMBOL        calib_step_move
  X:042DH         SYMBOL        sTemp
  X:0433H         SYMBOL        voltage_at_scanned_pos
  X:04D5H         SYMBOL        max_location
  X:04D7H         SYMBOL        avg_voltage
  X:04D9H         SYMBOL        i
  X:04DBH         SYMBOL        j
  -------         ENDDO         
  C:2A7DH         LINE#         41
  C:2A88H         LINE#         42
  C:2A88H         LINE#         43
  C:2A8DH         LINE#         44
  C:2A95H         LINE#         47
  C:2A9CH         LINE#         51
  C:2AA6H         LINE#         52
  C:2AB0H         LINE#         53
  C:2AC9H         LINE#         54
  C:2AC9H         LINE#         55
  C:2ADEH         LINE#         56
  C:2AEEH         LINE#         57
  C:2AF5H         LINE#         58
  C:2AF5H         LINE#         60
  C:2AF5H         LINE#         62
  C:2B0EH         LINE#         63
  C:2B0EH         LINE#         64
  C:2B12H         LINE#         65
  C:2B12H         LINE#         66
  C:2B18H         LINE#         67
  C:2B18H         LINE#         68
  C:2B2CH         LINE#         69
  C:2B33H         LINE#         71
  C:2B43H         LINE#         72
  C:2B72H         LINE#         74
  C:2BB6H         LINE#         76
  C:2BBFH         LINE#         77
  C:2BC6H         LINE#         78
  C:2BCFH         LINE#         79
  C:2BD8H         LINE#         80
  C:2BDFH         LINE#         84
  C:2BF7H         LINE#         85
  C:2BF7H         LINE#         86
  C:2C2BH         LINE#         87
  C:2C2DH         LINE#         89
  C:2C41H         LINE#         91
  C:2C7DH         LINE#         96
  C:2C7DH         LINE#         121
BL51 BANKED LINKER/LOCATER V6.22                                                      05/31/2019  12:29:07  PAGE 38


  C:2C7DH         LINE#         123
  C:2C7DH         LINE#         139
  C:2C82H         LINE#         140
  C:2C87H         LINE#         142
  C:2C8CH         LINE#         143
  C:2C91H         LINE#         144
  C:2C96H         LINE#         145
  C:2C9BH         LINE#         148
  C:2CD2H         LINE#         149
  C:2CD7H         LINE#         150
  C:2CDCH         LINE#         151
  C:2CE3H         LINE#         153
  C:2D0EH         LINE#         155
  C:2D17H         LINE#         156
  C:2D1EH         LINE#         157
  C:2D27H         LINE#         158
  C:2D30H         LINE#         160
  C:2D37H         LINE#         162
  C:2D62H         LINE#         164
  C:2D6BH         LINE#         165
  C:2D72H         LINE#         166
  C:2D7BH         LINE#         167
  C:2D84H         LINE#         168
  C:2D8BH         LINE#         169
  C:2D9EH         LINE#         170
  C:2DC4H         LINE#         173
  C:2DCBH         LINE#         175
  C:2DEDH         LINE#         176
  C:2DF4H         LINE#         178
  C:2E03H         LINE#         179
  C:2E03H         LINE#         180
  C:2E14H         LINE#         181
  C:2E3DH         LINE#         183
  C:2E55H         LINE#         186
  C:2E7EH         LINE#         196
  C:2EDAH         LINE#         197
  C:2F05H         LINE#         199
  C:2F0EH         LINE#         200
  C:2F15H         LINE#         201
  C:2F1EH         LINE#         202
  C:2F27H         LINE#         203
  C:2F2EH         LINE#         204
  C:2F2EH         LINE#         207
  -------         ENDPROC       _FIND_REAL_MAX
  -------         PROC          _MAX_VALUE
  D:0001H         SYMBOL        input
  -------         DO            
  D:0004H         SYMBOL        max
  X:04DDH         SYMBOL        max_location
  X:04DFH         SYMBOL        i
  -------         ENDDO         
  C:522EH         LINE#         210
  C:522EH         LINE#         211
  C:522EH         LINE#         212
  C:5239H         LINE#         214
  C:524EH         LINE#         215
  C:524EH         LINE#         216
BL51 BANKED LINKER/LOCATER V6.22                                                      05/31/2019  12:29:07  PAGE 39


  C:5284H         LINE#         217
  C:52A1H         LINE#         218
  C:52B0H         LINE#         219
  C:52C1H         LINE#         220
  C:52C9H         LINE#         222
  -------         ENDPROC       _MAX_VALUE
  -------         PROC          _CALIBRATION
  X:03F8H         SYMBOL        mnths
  X:03F9H         SYMBOL        dys
  X:03FAH         SYMBOL        hurs
  X:03FBH         SYMBOL        mns
  X:03FCH         SYMBOL        sconds
  X:03FDH         SYMBOL        currnt_pos
  X:0400H         SYMBOL        calib_max_ADC_Val
  X:0403H         SYMBOL        theorical_max_pos
  X:0406H         SYMBOL        max_ADC_JP_value
  X:0409H         SYMBOL        NOR_address_to_write
  -------         DO            
  X:040CH         SYMBOL        calib_value
  X:0410H         SYMBOL        temporary_calib_max_ADC
  X:0412H         SYMBOL        temp_max_ADC_JP_value
  X:0414H         SYMBOL        temp_NOR_address_to_write
  X:0418H         SYMBOL        JP_max_pos
  -------         ENDDO         
  C:3ECCH         LINE#         224
  C:3ED7H         LINE#         228
  C:3ED7H         LINE#         229
  C:3EE1H         LINE#         230
  C:3EECH         LINE#         231
  C:3F00H         LINE#         232
  C:3F14H         LINE#         233
  C:3F25H         LINE#         234
  C:3F36H         LINE#         235
  C:3F48H         LINE#         236
  C:3F52H         LINE#         237
  C:3F5CH         LINE#         239
  C:3F66H         LINE#         240
  C:3F66H         LINE#         242
  C:3F9CH         LINE#         243
  C:3FC2H         LINE#         245
  C:3FF1H         LINE#         247
  C:400DH         LINE#         249
  C:4025H         LINE#         250
  C:403DH         LINE#         251
  C:4062H         LINE#         252
  C:407EH         LINE#         253
  C:408DH         LINE#         254
  C:408DH         LINE#         256
  C:4092H         LINE#         257
  -------         ENDPROC       _CALIBRATION
  -------         PROC          _FINDCLOSESTSAMEDAYCALIBTIME
  D:0001H         SYMBOL        input_calibration_bool_array
  D:0004H         SYMBOL        current_time_stamp_position
  -------         DO            
  D:0004H         SYMBOL        i
  -------         ENDDO         
  C:59BDH         LINE#         258
BL51 BANKED LINKER/LOCATER V6.22                                                      05/31/2019  12:29:07  PAGE 40


  C:59BDH         LINE#         259
  C:59BDH         LINE#         261
  C:59C5H         LINE#         262
  C:59C5H         LINE#         263
  C:59D8H         LINE#         264
  C:59DDH         LINE#         266
  C:59E1H         LINE#         267
  C:59E1H         LINE#         268
  -------         ENDPROC       _FINDCLOSESTSAMEDAYCALIBTIME
  -------         ENDMOD        CALIBRATION

  -------         MODULE        IOEXPANDER_PI4IOE5V96248
  C:0000H         SYMBOL        _ICE_DUMMY_
  D:0080H         PUBLIC        P0
  B:00C8H.4       PUBLIC        I2C_SCK
  D:0090H         PUBLIC        P1
  D:00A0H         PUBLIC        P2
  D:00B0H         PUBLIC        P3
  D:00C0H         PUBLIC        P4
  D:00C8H         PUBLIC        P5
  D:00E8H         PUBLIC        P6
  D:00F8H         PUBLIC        P7
  D:00A8H         PUBLIC        IE
  D:00B8H         PUBLIC        IP
  D:00D8H         PUBLIC        CCON
  C:5C2AH         PUBLIC        I2C_Start
  D:0098H         PUBLIC        SCON
  D:0088H         PUBLIC        TCON
  C:4F97H         PUBLIC        _Write_PI4IOE5V96248
  C:5C39H         PUBLIC        uC_NACK
  C:58D4H         PUBLIC        _Wait_ms_i2c
  C:5974H         PUBLIC        _I2C_SendByte
  C:5BA6H         PUBLIC        I2C_Stop
  C:5CB8H         PUBLIC        nop
  C:5CACH         PUBLIC        uC_ACK
  C:5B66H         PUBLIC        I2C_ACK
  B:00C0H.7       PUBLIC        I2C_SDA
  D:00D0H         PUBLIC        PSW
  C:58CEH         SYMBOL        L?0031
  C:58D0H         SYMBOL        L?0032
  -------         PROC          L?0030
  -------         ENDPROC       L?0030
  C:58CEH         SYMBOL        L?0031
  C:58D0H         SYMBOL        L?0032
  -------         PROC          _WAIT_MS_I2C
  D:0006H         SYMBOL        ms
  -------         DO            
  D:0004H         SYMBOL        De_Cnt
  -------         ENDDO         
  C:58D4H         LINE#         7
  C:58D4H         LINE#         8
  C:58D4H         LINE#         10
  C:58DEH         LINE#         11
  C:58DEH         LINE#         12
  C:58F1H         LINE#         13
  C:58F1H         LINE#         14
  -------         ENDPROC       _WAIT_MS_I2C
BL51 BANKED LINKER/LOCATER V6.22                                                      05/31/2019  12:29:07  PAGE 41


  -------         PROC          NOP
  C:5CB8H         LINE#         16
  C:5CB8H         LINE#         17
  C:5CB8H         LINE#         19
  -------         ENDPROC       NOP
  -------         PROC          I2C_START
  C:5C2AH         LINE#         20
  C:5C2AH         LINE#         21
  C:5C2AH         LINE#         23
  C:5C2CH         LINE#         24
  C:5C2EH         LINE#         25
  C:5C31H         LINE#         26
  C:5C33H         LINE#         27
  C:5C36H         LINE#         28
  C:5C38H         LINE#         31
  -------         ENDPROC       I2C_START
  -------         PROC          I2C_STOP
  C:5BA6H         LINE#         33
  C:5BA6H         LINE#         34
  C:5BA6H         LINE#         35
  C:5BA8H         LINE#         36
  C:5BAAH         LINE#         37
  C:5BADH         LINE#         38
  C:5BAFH         LINE#         39
  C:5BB1H         LINE#         40
  C:5BB8H         LINE#         41
  C:5BBAH         LINE#         44
  -------         ENDPROC       I2C_STOP
  -------         PROC          I2C_ACK
  -------         DO            
  X:04E8H         SYMBOL        i
  D:0003H         SYMBOL        dat
  -------         ENDDO         
  C:5B66H         LINE#         46
  C:5B66H         LINE#         47
  C:5B66H         LINE#         49
  C:5B67H         LINE#         54
  C:5B6AH         LINE#         55
  C:5B6CH         LINE#         56
  C:5B6FH         LINE#         58
  C:5B72H         LINE#         59
  C:5B72H         LINE#         60
  C:5B76H         LINE#         61
  C:5B76H         LINE#         64
  C:5B76H         LINE#         65
  C:5B79H         LINE#         66
  C:5B79H         LINE#         67
  C:5B7BH         LINE#         68
  -------         ENDPROC       I2C_ACK
  -------         PROC          UC_ACK
  -------         DO            
  X:0648H         SYMBOL        i
  -------         ENDDO         
  C:5CACH         LINE#         69
  C:5CACH         LINE#         70
  C:5CACH         LINE#         72
  C:5CACH         LINE#         79
BL51 BANKED LINKER/LOCATER V6.22                                                      05/31/2019  12:29:07  PAGE 42


  C:5CACH         LINE#         81
  C:5CACH         LINE#         83
  C:5CACH         LINE#         84
  C:5CACH         LINE#         87
  C:5CAFH         LINE#         88
  C:5CB1H         LINE#         89
  C:5CB1H         LINE#         93
  -------         ENDPROC       UC_ACK
  -------         PROC          UC_NACK
  -------         DO            
  X:0649H         SYMBOL        i
  -------         ENDDO         
  C:5C39H         LINE#         95
  C:5C39H         LINE#         96
  C:5C39H         LINE#         98
  C:5C39H         LINE#         102
  C:5C3BH         LINE#         105
  C:5C3BH         LINE#         106
  C:5C3DH         LINE#         107
  C:5C3DH         LINE#         109
  C:5C3DH         LINE#         110
  C:5C3DH         LINE#         113
  C:5C40H         LINE#         114
  C:5C42H         LINE#         115
  C:5C45H         LINE#         116
  C:5C47H         LINE#         117
  C:5C47H         LINE#         121
  -------         ENDPROC       UC_NACK
  C:5970H         SYMBOL        L?0034
  -------         PROC          L?0033
  -------         ENDPROC       L?0033
  C:5970H         SYMBOL        L?0034
  -------         PROC          _I2C_SENDBYTE
  D:0001H         SYMBOL        dat
  -------         DO            
  D:0003H         SYMBOL        i
  -------         ENDDO         
  C:5974H         LINE#         125
  C:5976H         LINE#         126
  C:5976H         LINE#         129
  C:5978H         LINE#         130
  C:5978H         LINE#         131
  C:597AH         LINE#         133
  C:597EH         LINE#         134
  C:597EH         LINE#         135
  C:5980H         LINE#         136
  C:5982H         LINE#         138
  C:5982H         LINE#         139
  C:5984H         LINE#         140
  C:5984H         LINE#         141
  C:5987H         LINE#         142
  C:5989H         LINE#         144
  C:598DH         LINE#         145
  C:5990H         LINE#         146
  C:5995H         LINE#         147
  -------         ENDPROC       _I2C_SENDBYTE
  -------         PROC          _WRITE_PI4IOE5V96248
BL51 BANKED LINKER/LOCATER V6.22                                                      05/31/2019  12:29:07  PAGE 43


  X:04E5H         SYMBOL        xdat
  C:4F97H         LINE#         148
  C:4FA2H         LINE#         149
  C:4FA2H         LINE#         150
  C:4FA5H         LINE#         151
  C:4FACH         LINE#         152
  C:4FB1H         LINE#         153
  C:4FB7H         LINE#         154
  C:4FB7H         LINE#         155
  C:4FC9H         LINE#         156
  C:4FC9H         LINE#         158
  C:4FCFH         LINE#         159
  C:4FCFH         LINE#         160
  C:4FDFH         LINE#         161
  C:4FDFH         LINE#         162
  C:4FE5H         LINE#         163
  C:4FE5H         LINE#         164
  C:4FF5H         LINE#         165
  C:4FF5H         LINE#         166
  C:4FFBH         LINE#         167
  C:4FFBH         LINE#         168
  C:500CH         LINE#         169
  C:500CH         LINE#         171
  C:5012H         LINE#         172
  C:5012H         LINE#         173
  C:5023H         LINE#         174
  C:5023H         LINE#         175
  C:5029H         LINE#         176
  C:5029H         LINE#         177
  C:503AH         LINE#         178
  C:503AH         LINE#         180
  C:5040H         LINE#         181
  C:5043H         LINE#         182
  -------         ENDPROC       _WRITE_PI4IOE5V96248
  -------         ENDMOD        IOEXPANDER_PI4IOE5V96248

  -------         MODULE        AT25SF041
  C:0000H         SYMBOL        _ICE_DUMMY_
  D:0080H         PUBLIC        P0
  D:0090H         PUBLIC        P1
  D:00B4H         PUBLIC        P4M0
  D:00A0H         PUBLIC        P2
  D:00B3H         PUBLIC        P4M1
  D:00B0H         PUBLIC        P3
  D:00C0H         PUBLIC        P4
  D:00C8H         PUBLIC        P5
  D:00E8H         PUBLIC        P6
  D:00F8H         PUBLIC        P7
  C:55D2H         PUBLIC        AT25SF041_ChipErase
  C:4220H         PUBLIC        SPI_NOR_Write_Data
  C:4A37H         PUBLIC        _AT25SF041_Read
  D:00A8H         PUBLIC        IE
  C:50F0H         PUBLIC        ucRead_Status_Register_Byte1
  C:58FFH         PUBLIC        _Wait_ms_SPINOR
  D:00B8H         PUBLIC        IP
  C:4B4EH         PUBLIC        _AT25SF041_Write
  B:00C0H.1       PUBLIC        AT25SF041_CS
BL51 BANKED LINKER/LOCATER V6.22                                                      05/31/2019  12:29:07  PAGE 44


  D:00D8H         PUBLIC        CCON
  D:0098H         PUBLIC        SCON
  D:0088H         PUBLIC        TCON
  C:5516H         PUBLIC        AT25SF041_WriteEnable
  B:00C0H.2       PUBLIC        AT25SF041_SDI
  B:00C0H.3       PUBLIC        AT25SF041_SCK
  B:00C0H.4       PUBLIC        AT25SF041_SDO
  D:00D0H         PUBLIC        PSW
  C:58F2H         SYMBOL        L?0084
  C:58F9H         SYMBOL        L?0085
  C:58FBH         SYMBOL        L?0086
  -------         PROC          L?0083
  -------         ENDPROC       L?0083
  C:58F2H         SYMBOL        L?0084
  C:58F9H         SYMBOL        L?0085
  C:58FBH         SYMBOL        L?0086
  -------         PROC          _WAIT_MS_SPINOR
  D:0006H         SYMBOL        ms
  -------         DO            
  D:0004H         SYMBOL        De_Cnt
  -------         ENDDO         
  C:58FFH         LINE#         5
  C:58FFH         LINE#         6
  C:58FFH         LINE#         8
  C:5909H         LINE#         9
  C:5909H         LINE#         10
  C:591CH         LINE#         11
  C:591CH         LINE#         12
  -------         ENDPROC       _WAIT_MS_SPINOR
  -------         PROC          AT25SF041_CHIPERASE
  -------         DO            
  X:03F8H         SYMBOL        i
  D:0003H         SYMBOL        opcode
  -------         ENDDO         
  C:55D2H         LINE#         13
  C:55D2H         LINE#         14
  C:55D2H         LINE#         17
  C:55D4H         LINE#         20
  C:55D7H         LINE#         21
  C:55DAH         LINE#         22
  C:55DCH         LINE#         23
  C:55DFH         LINE#         25
  C:55E6H         LINE#         26
  C:55E6H         LINE#         27
  C:55E8H         LINE#         28
  C:55EBH         LINE#         29
  C:55EFH         LINE#         30
  C:55EFH         LINE#         31
  C:55F1H         LINE#         32
  C:55F3H         LINE#         34
  C:55F3H         LINE#         35
  C:55F5H         LINE#         37
  C:55F5H         LINE#         38
  C:55F5H         LINE#         39
  C:55F5H         LINE#         40
  C:55F8H         LINE#         41
  C:55FCH         LINE#         44
BL51 BANKED LINKER/LOCATER V6.22                                                      05/31/2019  12:29:07  PAGE 45


  C:561BH         LINE#         46
  C:561DH         LINE#         47
  C:5624H         LINE#         48
  C:562BH         LINE#         50
  -------         ENDPROC       AT25SF041_CHIPERASE
  C:54F1H         SYMBOL        L?0082
  -------         PROC          L?0081
  -------         ENDPROC       L?0081
  C:54F1H         SYMBOL        L?0082
  -------         PROC          AT25SF041_WRITEENABLE
  -------         DO            
  X:03F8H         SYMBOL        i
  D:0003H         SYMBOL        write_en
  -------         ENDDO         
  C:5516H         LINE#         51
  C:5516H         LINE#         52
  C:5516H         LINE#         55
  C:5518H         LINE#         56
  C:551AH         LINE#         59
  C:5521H         LINE#         60
  C:5521H         LINE#         61
  C:5523H         LINE#         62
  C:5526H         LINE#         63
  C:552AH         LINE#         64
  C:552AH         LINE#         65
  C:552CH         LINE#         66
  C:552EH         LINE#         68
  C:552EH         LINE#         69
  C:5530H         LINE#         71
  C:5530H         LINE#         72
  C:5530H         LINE#         73
  C:5530H         LINE#         74
  C:5533H         LINE#         75
  C:5537H         LINE#         78
  C:5556H         LINE#         79
  C:5558H         LINE#         80
  C:555BH         LINE#         81
  C:5562H         LINE#         82
  -------         ENDPROC       AT25SF041_WRITEENABLE
  C:4B47H         SYMBOL        L?0088
  -------         PROC          L?0087
  -------         ENDPROC       L?0087
  C:4B47H         SYMBOL        L?0088
  -------         PROC          _AT25SF041_WRITE
  D:0003H         SYMBOL        opcode
  X:03F9H         SYMBOL        addr
  X:03FDH         SYMBOL        dat
  -------         DO            
  X:03FEH         SYMBOL        i
  -------         ENDDO         
  C:4B4EH         LINE#         85
  C:4B50H         LINE#         86
  C:4B50H         LINE#         87
  C:4B50H         LINE#         88
  C:4B52H         LINE#         89
  C:4B55H         LINE#         92
  C:4B5CH         LINE#         93
BL51 BANKED LINKER/LOCATER V6.22                                                      05/31/2019  12:29:07  PAGE 46


  C:4B5CH         LINE#         94
  C:4B5EH         LINE#         95
  C:4B61H         LINE#         96
  C:4B65H         LINE#         97
  C:4B65H         LINE#         98
  C:4B67H         LINE#         99
  C:4B69H         LINE#         101
  C:4B69H         LINE#         102
  C:4B6BH         LINE#         104
  C:4B6BH         LINE#         105
  C:4B6BH         LINE#         106
  C:4B6BH         LINE#         107
  C:4B6EH         LINE#         108
  C:4B72H         LINE#         111
  C:4B91H         LINE#         113
  C:4B98H         LINE#         114
  C:4B98H         LINE#         115
  C:4B9AH         LINE#         116
  C:4B9DH         LINE#         117
  C:4BB9H         LINE#         118
  C:4BB9H         LINE#         119
  C:4BBBH         LINE#         120
  C:4BBDH         LINE#         122
  C:4BBDH         LINE#         123
  C:4BBFH         LINE#         125
  C:4BBFH         LINE#         126
  C:4BBFH         LINE#         127
  C:4BBFH         LINE#         128
  C:4BC2H         LINE#         129
  C:4BDBH         LINE#         131
  C:4BFAH         LINE#         133
  C:4C01H         LINE#         134
  C:4C01H         LINE#         135
  C:4C03H         LINE#         136
  C:4C06H         LINE#         137
  C:4C0DH         LINE#         138
  C:4C0DH         LINE#         139
  C:4C0FH         LINE#         140
  C:4C11H         LINE#         142
  C:4C11H         LINE#         143
  C:4C13H         LINE#         145
  C:4C13H         LINE#         146
  C:4C13H         LINE#         147
  C:4C13H         LINE#         148
  C:4C16H         LINE#         149
  C:4C1DH         LINE#         151
  C:4C3CH         LINE#         153
  C:4C3EH         LINE#         154
  C:4C41H         LINE#         155
  C:4C48H         LINE#         157
  -------         ENDPROC       _AT25SF041_WRITE
  -------         PROC          _AT25SF041_READ
  D:0003H         SYMBOL        opcode
  X:063CH         SYMBOL        addr
  -------         DO            
  X:0640H         SYMBOL        dat
  X:0641H         SYMBOL        i
BL51 BANKED LINKER/LOCATER V6.22                                                      05/31/2019  12:29:07  PAGE 47


  -------         ENDDO         
  C:4A37H         LINE#         159
  C:4A39H         LINE#         160
  C:4A39H         LINE#         161
  C:4A3EH         LINE#         163
  C:4A40H         LINE#         164
  C:4A46H         LINE#         168
  C:4A4BH         LINE#         169
  C:4A4BH         LINE#         170
  C:4A4DH         LINE#         171
  C:4A50H         LINE#         172
  C:4A54H         LINE#         173
  C:4A54H         LINE#         174
  C:4A56H         LINE#         175
  C:4A58H         LINE#         177
  C:4A58H         LINE#         178
  C:4A5AH         LINE#         180
  C:4A5AH         LINE#         181
  C:4A5AH         LINE#         182
  C:4A5AH         LINE#         183
  C:4A5DH         LINE#         184
  C:4A61H         LINE#         187
  C:4A80H         LINE#         189
  C:4A87H         LINE#         190
  C:4A87H         LINE#         191
  C:4A89H         LINE#         192
  C:4A8CH         LINE#         193
  C:4AA8H         LINE#         194
  C:4AA8H         LINE#         195
  C:4AAAH         LINE#         196
  C:4AACH         LINE#         198
  C:4AACH         LINE#         199
  C:4AAEH         LINE#         201
  C:4AAEH         LINE#         202
  C:4AAEH         LINE#         203
  C:4AAEH         LINE#         204
  C:4AB1H         LINE#         205
  C:4ACAH         LINE#         207
  C:4AE9H         LINE#         210
  C:4AF0H         LINE#         212
  C:4AF2H         LINE#         213
  C:4AF9H         LINE#         215
  C:4B00H         LINE#         216
  C:4B00H         LINE#         217
  C:4B07H         LINE#         218
  C:4B07H         LINE#         219
  C:4B0AH         LINE#         220
  C:4B0CH         LINE#         221
  C:4B0FH         LINE#         223
  C:4B12H         LINE#         224
  C:4B12H         LINE#         226
  C:4B16H         LINE#         227
  C:4B16H         LINE#         233
  C:4B35H         LINE#         236
  C:4B37H         LINE#         237
  C:4B3AH         LINE#         238
  C:4B41H         LINE#         240
BL51 BANKED LINKER/LOCATER V6.22                                                      05/31/2019  12:29:07  PAGE 48


  C:4B46H         LINE#         242
  -------         ENDPROC       _AT25SF041_READ
  -------         PROC          UCREAD_STATUS_REGISTER_BYTE1
  -------         DO            
  D:0003H         SYMBOL        dat
  D:0001H         SYMBOL        opcode
  X:0400H         SYMBOL        count
  X:0401H         SYMBOL        i
  -------         ENDDO         
  C:50F0H         LINE#         246
  C:50F0H         LINE#         247
  C:50F0H         LINE#         248
  C:50F6H         LINE#         249
  C:50FAH         LINE#         250
  C:50FCH         LINE#         251
  C:50FEH         LINE#         252
  C:5104H         LINE#         256
  C:510BH         LINE#         257
  C:510BH         LINE#         258
  C:510DH         LINE#         259
  C:5110H         LINE#         260
  C:5114H         LINE#         261
  C:5114H         LINE#         262
  C:5116H         LINE#         263
  C:5118H         LINE#         265
  C:5118H         LINE#         266
  C:511AH         LINE#         268
  C:511AH         LINE#         269
  C:511AH         LINE#         270
  C:511AH         LINE#         271
  C:511DH         LINE#         272
  C:5121H         LINE#         275
  C:5140H         LINE#         279
  C:5147H         LINE#         281
  C:5149H         LINE#         282
  C:5150H         LINE#         283
  C:5157H         LINE#         284
  C:5157H         LINE#         285
  C:515BH         LINE#         286
  C:515BH         LINE#         287
  C:515EH         LINE#         288
  C:5160H         LINE#         289
  C:5163H         LINE#         291
  C:5166H         LINE#         292
  C:5166H         LINE#         294
  C:516AH         LINE#         295
  C:516AH         LINE#         297
  C:5189H         LINE#         301
  C:518BH         LINE#         302
  C:518EH         LINE#         303
  C:5190H         LINE#         304
  -------         ENDPROC       UCREAD_STATUS_REGISTER_BYTE1
  -------         PROC          SPI_NOR_WRITE_DATA
  X:062DH         SYMBOL        dat
  X:0638H         SYMBOL        addr
  C:4220H         LINE#         306
  C:4220H         LINE#         307
BL51 BANKED LINKER/LOCATER V6.22                                                      05/31/2019  12:29:07  PAGE 49


  C:4220H         LINE#         309
  C:4223H         LINE#         311
  C:423DH         LINE#         312
  C:425BH         LINE#         314
  C:4262H         LINE#         315
  C:4265H         LINE#         317
  C:427FH         LINE#         318
  C:427FH         LINE#         319
  C:427FH         LINE#         322
  C:4282H         LINE#         324
  C:429CH         LINE#         325
  C:429CH         LINE#         326
  C:429CH         LINE#         328
  C:429FH         LINE#         330
  C:42B9H         LINE#         331
  C:42B9H         LINE#         332
  C:42B9H         LINE#         334
  C:42BCH         LINE#         336
  C:42D6H         LINE#         337
  C:42D6H         LINE#         338
  C:42D6H         LINE#         340
  C:42D9H         LINE#         342
  C:42F3H         LINE#         343
  C:42F3H         LINE#         344
  C:42F3H         LINE#         346
  C:42F6H         LINE#         348
  C:4310H         LINE#         349
  C:4310H         LINE#         350
  C:4310H         LINE#         352
  C:4313H         LINE#         354
  C:432DH         LINE#         355
  C:432DH         LINE#         356
  C:432DH         LINE#         358
  C:4330H         LINE#         360
  C:434AH         LINE#         361
  C:434AH         LINE#         362
  C:434AH         LINE#         364
  C:434DH         LINE#         366
  C:4367H         LINE#         367
  C:4367H         LINE#         368
  C:4367H         LINE#         370
  C:436AH         LINE#         372
  C:4384H         LINE#         373
  C:438BH         LINE#         374
  -------         ENDPROC       SPI_NOR_WRITE_DATA
  -------         ENDMOD        AT25SF041

  -------         MODULE        SI1120
  C:0000H         SYMBOL        _ICE_DUMMY_
  D:0080H         PUBLIC        P0
  D:00B2H         PUBLIC        P3M0
  D:0090H         PUBLIC        P1
  D:00B1H         PUBLIC        P3M1
  D:00A0H         PUBLIC        P2
  D:00B0H         PUBLIC        P3
  D:00C0H         PUBLIC        P4
  D:00C8H         PUBLIC        P5
BL51 BANKED LINKER/LOCATER V6.22                                                      05/31/2019  12:29:07  PAGE 50


  B:00A8H.7       PUBLIC        EA
  D:00E8H         PUBLIC        P6
  D:00F8H         PUBLIC        P7
  D:00A8H         PUBLIC        IE
  D:00B8H         PUBLIC        IP
  C:5896H         PUBLIC        SI1120_CONFIG_MODE_VIRH
  D:00D8H         PUBLIC        CCON
  D:0098H         PUBLIC        SCON
  D:0088H         PUBLIC        TCON
  C:5C64H         PUBLIC        Enable_EXTINT0
  B:0090H.5       PUBLIC        SI1120_STX
  B:0088H.0       PUBLIC        IT0
  B:00A8H.0       PUBLIC        EX0
  B:0090H.4       PUBLIC        SI1120_MD
  B:0090H.6       PUBLIC        SI1120_SC
  D:00D0H         PUBLIC        PSW
  -------         PROC          SI1120_CONFIG_MODE_VIRH
  C:5896H         LINE#         4
  C:5896H         LINE#         5
  C:5896H         LINE#         6
  C:5898H         LINE#         7
  C:589AH         LINE#         8
  C:589CH         LINE#         10
  C:58A3H         LINE#         11
  C:58A5H         LINE#         13
  C:58A7H         LINE#         14
  C:58A9H         LINE#         16
  C:58B0H         LINE#         18
  C:58B2H         LINE#         20
  C:58B9H         LINE#         23
  C:58BBH         LINE#         25
  C:58BDH         LINE#         27
  C:58C4H         LINE#         29
  C:58C6H         LINE#         31
  -------         ENDPROC       SI1120_CONFIG_MODE_VIRH
  -------         PROC          ENABLE_EXTINT0
  C:5C64H         LINE#         33
  C:5C64H         LINE#         34
  C:5C64H         LINE#         35
  C:5C67H         LINE#         36
  C:5C6AH         LINE#         37
  C:5C6CH         LINE#         38
  C:5C6EH         LINE#         39
  C:5C70H         LINE#         40
  -------         ENDPROC       ENABLE_EXTINT0
  -------         ENDMOD        SI1120

  -------         MODULE        UART1
  C:0000H         SYMBOL        _ICE_DUMMY_
  D:0080H         PUBLIC        P0
  D:0090H         PUBLIC        P1
  D:00A0H         PUBLIC        P2
  D:00B0H         PUBLIC        P3
  D:00C0H         PUBLIC        P4
  D:00C8H         PUBLIC        P5
  C:5A06H         PUBLIC        _uart1_SendToTCPServer
  B:00A8H.7       PUBLIC        EA
BL51 BANKED LINKER/LOCATER V6.22                                                      05/31/2019  12:29:07  PAGE 51


  D:00E8H         PUBLIC        P6
  D:00F8H         PUBLIC        P7
  C:5863H         PUBLIC        _SendString
  D:00A8H         PUBLIC        IE
  B:00A8H.4       PUBLIC        ES
  D:00B8H         PUBLIC        IP
  C:5B4FH         PUBLIC        _ASCIItoBCD
  D:00D8H         PUBLIC        CCON
  C:5C19H         PUBLIC        initUART1
  D:0098H         PUBLIC        SCON
  D:0088H         PUBLIC        TCON
  C:5CB9H         PUBLIC        _DectoBCD
  C:001EH         PUBLIC        _ASCII_Letter
  D:008EH         PUBLIC        AUXR
  C:0006H         PUBLIC        _unit
  C:5CB2H         PUBLIC        _ten
  D:00D6H         PUBLIC        T2H
  D:00D7H         PUBLIC        T2L
  C:5CA3H         PUBLIC        uart1_InitTCPConn
  D:00D0H         PUBLIC        PSW
  -------         PROC          INITUART1
  C:5C19H         LINE#         24
  C:5C19H         LINE#         25
  C:5C19H         LINE#         26
  C:5C1CH         LINE#         27
  C:5C1FH         LINE#         28
  C:5C22H         LINE#         29
  C:5C25H         LINE#         30
  C:5C27H         LINE#         31
  C:5C29H         LINE#         33
  -------         ENDPROC       INITUART1
  -------         PROC          _SENDSTRING
  X:04DDH         SYMBOL        s
  C:5863H         LINE#         36
  C:586EH         LINE#         37
  C:586EH         LINE#         38
  C:587EH         LINE#         39
  C:587EH         LINE#         40
  C:5893H         LINE#         41
  C:5895H         LINE#         42
  -------         ENDPROC       _SENDSTRING
  -------         PROC          _TEN
  D:0007H         SYMBOL        BCD
  C:5CB2H         LINE#         44
  C:5CB2H         LINE#         45
  C:5CB2H         LINE#         46
  C:5CB7H         LINE#         47
  -------         ENDPROC       _TEN
  -------         PROC          _UNIT
  D:0007H         SYMBOL        BCD
  C:0006H         LINE#         48
  C:0006H         LINE#         49
  C:0006H         LINE#         53
  C:000AH         LINE#         54
  -------         ENDPROC       _UNIT
  -------         PROC          _DECTOBCD
  D:0007H         SYMBOL        dec
BL51 BANKED LINKER/LOCATER V6.22                                                      05/31/2019  12:29:07  PAGE 52


  C:5CB9H         LINE#         55
  C:5CB9H         LINE#         56
  C:5CB9H         LINE#         58
  C:5CB9H         LINE#         59
  -------         ENDPROC       _DECTOBCD
  -------         PROC          _ASCII_LETTER
  D:0007H         SYMBOL        dat
  C:001EH         LINE#         61
  C:001EH         LINE#         62
  C:001EH         LINE#         64
  C:0022H         LINE#         65
  -------         ENDPROC       _ASCII_LETTER
  -------         PROC          _ASCIITOBCD
  D:0001H         SYMBOL        ascii
  -------         DO            
  D:0007H         SYMBOL        dec_val
  D:0006H         SYMBOL        ten
  D:0007H         SYMBOL        unit
  -------         ENDDO         
  C:5B4FH         LINE#         67
  C:5B4FH         LINE#         68
  C:5B4FH         LINE#         70
  C:5B52H         LINE#         71
  C:5B58H         LINE#         72
  C:5B5FH         LINE#         73
  C:5B65H         LINE#         75
  -------         ENDPROC       _ASCIITOBCD
  -------         PROC          UART1_INITTCPCONN
  C:5CA3H         LINE#         77
  C:5CA3H         LINE#         78
  C:5CA3H         LINE#         82
  -------         ENDPROC       UART1_INITTCPCONN
  -------         PROC          _UART1_SENDTOTCPSERVER
  X:03F8H         SYMBOL        str
  C:5A06H         LINE#         85
  C:5A11H         LINE#         86
  C:5A11H         LINE#         87
  C:5A1AH         LINE#         88
  C:5A21H         LINE#         89
  -------         ENDPROC       _UART1_SENDTOTCPSERVER
  -------         ENDMOD        UART1

  -------         MODULE        ?C_STARTUP
  C:5364H         SEGMENT       ?C_C51STARTUP
  I:0022H         SEGMENT       ?STACK
  C:0000H         PUBLIC        ?C_STARTUP
  D:00E0H         SYMBOL        ACC
  D:00F0H         SYMBOL        B
  D:0083H         SYMBOL        DPH
  D:0082H         SYMBOL        DPL
  N:0000H         SYMBOL        IBPSTACK
  N:0100H         SYMBOL        IBPSTACKTOP
  N:0080H         SYMBOL        IDATALEN
  C:5367H         SYMBOL        IDATALOOP
  N:0000H         SYMBOL        PBPSTACK
  N:0100H         SYMBOL        PBPSTACKTOP
  N:0000H         SYMBOL        PDATALEN
BL51 BANKED LINKER/LOCATER V6.22                                                      05/31/2019  12:29:07  PAGE 53


  N:0000H         SYMBOL        PDATASTART
  N:0000H         SYMBOL        PPAGE
  N:0000H         SYMBOL        PPAGEENABLE
  D:00A0H         SYMBOL        PPAGE_SFR
  D:0081H         SYMBOL        SP
  C:5364H         SYMBOL        STARTUP1
  N:0000H         SYMBOL        XBPSTACK
  N:0000H         SYMBOL        XBPSTACKTOP
  N:0000H         SYMBOL        XDATALEN
  N:0000H         SYMBOL        XDATASTART
  C:0000H         LINE#         126
  C:5364H         LINE#         133
  C:5366H         LINE#         134
  C:5367H         LINE#         135
  C:5368H         LINE#         136
  C:536AH         LINE#         185
  C:536DH         LINE#         196
  -------         ENDMOD        ?C_STARTUP

  -------         MODULE        ?C?FPADD
  C:002DH         PUBLIC        ?C?FPADD
  C:0029H         PUBLIC        ?C?FPSUB
  -------         ENDMOD        ?C?FPADD

  -------         MODULE        ?C?FPMUL
  C:011EH         PUBLIC        ?C?FPMUL
  -------         ENDMOD        ?C?FPMUL

  -------         MODULE        ?C?FPDIV
  C:0227H         PUBLIC        ?C?FPDIV
  -------         ENDMOD        ?C?FPDIV

  -------         MODULE        ?C?FPCMP
  C:02C6H         PUBLIC        ?C?FPCMP
  C:02C4H         PUBLIC        ?C?FPCMP3
  -------         ENDMOD        ?C?FPCMP

  -------         MODULE        ?C?FPNEG
  C:033DH         PUBLIC        ?C?FPNEG
  -------         ENDMOD        ?C?FPNEG

  -------         MODULE        ?C?FCAST
  C:0358H         PUBLIC        ?C?FCASTC
  C:0353H         PUBLIC        ?C?FCASTI
  C:034EH         PUBLIC        ?C?FCASTL
  -------         ENDMOD        ?C?FCAST

  -------         MODULE        ?C?CASTF
  C:038CH         PUBLIC        ?C?CASTF
  -------         ENDMOD        ?C?CASTF

  -------         MODULE        PRINTF
  X:04DDH         PUBLIC        ?_PRINTF?BYTE
  X:04DDH         PUBLIC        ?_SPRINTF?BYTE
  C:2F9AH         PUBLIC        _PRINTF
  C:2F94H         PUBLIC        _SPRINTF
  -------         ENDMOD        PRINTF
BL51 BANKED LINKER/LOCATER V6.22                                                      05/31/2019  12:29:07  PAGE 54



  -------         MODULE        ATAN2
  X:049FH         PUBLIC        ?_atan2?BYTE
  C:5191H         PUBLIC        _atan2
  -------         ENDMOD        ATAN2

  -------         MODULE        SIN
  C:43F1H         PUBLIC        _COS
  C:4407H         PUBLIC        _SIN
  C:4443H         PUBLIC        _TAN
  -------         ENDMOD        SIN

  -------         MODULE        ACOS
  C:571AH         PUBLIC        _ACOS
  -------         ENDMOD        ACOS

  -------         MODULE        ASIN
  C:5828H         PUBLIC        _ASIN
  -------         ENDMOD        ASIN

  -------         MODULE        POW
  X:03BCH         PUBLIC        ?_pow?BYTE
  C:4531H         PUBLIC        _pow
  -------         ENDMOD        POW

  -------         MODULE        ?C?CHKFLOAT
  C:040DH         PUBLIC        ?C?CHKFLOAT
  -------         ENDMOD        ?C?CHKFLOAT

  -------         MODULE        ?C?FPROUND
  C:0427H         PUBLIC        ?C?FPROUND
  -------         ENDMOD        ?C?FPROUND

  -------         MODULE        ?C?FPCONVERT
  C:0464H         PUBLIC        ?C?FPCONVERT
  -------         ENDMOD        ?C?FPCONVERT

  -------         MODULE        EXP
  C:5302H         PUBLIC        _EXP
  -------         ENDMOD        EXP

  -------         MODULE        LOG
  C:4820H         PUBLIC        _LOG
  C:481CH         PUBLIC        _LOG10
  -------         ENDMOD        LOG

  -------         MODULE        SQRT
  C:5048H         PUBLIC        _SQRT
  -------         ENDMOD        SQRT

  -------         MODULE        ATAN
  C:4935H         PUBLIC        _ATAN
  -------         ENDMOD        ATAN

  -------         MODULE        ?C?FTNPWR
  C:05E6H         PUBLIC        ?C?FTNPWR
  -------         ENDMOD        ?C?FTNPWR
BL51 BANKED LINKER/LOCATER V6.22                                                      05/31/2019  12:29:07  PAGE 55



  -------         MODULE        ?C?COPY
  C:06F6H         PUBLIC        ?C?COPY
  -------         ENDMOD        ?C?COPY

  -------         MODULE        ?C?CLDPTR
  C:071CH         PUBLIC        ?C?CLDPTR
  -------         ENDMOD        ?C?CLDPTR

  -------         MODULE        ?C?CLDOPTR
  C:0735H         PUBLIC        ?C?CLDOPTR
  -------         ENDMOD        ?C?CLDOPTR

  -------         MODULE        ?C?CSTPTR
  C:0762H         PUBLIC        ?C?CSTPTR
  -------         ENDMOD        ?C?CSTPTR

  -------         MODULE        ?C?IMUL
  C:0774H         PUBLIC        ?C?IMUL
  -------         ENDMOD        ?C?IMUL

  -------         MODULE        ?C?UIDIV
  C:0786H         PUBLIC        ?C?UIDIV
  -------         ENDMOD        ?C?UIDIV

  -------         MODULE        ?C?SIDIV
  C:07DBH         PUBLIC        ?C?SIDIV
  -------         ENDMOD        ?C?SIDIV

  -------         MODULE        ?C?ILDIX
  C:0811H         PUBLIC        ?C?ILDIX
  -------         ENDMOD        ?C?ILDIX

  -------         MODULE        ?C?ILDOPTR
  C:0827H         PUBLIC        ?C?ILDOPTR
  -------         ENDMOD        ?C?ILDOPTR

  -------         MODULE        ?C?ISTPTR
  C:085FH         PUBLIC        ?C?ISTPTR
  -------         ENDMOD        ?C?ISTPTR

  -------         MODULE        ?C?LMUL
  C:087EH         PUBLIC        ?C?LMUL
  -------         ENDMOD        ?C?LMUL

  -------         MODULE        ?C?SLDIV
  C:5764H         PUBLIC        ?C?SLDIV
  -------         ENDMOD        ?C?SLDIV

  -------         MODULE        ?C?LNEG
  C:08CDH         PUBLIC        ?C?LNEG
  -------         ENDMOD        ?C?LNEG

  -------         MODULE        ?C?ULCMP
  C:08DBH         PUBLIC        ?C?ULCMP
  -------         ENDMOD        ?C?ULCMP

BL51 BANKED LINKER/LOCATER V6.22                                                      05/31/2019  12:29:07  PAGE 56


  -------         MODULE        ?C?LSHL
  C:08ECH         PUBLIC        ?C?LSHL
  -------         ENDMOD        ?C?LSHL

  -------         MODULE        ?C?LLDPTR
  C:08FFH         PUBLIC        ?C?LLDPTR
  -------         ENDMOD        ?C?LLDPTR

  -------         MODULE        ?C?LLDOPTR
  C:091FH         PUBLIC        ?C?LLDOPTR
  -------         ENDMOD        ?C?LLDOPTR

  -------         MODULE        ?C?LSTPTR
  C:094FH         PUBLIC        ?C?LSTPTR
  -------         ENDMOD        ?C?LSTPTR

  -------         MODULE        ?C?LSTOPTR
  C:0969H         PUBLIC        ?C?LSTOPTR
  -------         ENDMOD        ?C?LSTOPTR

  -------         MODULE        ?C?LLDXDATA
  C:098DH         PUBLIC        ?C?LLDXDATA
  -------         ENDMOD        ?C?LLDXDATA

  -------         MODULE        ?C?LLDCODE
  C:0999H         PUBLIC        ?C?LLDCODE
  -------         ENDMOD        ?C?LLDCODE

  -------         MODULE        ?C?LLDXDATA0
  C:09A9H         PUBLIC        ?C?LLDXDATA0
  -------         ENDMOD        ?C?LLDXDATA0

  -------         MODULE        ?C?LLDCODE0
  C:09B5H         PUBLIC        ?C?LLDCODE0
  -------         ENDMOD        ?C?LLDCODE0

  -------         MODULE        ?C?LLDPTR0
  C:09C5H         PUBLIC        ?C?LLDPTR0
  -------         ENDMOD        ?C?LLDPTR0

  -------         MODULE        ?C?LSTXDATA
  C:09E5H         PUBLIC        ?C?LSTXDATA
  -------         ENDMOD        ?C?LSTXDATA

  -------         MODULE        ?C?LSTKXDATA
  C:09F1H         PUBLIC        ?C?LSTKXDATA
  -------         ENDMOD        ?C?LSTKXDATA

  -------         MODULE        ?C?LSTKPTR
  C:0A22H         PUBLIC        ?C?LSTKPTR
  -------         ENDMOD        ?C?LSTKPTR

  -------         MODULE        ?C?OFFXADD
  C:0A3CH         PUBLIC        ?C?OFFXADD
  -------         ENDMOD        ?C?OFFXADD

  -------         MODULE        ?C?PLDIXDATA
BL51 BANKED LINKER/LOCATER V6.22                                                      05/31/2019  12:29:07  PAGE 57


  C:0A48H         PUBLIC        ?C?PLDIXDATA
  -------         ENDMOD        ?C?PLDIXDATA

  -------         MODULE        ?C?PSTXDATA
  C:0A5FH         PUBLIC        ?C?PSTXDATA
  -------         ENDMOD        ?C?PSTXDATA

  -------         MODULE        ?C?CCASE
  C:0A68H         PUBLIC        ?C?CCASE
  -------         ENDMOD        ?C?CCASE

  -------         MODULE        PUTCHAR
  C:5996H         PUBLIC        _PUTCHAR
  -------         ENDMOD        PUTCHAR

  -------         MODULE        ATOI
  C:4D3EH         PUBLIC        _atoi
  -------         ENDMOD        ATOI

  -------         MODULE        ?C?IILDX
  C:0A8EH         PUBLIC        ?C?IILDX
  -------         ENDMOD        ?C?IILDX

  -------         MODULE        ?C?ULDIV
  C:0AE0H         PUBLIC        ?C?ULDIV
  -------         ENDMOD        ?C?ULDIV

  -------         MODULE        ?C?LLDIDATA
  C:0B72H         PUBLIC        ?C?LLDIDATA
  -------         ENDMOD        ?C?LLDIDATA

  -------         MODULE        ?C?LLDPDATA
  C:0B7EH         PUBLIC        ?C?LLDPDATA
  -------         ENDMOD        ?C?LLDPDATA

  -------         MODULE        ?C?LLDIDATA0
  C:0B8AH         PUBLIC        ?C?LLDIDATA0
  -------         ENDMOD        ?C?LLDIDATA0

  -------         MODULE        ?C?LLDPDATA0
  C:0B97H         PUBLIC        ?C?LLDPDATA0
  -------         ENDMOD        ?C?LLDPDATA0

  -------         MODULE        ?C?LSTIDATA
  C:0BA4H         PUBLIC        ?C?LSTIDATA
  -------         ENDMOD        ?C?LSTIDATA

  -------         MODULE        ?C?LSTPDATA
  C:0BB0H         PUBLIC        ?C?LSTPDATA
  -------         ENDMOD        ?C?LSTPDATA

  -------         MODULE        ?C?LSTKIDATA
  C:0BBCH         PUBLIC        ?C?LSTKIDATA
  -------         ENDMOD        ?C?LSTKIDATA

  -------         MODULE        ?C?LSTKPDATA
  C:0BD5H         PUBLIC        ?C?LSTKPDATA
BL51 BANKED LINKER/LOCATER V6.22                                                      05/31/2019  12:29:07  PAGE 58


  -------         ENDMOD        ?C?LSTKPDATA

  -------         MODULE        ISDIGIT
  C:5C48H         PUBLIC        _isdigit
  -------         ENDMOD        ISDIGIT

  -------         MODULE        ISSPACE
  C:5BE3H         PUBLIC        _isspace
  -------         ENDMOD        ISSPACE

*** WARNING L16: UNCALLED SEGMENT, IGNORED FOR OVERLAY PROCESS
    SEGMENT: ?PR?_DAY_OF_YEAR?PCF85063BTL

*** WARNING L16: UNCALLED SEGMENT, IGNORED FOR OVERLAY PROCESS
    SEGMENT: ?PR?NOP?IOEXPANDER_PI4IOE5V96248

*** WARNING L16: UNCALLED SEGMENT, IGNORED FOR OVERLAY PROCESS
    SEGMENT: ?PR?UC_ACK?IOEXPANDER_PI4IOE5V96248

*** WARNING L16: UNCALLED SEGMENT, IGNORED FOR OVERLAY PROCESS
    SEGMENT: ?PR?UC_NACK?IOEXPANDER_PI4IOE5V96248

*** WARNING L16: UNCALLED SEGMENT, IGNORED FOR OVERLAY PROCESS
    SEGMENT: ?PR?_AT25SF041_READ?AT25SF041

*** WARNING L16: UNCALLED SEGMENT, IGNORED FOR OVERLAY PROCESS
    SEGMENT: ?PR?SPI_NOR_WRITE_DATA?AT25SF041

*** WARNING L16: UNCALLED SEGMENT, IGNORED FOR OVERLAY PROCESS
    SEGMENT: ?PR?_TEN?UART1

*** WARNING L16: UNCALLED SEGMENT, IGNORED FOR OVERLAY PROCESS
    SEGMENT: ?PR?_UNIT?UART1

*** WARNING L16: UNCALLED SEGMENT, IGNORED FOR OVERLAY PROCESS
    SEGMENT: ?PR?_DECTOBCD?UART1

*** WARNING L16: UNCALLED SEGMENT, IGNORED FOR OVERLAY PROCESS
    SEGMENT: ?PR?_ASCII_LETTER?UART1

*** WARNING L16: UNCALLED SEGMENT, IGNORED FOR OVERLAY PROCESS
    SEGMENT: ?PR?_ASCIITOBCD?UART1

Program Size: data=15.4 xdata=1610 code=23738
LINK/LOCATE RUN COMPLETE.  11 WARNING(S),  0 ERROR(S)
