BL51 BANKED LINKER/LOCATER V6.22                                                        08/23/2018  10:26:33  PAGE 1


BL51 BANKED LINKER/LOCATER V6.22, INVOKED BY:
C:\KEIL\C51\BIN\BL51.EXE .\Obj\main.obj, .\Obj\PCF85063BTL.obj, .\Obj\UART1.obj, .\Obj\LCd_Driver_SPLC780D.obj, .\Obj\Ke
>> yPad.obj, .\Obj\VCNL4035.obj, .\Obj\BipolarMotor.obj, .\Obj\SunPos.obj, .\Obj\STARTUP.obj TO .\Obj\GPIO_RTC_Test PRIN
>> T (.\Lis\GPIO_RTC_Test.m51) RAMSIZE (256)


MEMORY MODEL: LARGE WITH FLOATING POINT ARITHMETIC


INPUT MODULES INCLUDED:
  .\Obj\main.obj (MAIN)
  .\Obj\PCF85063BTL.obj (PCF85063BTL)
  .\Obj\UART1.obj (UART1)
  .\Obj\LCd_Driver_SPLC780D.obj (LCD_DRIVER_SPLC780D)
  .\Obj\KeyPad.obj (KEYPAD)
  .\Obj\VCNL4035.obj (VCNL4035)
  .\Obj\BipolarMotor.obj (BIPOLARMOTOR)
  .\Obj\SunPos.obj (SUNPOS)
  .\Obj\STARTUP.obj (?C_STARTUP)
  C:\KEIL\C51\LIB\C51FPL.LIB (?C?FPADD)
  C:\KEIL\C51\LIB\C51FPL.LIB (?C?FPMUL)
  C:\KEIL\C51\LIB\C51FPL.LIB (?C?FPDIV)
  C:\KEIL\C51\LIB\C51FPL.LIB (?C?FPCMP)
  C:\KEIL\C51\LIB\C51FPL.LIB (?C?FPNEG)
  C:\KEIL\C51\LIB\C51FPL.LIB (?C?FCAST)
  C:\KEIL\C51\LIB\C51FPL.LIB (?C?CASTF)
  C:\KEIL\C51\LIB\C51FPL.LIB (ATAN2)
  C:\KEIL\C51\LIB\C51FPL.LIB (SIN)
  C:\KEIL\C51\LIB\C51FPL.LIB (ACOS)
  C:\KEIL\C51\LIB\C51FPL.LIB (ASIN)
  C:\KEIL\C51\LIB\C51FPL.LIB (POW)
  C:\KEIL\C51\LIB\C51FPL.LIB (?C?FPGETOPN)
  C:\KEIL\C51\LIB\C51FPL.LIB (?C?CHKFLOAT)
  C:\KEIL\C51\LIB\C51FPL.LIB (?C?FPSERIES)
  C:\KEIL\C51\LIB\C51FPL.LIB (EXP)
  C:\KEIL\C51\LIB\C51FPL.LIB (LOG)
  C:\KEIL\C51\LIB\C51FPL.LIB (SQRT)
  C:\KEIL\C51\LIB\C51FPL.LIB (ATAN)
  C:\KEIL\C51\LIB\C51L.LIB (?C_INIT)
  C:\KEIL\C51\LIB\C51L.LIB (?C?COPY)
  C:\KEIL\C51\LIB\C51L.LIB (?C?CLDPTR)
  C:\KEIL\C51\LIB\C51L.LIB (?C?CSTPTR)
  C:\KEIL\C51\LIB\C51L.LIB (?C?IMUL)
  C:\KEIL\C51\LIB\C51L.LIB (?C?UIDIV)
  C:\KEIL\C51\LIB\C51L.LIB (?C?SIDIV)
  C:\KEIL\C51\LIB\C51L.LIB (?C?ILDIX)
  C:\KEIL\C51\LIB\C51L.LIB (?C?LMUL)
  C:\KEIL\C51\LIB\C51L.LIB (?C?SLDIV)
  C:\KEIL\C51\LIB\C51L.LIB (?C?LNEG)
  C:\KEIL\C51\LIB\C51L.LIB (?C?LLDPTR)
  C:\KEIL\C51\LIB\C51L.LIB (?C?LLDOPTR)
  C:\KEIL\C51\LIB\C51L.LIB (?C?LSTPTR)
  C:\KEIL\C51\LIB\C51L.LIB (?C?LSTOPTR)
  C:\KEIL\C51\LIB\C51L.LIB (?C?LLDXDATA)
  C:\KEIL\C51\LIB\C51L.LIB (?C?LLDCODE)
  C:\KEIL\C51\LIB\C51L.LIB (?C?LLDXDATA0)
  C:\KEIL\C51\LIB\C51L.LIB (?C?LLDCODE0)
  C:\KEIL\C51\LIB\C51L.LIB (?C?LLDPTR0)
BL51 BANKED LINKER/LOCATER V6.22                                                      08/23/2018  10:26:33  PAGE 2


  C:\KEIL\C51\LIB\C51L.LIB (?C?LSTXDATA)
  C:\KEIL\C51\LIB\C51L.LIB (?C?LSTKXDATA)
  C:\KEIL\C51\LIB\C51L.LIB (?C?OFFXADD)
  C:\KEIL\C51\LIB\C51L.LIB (ABS)
  C:\KEIL\C51\LIB\C51L.LIB (ATOI)
  C:\KEIL\C51\LIB\C51L.LIB (?C?IILDX)
  C:\KEIL\C51\LIB\C51L.LIB (?C?ULDIV)
  C:\KEIL\C51\LIB\C51L.LIB (?C?LLDIDATA)
  C:\KEIL\C51\LIB\C51L.LIB (?C?LLDPDATA)
  C:\KEIL\C51\LIB\C51L.LIB (?C?LLDIDATA0)
  C:\KEIL\C51\LIB\C51L.LIB (?C?LLDPDATA0)
  C:\KEIL\C51\LIB\C51L.LIB (?C?LSTIDATA)
  C:\KEIL\C51\LIB\C51L.LIB (?C?LSTPDATA)
  C:\KEIL\C51\LIB\C51L.LIB (ISDIGIT)
  C:\KEIL\C51\LIB\C51L.LIB (ISSPACE)


LINK MAP OF MODULE:  .\Obj\GPIO_RTC_Test (MAIN)


            TYPE    BASE      LENGTH    RELOCATION   SEGMENT NAME
            -----------------------------------------------------

            * * * * * * *   D A T A   M E M O R Y   * * * * * * *
            REG     0000H     0008H     ABSOLUTE     "REG BANK 0"
            REG     0008H     0008H     ABSOLUTE     "REG BANK 1"
                    0010H     0010H                  *** GAP ***
            BIT     0020H.0   0000H.4   UNIT         ?BI?KEYPAD
            BIT     0020H.4   0000H.3   UNIT         _BIT_GROUP_
            BIT     0020H.7   0000H.1   UNIT         ?BI?MAIN
            IDATA   0021H     0001H     UNIT         ?STACK

            * * * * * * *  X D A T A   M E M O R Y  * * * * * * *
            XDATA   0000H     03C8H     UNIT         ?XD?BIPOLARMOTOR
            XDATA   03C8H     0130H     UNIT         _XDATA_GROUP_
            XDATA   04F8H     0040H     UNIT         ?XD?_FINDDET4X4?BIPOLARMOTOR
            XDATA   0538H     001CH     UNIT         ?XD?MAIN
            XDATA   0554H     0014H     UNIT         ?XD?LINEAR_INTERPOLATE?BIPOLARMOTOR
            XDATA   0568H     0009H     UNIT         ?XD?KEYPAD
            XDATA   0571H     0008H     UNIT         ?XD?_READ_VCNL4035?VCNL4035
            XDATA   0579H     0004H     UNIT         ?XD?_DISPLAY_PROX?MAIN
            XDATA   057DH     0003H     UNIT         ?XD?_SENDSTRING?UART1
            XDATA   0580H     0001H     UNIT         ?XD?UC_ACK?VCNL4035
            XDATA   0581H     0001H     UNIT         ?XD?UC_NACK?VCNL4035
            XDATA   0582H     0001H     UNIT         ?XD?_DISPLAYLCD_VCNL4035?VCNL4035

            * * * * * * *   C O D E   M E M O R Y   * * * * * * *
            CODE    0000H     0003H     ABSOLUTE     
            CODE    0003H     0006H     UNIT         ?PR?_TEN?UART1
            CODE    0009H     0001H     UNIT         ?PR?TM0_ISR?MAIN
            CODE    000AH     0001H     UNIT         ?PR?_DECTOBCD?UART1
            CODE    000BH     0003H     ABSOLUTE     
            CODE    000EH     0015H     UNIT         ?PR?_DISPLAY_LINE?LCD_DRIVER_SPLC780D
            CODE    0023H     0003H     ABSOLUTE     
            CODE    0026H     08DCH     UNIT         ?C?LIB_CODE
            CODE    0902H     08CFH     UNIT         ?PR?_UPDATE_POSITION?BIPOLARMOTOR
            CODE    11D1H     07A2H     UNIT         ?PR?SUNPOS?SUNPOS
BL51 BANKED LINKER/LOCATER V6.22                                                      08/23/2018  10:26:33  PAGE 3


            CODE    1973H     0459H     UNIT         ?PR?SECOND_ORDER_INTERPOLATE?BIPOLARMOTOR
            CODE    1DCCH     0414H     UNIT         ?C_INITSEG
            CODE    21E0H     02C0H     UNIT         ?PR?_FINDDET4X4?BIPOLARMOTOR
            CODE    24A0H     02A0H     UNIT         ?PR?KEY_PROCESS?KEYPAD
            CODE    2740H     025BH     UNIT         ?PR?MAIN?MAIN
            CODE    299BH     01D1H     UNIT         ?PR?_FINDDET3X3?BIPOLARMOTOR
            CODE    2B6CH     01B5H     UNIT         ?PR?_DISPLAY_POS?MAIN
            CODE    2D21H     018DH     UNIT         ?PR?KEY_SCAN?KEYPAD
            CODE    2EAEH     0188H     UNIT         ?PR?SIN?SIN
            CODE    3036H     0166H     UNIT         ?PR?_POW?POW
            CODE    319CH     0129H     UNIT         ?PR?LOG?LOG
            CODE    32C5H     0122H     UNIT         ?PR?ATAN?ATAN
            CODE    33E7H     00DBH     UNIT         ?PR?_ATOI?ATOI
            CODE    34C2H     00ACH     UNIT         ?PR?SQRT?SQRT
            CODE    356EH     00A0H     UNIT         ?PR?LINEAR_INTERPOLATE?BIPOLARMOTOR
            CODE    360EH     009DH     UNIT         ?PR?_ATAN2?ATAN2
            CODE    36ABH     009BH     UNIT         ?PR?UART?MAIN
            CODE    3746H     009AH     UNIT         ?PR?_READ_VCNL4035?VCNL4035
            CODE    37E0H     009AH     UNIT         ?PR?EXP?EXP
            CODE    387AH     0095H     UNIT         ?PR?_DISPLAY_PROX?MAIN
            CODE    390FH     008CH     UNIT         ?C_C51STARTUP
            CODE    399BH     0084H     UNIT         ?PR?_DAY_OF_YEAR?PCF85063BTL
            CODE    3A1FH     0075H     UNIT         ?PR?_WRITEDATA?LCD_DRIVER_SPLC780D
            CODE    3A94H     006FH     UNIT         ?PR?_READ_TIME?PCF85063BTL
            CODE    3B03H     0059H     UNIT         ?PR?LCD_INIT?LCD_DRIVER_SPLC780D
            CODE    3B5CH     0059H     UNIT         ?PR?_STEP_MOVE?BIPOLARMOTOR
            CODE    3BB5H     004AH     UNIT         ?PR?ACOS?ACOS
            CODE    3BFFH     0049H     UNIT         ?PR?_WRITE_VCNL4035X?VCNL4035
            CODE    3C48H     0044H     UNIT         ?C?LDIV
            CODE    3C8CH     0040H     UNIT         ?PR?_COMMAND?LCD_DRIVER_SPLC780D
            CODE    3CCCH     003BH     UNIT         ?PR?ASIN?ASIN
            CODE    3D07H     0034H     UNIT         ?PR?_MOVE?BIPOLARMOTOR
            CODE    3D3BH     0033H     UNIT         ?PR?_SENDSTRING?UART1
            CODE    3D6EH     002CH     UNIT         ?PR?I2C_RECEIVEBYTE?VCNL4035
            CODE    3D9AH     002BH     UNIT         ?PR?_WAIT_MS_I2C?VCNL4035
            CODE    3DC5H     0024H     UNIT         ?PR?_WAIT_MS?LCD_DRIVER_SPLC780D
            CODE    3DE9H     0022H     UNIT         ?PR?_I2C_SENDBYTE?VCNL4035
            CODE    3E0BH     0020H     UNIT         ?PR?_SPI_SENDBYTE?PCF85063BTL
            CODE    3E2BH     0020H     UNIT         ?PR?SPI_RECEIVEBYTE?PCF85063BTL
            CODE    3E4BH     001EH     UNIT         ?PR?_DELAY_MS?KEYPAD
            CODE    3E69H     001EH     UNIT         ?PR?_WAIT_MS_IIC?VCNL4035
            CODE    3E87H     001DH     UNIT         ?PR?_DISPLAYLCD?LCD_DRIVER_SPLC780D
            CODE    3EA4H     001BH     UNIT         ?PR?I2C_ACK?VCNL4035
            CODE    3EBFH     0018H     UNIT         ?PR?_SPI_WRITETIME?PCF85063BTL
            CODE    3ED7H     0018H     UNIT         ?PR?_BCDTODEC1?BIPOLARMOTOR
            CODE    3EEFH     0017H     UNIT         ?PR?_ASCIITOBCD?UART1
            CODE    3F06H     0017H     UNIT         ?PR?I2C_INIT?VCNL4035
            CODE    3F1DH     0015H     UNIT         ?PR?I2C_STOP?VCNL4035
            CODE    3F32H     0014H     UNIT         ?PR?_PCF85063BTL_DELAY?PCF85063BTL
            CODE    3F46H     0014H     UNIT         ?PR?_ISSPACE?ISSPACE
            CODE    3F5AH     0013H     UNIT         ?PR?I2C_START?VCNL4035
            CODE    3F6DH     0011H     UNIT         ?PR?_SPI_READTIME?PCF85063BTL
            CODE    3F7EH     0011H     UNIT         ?PR?_BCDTODEC?PCF85063BTL
            CODE    3F8FH     0011H     UNIT         ?PR?INITUART1?UART1
            CODE    3FA0H     000FH     UNIT         ?PR?UC_NACK?VCNL4035
            CODE    3FAFH     000FH     UNIT         ?PR?_ISDIGIT?ISDIGIT
            CODE    3FBEH     000DH     UNIT         ?PR?SPI_INIT?PCF85063BTL
BL51 BANKED LINKER/LOCATER V6.22                                                      08/23/2018  10:26:33  PAGE 4


            CODE    3FCBH     000CH     UNIT         ?PR?KEYPAD_IO_INIT?KEYPAD
            CODE    3FD7H     000CH     UNIT         ?PR?_ABS?ABS
            CODE    3FE3H     000AH     UNIT         ?PR?LCD_RETURN_HOME?LCD_DRIVER_SPLC780D
            CODE    3FEDH     000AH     UNIT         ?PR?LCD_CLEAR?LCD_DRIVER_SPLC780D
            CODE    3FF7H     0009H     UNIT         ?PR?_SENDUART1?MAIN
            CODE    4000H     0006H     UNIT         ?PR?UC_ACK?VCNL4035
            CODE    4006H     0006H     UNIT         ?PR?_DISPLAYLCD_VCNL4035?VCNL4035
            CODE    400CH     0005H     UNIT         ?PR?_UNIT?UART1
            CODE    4011H     0005H     UNIT         ?PR?_ASCII_LETTER?UART1
            CODE    4016H     0001H     UNIT         ?PR?NOP?VCNL4035



OVERLAY MAP OF MODULE:   .\Obj\GPIO_RTC_Test (MAIN)


SEGMENT                                             BIT_GROUP          XDATA_GROUP
  +--> CALLED SEGMENT                            START    LENGTH     START    LENGTH
------------------------------------------------------------------------------------
?PR?UART?MAIN                                    -----    -----      -----    -----
  +--> ?PR?_ASCIITOBCD?UART1

?PR?_ASCIITOBCD?UART1                            -----    -----      -----    -----
  +--> ?PR?_ATOI?ATOI

?PR?_ATOI?ATOI                                   0020H.4  0000H.1    03C8H    0005H
  +--> ?PR?_ISSPACE?ISSPACE
  +--> ?PR?_ISDIGIT?ISDIGIT

*** NEW ROOT ***************************************************

?C_C51STARTUP                                    -----    -----      -----    -----
  +--> ?PR?MAIN?MAIN
  +--> ?C_INITSEG

?PR?MAIN?MAIN                                    -----    -----      03CDH    0017H
  +--> ?PR?LCD_INIT?LCD_DRIVER_SPLC780D
  +--> ?PR?SPI_INIT?PCF85063BTL
  +--> ?PR?KEYPAD_IO_INIT?KEYPAD
  +--> ?PR?I2C_INIT?VCNL4035
  +--> ?PR?_DELAY_MS?KEYPAD
  +--> ?PR?_DISPLAY_LINE?LCD_DRIVER_SPLC780D
  +--> ?PR?_WRITEDATA?LCD_DRIVER_SPLC780D
  +--> ?PR?KEY_PROCESS?KEYPAD
  +--> ?PR?_COMMAND?LCD_DRIVER_SPLC780D
  +--> ?PR?_DISPLAY_POS?MAIN
  +--> ?PR?_DISPLAYLCD?LCD_DRIVER_SPLC780D
  +--> ?PR?_STEP_MOVE?BIPOLARMOTOR
  +--> ?PR?LCD_RETURN_HOME?LCD_DRIVER_SPLC780D
  +--> ?PR?_READ_TIME?PCF85063BTL
  +--> ?PR?_UPDATE_POSITION?BIPOLARMOTOR

?PR?LCD_INIT?LCD_DRIVER_SPLC780D                 -----    -----      -----    -----
  +--> ?PR?_WAIT_MS?LCD_DRIVER_SPLC780D
  +--> ?PR?_COMMAND?LCD_DRIVER_SPLC780D

?PR?_COMMAND?LCD_DRIVER_SPLC780D                 -----    -----      -----    -----
BL51 BANKED LINKER/LOCATER V6.22                                                      08/23/2018  10:26:33  PAGE 5


  +--> ?PR?_WAIT_MS?LCD_DRIVER_SPLC780D

?PR?I2C_INIT?VCNL4035                            -----    -----      -----    -----
  +--> ?PR?_WRITE_VCNL4035X?VCNL4035

?PR?_WRITE_VCNL4035X?VCNL4035                    -----    -----      03E4H    0003H
  +--> ?PR?I2C_START?VCNL4035
  +--> ?PR?_WAIT_MS_I2C?VCNL4035
  +--> ?PR?I2C_ACK?VCNL4035
  +--> ?PR?_I2C_SENDBYTE?VCNL4035
  +--> ?PR?I2C_STOP?VCNL4035

?PR?I2C_START?VCNL4035                           -----    -----      -----    -----
  +--> ?PR?_WAIT_MS_IIC?VCNL4035
  +--> ?PR?_WAIT_MS_I2C?VCNL4035

?PR?I2C_ACK?VCNL4035                             -----    -----      03E7H    0001H
  +--> ?PR?_I2C_SENDBYTE?VCNL4035
  +--> ?PR?_WAIT_MS_I2C?VCNL4035

?PR?_I2C_SENDBYTE?VCNL4035                       -----    -----      -----    -----
  +--> ?PR?_WAIT_MS_I2C?VCNL4035

?PR?I2C_STOP?VCNL4035                            -----    -----      -----    -----
  +--> ?PR?_WAIT_MS_I2C?VCNL4035

?PR?_DISPLAY_LINE?LCD_DRIVER_SPLC780D            -----    -----      -----    -----
  +--> ?PR?_COMMAND?LCD_DRIVER_SPLC780D

?PR?_WRITEDATA?LCD_DRIVER_SPLC780D               -----    -----      03EEH    0001H
  +--> ?PR?_WAIT_MS?LCD_DRIVER_SPLC780D

?PR?KEY_PROCESS?KEYPAD                           -----    -----      03E4H    0006H
  +--> ?PR?KEY_SCAN?KEYPAD
  +--> ?PR?_SPI_WRITETIME?PCF85063BTL
  +--> ?PR?LCD_CLEAR?LCD_DRIVER_SPLC780D
  +--> ?PR?_COMMAND?LCD_DRIVER_SPLC780D
  +--> ?PR?_WRITEDATA?LCD_DRIVER_SPLC780D

?PR?KEY_SCAN?KEYPAD                              -----    -----      03EAH    0003H

?PR?_SPI_WRITETIME?PCF85063BTL                   -----    -----      -----    -----
  +--> ?PR?_SPI_SENDBYTE?PCF85063BTL

?PR?_SPI_SENDBYTE?PCF85063BTL                    -----    -----      -----    -----
  +--> ?PR?_PCF85063BTL_DELAY?PCF85063BTL

?PR?LCD_CLEAR?LCD_DRIVER_SPLC780D                -----    -----      -----    -----
  +--> ?PR?_COMMAND?LCD_DRIVER_SPLC780D

?PR?_DISPLAY_POS?MAIN                            -----    -----      03E4H    000AH
  +--> ?PR?_ABS?ABS
  +--> ?PR?_WRITEDATA?LCD_DRIVER_SPLC780D

?PR?_DISPLAYLCD?LCD_DRIVER_SPLC780D              -----    -----      03E4H    0001H
  +--> ?PR?_WRITEDATA?LCD_DRIVER_SPLC780D

BL51 BANKED LINKER/LOCATER V6.22                                                      08/23/2018  10:26:33  PAGE 6


?PR?_STEP_MOVE?BIPOLARMOTOR                      0020H.6  0000H.1    0493H    0004H
  +--> ?PR?_WAIT_MS?LCD_DRIVER_SPLC780D

?PR?LCD_RETURN_HOME?LCD_DRIVER_SPLC780D          -----    -----      -----    -----
  +--> ?PR?_COMMAND?LCD_DRIVER_SPLC780D

?PR?_READ_TIME?PCF85063BTL                       -----    -----      03E4H    000FH
  +--> ?PR?_SPI_READTIME?PCF85063BTL

?PR?_SPI_READTIME?PCF85063BTL                    -----    -----      -----    -----
  +--> ?PR?_SPI_SENDBYTE?PCF85063BTL
  +--> ?PR?SPI_RECEIVEBYTE?PCF85063BTL

?PR?SPI_RECEIVEBYTE?PCF85063BTL                  -----    -----      -----    -----
  +--> ?PR?_PCF85063BTL_DELAY?PCF85063BTL

?PR?_UPDATE_POSITION?BIPOLARMOTOR                -----    -----      03E4H    00ABH
  +--> ?PR?_BCDTODEC1?BIPOLARMOTOR
  +--> ?PR?_DAY_OF_YEAR?PCF85063BTL
  +--> ?PR?SUNPOS?SUNPOS
  +--> ?PR?SECOND_ORDER_INTERPOLATE?BIPOLARM...
  +--> ?PR?_MOVE?BIPOLARMOTOR

?PR?_DAY_OF_YEAR?PCF85063BTL                     -----    -----      -----    -----
  +--> ?PR?_BCDTODEC?PCF85063BTL

?PR?SUNPOS?SUNPOS                                -----    -----      048FH    005DH
  +--> ?PR?SIN?SIN
  +--> ?PR?_ATAN2?ATAN2
  +--> ?PR?ASIN?ASIN
  +--> ?PR?ACOS?ACOS

?PR?SIN?SIN                                      0020H.5  0000H.1    04ECH    0004H

?PR?_ATAN2?ATAN2                                 -----    -----      04ECH    0008H
  +--> ?PR?ATAN?ATAN

?PR?ATAN?ATAN                                    0020H.5  0000H.2    04F4H    0004H

?PR?ASIN?ASIN                                    -----    -----      -----    -----
  +--> ?PR?SQRT?SQRT
  +--> ?PR?ATAN?ATAN

?PR?SQRT?SQRT                                    -----    -----      04ECH    0004H

?PR?ACOS?ACOS                                    -----    -----      -----    -----
  +--> ?PR?SQRT?SQRT
  +--> ?PR?ATAN?ATAN

?PR?SECOND_ORDER_INTERPOLATE?BIPOLARM...         -----    -----      048FH    0030H
  +--> ?PR?_POW?POW
  +--> ?PR?_FINDDET3X3?BIPOLARMOTOR

?PR?_POW?POW                                     -----    -----      04BFH    000AH
  +--> ?PR?LOG?LOG
  +--> ?PR?EXP?EXP

BL51 BANKED LINKER/LOCATER V6.22                                                      08/23/2018  10:26:33  PAGE 7


?PR?LOG?LOG                                      0020H.5  0000H.1    04C9H    0004H

?PR?_FINDDET3X3?BIPOLARMOTOR                     -----    -----      04BFH    0024H

?PR?_MOVE?BIPOLARMOTOR                           0020H.5  0000H.1    048FH    0004H
  +--> ?PR?_STEP_MOVE?BIPOLARMOTOR



UNRESOLVED EXTERNAL SYMBOLS:
   AUTO_MODE



SYMBOL TABLE OF MODULE:  .\Obj\GPIO_RTC_Test (MAIN)

  VALUE           TYPE          NAME
  ----------------------------------

  -------         MODULE        MAIN
  C:0000H         SYMBOL        _ICE_DUMMY_
  D:0080H         PUBLIC        P0
  D:0090H         PUBLIC        P1
  D:00A0H         PUBLIC        P2
  D:00B0H         PUBLIC        P3
  D:00C0H         PUBLIC        P4
  D:00C8H         PUBLIC        P5
  X:0540H         SYMBOL        PressedKey
  B:00A8H.7       PUBLIC        EA
  D:00E8H         PUBLIC        P6
  D:00F8H         PUBLIC        P7
  X:0544H         PUBLIC        RX_Data_Uart_Cnt
  D:00A8H         PUBLIC        IE
  D:00B8H         PUBLIC        IP
  B:0098H.0       PUBLIC        RI
  B:0098H.1       PUBLIC        TI
  C:36ABH         PUBLIC        Uart
  D:00D8H         PUBLIC        CCON
  C:2740H         PUBLIC        main
  D:0099H         PUBLIC        SBUF
  D:0098H         PUBLIC        SCON
  D:0089H         PUBLIC        TMOD
  D:0088H         PUBLIC        TCON
  B:00B0H.3       PUBLIC        P33
  X:0546H         SYMBOL        KeyCount
  X:0548H         PUBLIC        Rec_data_hour
  X:054BH         PUBLIC        Rec_data_min
  D:008EH         PUBLIC        AUXR
  C:0009H         PUBLIC        tm0_isr
  B:0020H.7       PUBLIC        busy
  D:00E0H         PUBLIC        ACC
  B:00A8H.1       PUBLIC        ET0
  D:008CH         PUBLIC        TH0
  X:054EH         PUBLIC        hour_count
  D:008AH         PUBLIC        TL0
  X:054FH         PUBLIC        min_count
  B:0088H.4       PUBLIC        TR0
BL51 BANKED LINKER/LOCATER V6.22                                                      08/23/2018  10:26:33  PAGE 8


  X:0550H         SYMBOL        KeyNum
  X:0551H         SYMBOL        KeyNum_Old
  C:387AH         PUBLIC        _Display_Prox
  C:2B6CH         PUBLIC        _Display_Pos
  X:0552H         PUBLIC        st_time
  D:00D0H         PUBLIC        PSW
  C:3FF7H         PUBLIC        _SendUART1
  -------         PROC          TM0_ISR
  C:0009H         LINE#         53
  C:0009H         LINE#         56
  -------         ENDPROC       TM0_ISR
  -------         PROC          MAIN
  -------         DO            
  X:03CDH         SYMBOL        seconds
  X:03CEH         SYMBOL        mins
  X:03CFH         SYMBOL        hours
  X:03D0H         SYMBOL        days
  X:03D1H         SYMBOL        months
  X:03D2H         SYMBOL        mins1
  X:03D3H         SYMBOL        hours1
  X:03D4H         SYMBOL        mins2
  X:03D5H         SYMBOL        hours2
  X:03D6H         SYMBOL        prox_data
  X:0538H         SYMBOL        KeyCount
  X:053AH         SYMBOL        KeyNum_Old
  X:053BH         SYMBOL        KeyNum
  X:053CH         SYMBOL        PressedKey
  X:03D8H         SYMBOL        prox_flag
  X:03D9H         SYMBOL        count
  X:03DBH         SYMBOL        numStr
  X:03E0H         SYMBOL        current_position
  -------         ENDDO         
  C:2740H         LINE#         58
  C:2740H         LINE#         59
  C:2740H         LINE#         64
  C:2746H         LINE#         66
  C:274BH         LINE#         68
  C:2755H         LINE#         69
  C:2757H         LINE#         70
  C:2759H         LINE#         71
  C:275BH         LINE#         72
  C:2762H         LINE#         81
  C:2765H         LINE#         82
  C:2768H         LINE#         83
  C:276BH         LINE#         85
  C:276EH         LINE#         87
  C:2771H         LINE#         88
  C:2774H         LINE#         89
  C:2777H         LINE#         90
  C:2779H         LINE#         91
  C:277BH         LINE#         92
  C:277DH         LINE#         94
  C:277FH         LINE#         96
  C:2786H         LINE#         98
  C:278DH         LINE#         102
  C:2794H         LINE#         103
  C:2799H         LINE#         104
BL51 BANKED LINKER/LOCATER V6.22                                                      08/23/2018  10:26:33  PAGE 9


  C:279EH         LINE#         105
  C:27A3H         LINE#         106
  C:27A8H         LINE#         107
  C:27ADH         LINE#         110
  C:27ADH         LINE#         111
  C:27ADH         LINE#         112
  C:27B0H         LINE#         115
  C:27B0H         LINE#         118
  C:27B5H         LINE#         119
  C:27BAH         LINE#         121
  C:27BFH         LINE#         122
  C:27C4H         LINE#         123
  C:27C9H         LINE#         124
  C:27CEH         LINE#         126
  C:27DFH         LINE#         128
  C:27E6H         LINE#         129
  C:27EEH         LINE#         130
  C:27F3H         LINE#         131
  C:27FBH         LINE#         132
  C:2800H         LINE#         133
  C:280AH         LINE#         134
  C:280FH         LINE#         135
  C:2817H         LINE#         137
  C:281FH         LINE#         138
  C:2824H         LINE#         139
  C:282EH         LINE#         140
  C:282EH         LINE#         141
  C:2830H         LINE#         142
  C:2832H         LINE#         143
  C:283CH         LINE#         144
  C:283CH         LINE#         145
  C:2841H         LINE#         146
  C:2841H         LINE#         158
  C:284EH         LINE#         159
  C:284EH         LINE#         160
  C:2858H         LINE#         161
  C:286FH         LINE#         162
  C:286FH         LINE#         163
  C:2871H         LINE#         164
  C:2873H         LINE#         166
  C:2873H         LINE#         167
  C:287EH         LINE#         168
  C:287EH         LINE#         169
  C:2883H         LINE#         170
  C:2883H         LINE#         171
  C:2890H         LINE#         172
  C:2890H         LINE#         175
  C:289AH         LINE#         176
  C:28B1H         LINE#         177
  C:28B1H         LINE#         178
  C:28B3H         LINE#         179
  C:28B5H         LINE#         181
  C:28B5H         LINE#         182
  C:28C0H         LINE#         183
  C:28C0H         LINE#         184
  C:28C5H         LINE#         185
  C:28C7H         LINE#         186
BL51 BANKED LINKER/LOCATER V6.22                                                      08/23/2018  10:26:33  PAGE 10


  C:28C7H         LINE#         195
  C:28E9H         LINE#         196
  C:28E9H         LINE#         197
  C:28F3H         LINE#         198
  C:28F9H         LINE#         199
  C:28FBH         LINE#         200
  C:28FDH         LINE#         201
  C:28FFH         LINE#         202
  C:28FFH         LINE#         203
  C:2902H         LINE#         205
  C:2902H         LINE#         206
  C:290AH         LINE#         207
  C:2912H         LINE#         208
  C:291AH         LINE#         209
  C:2922H         LINE#         210
  C:295DH         LINE#         214
  C:296AH         LINE#         215
  C:296AH         LINE#         217
  C:2998H         LINE#         219
  C:2998H         LINE#         236
  -------         ENDPROC       MAIN
  -------         PROC          UART
  C:36ABH         LINE#         243
  C:36B8H         LINE#         245
  C:36BBH         LINE#         246
  C:36BBH         LINE#         247
  C:36C9H         LINE#         248
  C:36CBH         LINE#         249
  C:36DDH         LINE#         250
  C:36ECH         LINE#         251
  C:36F7H         LINE#         252
  C:36F7H         LINE#         255
  C:3704H         LINE#         256
  C:370AH         LINE#         257
  C:370AH         LINE#         258
  C:3710H         LINE#         259
  C:371EH         LINE#         260
  C:372CH         LINE#         261
  C:3734H         LINE#         266
  C:3734H         LINE#         267
  C:3734H         LINE#         270
  C:3734H         LINE#         271
  C:3737H         LINE#         272
  C:3737H         LINE#         273
  C:3739H         LINE#         274
  C:373BH         LINE#         275
  C:373BH         LINE#         276
  -------         ENDPROC       UART
  -------         PROC          _SENDUART1
  D:0007H         SYMBOL        dat
  C:3FF7H         LINE#         279
  C:3FF7H         LINE#         280
  C:3FF7H         LINE#         281
  C:3FFAH         LINE#         282
  C:3FFCH         LINE#         283
  C:3FFDH         LINE#         284
  C:3FFFH         LINE#         285
BL51 BANKED LINKER/LOCATER V6.22                                                      08/23/2018  10:26:33  PAGE 11


  -------         ENDPROC       _SENDUART1
  -------         PROC          _DISPLAY_PROX
  D:0002H         SYMBOL        dat
  -------         DO            
  X:0579H         SYMBOL        unit
  X:057AH         SYMBOL        ten
  X:057BH         SYMBOL        hundred
  X:057CH         SYMBOL        thousand
  -------         ENDDO         
  C:387AH         LINE#         288
  C:387EH         LINE#         289
  C:387EH         LINE#         291
  C:388AH         LINE#         292
  C:389AH         LINE#         293
  C:38B6H         LINE#         294
  C:38E6H         LINE#         295
  C:38F0H         LINE#         296
  C:38FAH         LINE#         297
  C:3904H         LINE#         298
  C:390EH         LINE#         300
  -------         ENDPROC       _DISPLAY_PROX
  -------         PROC          _DISPLAY_POS
  X:03E4H         SYMBOL        sign_dat
  -------         DO            
  X:03E8H         SYMBOL        unit
  X:03E9H         SYMBOL        ten
  X:03EAH         SYMBOL        hundred
  D:0003H         SYMBOL        thousand
  X:03EBH         SYMBOL        after_dot
  X:03ECH         SYMBOL        dat
  -------         ENDDO         
  C:2B6CH         LINE#         303
  C:2B72H         LINE#         304
  C:2B72H         LINE#         308
  C:2B8EH         LINE#         309
  C:2BA8H         LINE#         310
  C:2BCCH         LINE#         312
  C:2C16H         LINE#         314
  C:2C2DH         LINE#         315
  C:2C3AH         LINE#         316
  C:2C5CH         LINE#         317
  C:2C91H         LINE#         318
  C:2CA9H         LINE#         319
  C:2CA9H         LINE#         321
  C:2CB3H         LINE#         322
  C:2CBDH         LINE#         323
  C:2CC7H         LINE#         324
  C:2CCCH         LINE#         325
  C:2CD6H         LINE#         326
  C:2CDBH         LINE#         327
  C:2CE0H         LINE#         328
  C:2CE2H         LINE#         329
  C:2CE4H         LINE#         331
  C:2CE4H         LINE#         333
  C:2CE9H         LINE#         334
  C:2CF3H         LINE#         335
  C:2CFDH         LINE#         336
BL51 BANKED LINKER/LOCATER V6.22                                                      08/23/2018  10:26:33  PAGE 12


  C:2D07H         LINE#         337
  C:2D0CH         LINE#         338
  C:2D16H         LINE#         339
  C:2D1BH         LINE#         340
  C:2D20H         LINE#         342
  C:2D20H         LINE#         344
  -------         ENDPROC       _DISPLAY_POS
  -------         ENDMOD        MAIN

  -------         MODULE        PCF85063BTL
  C:0000H         SYMBOL        _ICE_DUMMY_
  D:0096H         PUBLIC        P2M0
  D:0080H         PUBLIC        P0
  D:0095H         PUBLIC        P2M1
  D:0090H         PUBLIC        P1
  D:00A0H         PUBLIC        P2
  D:00B0H         PUBLIC        P3
  D:00C0H         PUBLIC        P4
  D:00C8H         PUBLIC        P5
  D:00E8H         PUBLIC        P6
  B:00A0H.2       PUBLIC        PCF85063BTL_SDI
  D:00F8H         PUBLIC        P7
  B:00A0H.1       PUBLIC        PCF85063BTL_SCK
  B:00A0H.2       PUBLIC        PCF85063BTL_SDO
  D:00A8H         PUBLIC        IE
  C:3A94H         PUBLIC        _Read_time
  C:3F38H         PUBLIC        _PCF85063BTL_Delay
  D:00B8H         PUBLIC        IP
  D:00D8H         PUBLIC        CCON
  C:399BH         PUBLIC        _Day_Of_Year
  C:3E2BH         PUBLIC        SPI_ReceiveByte
  D:0098H         PUBLIC        SCON
  D:0088H         PUBLIC        TCON
  C:3F7EH         PUBLIC        _BCDtoDec
  B:00A0H.0       PUBLIC        PCF85063BTL_CS
  C:3F6DH         PUBLIC        _SPI_ReadTime
  C:3FBEH         PUBLIC        SPI_Init
  C:3EBFH         PUBLIC        _SPI_WriteTime
  C:3E0BH         PUBLIC        _SPI_SendByte
  D:00D0H         PUBLIC        PSW
  C:3F34H         SYMBOL        L?0047
  -------         PROC          L?0046
  -------         ENDPROC       L?0046
  C:3F34H         SYMBOL        L?0047
  -------         PROC          _PCF85063BTL_DELAY
  D:0006H         SYMBOL        us
  C:3F38H         LINE#         8
  C:3F38H         LINE#         9
  C:3F38H         LINE#         10
  C:3F42H         LINE#         11
  C:3F42H         LINE#         12
  C:3F43H         LINE#         13
  C:3F45H         LINE#         14
  -------         ENDPROC       _PCF85063BTL_DELAY
  -------         PROC          _SPI_SENDBYTE
  D:0005H         SYMBOL        dat
  -------         DO            
BL51 BANKED LINKER/LOCATER V6.22                                                      08/23/2018  10:26:33  PAGE 13


  D:0003H         SYMBOL        i
  -------         ENDDO         
  C:3E0BH         LINE#         17
  C:3E0DH         LINE#         18
  C:3E0DH         LINE#         20
  C:3E0FH         LINE#         21
  C:3E0FH         LINE#         22
  C:3E11H         LINE#         23
  C:3E15H         LINE#         24
  C:3E15H         LINE#         25
  C:3E17H         LINE#         26
  C:3E19H         LINE#         28
  C:3E19H         LINE#         29
  C:3E1BH         LINE#         30
  C:3E1BH         LINE#         31
  C:3E1EH         LINE#         32
  C:3E1EH         LINE#         33
  C:3E21H         LINE#         34
  C:3E25H         LINE#         35
  C:3E2AH         LINE#         36
  -------         ENDPROC       _SPI_SENDBYTE
  -------         PROC          SPI_RECEIVEBYTE
  -------         DO            
  D:0003H         SYMBOL        i
  D:0005H         SYMBOL        dat
  -------         ENDDO         
  C:3E2BH         LINE#         39
  C:3E2BH         LINE#         40
  C:3E2BH         LINE#         42
  C:3E2DH         LINE#         44
  C:3E2FH         LINE#         45
  C:3E30H         LINE#         46
  C:3E30H         LINE#         47
  C:3E34H         LINE#         48
  C:3E36H         LINE#         49
  C:3E39H         LINE#         51
  C:3E3CH         LINE#         52
  C:3E3CH         LINE#         53
  C:3E40H         LINE#         54
  C:3E40H         LINE#         55
  C:3E40H         LINE#         56
  C:3E43H         LINE#         57
  C:3E48H         LINE#         58
  C:3E4AH         LINE#         59
  -------         ENDPROC       SPI_RECEIVEBYTE
  -------         PROC          _SPI_READTIME
  D:0007H         SYMBOL        addr
  -------         DO            
  D:0006H         SYMBOL        dat
  -------         ENDDO         
  C:3F6DH         LINE#         61
  C:3F6DH         LINE#         62
  C:3F6DH         LINE#         64
  C:3F6FH         LINE#         65
  C:3F71H         LINE#         66
  C:3F78H         LINE#         67
  C:3F7BH         LINE#         68
BL51 BANKED LINKER/LOCATER V6.22                                                      08/23/2018  10:26:33  PAGE 14


  C:3F7DH         LINE#         69
  C:3F7DH         LINE#         70
  -------         ENDPROC       _SPI_READTIME
  -------         PROC          _SPI_WRITETIME
  D:0002H         SYMBOL        val
  D:0005H         SYMBOL        addr
  C:3EBFH         LINE#         71
  C:3EC1H         LINE#         72
  C:3EC1H         LINE#         74
  C:3EC3H         LINE#         75
  C:3ECAH         LINE#         76
  C:3ECFH         LINE#         77
  C:3ED4H         LINE#         78
  C:3ED6H         LINE#         79
  -------         ENDPROC       _SPI_WRITETIME
  -------         PROC          SPI_INIT
  C:3FBEH         LINE#         83
  C:3FBEH         LINE#         84
  C:3FBEH         LINE#         89
  C:3FC1H         LINE#         90
  C:3FC4H         LINE#         91
  C:3FC6H         LINE#         92
  C:3FC8H         LINE#         93
  C:3FCAH         LINE#         94
  -------         ENDPROC       SPI_INIT
  -------         PROC          _READ_TIME
  X:03E4H         SYMBOL        months
  X:03E7H         SYMBOL        days
  X:03EAH         SYMBOL        hours
  X:03EDH         SYMBOL        mins
  X:03F0H         SYMBOL        seconds
  C:3A94H         LINE#         96
  C:3A9FH         LINE#         97
  C:3A9FH         LINE#         99
  C:3AB3H         LINE#         101
  C:3AC7H         LINE#         103
  C:3ADBH         LINE#         108
  C:3AEFH         LINE#         113
  -------         ENDPROC       _READ_TIME
  -------         PROC          _BCDTODEC
  D:0007H         SYMBOL        bcd
  -------         DO            
  D:0006H         SYMBOL        hi
  D:0007H         SYMBOL        lo
  -------         ENDDO         
  C:3F7EH         LINE#         119
  C:3F7EH         LINE#         120
  C:3F7EH         LINE#         122
  C:3F83H         LINE#         123
  C:3F87H         LINE#         124
  C:3F8EH         LINE#         125
  -------         ENDPROC       _BCDTODEC
  -------         PROC          _DAY_OF_YEAR
  D:0007H         SYMBOL        months_bcd
  D:0005H         SYMBOL        days_bcd
  -------         DO            
  D:0004H         SYMBOL        months
BL51 BANKED LINKER/LOCATER V6.22                                                      08/23/2018  10:26:33  PAGE 15


  D:0007H         SYMBOL        days
  -------         ENDDO         
  C:399BH         LINE#         126
  C:399BH         LINE#         127
  C:399BH         LINE#         130
  C:39A0H         LINE#         132
  C:39A5H         LINE#         134
  C:39DEH         LINE#         135
  C:39DEH         LINE#         136
  C:39DEH         LINE#         137
  C:39E1H         LINE#         138
  C:39E1H         LINE#         139
  C:39E1H         LINE#         140
  C:39E6H         LINE#         141
  C:39E6H         LINE#         142
  C:39E6H         LINE#         143
  C:39EBH         LINE#         144
  C:39EBH         LINE#         145
  C:39EBH         LINE#         146
  C:39F0H         LINE#         147
  C:39F0H         LINE#         148
  C:39F0H         LINE#         149
  C:39F5H         LINE#         150
  C:39F5H         LINE#         151
  C:39F5H         LINE#         152
  C:39FAH         LINE#         153
  C:39FAH         LINE#         154
  C:39FAH         LINE#         155
  C:39FFH         LINE#         156
  C:39FFH         LINE#         157
  C:39FFH         LINE#         158
  C:3A04H         LINE#         159
  C:3A04H         LINE#         160
  C:3A04H         LINE#         161
  C:3A0CH         LINE#         162
  C:3A0CH         LINE#         163
  C:3A0CH         LINE#         164
  C:3A11H         LINE#         165
  C:3A11H         LINE#         166
  C:3A11H         LINE#         167
  C:3A16H         LINE#         168
  C:3A16H         LINE#         169
  C:3A16H         LINE#         170
  C:3A1EH         LINE#         171
  C:3A1EH         LINE#         172
  C:3A1EH         LINE#         173
  -------         ENDPROC       _DAY_OF_YEAR
  -------         ENDMOD        PCF85063BTL

  -------         MODULE        UART1
  C:0000H         SYMBOL        _ICE_DUMMY_
  D:0080H         PUBLIC        P0
  D:0090H         PUBLIC        P1
  D:00A0H         PUBLIC        P2
  D:00B0H         PUBLIC        P3
  D:00C0H         PUBLIC        P4
  D:00C8H         PUBLIC        P5
BL51 BANKED LINKER/LOCATER V6.22                                                      08/23/2018  10:26:33  PAGE 16


  B:00A8H.7       PUBLIC        EA
  D:00E8H         PUBLIC        P6
  D:00F8H         PUBLIC        P7
  C:3D3BH         PUBLIC        _SendString
  D:00A8H         PUBLIC        IE
  B:00A8H.4       PUBLIC        ES
  D:00B8H         PUBLIC        IP
  C:3EEFH         PUBLIC        _ASCIItoBCD
  D:00D8H         PUBLIC        CCON
  C:3F8FH         PUBLIC        initUART1
  D:0098H         PUBLIC        SCON
  D:0088H         PUBLIC        TCON
  C:000AH         PUBLIC        _DectoBCD
  C:4011H         PUBLIC        _ASCII_Letter
  D:008EH         PUBLIC        AUXR
  C:400CH         PUBLIC        _unit
  C:0003H         PUBLIC        _ten
  D:00D6H         PUBLIC        T2H
  D:00D7H         PUBLIC        T2L
  D:00D0H         PUBLIC        PSW
  -------         PROC          INITUART1
  C:3F8FH         LINE#         21
  C:3F8FH         LINE#         22
  C:3F8FH         LINE#         23
  C:3F92H         LINE#         24
  C:3F95H         LINE#         25
  C:3F98H         LINE#         26
  C:3F9BH         LINE#         27
  C:3F9DH         LINE#         28
  C:3F9FH         LINE#         30
  -------         ENDPROC       INITUART1
  -------         PROC          _SENDSTRING
  X:057DH         SYMBOL        s
  C:3D3BH         LINE#         35
  C:3D46H         LINE#         36
  C:3D46H         LINE#         37
  C:3D56H         LINE#         38
  C:3D56H         LINE#         39
  C:3D6BH         LINE#         40
  C:3D6DH         LINE#         41
  -------         ENDPROC       _SENDSTRING
  -------         PROC          _TEN
  D:0007H         SYMBOL        BCD
  C:0003H         LINE#         43
  C:0003H         LINE#         44
  C:0003H         LINE#         45
  C:0008H         LINE#         46
  -------         ENDPROC       _TEN
  -------         PROC          _UNIT
  D:0007H         SYMBOL        BCD
  C:400CH         LINE#         47
  C:400CH         LINE#         48
  C:400CH         LINE#         52
  C:4010H         LINE#         53
  -------         ENDPROC       _UNIT
  -------         PROC          _DECTOBCD
  D:0007H         SYMBOL        dec
BL51 BANKED LINKER/LOCATER V6.22                                                      08/23/2018  10:26:33  PAGE 17


  C:000AH         LINE#         54
  C:000AH         LINE#         55
  C:000AH         LINE#         57
  C:000AH         LINE#         58
  -------         ENDPROC       _DECTOBCD
  -------         PROC          _ASCII_LETTER
  D:0007H         SYMBOL        dat
  C:4011H         LINE#         60
  C:4011H         LINE#         61
  C:4011H         LINE#         63
  C:4015H         LINE#         64
  -------         ENDPROC       _ASCII_LETTER
  -------         PROC          _ASCIITOBCD
  D:0001H         SYMBOL        ascii
  -------         DO            
  D:0007H         SYMBOL        dec_val
  D:0006H         SYMBOL        ten
  D:0007H         SYMBOL        unit
  -------         ENDDO         
  C:3EEFH         LINE#         66
  C:3EEFH         LINE#         67
  C:3EEFH         LINE#         69
  C:3EF2H         LINE#         70
  C:3EF8H         LINE#         71
  C:3EFFH         LINE#         72
  C:3F05H         LINE#         74
  -------         ENDPROC       _ASCIITOBCD
  -------         ENDMOD        UART1

  -------         MODULE        LCD_DRIVER_SPLC780D
  C:0000H         SYMBOL        _ICE_DUMMY_
  D:0092H         PUBLIC        P1M0
  D:0091H         PUBLIC        P1M1
  D:0080H         PUBLIC        P0
  D:0090H         PUBLIC        P1
  D:00A0H         PUBLIC        P2
  D:00B0H         PUBLIC        P3
  D:00C0H         PUBLIC        P4
  D:00C8H         PUBLIC        P5
  D:00E8H         PUBLIC        P6
  D:00F8H         PUBLIC        P7
  C:3A1FH         PUBLIC        _WriteData
  D:00A8H         PUBLIC        IE
  D:00B8H         PUBLIC        IP
  D:00D8H         PUBLIC        CCON
  B:0090H.4       PUBLIC        LCD_D4
  B:0090H.5       PUBLIC        LCD_D5
  B:0090H.6       PUBLIC        LCD_D6
  C:3E87H         PUBLIC        _DisplayLCD
  B:0090H.7       PUBLIC        LCD_D7
  D:0098H         PUBLIC        SCON
  D:0088H         PUBLIC        TCON
  C:3FEDH         PUBLIC        LCD_clear
  C:3C8CH         PUBLIC        _Command
  C:000EH         PUBLIC        _Display_Line
  C:3B03H         PUBLIC        LCD_Init
  C:3DCBH         PUBLIC        _Wait_ms
BL51 BANKED LINKER/LOCATER V6.22                                                      08/23/2018  10:26:33  PAGE 18


  B:0090H.1       PUBLIC        LCD_RS
  B:0090H.2       PUBLIC        LCD_RW
  C:3FE3H         PUBLIC        LCD_return_home
  B:0090H.3       PUBLIC        LCD_E
  D:00D0H         PUBLIC        PSW
  -------         PROC          LCD_INIT
  C:3B03H         LINE#         9
  C:3B03H         LINE#         10
  C:3B03H         LINE#         11
  C:3B06H         LINE#         12
  C:3B09H         LINE#         14
  C:3B0FH         LINE#         15
  C:3B14H         LINE#         17
  C:3B1BH         LINE#         18
  C:3B20H         LINE#         20
  C:3B23H         LINE#         21
  C:3B28H         LINE#         23
  C:3B2BH         LINE#         24
  C:3B30H         LINE#         26
  C:3B37H         LINE#         29
  C:3B3CH         LINE#         30
  C:3B41H         LINE#         32
  C:3B46H         LINE#         33
  C:3B4BH         LINE#         35
  C:3B50H         LINE#         36
  C:3B55H         LINE#         37
  -------         ENDPROC       LCD_INIT
  -------         PROC          _WRITEDATA
  X:03EEH         SYMBOL        dat
  C:3A1FH         LINE#         40
  C:3A24H         LINE#         41
  C:3A24H         LINE#         46
  C:3A26H         LINE#         47
  C:3A28H         LINE#         49
  C:3A36H         LINE#         50
  C:3A42H         LINE#         51
  C:3A4EH         LINE#         52
  C:3A58H         LINE#         53
  C:3A5AH         LINE#         54
  C:3A61H         LINE#         55
  C:3A63H         LINE#         57
  C:3A73H         LINE#         58
  C:3A7EH         LINE#         59
  C:3A88H         LINE#         60
  C:3A8CH         LINE#         62
  C:3A8CH         LINE#         63
  C:3A8FH         LINE#         64
  C:3A91H         LINE#         65
  C:3A93H         LINE#         67
  -------         ENDPROC       _WRITEDATA
  -------         PROC          _COMMAND
  D:0007H         SYMBOL        dat
  C:3C8CH         LINE#         69
  C:3C8CH         LINE#         70
  C:3C8CH         LINE#         71
  C:3C8EH         LINE#         72
  C:3C90H         LINE#         74
BL51 BANKED LINKER/LOCATER V6.22                                                      08/23/2018  10:26:33  PAGE 19


  C:3C9AH         LINE#         75
  C:3C9EH         LINE#         77
  C:3CA0H         LINE#         78
  C:3CA9H         LINE#         79
  C:3CADH         LINE#         81
  C:3CAFH         LINE#         82
  C:3CB6H         LINE#         83
  C:3CBAH         LINE#         85
  C:3CBCH         LINE#         86
  C:3CC0H         LINE#         87
  C:3CC4H         LINE#         89
  C:3CC6H         LINE#         90
  C:3CC6H         LINE#         91
  C:3CC9H         LINE#         92
  C:3CCBH         LINE#         93
  -------         ENDPROC       _COMMAND
  C:3DC7H         SYMBOL        L?0028
  -------         PROC          L?0027
  -------         ENDPROC       L?0027
  C:3DC7H         SYMBOL        L?0028
  -------         PROC          _WAIT_MS
  D:0006H         SYMBOL        ms
  -------         DO            
  D:0004H         SYMBOL        De_Cnt
  -------         ENDDO         
  C:3DCBH         LINE#         95
  C:3DCBH         LINE#         96
  C:3DCBH         LINE#         98
  C:3DD5H         LINE#         99
  C:3DD5H         LINE#         100
  C:3DE8H         LINE#         101
  C:3DE8H         LINE#         102
  -------         ENDPROC       _WAIT_MS
  -------         PROC          _DISPLAYLCD
  D:0007H         SYMBOL        BCD
  -------         DO            
  D:0006H         SYMBOL        first_digit
  X:03E4H         SYMBOL        second_digit
  -------         ENDDO         
  C:3E87H         LINE#         103
  C:3E87H         LINE#         104
  C:3E87H         LINE#         106
  C:3E8EH         LINE#         107
  C:3E97H         LINE#         109
  C:3E9CH         LINE#         111
  -------         ENDPROC       _DISPLAYLCD
  -------         PROC          LCD_RETURN_HOME
  C:3FE3H         LINE#         115
  C:3FE3H         LINE#         116
  C:3FE3H         LINE#         117
  C:3FE8H         LINE#         118
  -------         ENDPROC       LCD_RETURN_HOME
  -------         PROC          LCD_CLEAR
  C:3FEDH         LINE#         121
  C:3FEDH         LINE#         122
  C:3FEDH         LINE#         123
  C:3FF2H         LINE#         124
BL51 BANKED LINKER/LOCATER V6.22                                                      08/23/2018  10:26:33  PAGE 20


  -------         ENDPROC       LCD_CLEAR
  -------         PROC          _DISPLAY_LINE
  D:0006H         SYMBOL        line
  C:000EH         LINE#         128
  C:000EH         LINE#         129
  C:000EH         LINE#         130
  C:0014H         LINE#         131
  C:0014H         LINE#         132
  C:0016H         LINE#         133
  C:0016H         LINE#         134
  C:0018H         LINE#         136
  C:0018H         LINE#         137
  C:001DH         LINE#         138
  C:0022H         LINE#         139
  C:0022H         LINE#         140
  -------         ENDPROC       _DISPLAY_LINE
  -------         ENDMOD        LCD_DRIVER_SPLC780D

  -------         MODULE        KEYPAD
  C:0000H         SYMBOL        _ICE_DUMMY_
  D:0093H         PUBLIC        P0M1
  D:0080H         PUBLIC        P0
  D:0090H         PUBLIC        P1
  D:00A0H         PUBLIC        P2
  D:00B0H         PUBLIC        P3
  D:00C0H         PUBLIC        P4
  D:00C8H         PUBLIC        P5
  D:00E8H         PUBLIC        P6
  D:00F8H         PUBLIC        P7
  D:00A8H         PUBLIC        IE
  C:2D21H         PUBLIC        Key_Scan
  D:00B8H         PUBLIC        IP
  D:00D8H         PUBLIC        CCON
  C:3FCBH         PUBLIC        KeyPad_IO_Init
  C:3E4BH         PUBLIC        _Delay_ms
  D:0098H         PUBLIC        SCON
  D:0088H         PUBLIC        TCON
  B:0020H.0       PUBLIC        small_move
  B:0020H.1       PUBLIC        move
  B:0020H.2       PUBLIC        direction
  B:0020H.3       PUBLIC        auto_move
  C:24A0H         PUBLIC        Key_Process
  D:00D0H         PUBLIC        PSW
  D:0094H         PUBLIC        P0M0
  -------         PROC          _DELAY_MS
  D:0006H         SYMBOL        ms
  -------         DO            
  D:0004H         SYMBOL        De_Cnt
  -------         ENDDO         
  C:3E4BH         LINE#         19
  C:3E4BH         LINE#         20
  C:3E4BH         LINE#         22
  C:3E55H         LINE#         23
  C:3E55H         LINE#         24
  C:3E68H         LINE#         25
  C:3E68H         LINE#         26
  -------         ENDPROC       _DELAY_MS
BL51 BANKED LINKER/LOCATER V6.22                                                      08/23/2018  10:26:33  PAGE 21


  -------         PROC          KEY_SCAN
  -------         DO            
  X:03EAH         SYMBOL        KeyTemp1
  X:03EBH         SYMBOL        KeyTemp2
  X:03ECH         SYMBOL        KeyValue
  -------         ENDDO         
  C:2D21H         LINE#         27
  C:2D21H         LINE#         28
  C:2D21H         LINE#         33
  C:2D24H         LINE#         36
  C:2D27H         LINE#         38
  C:2D2FH         LINE#         39
  C:2D36H         LINE#         40
  C:2D36H         LINE#         42
  C:2D3BH         LINE#         43
  C:2D42H         LINE#         44
  C:2D42H         LINE#         47
  C:2D45H         LINE#         48
  C:2D48H         LINE#         49
  C:2D4DH         LINE#         50
  C:2D51H         LINE#         51
  C:2D51H         LINE#         52
  C:2D59H         LINE#         53
  C:2D59H         LINE#         54
  C:2D5CH         LINE#         55
  C:2D64H         LINE#         56
  C:2D66H         LINE#         58
  C:2D7AH         LINE#         59
  C:2D7AH         LINE#         60
  C:2D7AH         LINE#         61
  C:2D7AH         LINE#         62
  C:2D80H         LINE#         64
  C:2D82H         LINE#         65
  C:2D82H         LINE#         66
  C:2D82H         LINE#         67
  C:2D88H         LINE#         69
  C:2D8AH         LINE#         70
  C:2D8AH         LINE#         71
  C:2D8AH         LINE#         72
  C:2D90H         LINE#         74
  C:2D92H         LINE#         75
  C:2D92H         LINE#         76
  C:2D92H         LINE#         77
  C:2D98H         LINE#         79
  C:2D98H         LINE#         80
  C:2D98H         LINE#         81
  C:2D98H         LINE#         84
  C:2D9BH         LINE#         85
  C:2D9EH         LINE#         86
  C:2DA6H         LINE#         87
  C:2DAAH         LINE#         88
  C:2DAAH         LINE#         89
  C:2DB2H         LINE#         90
  C:2DB2H         LINE#         91
  C:2DB5H         LINE#         92
  C:2DBDH         LINE#         93
  C:2DBFH         LINE#         94
BL51 BANKED LINKER/LOCATER V6.22                                                      08/23/2018  10:26:33  PAGE 22


  C:2DD3H         LINE#         95
  C:2DD3H         LINE#         96
  C:2DD3H         LINE#         97
  C:2DD3H         LINE#         98
  C:2DD9H         LINE#         100
  C:2DDBH         LINE#         101
  C:2DDBH         LINE#         102
  C:2DDBH         LINE#         103
  C:2DE1H         LINE#         105
  C:2DE3H         LINE#         106
  C:2DE3H         LINE#         107
  C:2DE3H         LINE#         108
  C:2DE9H         LINE#         110
  C:2DEBH         LINE#         111
  C:2DEBH         LINE#         112
  C:2DEBH         LINE#         113
  C:2DF0H         LINE#         115
  C:2DF0H         LINE#         116
  C:2DF0H         LINE#         117
  C:2DF0H         LINE#         120
  C:2DF3H         LINE#         121
  C:2DF6H         LINE#         122
  C:2DFEH         LINE#         123
  C:2E02H         LINE#         124
  C:2E02H         LINE#         125
  C:2E0AH         LINE#         126
  C:2E0AH         LINE#         127
  C:2E0DH         LINE#         128
  C:2E15H         LINE#         129
  C:2E17H         LINE#         130
  C:2E2BH         LINE#         131
  C:2E2BH         LINE#         132
  C:2E2BH         LINE#         133
  C:2E2BH         LINE#         134
  C:2E31H         LINE#         136
  C:2E33H         LINE#         137
  C:2E33H         LINE#         138
  C:2E33H         LINE#         139
  C:2E39H         LINE#         141
  C:2E3BH         LINE#         142
  C:2E3BH         LINE#         143
  C:2E3BH         LINE#         144
  C:2E41H         LINE#         146
  C:2E43H         LINE#         147
  C:2E43H         LINE#         148
  C:2E43H         LINE#         149
  C:2E49H         LINE#         151
  C:2E49H         LINE#         152
  C:2E49H         LINE#         153
  C:2E49H         LINE#         157
  C:2E4CH         LINE#         158
  C:2E4FH         LINE#         159
  C:2E57H         LINE#         160
  C:2E5BH         LINE#         161
  C:2E5BH         LINE#         162
  C:2E63H         LINE#         163
  C:2E63H         LINE#         164
BL51 BANKED LINKER/LOCATER V6.22                                                      08/23/2018  10:26:33  PAGE 23


  C:2E66H         LINE#         165
  C:2E6EH         LINE#         166
  C:2E70H         LINE#         167
  C:2E84H         LINE#         168
  C:2E84H         LINE#         169
  C:2E84H         LINE#         170
  C:2E84H         LINE#         171
  C:2E8AH         LINE#         173
  C:2E8CH         LINE#         174
  C:2E8CH         LINE#         175
  C:2E8CH         LINE#         176
  C:2E92H         LINE#         178
  C:2E94H         LINE#         179
  C:2E94H         LINE#         180
  C:2E94H         LINE#         181
  C:2E9AH         LINE#         183
  C:2E9CH         LINE#         184
  C:2E9CH         LINE#         185
  C:2E9CH         LINE#         186
  C:2EA2H         LINE#         188
  C:2EA2H         LINE#         189
  C:2EA2H         LINE#         190
  C:2EA2H         LINE#         192
  C:2EA8H         LINE#         193
  C:2EA8H         LINE#         195
  C:2EA8H         LINE#         196
  C:2EABH         LINE#         197
  C:2EABH         LINE#         198
  C:2EABH         LINE#         200
  C:2EABH         LINE#         201
  C:2EADH         LINE#         202
  C:2EADH         LINE#         203
  -------         ENDPROC       KEY_SCAN
  -------         PROC          KEY_PROCESS
  -------         DO            
  X:0568H         SYMBOL        KeyCount
  X:056AH         SYMBOL        KeyNum_Old
  X:056BH         SYMBOL        KeyNum
  X:056CH         SYMBOL        PressedKey
  X:03E4H         SYMBOL        d
  D:0004H         SYMBOL        hours
  D:0006H         SYMBOL        mins
  X:03E6H         SYMBOL        months
  X:03E8H         SYMBOL        days
  -------         ENDDO         
  C:24A0H         LINE#         204
  C:24A0H         LINE#         205
  C:24A0H         LINE#         209
  C:24A8H         LINE#         210
  C:24B0H         LINE#         212
  C:24B3H         LINE#         213
  C:24B3H         LINE#         214
  C:24B6H         LINE#         216
  C:24B6H         LINE#         217
  C:24C3H         LINE#         218
  C:24C3H         LINE#         219
  C:24C6H         LINE#         220
BL51 BANKED LINKER/LOCATER V6.22                                                      08/23/2018  10:26:33  PAGE 24


  C:24C9H         LINE#         222
  C:24CCH         LINE#         224
  C:24CCH         LINE#         225
  C:24D7H         LINE#         226
  C:24D7H         LINE#         227
  C:24DAH         LINE#         229
  C:24DAH         LINE#         230
  C:24E1H         LINE#         231
  C:24E1H         LINE#         232
  C:24E4H         LINE#         234
  C:24E4H         LINE#         235
  C:24ECH         LINE#         236
  C:24ECH         LINE#         237
  C:24F6H         LINE#         238
  C:24FEH         LINE#         240
  C:2507H         LINE#         242
  C:2507H         LINE#         251
  C:251CH         LINE#         252
  C:251CH         LINE#         253
  C:252EH         LINE#         254
  C:253CH         LINE#         255
  C:254BH         LINE#         256
  C:254BH         LINE#         258
  C:2551H         LINE#         262
  C:2567H         LINE#         263
  C:2578H         LINE#         264
  C:2593H         LINE#         265
  C:2593H         LINE#         266
  C:25A3H         LINE#         267
  C:25B4H         LINE#         268
  C:25B4H         LINE#         272
  C:25CDH         LINE#         273
  C:25E4H         LINE#         274
  C:2604H         LINE#         275
  C:2604H         LINE#         276
  C:260EH         LINE#         277
  C:260EH         LINE#         278
  C:2617H         LINE#         279
  C:2617H         LINE#         280
  C:262BH         LINE#         281
  C:262BH         LINE#         282
  C:262BH         LINE#         283
  C:262BH         LINE#         284
  C:262BH         LINE#         285
  C:262DH         LINE#         287
  C:262DH         LINE#         288
  C:2639H         LINE#         289
  C:2639H         LINE#         290
  C:264AH         LINE#         291
  C:264AH         LINE#         292
  C:264AH         LINE#         293
  C:264AH         LINE#         294
  C:264AH         LINE#         296
  C:264CH         LINE#         298
  C:264CH         LINE#         299
  C:265DH         LINE#         300
  C:265DH         LINE#         301
BL51 BANKED LINKER/LOCATER V6.22                                                      08/23/2018  10:26:33  PAGE 25


  C:265DH         LINE#         302
  C:265DH         LINE#         303
  C:265DH         LINE#         305
  C:265DH         LINE#         307
  C:265DH         LINE#         308
  C:265FH         LINE#         310
  C:265FH         LINE#         311
  C:2672H         LINE#         312
  C:2672H         LINE#         313
  C:2683H         LINE#         314
  C:2683H         LINE#         315
  C:2683H         LINE#         316
  C:2683H         LINE#         317
  C:2683H         LINE#         318
  C:2685H         LINE#         320
  C:2685H         LINE#         321
  C:2696H         LINE#         322
  C:2696H         LINE#         323
  C:26A7H         LINE#         324
  C:26B8H         LINE#         325
  C:26B8H         LINE#         326
  C:26B8H         LINE#         327
  C:26B8H         LINE#         328
  C:26B8H         LINE#         329
  C:26BBH         LINE#         330
  C:26C0H         LINE#         331
  C:26C5H         LINE#         332
  C:26CAH         LINE#         333
  C:26CFH         LINE#         334
  C:26D4H         LINE#         335
  C:26D9H         LINE#         336
  C:26DEH         LINE#         337
  C:26DEH         LINE#         339
  C:2700H         LINE#         340
  C:2700H         LINE#         341
  C:270AH         LINE#         342
  C:270AH         LINE#         343
  C:270FH         LINE#         344
  C:2718H         LINE#         345
  C:272FH         LINE#         346
  C:272FH         LINE#         347
  C:273FH         LINE#         349
  C:273FH         LINE#         353
  -------         ENDPROC       KEY_PROCESS
  -------         PROC          KEYPAD_IO_INIT
  C:3FCBH         LINE#         356
  C:3FCBH         LINE#         357
  C:3FCBH         LINE#         358
  C:3FCEH         LINE#         359
  C:3FD1H         LINE#         360
  C:3FD4H         LINE#         361
  C:3FD6H         LINE#         362
  -------         ENDPROC       KEYPAD_IO_INIT
  -------         ENDMOD        KEYPAD

  -------         MODULE        VCNL4035
  C:0000H         SYMBOL        _ICE_DUMMY_
BL51 BANKED LINKER/LOCATER V6.22                                                      08/23/2018  10:26:33  PAGE 26


  D:0080H         PUBLIC        P0
  B:00B0H.2       PUBLIC        I2C_SCK
  D:00B2H         PUBLIC        P3M0
  D:0090H         PUBLIC        P1
  D:00B1H         PUBLIC        P3M1
  D:00A0H         PUBLIC        P2
  D:00B0H         PUBLIC        P3
  D:00C0H         PUBLIC        P4
  D:00C8H         PUBLIC        P5
  D:00E8H         PUBLIC        P6
  D:00F8H         PUBLIC        P7
  D:00A8H         PUBLIC        IE
  C:4006H         PUBLIC        _DisplayLCD_VCNL4035
  D:00B8H         PUBLIC        IP
  D:00D8H         PUBLIC        CCON
  C:3F5AH         PUBLIC        I2C_Start
  D:0098H         PUBLIC        SCON
  C:3F06H         PUBLIC        I2C_Init
  D:0088H         PUBLIC        TCON
  C:3FA0H         PUBLIC        uC_NACK
  C:3DA7H         PUBLIC        _Wait_ms_i2c
  C:3DE9H         PUBLIC        _I2C_SendByte
  C:3F1DH         PUBLIC        I2C_Stop
  C:3BFFH         PUBLIC        _Write_VCNL4035X
  C:4016H         PUBLIC        nop
  C:3746H         PUBLIC        _Read_VCNL4035
  C:4000H         PUBLIC        uC_ACK
  C:3EA9H         PUBLIC        I2C_ACK
  C:3E69H         PUBLIC        _Wait_ms_iic
  B:00B0H.1       PUBLIC        I2C_SDA
  D:00D0H         PUBLIC        PSW
  C:3D74H         PUBLIC        I2C_ReceiveByte
  -------         PROC          _WAIT_MS_IIC
  D:0006H         SYMBOL        ms
  -------         DO            
  D:0004H         SYMBOL        De_Cnt
  -------         ENDDO         
  C:3E69H         LINE#         5
  C:3E69H         LINE#         6
  C:3E69H         LINE#         8
  C:3E73H         LINE#         9
  C:3E73H         LINE#         10
  C:3E86H         LINE#         11
  C:3E86H         LINE#         12
  -------         ENDPROC       _WAIT_MS_IIC
  C:3DA1H         SYMBOL        L?0048
  C:3DA3H         SYMBOL        L?0049
  -------         PROC          L?0047
  -------         ENDPROC       L?0047
  C:3DA1H         SYMBOL        L?0048
  C:3DA3H         SYMBOL        L?0049
  -------         PROC          _WAIT_MS_I2C
  D:0006H         SYMBOL        ms
  -------         DO            
  D:0004H         SYMBOL        De_Cnt
  -------         ENDDO         
  C:3DA7H         LINE#         14
BL51 BANKED LINKER/LOCATER V6.22                                                      08/23/2018  10:26:33  PAGE 27


  C:3DA7H         LINE#         15
  C:3DA7H         LINE#         17
  C:3DB1H         LINE#         18
  C:3DB1H         LINE#         19
  C:3DC4H         LINE#         20
  C:3DC4H         LINE#         21
  -------         ENDPROC       _WAIT_MS_I2C
  -------         PROC          NOP
  C:4016H         LINE#         22
  C:4016H         LINE#         23
  C:4016H         LINE#         25
  -------         ENDPROC       NOP
  -------         PROC          I2C_START
  C:3F5AH         LINE#         26
  C:3F5AH         LINE#         27
  C:3F5AH         LINE#         29
  C:3F5CH         LINE#         30
  C:3F5EH         LINE#         31
  C:3F65H         LINE#         32
  C:3F67H         LINE#         33
  C:3F6AH         LINE#         34
  C:3F6CH         LINE#         37
  -------         ENDPROC       I2C_START
  -------         PROC          I2C_STOP
  C:3F1DH         LINE#         39
  C:3F1DH         LINE#         40
  C:3F1DH         LINE#         41
  C:3F1FH         LINE#         42
  C:3F21H         LINE#         43
  C:3F24H         LINE#         44
  C:3F26H         LINE#         45
  C:3F28H         LINE#         46
  C:3F2FH         LINE#         47
  C:3F31H         LINE#         50
  -------         ENDPROC       I2C_STOP
  -------         PROC          L?0050
  -------         ENDPROC       L?0050
  -------         PROC          I2C_ACK
  -------         DO            
  X:03E7H         SYMBOL        i
  D:0003H         SYMBOL        dat
  -------         ENDDO         
  C:3EA9H         LINE#         52
  C:3EA9H         LINE#         53
  C:3EA9H         LINE#         55
  C:3EAAH         LINE#         60
  C:3EADH         LINE#         61
  C:3EAFH         LINE#         62
  C:3EB2H         LINE#         64
  C:3EB5H         LINE#         65
  C:3EB5H         LINE#         66
  C:3EB9H         LINE#         67
  C:3EB9H         LINE#         70
  C:3EB9H         LINE#         71
  C:3EBCH         LINE#         72
  C:3EBCH         LINE#         73
  C:3EBEH         LINE#         74
BL51 BANKED LINKER/LOCATER V6.22                                                      08/23/2018  10:26:33  PAGE 28


  -------         ENDPROC       I2C_ACK
  -------         PROC          UC_ACK
  -------         DO            
  X:0580H         SYMBOL        i
  -------         ENDDO         
  C:4000H         LINE#         75
  C:4000H         LINE#         76
  C:4000H         LINE#         78
  C:4000H         LINE#         85
  C:4000H         LINE#         87
  C:4000H         LINE#         89
  C:4000H         LINE#         90
  C:4000H         LINE#         93
  C:4003H         LINE#         94
  C:4005H         LINE#         95
  C:4005H         LINE#         99
  -------         ENDPROC       UC_ACK
  -------         PROC          UC_NACK
  -------         DO            
  X:0581H         SYMBOL        i
  -------         ENDDO         
  C:3FA0H         LINE#         101
  C:3FA0H         LINE#         102
  C:3FA0H         LINE#         104
  C:3FA0H         LINE#         108
  C:3FA2H         LINE#         111
  C:3FA2H         LINE#         112
  C:3FA4H         LINE#         113
  C:3FA4H         LINE#         115
  C:3FA4H         LINE#         116
  C:3FA4H         LINE#         119
  C:3FA7H         LINE#         120
  C:3FA9H         LINE#         121
  C:3FACH         LINE#         122
  C:3FAEH         LINE#         123
  C:3FAEH         LINE#         127
  -------         ENDPROC       UC_NACK
  -------         PROC          I2C_INIT
  C:3F06H         LINE#         129
  C:3F06H         LINE#         130
  C:3F06H         LINE#         133
  C:3F09H         LINE#         134
  C:3F0CH         LINE#         139
  C:3F14H         LINE#         141
  -------         ENDPROC       I2C_INIT
  -------         PROC          _I2C_SENDBYTE
  D:0001H         SYMBOL        dat
  -------         DO            
  D:0003H         SYMBOL        i
  -------         ENDDO         
  C:3DE9H         LINE#         145
  C:3DEBH         LINE#         146
  C:3DEBH         LINE#         149
  C:3DEDH         LINE#         150
  C:3DEDH         LINE#         151
  C:3DEFH         LINE#         153
  C:3DF3H         LINE#         154
BL51 BANKED LINKER/LOCATER V6.22                                                      08/23/2018  10:26:33  PAGE 29


  C:3DF3H         LINE#         155
  C:3DF5H         LINE#         156
  C:3DF7H         LINE#         158
  C:3DF7H         LINE#         159
  C:3DF9H         LINE#         160
  C:3DF9H         LINE#         161
  C:3DFCH         LINE#         162
  C:3DFEH         LINE#         164
  C:3E02H         LINE#         165
  C:3E05H         LINE#         166
  C:3E0AH         LINE#         167
  -------         ENDPROC       _I2C_SENDBYTE
  -------         PROC          L?0051
  -------         ENDPROC       L?0051
  -------         PROC          I2C_RECEIVEBYTE
  -------         DO            
  D:0003H         SYMBOL        i
  D:0001H         SYMBOL        dat
  -------         ENDDO         
  C:3D74H         LINE#         171
  C:3D74H         LINE#         172
  C:3D74H         LINE#         174
  C:3D76H         LINE#         178
  C:3D77H         LINE#         179
  C:3D77H         LINE#         180
  C:3D7BH         LINE#         181
  C:3D7DH         LINE#         182
  C:3D80H         LINE#         184
  C:3D83H         LINE#         185
  C:3D83H         LINE#         186
  C:3D87H         LINE#         187
  C:3D87H         LINE#         188
  C:3D87H         LINE#         189
  C:3D8AH         LINE#         190
  C:3D8EH         LINE#         191
  C:3D8EH         LINE#         192
  C:3D90H         LINE#         193
  C:3D92H         LINE#         194
  C:3D92H         LINE#         196
  C:3D97H         LINE#         197
  C:3D99H         LINE#         198
  -------         ENDPROC       I2C_RECEIVEBYTE
  -------         PROC          _WRITE_VCNL4035X
  X:03E4H         SYMBOL        command_code
  X:03E5H         SYMBOL        dat_h
  X:03E6H         SYMBOL        dat_l
  C:3BFFH         LINE#         199
  C:3C0AH         LINE#         200
  C:3C0AH         LINE#         201
  C:3C0DH         LINE#         202
  C:3C14H         LINE#         203
  C:3C14H         LINE#         204
  C:3C1AH         LINE#         205
  C:3C1AH         LINE#         206
  C:3C22H         LINE#         207
  C:3C22H         LINE#         208
  C:3C28H         LINE#         209
BL51 BANKED LINKER/LOCATER V6.22                                                      08/23/2018  10:26:33  PAGE 30


  C:3C30H         LINE#         211
  C:3C36H         LINE#         212
  C:3C3EH         LINE#         214
  C:3C44H         LINE#         215
  C:3C47H         LINE#         216
  -------         ENDPROC       _WRITE_VCNL4035X
  -------         PROC          _READ_VCNL4035
  X:0571H         SYMBOL        command_code
  -------         DO            
  X:0573H         SYMBOL        temp_dat
  X:0575H         SYMBOL        temp_dat_l
  X:0577H         SYMBOL        temp_dat_h
  -------         ENDDO         
  C:3746H         LINE#         218
  C:374EH         LINE#         219
  C:374EH         LINE#         220
  C:375BH         LINE#         222
  C:375EH         LINE#         223
  C:3761H         LINE#         224
  C:3766H         LINE#         226
  C:376CH         LINE#         227
  C:376CH         LINE#         228
  C:376CH         LINE#         229
  C:376CH         LINE#         230
  C:3777H         LINE#         231
  C:377AH         LINE#         232
  C:377DH         LINE#         233
  C:377DH         LINE#         236
  C:3780H         LINE#         238
  C:3787H         LINE#         239
  C:3787H         LINE#         240
  C:3787H         LINE#         241
  C:3792H         LINE#         242
  C:3795H         LINE#         243
  C:3798H         LINE#         244
  C:379BH         LINE#         245
  C:379EH         LINE#         246
  C:37A1H         LINE#         247
  C:37A4H         LINE#         248
  C:37A7H         LINE#         249
  C:37AAH         LINE#         250
  C:37AAH         LINE#         251
  C:37B0H         LINE#         252
  C:37B0H         LINE#         253
  C:37B9H         LINE#         255
  C:37B9H         LINE#         256
  C:37BFH         LINE#         257
  C:37BFH         LINE#         259
  C:37C1H         LINE#         260
  C:37C7H         LINE#         261
  C:37CAH         LINE#         262
  C:37D1H         LINE#         263
  C:37D1H         LINE#         264
  C:37DFH         LINE#         265
  -------         ENDPROC       _READ_VCNL4035
  -------         PROC          _DISPLAYLCD_VCNL4035
  X:0582H         SYMBOL        dat
BL51 BANKED LINKER/LOCATER V6.22                                                      08/23/2018  10:26:33  PAGE 31


  C:4006H         LINE#         267
  C:400BH         LINE#         268
  C:400BH         LINE#         270
  -------         ENDPROC       _DISPLAYLCD_VCNL4035
  -------         ENDMOD        VCNL4035

  -------         MODULE        BIPOLARMOTOR
  C:0000H         SYMBOL        _ICE_DUMMY_
  D:0080H         PUBLIC        P0
  D:0090H         PUBLIC        P1
  D:00A0H         PUBLIC        P2
  D:00B0H         PUBLIC        P3
  D:00C0H         PUBLIC        P4
  D:00C8H         PUBLIC        P5
  D:00E8H         PUBLIC        P6
  D:00F8H         PUBLIC        P7
  D:00A8H         PUBLIC        IE
  C:356EH         PUBLIC        linear_interpolate
  C:1984H         PUBLIC        second_order_interpolate
  X:0000H         PUBLIC        Time_stamp_PM
  C:3D07H         PUBLIC        _Move
  D:00B8H         PUBLIC        IP
  C:29CEH         PUBLIC        _findDet3x3
  C:21E0H         PUBLIC        _findDet4x4
  D:00D8H         PUBLIC        CCON
  D:0098H         PUBLIC        SCON
  D:0088H         PUBLIC        TCON
  C:3B5CH         PUBLIC        _Step_move
  C:0902H         PUBLIC        _Update_position
  X:0054H         PUBLIC        RX_pos
  X:039CH         PUBLIC        date_declination_mapping
  C:3EDEH         PUBLIC        _BCDtoDec1
  X:03C4H         PUBLIC        degree
  D:00D0H         PUBLIC        PSW
  C:3ED7H         SYMBOL        L?0079
  -------         PROC          L?0078
  -------         ENDPROC       L?0078
  C:3ED7H         SYMBOL        L?0079
  -------         PROC          _BCDTODEC1
  D:0007H         SYMBOL        bcd
  -------         DO            
  D:0006H         SYMBOL        hi
  D:0007H         SYMBOL        lo
  -------         ENDDO         
  C:3EDEH         LINE#         22
  C:3EDEH         LINE#         23
  C:3EDEH         LINE#         25
  C:3EE3H         LINE#         26
  C:3EE7H         LINE#         27
  C:3EEEH         LINE#         28
  -------         ENDPROC       _BCDTODEC1
  -------         PROC          _STEP_MOVE
  X:0493H         SYMBOL        step
  B:0020H.6       SYMBOL        dir
  -------         DO            
  X:0495H         SYMBOL        i
  -------         ENDDO         
BL51 BANKED LINKER/LOCATER V6.22                                                      08/23/2018  10:26:33  PAGE 32


  C:3B5CH         LINE#         34
  C:3B64H         LINE#         35
  C:3B64H         LINE#         36
  C:3B69H         LINE#         37
  C:3B6CH         LINE#         38
  C:3B71H         LINE#         40
  C:3B74H         LINE#         42
  C:3B90H         LINE#         43
  C:3B90H         LINE#         44
  C:3B93H         LINE#         45
  C:3B9AH         LINE#         46
  C:3B9DH         LINE#         47
  C:3BA4H         LINE#         48
  C:3BB4H         LINE#         49
  -------         ENDPROC       _STEP_MOVE
  -------         PROC          _MOVE
  X:048FH         SYMBOL        distance
  B:0020H.5       SYMBOL        direction
  -------         DO            
  D:0006H         SYMBOL        step
  -------         ENDDO         
  C:3D07H         LINE#         51
  C:3D0DH         LINE#         52
  C:3D0DH         LINE#         54
  C:3D34H         LINE#         55
  -------         ENDPROC       _MOVE
  C:29AFH         SYMBOL        L?0075
  C:29C3H         SYMBOL        L?0076
  -------         PROC          L?0074
  -------         ENDPROC       L?0074
  C:29AFH         SYMBOL        L?0075
  C:29C3H         SYMBOL        L?0076
  -------         PROC          _FINDDET3X3
  X:04BFH         SYMBOL        a11
  X:04C3H         SYMBOL        a12
  X:04C7H         SYMBOL        a13
  X:04CBH         SYMBOL        a21
  X:04CFH         SYMBOL        a22
  X:04D3H         SYMBOL        a23
  X:04D7H         SYMBOL        a31
  X:04DBH         SYMBOL        a32
  X:04DFH         SYMBOL        a33
  C:29CEH         LINE#         59
  C:29D4H         LINE#         63
  C:29D4H         LINE#         64
  C:2B6BH         LINE#         66
  -------         ENDPROC       _FINDDET3X3
  -------         PROC          _FINDDET4X4
  X:04F8H         SYMBOL        a11
  X:04FCH         SYMBOL        a12
  X:0500H         SYMBOL        a13
  X:0504H         SYMBOL        a14
  X:0508H         SYMBOL        a21
  X:050CH         SYMBOL        a22
  X:0510H         SYMBOL        a23
  X:0514H         SYMBOL        a24
  X:0518H         SYMBOL        a31
BL51 BANKED LINKER/LOCATER V6.22                                                      08/23/2018  10:26:33  PAGE 33


  X:051CH         SYMBOL        a32
  X:0520H         SYMBOL        a33
  X:0524H         SYMBOL        a34
  X:0528H         SYMBOL        a41
  X:052CH         SYMBOL        a42
  X:0530H         SYMBOL        a43
  X:0534H         SYMBOL        a44
  C:21E0H         LINE#         67
  C:21E6H         LINE#         71
  C:21E6H         LINE#         78
  C:249FH         LINE#         82
  -------         ENDPROC       _FINDDET4X4
  -------         PROC          LINEAR_INTERPOLATE
  X:0554H         SYMBOL        p1
  X:055CH         SYMBOL        p2
  X:0564H         SYMBOL        x
  -------         DO            
  D:0004H         SYMBOL        fx
  -------         ENDDO         
  C:356EH         LINE#         88
  C:356EH         LINE#         89
  C:356EH         LINE#         92
  C:360DH         LINE#         94
  C:360DH         LINE#         95
  -------         ENDPROC       LINEAR_INTERPOLATE
  -------         PROC          L?0077
  -------         ENDPROC       L?0077
  -------         PROC          SECOND_ORDER_INTERPOLATE
  X:048FH         SYMBOL        p1
  X:0497H         SYMBOL        p2
  X:049FH         SYMBOL        p3
  X:04A7H         SYMBOL        x
  -------         DO            
  X:04ABH         SYMBOL        det
  X:04AFH         SYMBOL        det_x
  X:04B3H         SYMBOL        det_y
  X:04B7H         SYMBOL        det_z
  X:04BBH         SYMBOL        fx
  -------         ENDDO         
  C:1984H         LINE#         100
  C:1984H         LINE#         101
  C:1984H         LINE#         105
  C:1A64H         LINE#         107
  C:1AF2H         LINE#         109
  C:1BD2H         LINE#         111
  C:1CD0H         LINE#         112
  C:1CEBH         LINE#         113
  C:1DB3H         LINE#         115
  C:1DBDH         LINE#         116
  C:1DCBH         LINE#         117
  -------         ENDPROC       SECOND_ORDER_INTERPOLATE
  -------         PROC          _UPDATE_POSITION
  X:03E4H         SYMBOL        mnths
  X:03E5H         SYMBOL        dys
  X:03E6H         SYMBOL        hurs
  X:03E7H         SYMBOL        mns
  X:03E8H         SYMBOL        sconds
BL51 BANKED LINKER/LOCATER V6.22                                                      08/23/2018  10:26:33  PAGE 34


  X:03E9H         SYMBOL        currnt_pos
  -------         DO            
  X:03ECH         SYMBOL        date
  X:03EEH         SYMBOL        i
  X:03F0H         SYMBOL        yy
  X:03F2H         SYMBOL        desired_distance
  X:03F6H         SYMBOL        distance
  X:03FAH         SYMBOL        JP_pos
  X:03FEH         SYMBOL        pos_interpolate_12_17h
  X:0452H         SYMBOL        current_time
  X:0456H         SYMBOL        declination
  X:045AH         SYMBOL        p1
  X:0462H         SYMBOL        p2
  X:046AH         SYMBOL        p3
  X:0472H         SYMBOL        time
  X:0484H         SYMBOL        location
  X:048CH         SYMBOL        sunCoord
  -------         ENDDO         
  C:0902H         LINE#         119
  C:0910H         LINE#         122
  C:0910H         LINE#         124
  C:091AH         LINE#         131
  C:0920H         LINE#         132
  C:0927H         LINE#         133
  C:0931H         LINE#         134
  C:093CH         LINE#         135
  C:094CH         LINE#         136
  C:0960H         LINE#         137
  C:0974H         LINE#         138
  C:0983H         LINE#         141
  C:0997H         LINE#         142
  C:09AAH         LINE#         144
  C:09FCH         LINE#         146
  C:0A61H         LINE#         149
  C:0A7BH         LINE#         150
  C:0A7BH         LINE#         151
  C:0AEBH         LINE#         152
  C:0AEBH         LINE#         153
  C:0AF2H         LINE#         154
  C:0AF2H         LINE#         155
  C:0B1FH         LINE#         156
  C:0B3AH         LINE#         158
  C:0B81H         LINE#         159
  C:0BB5H         LINE#         160
  C:0BD3H         LINE#         161
  C:0BD3H         LINE#         162
  C:0C5AH         LINE#         163
  C:0C5AH         LINE#         164
  C:0C87H         LINE#         165
  C:0C91H         LINE#         166
  C:0C93H         LINE#         168
  C:0C93H         LINE#         169
  C:0CC0H         LINE#         170
  C:0CF4H         LINE#         171
  C:0CF4H         LINE#         172
  C:0CF4H         LINE#         173
  C:0CFEH         LINE#         174
BL51 BANKED LINKER/LOCATER V6.22                                                      08/23/2018  10:26:33  PAGE 35


  C:0CFEH         LINE#         175
  C:0D2BH         LINE#         176
  C:0D5FH         LINE#         177
  C:0D5FH         LINE#         178
  C:0D6BH         LINE#         179
  C:0D6BH         LINE#         180
  C:0D98H         LINE#         181
  C:0DCCH         LINE#         182
  C:0DCCH         LINE#         183
  C:0E37H         LINE#         184
  C:0E59H         LINE#         185
  C:0E59H         LINE#         186
  C:0E59H         LINE#         187
  C:0E6AH         LINE#         190
  C:0E84H         LINE#         191
  C:0E84H         LINE#         192
  C:0F03H         LINE#         193
  C:0F03H         LINE#         194
  C:0F30H         LINE#         195
  C:0F4BH         LINE#         197
  C:0F78H         LINE#         198
  C:0F93H         LINE#         199
  C:0F9DH         LINE#         200
  C:0F9DH         LINE#         201
  C:0FADH         LINE#         202
  C:0FADH         LINE#         204
  C:0FB0H         LINE#         205
  C:0FBCH         LINE#         206
  C:0FBCH         LINE#         207
  C:0FCCH         LINE#         208
  C:0FCCH         LINE#         209
  C:0FCFH         LINE#         211
  C:0FCFH         LINE#         212
  C:1056H         LINE#         213
  C:1056H         LINE#         214
  C:1083H         LINE#         215
  C:108AH         LINE#         216
  C:108CH         LINE#         218
  C:108CH         LINE#         219
  C:10B9H         LINE#         220
  C:10D4H         LINE#         221
  C:10D4H         LINE#         222
  C:10D4H         LINE#         224
  C:1119H         LINE#         225
  C:111BH         LINE#         227
  C:111BH         LINE#         229
  C:112CH         LINE#         231
  C:1153H         LINE#         233
  C:1178H         LINE#         235
  C:1195H         LINE#         236
  C:11A4H         LINE#         238
  C:11B4H         LINE#         240
  C:11D0H         LINE#         243
  -------         ENDPROC       _UPDATE_POSITION
  -------         ENDMOD        BIPOLARMOTOR

  -------         MODULE        SUNPOS
BL51 BANKED LINKER/LOCATER V6.22                                                      08/23/2018  10:26:33  PAGE 36


  C:0000H         SYMBOL        _ICE_DUMMY_
  C:11D1H         PUBLIC        sunpos
  -------         PROC          SUNPOS
  X:048FH         SYMBOL        udtTime
  X:04A1H         SYMBOL        udtLocation
  X:04A9H         SYMBOL        udtSunCoordinates
  -------         DO            
  X:04ACH         SYMBOL        dElapsedJulianDays
  X:04B0H         SYMBOL        dDecimalHours
  X:04B4H         SYMBOL        dEclipticLongitude
  X:04B8H         SYMBOL        dEclipticObliquity
  X:04BCH         SYMBOL        dRightAscension
  X:04C0H         SYMBOL        dDeclination
  X:04C4H         SYMBOL        dY
  X:04C8H         SYMBOL        dX
  -------         DO            
  X:04CCH         SYMBOL        dJulianDate
  X:04D0H         SYMBOL        liAux1
  X:04D4H         SYMBOL        liAux2
  X:04CCH         SYMBOL        dMeanLongitude
  X:04D0H         SYMBOL        dMeanAnomaly
  X:04D4H         SYMBOL        dOmega
  X:04CCH         SYMBOL        dSin_EclipticLongitude
  X:04CCH         SYMBOL        dGreenwichMeanSiderealTime
  X:04D0H         SYMBOL        dLocalMeanSiderealTime
  X:04D4H         SYMBOL        dLatitudeInRadians
  X:04D8H         SYMBOL        dHourAngle
  X:04DCH         SYMBOL        dCos_Latitude
  X:04E0H         SYMBOL        dSin_Latitude
  X:04E4H         SYMBOL        dCos_HourAngle
  X:04E8H         SYMBOL        dParallax
  -------         ENDDO         
  -------         DO            
  X:04CCH         SYMBOL        dMeanLongitude
  X:04D0H         SYMBOL        dMeanAnomaly
  X:04D4H         SYMBOL        dOmega
  X:04CCH         SYMBOL        dSin_EclipticLongitude
  X:04CCH         SYMBOL        dGreenwichMeanSiderealTime
  X:04D0H         SYMBOL        dLocalMeanSiderealTime
  X:04D4H         SYMBOL        dLatitudeInRadians
  X:04D8H         SYMBOL        dHourAngle
  X:04DCH         SYMBOL        dCos_Latitude
  X:04E0H         SYMBOL        dSin_Latitude
  X:04E4H         SYMBOL        dCos_HourAngle
  X:04E8H         SYMBOL        dParallax
  -------         ENDDO         
  -------         DO            
  X:04CCH         SYMBOL        dSin_EclipticLongitude
  X:04CCH         SYMBOL        dGreenwichMeanSiderealTime
  X:04D0H         SYMBOL        dLocalMeanSiderealTime
  X:04D4H         SYMBOL        dLatitudeInRadians
  X:04D8H         SYMBOL        dHourAngle
  X:04DCH         SYMBOL        dCos_Latitude
  X:04E0H         SYMBOL        dSin_Latitude
  X:04E4H         SYMBOL        dCos_HourAngle
  X:04E8H         SYMBOL        dParallax
  -------         ENDDO         
BL51 BANKED LINKER/LOCATER V6.22                                                      08/23/2018  10:26:33  PAGE 37


  -------         DO            
  X:04CCH         SYMBOL        dGreenwichMeanSiderealTime
  X:04D0H         SYMBOL        dLocalMeanSiderealTime
  X:04D4H         SYMBOL        dLatitudeInRadians
  X:04D8H         SYMBOL        dHourAngle
  X:04DCH         SYMBOL        dCos_Latitude
  X:04E0H         SYMBOL        dSin_Latitude
  X:04E4H         SYMBOL        dCos_HourAngle
  X:04E8H         SYMBOL        dParallax
  -------         ENDDO         
  -------         ENDDO         
  C:11D1H         LINE#         6
  C:11D1H         LINE#         7
  C:11D1H         LINE#         9
  C:11D1H         LINE#         27
  C:121BH         LINE#         30
  C:123CH         LINE#         31
  C:1383H         LINE#         34
  C:13CFH         LINE#         36
  C:13EEH         LINE#         37
  C:13EEH         LINE#         42
  C:13EEH         LINE#         46
  C:1420H         LINE#         47
  C:144AH         LINE#         48
  C:1474H         LINE#         49
  C:1521H         LINE#         52
  C:1582H         LINE#         54
  C:1582H         LINE#         59
  C:1582H         LINE#         61
  C:1599H         LINE#         62
  C:15C1H         LINE#         63
  C:15D8H         LINE#         64
  C:1603H         LINE#         65
  C:163AH         LINE#         66
  C:1665H         LINE#         67
  C:1665H         LINE#         70
  C:1665H         LINE#         79
  C:16A0H         LINE#         82
  C:16DAH         LINE#         84
  C:16FFH         LINE#         85
  C:171EH         LINE#         86
  C:1735H         LINE#         87
  C:174CH         LINE#         88
  C:1763H         LINE#         89
  C:17ECH         LINE#         91
  C:1806H         LINE#         92
  C:1868H         LINE#         93
  C:189EH         LINE#         94
  C:18B0H         LINE#         95
  C:18DDH         LINE#         96
  C:190AH         LINE#         98
  C:192CH         LINE#         100
  C:1964H         LINE#         103
  C:1964H         LINE#         104
  C:1972H         LINE#         105
  -------         ENDPROC       SUNPOS
  -------         ENDMOD        SUNPOS
BL51 BANKED LINKER/LOCATER V6.22                                                      08/23/2018  10:26:33  PAGE 38



  -------         MODULE        ?C_STARTUP
  C:390FH         SEGMENT       ?C_C51STARTUP
  I:0021H         SEGMENT       ?STACK
  C:0000H         PUBLIC        ?C_STARTUP
  D:00E0H         SYMBOL        ACC
  D:00F0H         SYMBOL        B
  D:0083H         SYMBOL        DPH
  D:0082H         SYMBOL        DPL
  N:0000H         SYMBOL        IBPSTACK
  N:0100H         SYMBOL        IBPSTACKTOP
  N:0080H         SYMBOL        IDATALEN
  C:3912H         SYMBOL        IDATALOOP
  N:0000H         SYMBOL        PBPSTACK
  N:0100H         SYMBOL        PBPSTACKTOP
  N:0000H         SYMBOL        PDATALEN
  N:0000H         SYMBOL        PDATASTART
  N:0000H         SYMBOL        PPAGE
  N:0000H         SYMBOL        PPAGEENABLE
  D:00A0H         SYMBOL        PPAGE_SFR
  D:0081H         SYMBOL        SP
  C:390FH         SYMBOL        STARTUP1
  N:0000H         SYMBOL        XBPSTACK
  N:0000H         SYMBOL        XBPSTACKTOP
  N:0000H         SYMBOL        XDATALEN
  N:0000H         SYMBOL        XDATASTART
  C:0000H         LINE#         126
  C:390FH         LINE#         133
  C:3911H         LINE#         134
  C:3912H         LINE#         135
  C:3913H         LINE#         136
  C:3915H         LINE#         185
  C:3918H         LINE#         196
  -------         ENDMOD        ?C_STARTUP

  -------         MODULE        ?C?FPADD
  C:002DH         PUBLIC        ?C?FPADD
  C:0029H         PUBLIC        ?C?FPSUB
  -------         ENDMOD        ?C?FPADD

  -------         MODULE        ?C?FPMUL
  C:011EH         PUBLIC        ?C?FPMUL
  -------         ENDMOD        ?C?FPMUL

  -------         MODULE        ?C?FPDIV
  C:0227H         PUBLIC        ?C?FPDIV
  -------         ENDMOD        ?C?FPDIV

  -------         MODULE        ?C?FPCMP
  C:02C6H         PUBLIC        ?C?FPCMP
  C:02C4H         PUBLIC        ?C?FPCMP3
  -------         ENDMOD        ?C?FPCMP

  -------         MODULE        ?C?FPNEG
  C:033DH         PUBLIC        ?C?FPNEG
  -------         ENDMOD        ?C?FPNEG

BL51 BANKED LINKER/LOCATER V6.22                                                      08/23/2018  10:26:33  PAGE 39


  -------         MODULE        ?C?FCAST
  C:0358H         PUBLIC        ?C?FCASTC
  C:0353H         PUBLIC        ?C?FCASTI
  C:034EH         PUBLIC        ?C?FCASTL
  -------         ENDMOD        ?C?FCAST

  -------         MODULE        ?C?CASTF
  C:038CH         PUBLIC        ?C?CASTF
  -------         ENDMOD        ?C?CASTF

  -------         MODULE        ATAN2
  X:04ECH         PUBLIC        ?_atan2?BYTE
  C:360EH         PUBLIC        _atan2
  -------         ENDMOD        ATAN2

  -------         MODULE        SIN
  C:2EF6H         PUBLIC        _COS
  C:2F0CH         PUBLIC        _SIN
  C:2F48H         PUBLIC        _TAN
  -------         ENDMOD        SIN

  -------         MODULE        ACOS
  C:3BB5H         PUBLIC        _ACOS
  -------         ENDMOD        ACOS

  -------         MODULE        ASIN
  C:3CCCH         PUBLIC        _ASIN
  -------         ENDMOD        ASIN

  -------         MODULE        POW
  X:04BFH         PUBLIC        ?_pow?BYTE
  C:3036H         PUBLIC        _pow
  -------         ENDMOD        POW

  -------         MODULE        ?C?CHKFLOAT
  C:040DH         PUBLIC        ?C?CHKFLOAT
  -------         ENDMOD        ?C?CHKFLOAT

  -------         MODULE        EXP
  C:3818H         PUBLIC        _EXP
  -------         ENDMOD        EXP

  -------         MODULE        LOG
  C:31D0H         PUBLIC        _LOG
  C:31CCH         PUBLIC        _LOG10
  -------         ENDMOD        LOG

  -------         MODULE        SQRT
  C:34C6H         PUBLIC        _SQRT
  -------         ENDMOD        SQRT

  -------         MODULE        ATAN
  C:32E5H         PUBLIC        _ATAN
  -------         ENDMOD        ATAN

  -------         MODULE        ?C?COPY
  C:0544H         PUBLIC        ?C?COPY
BL51 BANKED LINKER/LOCATER V6.22                                                      08/23/2018  10:26:33  PAGE 40


  -------         ENDMOD        ?C?COPY

  -------         MODULE        ?C?CLDPTR
  C:056AH         PUBLIC        ?C?CLDPTR
  -------         ENDMOD        ?C?CLDPTR

  -------         MODULE        ?C?CSTPTR
  C:0583H         PUBLIC        ?C?CSTPTR
  -------         ENDMOD        ?C?CSTPTR

  -------         MODULE        ?C?IMUL
  C:0595H         PUBLIC        ?C?IMUL
  -------         ENDMOD        ?C?IMUL

  -------         MODULE        ?C?UIDIV
  C:05A7H         PUBLIC        ?C?UIDIV
  -------         ENDMOD        ?C?UIDIV

  -------         MODULE        ?C?SIDIV
  C:05FCH         PUBLIC        ?C?SIDIV
  -------         ENDMOD        ?C?SIDIV

  -------         MODULE        ?C?ILDIX
  C:0632H         PUBLIC        ?C?ILDIX
  -------         ENDMOD        ?C?ILDIX

  -------         MODULE        ?C?LMUL
  C:0648H         PUBLIC        ?C?LMUL
  -------         ENDMOD        ?C?LMUL

  -------         MODULE        ?C?SLDIV
  C:3C48H         PUBLIC        ?C?SLDIV
  -------         ENDMOD        ?C?SLDIV

  -------         MODULE        ?C?LNEG
  C:0697H         PUBLIC        ?C?LNEG
  -------         ENDMOD        ?C?LNEG

  -------         MODULE        ?C?LLDPTR
  C:06A5H         PUBLIC        ?C?LLDPTR
  -------         ENDMOD        ?C?LLDPTR

  -------         MODULE        ?C?LLDOPTR
  C:06C5H         PUBLIC        ?C?LLDOPTR
  -------         ENDMOD        ?C?LLDOPTR

  -------         MODULE        ?C?LSTPTR
  C:06F5H         PUBLIC        ?C?LSTPTR
  -------         ENDMOD        ?C?LSTPTR

  -------         MODULE        ?C?LSTOPTR
  C:070FH         PUBLIC        ?C?LSTOPTR
  -------         ENDMOD        ?C?LSTOPTR

  -------         MODULE        ?C?LLDXDATA
  C:0733H         PUBLIC        ?C?LLDXDATA
  -------         ENDMOD        ?C?LLDXDATA
BL51 BANKED LINKER/LOCATER V6.22                                                      08/23/2018  10:26:33  PAGE 41



  -------         MODULE        ?C?LLDCODE
  C:073FH         PUBLIC        ?C?LLDCODE
  -------         ENDMOD        ?C?LLDCODE

  -------         MODULE        ?C?LLDXDATA0
  C:074FH         PUBLIC        ?C?LLDXDATA0
  -------         ENDMOD        ?C?LLDXDATA0

  -------         MODULE        ?C?LLDCODE0
  C:075BH         PUBLIC        ?C?LLDCODE0
  -------         ENDMOD        ?C?LLDCODE0

  -------         MODULE        ?C?LLDPTR0
  C:076BH         PUBLIC        ?C?LLDPTR0
  -------         ENDMOD        ?C?LLDPTR0

  -------         MODULE        ?C?LSTXDATA
  C:078BH         PUBLIC        ?C?LSTXDATA
  -------         ENDMOD        ?C?LSTXDATA

  -------         MODULE        ?C?LSTKXDATA
  C:0797H         PUBLIC        ?C?LSTKXDATA
  -------         ENDMOD        ?C?LSTKXDATA

  -------         MODULE        ?C?OFFXADD
  C:07C8H         PUBLIC        ?C?OFFXADD
  -------         ENDMOD        ?C?OFFXADD

  -------         MODULE        ABS
  C:3FD7H         PUBLIC        _ABS
  -------         ENDMOD        ABS

  -------         MODULE        ATOI
  C:33E7H         PUBLIC        _atoi
  -------         ENDMOD        ATOI

  -------         MODULE        ?C?IILDX
  C:07D4H         PUBLIC        ?C?IILDX
  -------         ENDMOD        ?C?IILDX

  -------         MODULE        ?C?ULDIV
  C:0826H         PUBLIC        ?C?ULDIV
  -------         ENDMOD        ?C?ULDIV

  -------         MODULE        ?C?LLDIDATA
  C:08B8H         PUBLIC        ?C?LLDIDATA
  -------         ENDMOD        ?C?LLDIDATA

  -------         MODULE        ?C?LLDPDATA
  C:08C4H         PUBLIC        ?C?LLDPDATA
  -------         ENDMOD        ?C?LLDPDATA

  -------         MODULE        ?C?LLDIDATA0
  C:08D0H         PUBLIC        ?C?LLDIDATA0
  -------         ENDMOD        ?C?LLDIDATA0

BL51 BANKED LINKER/LOCATER V6.22                                                      08/23/2018  10:26:33  PAGE 42


  -------         MODULE        ?C?LLDPDATA0
  C:08DDH         PUBLIC        ?C?LLDPDATA0
  -------         ENDMOD        ?C?LLDPDATA0

  -------         MODULE        ?C?LSTIDATA
  C:08EAH         PUBLIC        ?C?LSTIDATA
  -------         ENDMOD        ?C?LSTIDATA

  -------         MODULE        ?C?LSTPDATA
  C:08F6H         PUBLIC        ?C?LSTPDATA
  -------         ENDMOD        ?C?LSTPDATA

  -------         MODULE        ISDIGIT
  C:3FAFH         PUBLIC        _isdigit
  -------         ENDMOD        ISDIGIT

  -------         MODULE        ISSPACE
  C:3F46H         PUBLIC        _isspace
  -------         ENDMOD        ISSPACE

*** WARNING L16: UNCALLED SEGMENT, IGNORED FOR OVERLAY PROCESS
    SEGMENT: ?PR?_DISPLAY_PROX?MAIN

*** WARNING L16: UNCALLED SEGMENT, IGNORED FOR OVERLAY PROCESS
    SEGMENT: ?PR?INITUART1?UART1

*** WARNING L16: UNCALLED SEGMENT, IGNORED FOR OVERLAY PROCESS
    SEGMENT: ?PR?_SENDSTRING?UART1

*** WARNING L16: UNCALLED SEGMENT, IGNORED FOR OVERLAY PROCESS
    SEGMENT: ?PR?_TEN?UART1

*** WARNING L16: UNCALLED SEGMENT, IGNORED FOR OVERLAY PROCESS
    SEGMENT: ?PR?_UNIT?UART1

*** WARNING L16: UNCALLED SEGMENT, IGNORED FOR OVERLAY PROCESS
    SEGMENT: ?PR?_DECTOBCD?UART1

*** WARNING L16: UNCALLED SEGMENT, IGNORED FOR OVERLAY PROCESS
    SEGMENT: ?PR?_ASCII_LETTER?UART1

*** WARNING L16: UNCALLED SEGMENT, IGNORED FOR OVERLAY PROCESS
    SEGMENT: ?PR?NOP?VCNL4035

*** WARNING L16: UNCALLED SEGMENT, IGNORED FOR OVERLAY PROCESS
    SEGMENT: ?PR?_READ_VCNL4035?VCNL4035

*** WARNING L16: UNCALLED SEGMENT, IGNORED FOR OVERLAY PROCESS
    SEGMENT: ?PR?_DISPLAYLCD_VCNL4035?VCNL4035

*** WARNING L16: UNCALLED SEGMENT, IGNORED FOR OVERLAY PROCESS
    SEGMENT: ?PR?_FINDDET4X4?BIPOLARMOTOR

*** WARNING L16: UNCALLED SEGMENT, IGNORED FOR OVERLAY PROCESS
    SEGMENT: ?PR?LINEAR_INTERPOLATE?BIPOLARMOTOR

*** WARNING L1: UNRESOLVED EXTERNAL SYMBOL
BL51 BANKED LINKER/LOCATER V6.22                                                      08/23/2018  10:26:33  PAGE 43


    SYMBOL:  AUTO_MODE
    MODULE:  .\Obj\main.obj (MAIN)

*** WARNING L2: REFERENCE MADE TO UNRESOLVED EXTERNAL
    SYMBOL:  AUTO_MODE
    MODULE:  .\Obj\main.obj (MAIN)
    ADDRESS: 275DH

*** WARNING L2: REFERENCE MADE TO UNRESOLVED EXTERNAL
    SYMBOL:  AUTO_MODE
    MODULE:  .\Obj\main.obj (MAIN)
    ADDRESS: 2825H

*** WARNING L2: REFERENCE MADE TO UNRESOLVED EXTERNAL
    SYMBOL:  AUTO_MODE
    MODULE:  .\Obj\main.obj (MAIN)
    ADDRESS: 2833H

*** WARNING L2: REFERENCE MADE TO UNRESOLVED EXTERNAL
    SYMBOL:  AUTO_MODE
    MODULE:  .\Obj\main.obj (MAIN)
    ADDRESS: 2845H

*** WARNING L2: REFERENCE MADE TO UNRESOLVED EXTERNAL
    SYMBOL:  AUTO_MODE
    MODULE:  .\Obj\main.obj (MAIN)
    ADDRESS: 2887H

*** WARNING L2: REFERENCE MADE TO UNRESOLVED EXTERNAL
    SYMBOL:  AUTO_MODE
    MODULE:  .\Obj\main.obj (MAIN)
    ADDRESS: 295EH

*** WARNING L1: UNRESOLVED EXTERNAL SYMBOL
    SYMBOL:  AUTO_MODE
    MODULE:  .\Obj\KeyPad.obj (KEYPAD)

*** WARNING L2: REFERENCE MADE TO UNRESOLVED EXTERNAL
    SYMBOL:  AUTO_MODE
    MODULE:  .\Obj\KeyPad.obj (KEYPAD)
    ADDRESS: 24EDH

*** WARNING L2: REFERENCE MADE TO UNRESOLVED EXTERNAL
    SYMBOL:  AUTO_MODE
    MODULE:  .\Obj\KeyPad.obj (KEYPAD)
    ADDRESS: 24F8H

*** WARNING L2: REFERENCE MADE TO UNRESOLVED EXTERNAL
    SYMBOL:  AUTO_MODE
    MODULE:  .\Obj\KeyPad.obj (KEYPAD)
    ADDRESS: 24FFH

Program Size: data=18.0 xdata=1411 code=16407
LINK/LOCATE RUN COMPLETE.  23 WARNING(S),  0 ERROR(S)
