BL51 BANKED LINKER/LOCATER V6.22                                                        08/24/2018  18:06:45  PAGE 1


BL51 BANKED LINKER/LOCATER V6.22, INVOKED BY:
C:\KEIL_V5\C51\BIN\BL51.EXE .\Obj\main.obj, .\Obj\PCF85063BTL.obj, .\Obj\UART1.obj, .\Obj\LCd_Driver_SPLC780D.obj, .\Obj
>> \KeyPad.obj, .\Obj\VCNL4035.obj, .\Obj\BipolarMotor.obj, .\Obj\SunPos.obj, .\Obj\STARTUP.obj TO .\Obj\GPIO_RTC_Test P
>> RINT (.\Lis\GPIO_RTC_Test.m51) RAMSIZE (256)


MEMORY MODEL: LARGE WITH FLOATING POINT ARITHMETIC


INPUT MODULES INCLUDED:
  .\Obj\main.obj (MAIN)
  .\Obj\PCF85063BTL.obj (PCF85063BTL)
  .\Obj\UART1.obj (UART1)
  .\Obj\LCd_Driver_SPLC780D.obj (LCD_DRIVER_SPLC780D)
  .\Obj\KeyPad.obj (KEYPAD)
  .\Obj\VCNL4035.obj (VCNL4035)
  .\Obj\BipolarMotor.obj (BIPOLARMOTOR)
  .\Obj\SunPos.obj (SUNPOS)
  .\Obj\STARTUP.obj (?C_STARTUP)
  C:\KEIL_V5\C51\LIB\C51FPL.LIB (?C?FPADD)
  C:\KEIL_V5\C51\LIB\C51FPL.LIB (?C?FPMUL)
  C:\KEIL_V5\C51\LIB\C51FPL.LIB (?C?FPDIV)
  C:\KEIL_V5\C51\LIB\C51FPL.LIB (?C?FPCMP)
  C:\KEIL_V5\C51\LIB\C51FPL.LIB (?C?FPNEG)
  C:\KEIL_V5\C51\LIB\C51FPL.LIB (?C?FCAST)
  C:\KEIL_V5\C51\LIB\C51FPL.LIB (?C?CASTF)
  C:\KEIL_V5\C51\LIB\C51FPL.LIB (ATAN2)
  C:\KEIL_V5\C51\LIB\C51FPL.LIB (SIN)
  C:\KEIL_V5\C51\LIB\C51FPL.LIB (ACOS)
  C:\KEIL_V5\C51\LIB\C51FPL.LIB (ASIN)
  C:\KEIL_V5\C51\LIB\C51FPL.LIB (?C?FPGETOPN)
  C:\KEIL_V5\C51\LIB\C51FPL.LIB (?C?FPSERIES)
  C:\KEIL_V5\C51\LIB\C51FPL.LIB (SQRT)
  C:\KEIL_V5\C51\LIB\C51FPL.LIB (ATAN)
  C:\KEIL_V5\C51\LIB\C51L.LIB (?C_INIT)
  C:\KEIL_V5\C51\LIB\C51L.LIB (?C?COPY)
  C:\KEIL_V5\C51\LIB\C51L.LIB (?C?CLDPTR)
  C:\KEIL_V5\C51\LIB\C51L.LIB (?C?CSTPTR)
  C:\KEIL_V5\C51\LIB\C51L.LIB (?C?IMUL)
  C:\KEIL_V5\C51\LIB\C51L.LIB (?C?UIDIV)
  C:\KEIL_V5\C51\LIB\C51L.LIB (?C?SIDIV)
  C:\KEIL_V5\C51\LIB\C51L.LIB (?C?ILDIX)
  C:\KEIL_V5\C51\LIB\C51L.LIB (?C?LMUL)
  C:\KEIL_V5\C51\LIB\C51L.LIB (?C?SLDIV)
  C:\KEIL_V5\C51\LIB\C51L.LIB (?C?LNEG)
  C:\KEIL_V5\C51\LIB\C51L.LIB (?C?LLDPTR)
  C:\KEIL_V5\C51\LIB\C51L.LIB (?C?LLDOPTR)
  C:\KEIL_V5\C51\LIB\C51L.LIB (?C?LSTPTR)
  C:\KEIL_V5\C51\LIB\C51L.LIB (?C?LSTOPTR)
  C:\KEIL_V5\C51\LIB\C51L.LIB (?C?LLDXDATA)
  C:\KEIL_V5\C51\LIB\C51L.LIB (?C?LLDCODE)
  C:\KEIL_V5\C51\LIB\C51L.LIB (?C?LLDXDATA0)
  C:\KEIL_V5\C51\LIB\C51L.LIB (?C?LLDCODE0)
  C:\KEIL_V5\C51\LIB\C51L.LIB (?C?LLDPTR0)
  C:\KEIL_V5\C51\LIB\C51L.LIB (?C?LSTXDATA)
  C:\KEIL_V5\C51\LIB\C51L.LIB (?C?LSTKXDATA)
  C:\KEIL_V5\C51\LIB\C51L.LIB (?C?OFFXADD)
  C:\KEIL_V5\C51\LIB\C51L.LIB (ABS)
BL51 BANKED LINKER/LOCATER V6.22                                                      08/24/2018  18:06:45  PAGE 2


  C:\KEIL_V5\C51\LIB\C51L.LIB (ATOI)
  C:\KEIL_V5\C51\LIB\C51L.LIB (?C?IILDX)
  C:\KEIL_V5\C51\LIB\C51L.LIB (?C?ULDIV)
  C:\KEIL_V5\C51\LIB\C51L.LIB (?C?LLDIDATA)
  C:\KEIL_V5\C51\LIB\C51L.LIB (?C?LLDPDATA)
  C:\KEIL_V5\C51\LIB\C51L.LIB (?C?LLDIDATA0)
  C:\KEIL_V5\C51\LIB\C51L.LIB (?C?LLDPDATA0)
  C:\KEIL_V5\C51\LIB\C51L.LIB (?C?LSTIDATA)
  C:\KEIL_V5\C51\LIB\C51L.LIB (?C?LSTPDATA)
  C:\KEIL_V5\C51\LIB\C51L.LIB (ISDIGIT)
  C:\KEIL_V5\C51\LIB\C51L.LIB (ISSPACE)


LINK MAP OF MODULE:  .\Obj\GPIO_RTC_Test (MAIN)


            TYPE    BASE      LENGTH    RELOCATION   SEGMENT NAME
            -----------------------------------------------------

            * * * * * * *   D A T A   M E M O R Y   * * * * * * *
            REG     0000H     0008H     ABSOLUTE     "REG BANK 0"
            REG     0008H     0008H     ABSOLUTE     "REG BANK 1"
                    0010H     0010H                  *** GAP ***
            BIT     0020H.0   0000H.4   UNIT         ?BI?KEYPAD
            BIT     0020H.4   0000H.3   UNIT         _BIT_GROUP_
            BIT     0020H.7   0000H.1   UNIT         ?BI?MAIN
            IDATA   0021H     0001H     UNIT         ?STACK

            * * * * * * *  X D A T A   M E M O R Y  * * * * * * *
            XDATA   0000H     03C8H     UNIT         ?XD?BIPOLARMOTOR
            XDATA   03C8H     0128H     UNIT         _XDATA_GROUP_
            XDATA   04F0H     0040H     UNIT         ?XD?_FINDDET4X4?BIPOLARMOTOR
            XDATA   0530H     0024H     UNIT         ?XD?_FINDDET3X3?BIPOLARMOTOR
            XDATA   0554H     001CH     UNIT         ?XD?MAIN
            XDATA   0570H     0009H     UNIT         ?XD?KEYPAD
            XDATA   0579H     0008H     UNIT         ?XD?_READ_VCNL4035?VCNL4035
            XDATA   0581H     0004H     UNIT         ?XD?_DISPLAY_PROX?MAIN
            XDATA   0585H     0003H     UNIT         ?XD?_SENDSTRING?UART1
            XDATA   0588H     0001H     UNIT         ?XD?UC_ACK?VCNL4035
            XDATA   0589H     0001H     UNIT         ?XD?UC_NACK?VCNL4035
            XDATA   058AH     0001H     UNIT         ?XD?_DISPLAYLCD_VCNL4035?VCNL4035

            * * * * * * *   C O D E   M E M O R Y   * * * * * * *
            CODE    0000H     0003H     ABSOLUTE     
            CODE    0003H     0006H     UNIT         ?PR?_TEN?UART1
            CODE    0009H     0001H     UNIT         ?PR?TM0_ISR?MAIN
            CODE    000AH     0001H     UNIT         ?PR?_DECTOBCD?UART1
            CODE    000BH     0003H     ABSOLUTE     
            CODE    000EH     0015H     UNIT         ?PR?_DISPLAY_LINE?LCD_DRIVER_SPLC780D
            CODE    0023H     0003H     ABSOLUTE     
            CODE    0026H     08C2H     UNIT         ?C?LIB_CODE
            CODE    08E8H     07A2H     UNIT         ?PR?SUNPOS?SUNPOS
            CODE    108AH     052AH     UNIT         ?PR?_UPDATE_POSITION?BIPOLARMOTOR
            CODE    15B4H     0414H     UNIT         ?C_INITSEG
            CODE    19C8H     02C0H     UNIT         ?PR?_FINDDET4X4?BIPOLARMOTOR
            CODE    1C88H     02A0H     UNIT         ?PR?KEY_PROCESS?KEYPAD
            CODE    1F28H     0286H     UNIT         ?PR?MAIN?MAIN
BL51 BANKED LINKER/LOCATER V6.22                                                      08/24/2018  18:06:45  PAGE 3


            CODE    21AEH     01D1H     UNIT         ?PR?_FINDDET3X3?BIPOLARMOTOR
            CODE    237FH     01B5H     UNIT         ?PR?_DISPLAY_POS?MAIN
            CODE    2534H     018DH     UNIT         ?PR?KEY_SCAN?KEYPAD
            CODE    26C1H     0188H     UNIT         ?PR?SIN?SIN
            CODE    2849H     0122H     UNIT         ?PR?ATAN?ATAN
            CODE    296BH     00DBH     UNIT         ?PR?_ATOI?ATOI
            CODE    2A46H     00B1H     UNIT         ?PR?LINEAR_INTERPOLATE?BIPOLARMOTOR
            CODE    2AF7H     00ACH     UNIT         ?PR?SQRT?SQRT
            CODE    2BA3H     009DH     UNIT         ?PR?_ATAN2?ATAN2
            CODE    2C40H     009BH     UNIT         ?PR?UART?MAIN
            CODE    2CDBH     009AH     UNIT         ?PR?_READ_VCNL4035?VCNL4035
            CODE    2D75H     0095H     UNIT         ?PR?_DISPLAY_PROX?MAIN
            CODE    2E0AH     008CH     UNIT         ?C_C51STARTUP
            CODE    2E96H     0084H     UNIT         ?PR?_DAY_OF_YEAR?PCF85063BTL
            CODE    2F1AH     0075H     UNIT         ?PR?_WRITEDATA?LCD_DRIVER_SPLC780D
            CODE    2F8FH     006FH     UNIT         ?PR?_READ_TIME?PCF85063BTL
            CODE    2FFEH     0059H     UNIT         ?PR?LCD_INIT?LCD_DRIVER_SPLC780D
            CODE    3057H     0059H     UNIT         ?PR?_STEP_MOVE?BIPOLARMOTOR
            CODE    30B0H     004AH     UNIT         ?PR?ACOS?ACOS
            CODE    30FAH     0049H     UNIT         ?PR?_WRITE_VCNL4035X?VCNL4035
            CODE    3143H     0044H     UNIT         ?C?LDIV
            CODE    3187H     0040H     UNIT         ?PR?_COMMAND?LCD_DRIVER_SPLC780D
            CODE    31C7H     003BH     UNIT         ?PR?ASIN?ASIN
            CODE    3202H     0034H     UNIT         ?PR?_MOVE?BIPOLARMOTOR
            CODE    3236H     0033H     UNIT         ?PR?_SENDSTRING?UART1
            CODE    3269H     002CH     UNIT         ?PR?I2C_RECEIVEBYTE?VCNL4035
            CODE    3295H     002BH     UNIT         ?PR?_WAIT_MS_I2C?VCNL4035
            CODE    32C0H     0024H     UNIT         ?PR?_WAIT_MS?LCD_DRIVER_SPLC780D
            CODE    32E4H     0022H     UNIT         ?PR?_I2C_SENDBYTE?VCNL4035
            CODE    3306H     0020H     UNIT         ?PR?_SPI_SENDBYTE?PCF85063BTL
            CODE    3326H     0020H     UNIT         ?PR?SPI_RECEIVEBYTE?PCF85063BTL
            CODE    3346H     001EH     UNIT         ?PR?_DELAY_MS?KEYPAD
            CODE    3364H     001EH     UNIT         ?PR?_WAIT_MS_IIC?VCNL4035
            CODE    3382H     001DH     UNIT         ?PR?_DISPLAYLCD?LCD_DRIVER_SPLC780D
            CODE    339FH     001BH     UNIT         ?PR?I2C_ACK?VCNL4035
            CODE    33BAH     001BH     UNIT         ?PR?_BCDTODEC1?BIPOLARMOTOR
            CODE    33D5H     0018H     UNIT         ?PR?_SPI_WRITETIME?PCF85063BTL
            CODE    33EDH     0017H     UNIT         ?PR?_ASCIITOBCD?UART1
            CODE    3404H     0017H     UNIT         ?PR?I2C_INIT?VCNL4035
            CODE    341BH     0015H     UNIT         ?PR?I2C_STOP?VCNL4035
            CODE    3430H     0014H     UNIT         ?PR?_PCF85063BTL_DELAY?PCF85063BTL
            CODE    3444H     0014H     UNIT         ?PR?_ISSPACE?ISSPACE
            CODE    3458H     0013H     UNIT         ?PR?I2C_START?VCNL4035
            CODE    346BH     0011H     UNIT         ?PR?_SPI_READTIME?PCF85063BTL
            CODE    347CH     0011H     UNIT         ?PR?_BCDTODEC?PCF85063BTL
            CODE    348DH     0011H     UNIT         ?PR?INITUART1?UART1
            CODE    349EH     000FH     UNIT         ?PR?UC_NACK?VCNL4035
            CODE    34ADH     000FH     UNIT         ?PR?_ISDIGIT?ISDIGIT
            CODE    34BCH     000DH     UNIT         ?PR?SPI_INIT?PCF85063BTL
            CODE    34C9H     000CH     UNIT         ?PR?KEYPAD_IO_INIT?KEYPAD
            CODE    34D5H     000CH     UNIT         ?PR?_ABS?ABS
            CODE    34E1H     000AH     UNIT         ?PR?LCD_RETURN_HOME?LCD_DRIVER_SPLC780D
            CODE    34EBH     000AH     UNIT         ?PR?LCD_CLEAR?LCD_DRIVER_SPLC780D
            CODE    34F5H     0009H     UNIT         ?PR?_SENDUART1?MAIN
            CODE    34FEH     0006H     UNIT         ?PR?UC_ACK?VCNL4035
            CODE    3504H     0006H     UNIT         ?PR?_DISPLAYLCD_VCNL4035?VCNL4035
            CODE    350AH     0005H     UNIT         ?PR?_UNIT?UART1
BL51 BANKED LINKER/LOCATER V6.22                                                      08/24/2018  18:06:45  PAGE 4


            CODE    350FH     0005H     UNIT         ?PR?_ASCII_LETTER?UART1
            CODE    3514H     0001H     UNIT         ?PR?NOP?VCNL4035



OVERLAY MAP OF MODULE:   .\Obj\GPIO_RTC_Test (MAIN)


SEGMENT                                            BIT_GROUP          XDATA_GROUP
  +--> CALLED SEGMENT                           START    LENGTH     START    LENGTH
-----------------------------------------------------------------------------------
?PR?UART?MAIN                                   -----    -----      -----    -----
  +--> ?PR?_ASCIITOBCD?UART1

?PR?_ASCIITOBCD?UART1                           -----    -----      -----    -----
  +--> ?PR?_ATOI?ATOI

?PR?_ATOI?ATOI                                  0020H.4  0000H.1    03C8H    0005H
  +--> ?PR?_ISSPACE?ISSPACE
  +--> ?PR?_ISDIGIT?ISDIGIT

*** NEW ROOT ***************************************************

?C_C51STARTUP                                   -----    -----      -----    -----
  +--> ?PR?MAIN?MAIN
  +--> ?C_INITSEG

?PR?MAIN?MAIN                                   -----    -----      03CDH    0017H
  +--> ?PR?LCD_INIT?LCD_DRIVER_SPLC780D
  +--> ?PR?SPI_INIT?PCF85063BTL
  +--> ?PR?KEYPAD_IO_INIT?KEYPAD
  +--> ?PR?I2C_INIT?VCNL4035
  +--> ?PR?_DELAY_MS?KEYPAD
  +--> ?PR?_DISPLAY_LINE?LCD_DRIVER_SPLC780D
  +--> ?PR?_WRITEDATA?LCD_DRIVER_SPLC780D
  +--> ?PR?KEY_PROCESS?KEYPAD
  +--> ?PR?_COMMAND?LCD_DRIVER_SPLC780D
  +--> ?PR?_DISPLAY_POS?MAIN
  +--> ?PR?_DISPLAYLCD?LCD_DRIVER_SPLC780D
  +--> ?PR?_STEP_MOVE?BIPOLARMOTOR
  +--> ?PR?LCD_RETURN_HOME?LCD_DRIVER_SPLC780D
  +--> ?PR?_READ_TIME?PCF85063BTL
  +--> ?PR?_UPDATE_POSITION?BIPOLARMOTOR

?PR?LCD_INIT?LCD_DRIVER_SPLC780D                -----    -----      -----    -----
  +--> ?PR?_WAIT_MS?LCD_DRIVER_SPLC780D
  +--> ?PR?_COMMAND?LCD_DRIVER_SPLC780D

?PR?_COMMAND?LCD_DRIVER_SPLC780D                -----    -----      -----    -----
  +--> ?PR?_WAIT_MS?LCD_DRIVER_SPLC780D

?PR?I2C_INIT?VCNL4035                           -----    -----      -----    -----
  +--> ?PR?_WRITE_VCNL4035X?VCNL4035

?PR?_WRITE_VCNL4035X?VCNL4035                   -----    -----      03E4H    0003H
  +--> ?PR?I2C_START?VCNL4035
  +--> ?PR?_WAIT_MS_I2C?VCNL4035
BL51 BANKED LINKER/LOCATER V6.22                                                      08/24/2018  18:06:45  PAGE 5


  +--> ?PR?I2C_ACK?VCNL4035
  +--> ?PR?_I2C_SENDBYTE?VCNL4035
  +--> ?PR?I2C_STOP?VCNL4035

?PR?I2C_START?VCNL4035                          -----    -----      -----    -----
  +--> ?PR?_WAIT_MS_IIC?VCNL4035
  +--> ?PR?_WAIT_MS_I2C?VCNL4035

?PR?I2C_ACK?VCNL4035                            -----    -----      03E7H    0001H
  +--> ?PR?_I2C_SENDBYTE?VCNL4035
  +--> ?PR?_WAIT_MS_I2C?VCNL4035

?PR?_I2C_SENDBYTE?VCNL4035                      -----    -----      -----    -----
  +--> ?PR?_WAIT_MS_I2C?VCNL4035

?PR?I2C_STOP?VCNL4035                           -----    -----      -----    -----
  +--> ?PR?_WAIT_MS_I2C?VCNL4035

?PR?_DISPLAY_LINE?LCD_DRIVER_SPLC780D           -----    -----      -----    -----
  +--> ?PR?_COMMAND?LCD_DRIVER_SPLC780D

?PR?_WRITEDATA?LCD_DRIVER_SPLC780D              -----    -----      03EEH    0001H
  +--> ?PR?_WAIT_MS?LCD_DRIVER_SPLC780D

?PR?KEY_PROCESS?KEYPAD                          -----    -----      03E4H    0006H
  +--> ?PR?KEY_SCAN?KEYPAD
  +--> ?PR?_SPI_WRITETIME?PCF85063BTL
  +--> ?PR?LCD_CLEAR?LCD_DRIVER_SPLC780D
  +--> ?PR?_COMMAND?LCD_DRIVER_SPLC780D
  +--> ?PR?_WRITEDATA?LCD_DRIVER_SPLC780D

?PR?KEY_SCAN?KEYPAD                             -----    -----      03EAH    0003H

?PR?_SPI_WRITETIME?PCF85063BTL                  -----    -----      -----    -----
  +--> ?PR?_SPI_SENDBYTE?PCF85063BTL

?PR?_SPI_SENDBYTE?PCF85063BTL                   -----    -----      -----    -----
  +--> ?PR?_PCF85063BTL_DELAY?PCF85063BTL

?PR?LCD_CLEAR?LCD_DRIVER_SPLC780D               -----    -----      -----    -----
  +--> ?PR?_COMMAND?LCD_DRIVER_SPLC780D

?PR?_DISPLAY_POS?MAIN                           -----    -----      03E4H    000AH
  +--> ?PR?_ABS?ABS
  +--> ?PR?_WRITEDATA?LCD_DRIVER_SPLC780D

?PR?_DISPLAYLCD?LCD_DRIVER_SPLC780D             -----    -----      03E4H    0001H
  +--> ?PR?_WRITEDATA?LCD_DRIVER_SPLC780D

?PR?_STEP_MOVE?BIPOLARMOTOR                     0020H.6  0000H.1    048BH    0004H
  +--> ?PR?_WAIT_MS?LCD_DRIVER_SPLC780D

?PR?LCD_RETURN_HOME?LCD_DRIVER_SPLC780D         -----    -----      -----    -----
  +--> ?PR?_COMMAND?LCD_DRIVER_SPLC780D

?PR?_READ_TIME?PCF85063BTL                      -----    -----      03E4H    000FH
  +--> ?PR?_SPI_READTIME?PCF85063BTL
BL51 BANKED LINKER/LOCATER V6.22                                                      08/24/2018  18:06:45  PAGE 6



?PR?_SPI_READTIME?PCF85063BTL                   -----    -----      -----    -----
  +--> ?PR?_SPI_SENDBYTE?PCF85063BTL
  +--> ?PR?SPI_RECEIVEBYTE?PCF85063BTL

?PR?SPI_RECEIVEBYTE?PCF85063BTL                 -----    -----      -----    -----
  +--> ?PR?_PCF85063BTL_DELAY?PCF85063BTL

?PR?_UPDATE_POSITION?BIPOLARMOTOR               -----    -----      03E4H    00A3H
  +--> ?PR?_BCDTODEC1?BIPOLARMOTOR
  +--> ?PR?SUNPOS?SUNPOS
  +--> ?PR?LINEAR_INTERPOLATE?BIPOLARMOTOR
  +--> ?PR?_MOVE?BIPOLARMOTOR

?PR?SUNPOS?SUNPOS                               -----    -----      0487H    005DH
  +--> ?PR?SIN?SIN
  +--> ?PR?_ATAN2?ATAN2
  +--> ?PR?ASIN?ASIN
  +--> ?PR?ACOS?ACOS

?PR?SIN?SIN                                     0020H.5  0000H.1    04E4H    0004H

?PR?_ATAN2?ATAN2                                -----    -----      04E4H    0008H
  +--> ?PR?ATAN?ATAN

?PR?ATAN?ATAN                                   0020H.5  0000H.2    04ECH    0004H

?PR?ASIN?ASIN                                   -----    -----      -----    -----
  +--> ?PR?SQRT?SQRT
  +--> ?PR?ATAN?ATAN

?PR?SQRT?SQRT                                   -----    -----      04E4H    0004H

?PR?ACOS?ACOS                                   -----    -----      -----    -----
  +--> ?PR?SQRT?SQRT
  +--> ?PR?ATAN?ATAN

?PR?LINEAR_INTERPOLATE?BIPOLARMOTOR             -----    -----      0487H    0014H

?PR?_MOVE?BIPOLARMOTOR                          0020H.5  0000H.1    0487H    0004H
  +--> ?PR?_STEP_MOVE?BIPOLARMOTOR



UNRESOLVED EXTERNAL SYMBOLS:
   AUTO_MODE



SYMBOL TABLE OF MODULE:  .\Obj\GPIO_RTC_Test (MAIN)

  VALUE           TYPE          NAME
  ----------------------------------

  -------         MODULE        MAIN
  C:0000H         SYMBOL        _ICE_DUMMY_
  D:0080H         PUBLIC        P0
BL51 BANKED LINKER/LOCATER V6.22                                                      08/24/2018  18:06:45  PAGE 7


  D:0090H         PUBLIC        P1
  D:00A0H         PUBLIC        P2
  D:00B0H         PUBLIC        P3
  D:00C0H         PUBLIC        P4
  D:00C8H         PUBLIC        P5
  X:055CH         SYMBOL        PressedKey
  B:00A8H.7       PUBLIC        EA
  D:00E8H         PUBLIC        P6
  D:00F8H         PUBLIC        P7
  X:0560H         PUBLIC        RX_Data_Uart_Cnt
  D:00A8H         PUBLIC        IE
  D:00B8H         PUBLIC        IP
  B:0098H.0       PUBLIC        RI
  B:0098H.1       PUBLIC        TI
  C:2C40H         PUBLIC        Uart
  D:00D8H         PUBLIC        CCON
  C:1F28H         PUBLIC        main
  D:0099H         PUBLIC        SBUF
  D:0098H         PUBLIC        SCON
  D:0089H         PUBLIC        TMOD
  D:0088H         PUBLIC        TCON
  B:00B0H.3       PUBLIC        P33
  X:0562H         SYMBOL        KeyCount
  X:0564H         PUBLIC        Rec_data_hour
  X:0567H         PUBLIC        Rec_data_min
  D:008EH         PUBLIC        AUXR
  C:0009H         PUBLIC        tm0_isr
  B:0020H.7       PUBLIC        busy
  D:00E0H         PUBLIC        ACC
  B:00A8H.1       PUBLIC        ET0
  D:008CH         PUBLIC        TH0
  X:056AH         PUBLIC        hour_count
  D:008AH         PUBLIC        TL0
  X:056BH         PUBLIC        min_count
  B:0088H.4       PUBLIC        TR0
  X:056CH         SYMBOL        KeyNum
  X:056DH         SYMBOL        KeyNum_Old
  C:2D75H         PUBLIC        _Display_Prox
  C:237FH         PUBLIC        _Display_Pos
  X:056EH         PUBLIC        st_time
  D:00D0H         PUBLIC        PSW
  C:34F5H         PUBLIC        _SendUART1
  -------         PROC          TM0_ISR
  C:0009H         LINE#         53
  C:0009H         LINE#         56
  -------         ENDPROC       TM0_ISR
  -------         PROC          MAIN
  -------         DO            
  X:03CDH         SYMBOL        seconds
  X:03CEH         SYMBOL        mins
  X:03CFH         SYMBOL        hours
  X:03D0H         SYMBOL        days
  X:03D1H         SYMBOL        months
  X:03D2H         SYMBOL        mins1
  X:03D3H         SYMBOL        hours1
  X:03D4H         SYMBOL        mins2
  X:03D5H         SYMBOL        hours2
BL51 BANKED LINKER/LOCATER V6.22                                                      08/24/2018  18:06:45  PAGE 8


  X:03D6H         SYMBOL        prox_data
  X:0554H         SYMBOL        KeyCount
  X:0556H         SYMBOL        KeyNum_Old
  X:0557H         SYMBOL        KeyNum
  X:0558H         SYMBOL        PressedKey
  X:03D8H         SYMBOL        prox_flag
  X:03D9H         SYMBOL        count
  X:03DBH         SYMBOL        numStr
  X:03E0H         SYMBOL        current_position
  -------         ENDDO         
  C:1F28H         LINE#         58
  C:1F28H         LINE#         59
  C:1F28H         LINE#         64
  C:1F2EH         LINE#         66
  C:1F33H         LINE#         68
  C:1F3DH         LINE#         69
  C:1F3FH         LINE#         70
  C:1F41H         LINE#         71
  C:1F43H         LINE#         72
  C:1F4AH         LINE#         81
  C:1F4DH         LINE#         82
  C:1F50H         LINE#         83
  C:1F53H         LINE#         85
  C:1F56H         LINE#         87
  C:1F59H         LINE#         88
  C:1F5CH         LINE#         89
  C:1F5FH         LINE#         90
  C:1F61H         LINE#         91
  C:1F63H         LINE#         92
  C:1F65H         LINE#         94
  C:1F67H         LINE#         96
  C:1F6EH         LINE#         98
  C:1F75H         LINE#         102
  C:1F7CH         LINE#         103
  C:1F81H         LINE#         104
  C:1F86H         LINE#         105
  C:1F8BH         LINE#         106
  C:1F90H         LINE#         107
  C:1F95H         LINE#         110
  C:1F95H         LINE#         111
  C:1F95H         LINE#         112
  C:1F98H         LINE#         115
  C:1F98H         LINE#         118
  C:1F9DH         LINE#         119
  C:1FA2H         LINE#         121
  C:1FA7H         LINE#         122
  C:1FACH         LINE#         123
  C:1FB1H         LINE#         124
  C:1FB6H         LINE#         126
  C:1FC7H         LINE#         128
  C:1FCEH         LINE#         129
  C:1FD6H         LINE#         130
  C:1FDBH         LINE#         131
  C:1FE3H         LINE#         132
  C:1FE8H         LINE#         133
  C:1FF2H         LINE#         134
  C:1FF7H         LINE#         135
BL51 BANKED LINKER/LOCATER V6.22                                                      08/24/2018  18:06:45  PAGE 9


  C:1FFFH         LINE#         137
  C:2007H         LINE#         138
  C:200CH         LINE#         139
  C:2016H         LINE#         140
  C:2016H         LINE#         141
  C:2018H         LINE#         142
  C:201AH         LINE#         143
  C:2024H         LINE#         144
  C:2024H         LINE#         145
  C:2029H         LINE#         146
  C:2029H         LINE#         158
  C:2036H         LINE#         159
  C:2036H         LINE#         160
  C:2040H         LINE#         161
  C:2057H         LINE#         162
  C:2057H         LINE#         163
  C:2059H         LINE#         164
  C:205BH         LINE#         166
  C:205BH         LINE#         167
  C:2066H         LINE#         168
  C:2066H         LINE#         169
  C:206BH         LINE#         170
  C:206BH         LINE#         171
  C:2078H         LINE#         172
  C:2078H         LINE#         175
  C:2082H         LINE#         176
  C:2099H         LINE#         177
  C:2099H         LINE#         178
  C:209BH         LINE#         179
  C:209DH         LINE#         181
  C:209DH         LINE#         182
  C:20A8H         LINE#         183
  C:20A8H         LINE#         184
  C:20ADH         LINE#         185
  C:20AFH         LINE#         186
  C:20AFH         LINE#         195
  C:20D1H         LINE#         196
  C:20D1H         LINE#         197
  C:20DBH         LINE#         198
  C:20E1H         LINE#         199
  C:20E3H         LINE#         200
  C:20E5H         LINE#         201
  C:20E7H         LINE#         202
  C:20E7H         LINE#         203
  C:20EAH         LINE#         205
  C:20EAH         LINE#         206
  C:20F2H         LINE#         207
  C:20FAH         LINE#         208
  C:2102H         LINE#         209
  C:210AH         LINE#         210
  C:2145H         LINE#         214
  C:2152H         LINE#         215
  C:2152H         LINE#         216
  C:2185H         LINE#         217
  C:21ABH         LINE#         219
  C:21ABH         LINE#         236
  -------         ENDPROC       MAIN
BL51 BANKED LINKER/LOCATER V6.22                                                      08/24/2018  18:06:45  PAGE 10


  -------         PROC          UART
  C:2C40H         LINE#         243
  C:2C4DH         LINE#         245
  C:2C50H         LINE#         246
  C:2C50H         LINE#         247
  C:2C5EH         LINE#         248
  C:2C60H         LINE#         249
  C:2C72H         LINE#         250
  C:2C81H         LINE#         251
  C:2C8CH         LINE#         252
  C:2C8CH         LINE#         255
  C:2C99H         LINE#         256
  C:2C9FH         LINE#         257
  C:2C9FH         LINE#         258
  C:2CA5H         LINE#         259
  C:2CB3H         LINE#         260
  C:2CC1H         LINE#         261
  C:2CC9H         LINE#         266
  C:2CC9H         LINE#         267
  C:2CC9H         LINE#         270
  C:2CC9H         LINE#         271
  C:2CCCH         LINE#         272
  C:2CCCH         LINE#         273
  C:2CCEH         LINE#         274
  C:2CD0H         LINE#         275
  C:2CD0H         LINE#         276
  -------         ENDPROC       UART
  -------         PROC          _SENDUART1
  D:0007H         SYMBOL        dat
  C:34F5H         LINE#         279
  C:34F5H         LINE#         280
  C:34F5H         LINE#         281
  C:34F8H         LINE#         282
  C:34FAH         LINE#         283
  C:34FBH         LINE#         284
  C:34FDH         LINE#         285
  -------         ENDPROC       _SENDUART1
  -------         PROC          _DISPLAY_PROX
  D:0002H         SYMBOL        dat
  -------         DO            
  X:0581H         SYMBOL        unit
  X:0582H         SYMBOL        ten
  X:0583H         SYMBOL        hundred
  X:0584H         SYMBOL        thousand
  -------         ENDDO         
  C:2D75H         LINE#         288
  C:2D79H         LINE#         289
  C:2D79H         LINE#         291
  C:2D85H         LINE#         292
  C:2D95H         LINE#         293
  C:2DB1H         LINE#         294
  C:2DE1H         LINE#         295
  C:2DEBH         LINE#         296
  C:2DF5H         LINE#         297
  C:2DFFH         LINE#         298
  C:2E09H         LINE#         300
  -------         ENDPROC       _DISPLAY_PROX
BL51 BANKED LINKER/LOCATER V6.22                                                      08/24/2018  18:06:45  PAGE 11


  -------         PROC          _DISPLAY_POS
  X:03E4H         SYMBOL        sign_dat
  -------         DO            
  X:03E8H         SYMBOL        unit
  X:03E9H         SYMBOL        ten
  X:03EAH         SYMBOL        hundred
  D:0003H         SYMBOL        thousand
  X:03EBH         SYMBOL        after_dot
  X:03ECH         SYMBOL        dat
  -------         ENDDO         
  C:237FH         LINE#         303
  C:2385H         LINE#         304
  C:2385H         LINE#         308
  C:23A1H         LINE#         309
  C:23BBH         LINE#         310
  C:23DFH         LINE#         312
  C:2429H         LINE#         314
  C:2440H         LINE#         315
  C:244DH         LINE#         316
  C:246FH         LINE#         317
  C:24A4H         LINE#         318
  C:24BCH         LINE#         319
  C:24BCH         LINE#         321
  C:24C6H         LINE#         322
  C:24D0H         LINE#         323
  C:24DAH         LINE#         324
  C:24DFH         LINE#         325
  C:24E9H         LINE#         326
  C:24EEH         LINE#         327
  C:24F3H         LINE#         328
  C:24F5H         LINE#         329
  C:24F7H         LINE#         331
  C:24F7H         LINE#         333
  C:24FCH         LINE#         334
  C:2506H         LINE#         335
  C:2510H         LINE#         336
  C:251AH         LINE#         337
  C:251FH         LINE#         338
  C:2529H         LINE#         339
  C:252EH         LINE#         340
  C:2533H         LINE#         342
  C:2533H         LINE#         344
  -------         ENDPROC       _DISPLAY_POS
  -------         ENDMOD        MAIN

  -------         MODULE        PCF85063BTL
  C:0000H         SYMBOL        _ICE_DUMMY_
  D:0096H         PUBLIC        P2M0
  D:0080H         PUBLIC        P0
  D:0095H         PUBLIC        P2M1
  D:0090H         PUBLIC        P1
  D:00A0H         PUBLIC        P2
  D:00B0H         PUBLIC        P3
  D:00C0H         PUBLIC        P4
  D:00C8H         PUBLIC        P5
  D:00E8H         PUBLIC        P6
  B:00A0H.2       PUBLIC        PCF85063BTL_SDI
BL51 BANKED LINKER/LOCATER V6.22                                                      08/24/2018  18:06:45  PAGE 12


  D:00F8H         PUBLIC        P7
  B:00A0H.1       PUBLIC        PCF85063BTL_SCK
  B:00A0H.2       PUBLIC        PCF85063BTL_SDO
  D:00A8H         PUBLIC        IE
  C:2F8FH         PUBLIC        _Read_time
  C:3436H         PUBLIC        _PCF85063BTL_Delay
  D:00B8H         PUBLIC        IP
  D:00D8H         PUBLIC        CCON
  C:2E96H         PUBLIC        _Day_Of_Year
  C:3326H         PUBLIC        SPI_ReceiveByte
  D:0098H         PUBLIC        SCON
  D:0088H         PUBLIC        TCON
  C:347CH         PUBLIC        _BCDtoDec
  B:00A0H.0       PUBLIC        PCF85063BTL_CS
  C:346BH         PUBLIC        _SPI_ReadTime
  C:34BCH         PUBLIC        SPI_Init
  C:33D5H         PUBLIC        _SPI_WriteTime
  C:3306H         PUBLIC        _SPI_SendByte
  D:00D0H         PUBLIC        PSW
  C:3432H         SYMBOL        L?0047
  -------         PROC          L?0046
  -------         ENDPROC       L?0046
  C:3432H         SYMBOL        L?0047
  -------         PROC          _PCF85063BTL_DELAY
  D:0006H         SYMBOL        us
  C:3436H         LINE#         8
  C:3436H         LINE#         9
  C:3436H         LINE#         10
  C:3440H         LINE#         11
  C:3440H         LINE#         12
  C:3441H         LINE#         13
  C:3443H         LINE#         14
  -------         ENDPROC       _PCF85063BTL_DELAY
  -------         PROC          _SPI_SENDBYTE
  D:0005H         SYMBOL        dat
  -------         DO            
  D:0003H         SYMBOL        i
  -------         ENDDO         
  C:3306H         LINE#         17
  C:3308H         LINE#         18
  C:3308H         LINE#         20
  C:330AH         LINE#         21
  C:330AH         LINE#         22
  C:330CH         LINE#         23
  C:3310H         LINE#         24
  C:3310H         LINE#         25
  C:3312H         LINE#         26
  C:3314H         LINE#         28
  C:3314H         LINE#         29
  C:3316H         LINE#         30
  C:3316H         LINE#         31
  C:3319H         LINE#         32
  C:3319H         LINE#         33
  C:331CH         LINE#         34
  C:3320H         LINE#         35
  C:3325H         LINE#         36
  -------         ENDPROC       _SPI_SENDBYTE
BL51 BANKED LINKER/LOCATER V6.22                                                      08/24/2018  18:06:45  PAGE 13


  -------         PROC          SPI_RECEIVEBYTE
  -------         DO            
  D:0003H         SYMBOL        i
  D:0005H         SYMBOL        dat
  -------         ENDDO         
  C:3326H         LINE#         39
  C:3326H         LINE#         40
  C:3326H         LINE#         42
  C:3328H         LINE#         44
  C:332AH         LINE#         45
  C:332BH         LINE#         46
  C:332BH         LINE#         47
  C:332FH         LINE#         48
  C:3331H         LINE#         49
  C:3334H         LINE#         51
  C:3337H         LINE#         52
  C:3337H         LINE#         53
  C:333BH         LINE#         54
  C:333BH         LINE#         55
  C:333BH         LINE#         56
  C:333EH         LINE#         57
  C:3343H         LINE#         58
  C:3345H         LINE#         59
  -------         ENDPROC       SPI_RECEIVEBYTE
  -------         PROC          _SPI_READTIME
  D:0007H         SYMBOL        addr
  -------         DO            
  D:0006H         SYMBOL        dat
  -------         ENDDO         
  C:346BH         LINE#         61
  C:346BH         LINE#         62
  C:346BH         LINE#         64
  C:346DH         LINE#         65
  C:346FH         LINE#         66
  C:3476H         LINE#         67
  C:3479H         LINE#         68
  C:347BH         LINE#         69
  C:347BH         LINE#         70
  -------         ENDPROC       _SPI_READTIME
  -------         PROC          _SPI_WRITETIME
  D:0002H         SYMBOL        val
  D:0005H         SYMBOL        addr
  C:33D5H         LINE#         71
  C:33D7H         LINE#         72
  C:33D7H         LINE#         74
  C:33D9H         LINE#         75
  C:33E0H         LINE#         76
  C:33E5H         LINE#         77
  C:33EAH         LINE#         78
  C:33ECH         LINE#         79
  -------         ENDPROC       _SPI_WRITETIME
  -------         PROC          SPI_INIT
  C:34BCH         LINE#         83
  C:34BCH         LINE#         84
  C:34BCH         LINE#         89
  C:34BFH         LINE#         90
  C:34C2H         LINE#         91
BL51 BANKED LINKER/LOCATER V6.22                                                      08/24/2018  18:06:45  PAGE 14


  C:34C4H         LINE#         92
  C:34C6H         LINE#         93
  C:34C8H         LINE#         94
  -------         ENDPROC       SPI_INIT
  -------         PROC          _READ_TIME
  X:03E4H         SYMBOL        months
  X:03E7H         SYMBOL        days
  X:03EAH         SYMBOL        hours
  X:03EDH         SYMBOL        mins
  X:03F0H         SYMBOL        seconds
  C:2F8FH         LINE#         96
  C:2F9AH         LINE#         97
  C:2F9AH         LINE#         99
  C:2FAEH         LINE#         101
  C:2FC2H         LINE#         103
  C:2FD6H         LINE#         108
  C:2FEAH         LINE#         113
  -------         ENDPROC       _READ_TIME
  -------         PROC          _BCDTODEC
  D:0007H         SYMBOL        bcd
  -------         DO            
  D:0006H         SYMBOL        hi
  D:0007H         SYMBOL        lo
  -------         ENDDO         
  C:347CH         LINE#         119
  C:347CH         LINE#         120
  C:347CH         LINE#         122
  C:3481H         LINE#         123
  C:3485H         LINE#         124
  C:348CH         LINE#         125
  -------         ENDPROC       _BCDTODEC
  -------         PROC          _DAY_OF_YEAR
  D:0007H         SYMBOL        months_bcd
  D:0005H         SYMBOL        days_bcd
  -------         DO            
  D:0004H         SYMBOL        months
  D:0007H         SYMBOL        days
  -------         ENDDO         
  C:2E96H         LINE#         126
  C:2E96H         LINE#         127
  C:2E96H         LINE#         130
  C:2E9BH         LINE#         132
  C:2EA0H         LINE#         134
  C:2ED9H         LINE#         135
  C:2ED9H         LINE#         136
  C:2ED9H         LINE#         137
  C:2EDCH         LINE#         138
  C:2EDCH         LINE#         139
  C:2EDCH         LINE#         140
  C:2EE1H         LINE#         141
  C:2EE1H         LINE#         142
  C:2EE1H         LINE#         143
  C:2EE6H         LINE#         144
  C:2EE6H         LINE#         145
  C:2EE6H         LINE#         146
  C:2EEBH         LINE#         147
  C:2EEBH         LINE#         148
BL51 BANKED LINKER/LOCATER V6.22                                                      08/24/2018  18:06:45  PAGE 15


  C:2EEBH         LINE#         149
  C:2EF0H         LINE#         150
  C:2EF0H         LINE#         151
  C:2EF0H         LINE#         152
  C:2EF5H         LINE#         153
  C:2EF5H         LINE#         154
  C:2EF5H         LINE#         155
  C:2EFAH         LINE#         156
  C:2EFAH         LINE#         157
  C:2EFAH         LINE#         158
  C:2EFFH         LINE#         159
  C:2EFFH         LINE#         160
  C:2EFFH         LINE#         161
  C:2F07H         LINE#         162
  C:2F07H         LINE#         163
  C:2F07H         LINE#         164
  C:2F0CH         LINE#         165
  C:2F0CH         LINE#         166
  C:2F0CH         LINE#         167
  C:2F11H         LINE#         168
  C:2F11H         LINE#         169
  C:2F11H         LINE#         170
  C:2F19H         LINE#         171
  C:2F19H         LINE#         172
  C:2F19H         LINE#         173
  -------         ENDPROC       _DAY_OF_YEAR
  -------         ENDMOD        PCF85063BTL

  -------         MODULE        UART1
  C:0000H         SYMBOL        _ICE_DUMMY_
  D:0080H         PUBLIC        P0
  D:0090H         PUBLIC        P1
  D:00A0H         PUBLIC        P2
  D:00B0H         PUBLIC        P3
  D:00C0H         PUBLIC        P4
  D:00C8H         PUBLIC        P5
  B:00A8H.7       PUBLIC        EA
  D:00E8H         PUBLIC        P6
  D:00F8H         PUBLIC        P7
  C:3236H         PUBLIC        _SendString
  D:00A8H         PUBLIC        IE
  B:00A8H.4       PUBLIC        ES
  D:00B8H         PUBLIC        IP
  C:33EDH         PUBLIC        _ASCIItoBCD
  D:00D8H         PUBLIC        CCON
  C:348DH         PUBLIC        initUART1
  D:0098H         PUBLIC        SCON
  D:0088H         PUBLIC        TCON
  C:000AH         PUBLIC        _DectoBCD
  C:350FH         PUBLIC        _ASCII_Letter
  D:008EH         PUBLIC        AUXR
  C:350AH         PUBLIC        _unit
  C:0003H         PUBLIC        _ten
  D:00D6H         PUBLIC        T2H
  D:00D7H         PUBLIC        T2L
  D:00D0H         PUBLIC        PSW
  -------         PROC          INITUART1
BL51 BANKED LINKER/LOCATER V6.22                                                      08/24/2018  18:06:45  PAGE 16


  C:348DH         LINE#         21
  C:348DH         LINE#         22
  C:348DH         LINE#         23
  C:3490H         LINE#         24
  C:3493H         LINE#         25
  C:3496H         LINE#         26
  C:3499H         LINE#         27
  C:349BH         LINE#         28
  C:349DH         LINE#         30
  -------         ENDPROC       INITUART1
  -------         PROC          _SENDSTRING
  X:0585H         SYMBOL        s
  C:3236H         LINE#         35
  C:3241H         LINE#         36
  C:3241H         LINE#         37
  C:3251H         LINE#         38
  C:3251H         LINE#         39
  C:3266H         LINE#         40
  C:3268H         LINE#         41
  -------         ENDPROC       _SENDSTRING
  -------         PROC          _TEN
  D:0007H         SYMBOL        BCD
  C:0003H         LINE#         43
  C:0003H         LINE#         44
  C:0003H         LINE#         45
  C:0008H         LINE#         46
  -------         ENDPROC       _TEN
  -------         PROC          _UNIT
  D:0007H         SYMBOL        BCD
  C:350AH         LINE#         47
  C:350AH         LINE#         48
  C:350AH         LINE#         52
  C:350EH         LINE#         53
  -------         ENDPROC       _UNIT
  -------         PROC          _DECTOBCD
  D:0007H         SYMBOL        dec
  C:000AH         LINE#         54
  C:000AH         LINE#         55
  C:000AH         LINE#         57
  C:000AH         LINE#         58
  -------         ENDPROC       _DECTOBCD
  -------         PROC          _ASCII_LETTER
  D:0007H         SYMBOL        dat
  C:350FH         LINE#         60
  C:350FH         LINE#         61
  C:350FH         LINE#         63
  C:3513H         LINE#         64
  -------         ENDPROC       _ASCII_LETTER
  -------         PROC          _ASCIITOBCD
  D:0001H         SYMBOL        ascii
  -------         DO            
  D:0007H         SYMBOL        dec_val
  D:0006H         SYMBOL        ten
  D:0007H         SYMBOL        unit
  -------         ENDDO         
  C:33EDH         LINE#         66
  C:33EDH         LINE#         67
BL51 BANKED LINKER/LOCATER V6.22                                                      08/24/2018  18:06:45  PAGE 17


  C:33EDH         LINE#         69
  C:33F0H         LINE#         70
  C:33F6H         LINE#         71
  C:33FDH         LINE#         72
  C:3403H         LINE#         74
  -------         ENDPROC       _ASCIITOBCD
  -------         ENDMOD        UART1

  -------         MODULE        LCD_DRIVER_SPLC780D
  C:0000H         SYMBOL        _ICE_DUMMY_
  D:0092H         PUBLIC        P1M0
  D:0091H         PUBLIC        P1M1
  D:0080H         PUBLIC        P0
  D:0090H         PUBLIC        P1
  D:00A0H         PUBLIC        P2
  D:00B0H         PUBLIC        P3
  D:00C0H         PUBLIC        P4
  D:00C8H         PUBLIC        P5
  D:00E8H         PUBLIC        P6
  D:00F8H         PUBLIC        P7
  C:2F1AH         PUBLIC        _WriteData
  D:00A8H         PUBLIC        IE
  D:00B8H         PUBLIC        IP
  D:00D8H         PUBLIC        CCON
  B:0090H.4       PUBLIC        LCD_D4
  B:0090H.5       PUBLIC        LCD_D5
  B:0090H.6       PUBLIC        LCD_D6
  C:3382H         PUBLIC        _DisplayLCD
  B:0090H.7       PUBLIC        LCD_D7
  D:0098H         PUBLIC        SCON
  D:0088H         PUBLIC        TCON
  C:34EBH         PUBLIC        LCD_clear
  C:3187H         PUBLIC        _Command
  C:000EH         PUBLIC        _Display_Line
  C:2FFEH         PUBLIC        LCD_Init
  C:32C6H         PUBLIC        _Wait_ms
  B:0090H.1       PUBLIC        LCD_RS
  B:0090H.2       PUBLIC        LCD_RW
  C:34E1H         PUBLIC        LCD_return_home
  B:0090H.3       PUBLIC        LCD_E
  D:00D0H         PUBLIC        PSW
  -------         PROC          LCD_INIT
  C:2FFEH         LINE#         9
  C:2FFEH         LINE#         10
  C:2FFEH         LINE#         11
  C:3001H         LINE#         12
  C:3004H         LINE#         14
  C:300AH         LINE#         15
  C:300FH         LINE#         17
  C:3016H         LINE#         18
  C:301BH         LINE#         20
  C:301EH         LINE#         21
  C:3023H         LINE#         23
  C:3026H         LINE#         24
  C:302BH         LINE#         26
  C:3032H         LINE#         29
  C:3037H         LINE#         30
BL51 BANKED LINKER/LOCATER V6.22                                                      08/24/2018  18:06:45  PAGE 18


  C:303CH         LINE#         32
  C:3041H         LINE#         33
  C:3046H         LINE#         35
  C:304BH         LINE#         36
  C:3050H         LINE#         37
  -------         ENDPROC       LCD_INIT
  -------         PROC          _WRITEDATA
  X:03EEH         SYMBOL        dat
  C:2F1AH         LINE#         40
  C:2F1FH         LINE#         41
  C:2F1FH         LINE#         46
  C:2F21H         LINE#         47
  C:2F23H         LINE#         49
  C:2F31H         LINE#         50
  C:2F3DH         LINE#         51
  C:2F49H         LINE#         52
  C:2F53H         LINE#         53
  C:2F55H         LINE#         54
  C:2F5CH         LINE#         55
  C:2F5EH         LINE#         57
  C:2F6EH         LINE#         58
  C:2F79H         LINE#         59
  C:2F83H         LINE#         60
  C:2F87H         LINE#         62
  C:2F87H         LINE#         63
  C:2F8AH         LINE#         64
  C:2F8CH         LINE#         65
  C:2F8EH         LINE#         67
  -------         ENDPROC       _WRITEDATA
  -------         PROC          _COMMAND
  D:0007H         SYMBOL        dat
  C:3187H         LINE#         69
  C:3187H         LINE#         70
  C:3187H         LINE#         71
  C:3189H         LINE#         72
  C:318BH         LINE#         74
  C:3195H         LINE#         75
  C:3199H         LINE#         77
  C:319BH         LINE#         78
  C:31A4H         LINE#         79
  C:31A8H         LINE#         81
  C:31AAH         LINE#         82
  C:31B1H         LINE#         83
  C:31B5H         LINE#         85
  C:31B7H         LINE#         86
  C:31BBH         LINE#         87
  C:31BFH         LINE#         89
  C:31C1H         LINE#         90
  C:31C1H         LINE#         91
  C:31C4H         LINE#         92
  C:31C6H         LINE#         93
  -------         ENDPROC       _COMMAND
  C:32C2H         SYMBOL        L?0028
  -------         PROC          L?0027
  -------         ENDPROC       L?0027
  C:32C2H         SYMBOL        L?0028
  -------         PROC          _WAIT_MS
BL51 BANKED LINKER/LOCATER V6.22                                                      08/24/2018  18:06:45  PAGE 19


  D:0006H         SYMBOL        ms
  -------         DO            
  D:0004H         SYMBOL        De_Cnt
  -------         ENDDO         
  C:32C6H         LINE#         95
  C:32C6H         LINE#         96
  C:32C6H         LINE#         98
  C:32D0H         LINE#         99
  C:32D0H         LINE#         100
  C:32E3H         LINE#         101
  C:32E3H         LINE#         102
  -------         ENDPROC       _WAIT_MS
  -------         PROC          _DISPLAYLCD
  D:0007H         SYMBOL        BCD
  -------         DO            
  D:0006H         SYMBOL        first_digit
  X:03E4H         SYMBOL        second_digit
  -------         ENDDO         
  C:3382H         LINE#         103
  C:3382H         LINE#         104
  C:3382H         LINE#         106
  C:3389H         LINE#         107
  C:3392H         LINE#         109
  C:3397H         LINE#         111
  -------         ENDPROC       _DISPLAYLCD
  -------         PROC          LCD_RETURN_HOME
  C:34E1H         LINE#         115
  C:34E1H         LINE#         116
  C:34E1H         LINE#         117
  C:34E6H         LINE#         118
  -------         ENDPROC       LCD_RETURN_HOME
  -------         PROC          LCD_CLEAR
  C:34EBH         LINE#         121
  C:34EBH         LINE#         122
  C:34EBH         LINE#         123
  C:34F0H         LINE#         124
  -------         ENDPROC       LCD_CLEAR
  -------         PROC          _DISPLAY_LINE
  D:0006H         SYMBOL        line
  C:000EH         LINE#         128
  C:000EH         LINE#         129
  C:000EH         LINE#         130
  C:0014H         LINE#         131
  C:0014H         LINE#         132
  C:0016H         LINE#         133
  C:0016H         LINE#         134
  C:0018H         LINE#         136
  C:0018H         LINE#         137
  C:001DH         LINE#         138
  C:0022H         LINE#         139
  C:0022H         LINE#         140
  -------         ENDPROC       _DISPLAY_LINE
  -------         ENDMOD        LCD_DRIVER_SPLC780D

  -------         MODULE        KEYPAD
  C:0000H         SYMBOL        _ICE_DUMMY_
  D:0093H         PUBLIC        P0M1
BL51 BANKED LINKER/LOCATER V6.22                                                      08/24/2018  18:06:45  PAGE 20


  D:0080H         PUBLIC        P0
  D:0090H         PUBLIC        P1
  D:00A0H         PUBLIC        P2
  D:00B0H         PUBLIC        P3
  D:00C0H         PUBLIC        P4
  D:00C8H         PUBLIC        P5
  D:00E8H         PUBLIC        P6
  D:00F8H         PUBLIC        P7
  D:00A8H         PUBLIC        IE
  C:2534H         PUBLIC        Key_Scan
  D:00B8H         PUBLIC        IP
  D:00D8H         PUBLIC        CCON
  C:34C9H         PUBLIC        KeyPad_IO_Init
  C:3346H         PUBLIC        _Delay_ms
  D:0098H         PUBLIC        SCON
  D:0088H         PUBLIC        TCON
  B:0020H.0       PUBLIC        small_move
  B:0020H.1       PUBLIC        move
  B:0020H.2       PUBLIC        direction
  B:0020H.3       PUBLIC        auto_move
  C:1C88H         PUBLIC        Key_Process
  D:00D0H         PUBLIC        PSW
  D:0094H         PUBLIC        P0M0
  -------         PROC          _DELAY_MS
  D:0006H         SYMBOL        ms
  -------         DO            
  D:0004H         SYMBOL        De_Cnt
  -------         ENDDO         
  C:3346H         LINE#         19
  C:3346H         LINE#         20
  C:3346H         LINE#         22
  C:3350H         LINE#         23
  C:3350H         LINE#         24
  C:3363H         LINE#         25
  C:3363H         LINE#         26
  -------         ENDPROC       _DELAY_MS
  -------         PROC          KEY_SCAN
  -------         DO            
  X:03EAH         SYMBOL        KeyTemp1
  X:03EBH         SYMBOL        KeyTemp2
  X:03ECH         SYMBOL        KeyValue
  -------         ENDDO         
  C:2534H         LINE#         27
  C:2534H         LINE#         28
  C:2534H         LINE#         33
  C:2537H         LINE#         36
  C:253AH         LINE#         38
  C:2542H         LINE#         39
  C:2549H         LINE#         40
  C:2549H         LINE#         42
  C:254EH         LINE#         43
  C:2555H         LINE#         44
  C:2555H         LINE#         47
  C:2558H         LINE#         48
  C:255BH         LINE#         49
  C:2560H         LINE#         50
  C:2564H         LINE#         51
BL51 BANKED LINKER/LOCATER V6.22                                                      08/24/2018  18:06:45  PAGE 21


  C:2564H         LINE#         52
  C:256CH         LINE#         53
  C:256CH         LINE#         54
  C:256FH         LINE#         55
  C:2577H         LINE#         56
  C:2579H         LINE#         58
  C:258DH         LINE#         59
  C:258DH         LINE#         60
  C:258DH         LINE#         61
  C:258DH         LINE#         62
  C:2593H         LINE#         64
  C:2595H         LINE#         65
  C:2595H         LINE#         66
  C:2595H         LINE#         67
  C:259BH         LINE#         69
  C:259DH         LINE#         70
  C:259DH         LINE#         71
  C:259DH         LINE#         72
  C:25A3H         LINE#         74
  C:25A5H         LINE#         75
  C:25A5H         LINE#         76
  C:25A5H         LINE#         77
  C:25ABH         LINE#         79
  C:25ABH         LINE#         80
  C:25ABH         LINE#         81
  C:25ABH         LINE#         84
  C:25AEH         LINE#         85
  C:25B1H         LINE#         86
  C:25B9H         LINE#         87
  C:25BDH         LINE#         88
  C:25BDH         LINE#         89
  C:25C5H         LINE#         90
  C:25C5H         LINE#         91
  C:25C8H         LINE#         92
  C:25D0H         LINE#         93
  C:25D2H         LINE#         94
  C:25E6H         LINE#         95
  C:25E6H         LINE#         96
  C:25E6H         LINE#         97
  C:25E6H         LINE#         98
  C:25ECH         LINE#         100
  C:25EEH         LINE#         101
  C:25EEH         LINE#         102
  C:25EEH         LINE#         103
  C:25F4H         LINE#         105
  C:25F6H         LINE#         106
  C:25F6H         LINE#         107
  C:25F6H         LINE#         108
  C:25FCH         LINE#         110
  C:25FEH         LINE#         111
  C:25FEH         LINE#         112
  C:25FEH         LINE#         113
  C:2603H         LINE#         115
  C:2603H         LINE#         116
  C:2603H         LINE#         117
  C:2603H         LINE#         120
  C:2606H         LINE#         121
BL51 BANKED LINKER/LOCATER V6.22                                                      08/24/2018  18:06:45  PAGE 22


  C:2609H         LINE#         122
  C:2611H         LINE#         123
  C:2615H         LINE#         124
  C:2615H         LINE#         125
  C:261DH         LINE#         126
  C:261DH         LINE#         127
  C:2620H         LINE#         128
  C:2628H         LINE#         129
  C:262AH         LINE#         130
  C:263EH         LINE#         131
  C:263EH         LINE#         132
  C:263EH         LINE#         133
  C:263EH         LINE#         134
  C:2644H         LINE#         136
  C:2646H         LINE#         137
  C:2646H         LINE#         138
  C:2646H         LINE#         139
  C:264CH         LINE#         141
  C:264EH         LINE#         142
  C:264EH         LINE#         143
  C:264EH         LINE#         144
  C:2654H         LINE#         146
  C:2656H         LINE#         147
  C:2656H         LINE#         148
  C:2656H         LINE#         149
  C:265CH         LINE#         151
  C:265CH         LINE#         152
  C:265CH         LINE#         153
  C:265CH         LINE#         157
  C:265FH         LINE#         158
  C:2662H         LINE#         159
  C:266AH         LINE#         160
  C:266EH         LINE#         161
  C:266EH         LINE#         162
  C:2676H         LINE#         163
  C:2676H         LINE#         164
  C:2679H         LINE#         165
  C:2681H         LINE#         166
  C:2683H         LINE#         167
  C:2697H         LINE#         168
  C:2697H         LINE#         169
  C:2697H         LINE#         170
  C:2697H         LINE#         171
  C:269DH         LINE#         173
  C:269FH         LINE#         174
  C:269FH         LINE#         175
  C:269FH         LINE#         176
  C:26A5H         LINE#         178
  C:26A7H         LINE#         179
  C:26A7H         LINE#         180
  C:26A7H         LINE#         181
  C:26ADH         LINE#         183
  C:26AFH         LINE#         184
  C:26AFH         LINE#         185
  C:26AFH         LINE#         186
  C:26B5H         LINE#         188
  C:26B5H         LINE#         189
BL51 BANKED LINKER/LOCATER V6.22                                                      08/24/2018  18:06:45  PAGE 23


  C:26B5H         LINE#         190
  C:26B5H         LINE#         192
  C:26BBH         LINE#         193
  C:26BBH         LINE#         195
  C:26BBH         LINE#         196
  C:26BEH         LINE#         197
  C:26BEH         LINE#         198
  C:26BEH         LINE#         200
  C:26BEH         LINE#         201
  C:26C0H         LINE#         202
  C:26C0H         LINE#         203
  -------         ENDPROC       KEY_SCAN
  -------         PROC          KEY_PROCESS
  -------         DO            
  X:0570H         SYMBOL        KeyCount
  X:0572H         SYMBOL        KeyNum_Old
  X:0573H         SYMBOL        KeyNum
  X:0574H         SYMBOL        PressedKey
  X:03E4H         SYMBOL        d
  D:0004H         SYMBOL        hours
  D:0006H         SYMBOL        mins
  X:03E6H         SYMBOL        months
  X:03E8H         SYMBOL        days
  -------         ENDDO         
  C:1C88H         LINE#         204
  C:1C88H         LINE#         205
  C:1C88H         LINE#         209
  C:1C90H         LINE#         210
  C:1C98H         LINE#         212
  C:1C9BH         LINE#         213
  C:1C9BH         LINE#         214
  C:1C9EH         LINE#         216
  C:1C9EH         LINE#         217
  C:1CABH         LINE#         218
  C:1CABH         LINE#         219
  C:1CAEH         LINE#         220
  C:1CB1H         LINE#         222
  C:1CB4H         LINE#         224
  C:1CB4H         LINE#         225
  C:1CBFH         LINE#         226
  C:1CBFH         LINE#         227
  C:1CC2H         LINE#         229
  C:1CC2H         LINE#         230
  C:1CC9H         LINE#         231
  C:1CC9H         LINE#         232
  C:1CCCH         LINE#         234
  C:1CCCH         LINE#         235
  C:1CD4H         LINE#         236
  C:1CD4H         LINE#         237
  C:1CDEH         LINE#         238
  C:1CE6H         LINE#         240
  C:1CEFH         LINE#         242
  C:1CEFH         LINE#         251
  C:1D04H         LINE#         252
  C:1D04H         LINE#         253
  C:1D16H         LINE#         254
  C:1D24H         LINE#         255
BL51 BANKED LINKER/LOCATER V6.22                                                      08/24/2018  18:06:45  PAGE 24


  C:1D33H         LINE#         256
  C:1D33H         LINE#         258
  C:1D39H         LINE#         262
  C:1D4FH         LINE#         263
  C:1D60H         LINE#         264
  C:1D7BH         LINE#         265
  C:1D7BH         LINE#         266
  C:1D8BH         LINE#         267
  C:1D9CH         LINE#         268
  C:1D9CH         LINE#         272
  C:1DB5H         LINE#         273
  C:1DCCH         LINE#         274
  C:1DECH         LINE#         275
  C:1DECH         LINE#         276
  C:1DF6H         LINE#         277
  C:1DF6H         LINE#         278
  C:1DFFH         LINE#         279
  C:1DFFH         LINE#         280
  C:1E13H         LINE#         281
  C:1E13H         LINE#         282
  C:1E13H         LINE#         283
  C:1E13H         LINE#         284
  C:1E13H         LINE#         285
  C:1E15H         LINE#         287
  C:1E15H         LINE#         288
  C:1E21H         LINE#         289
  C:1E21H         LINE#         290
  C:1E32H         LINE#         291
  C:1E32H         LINE#         292
  C:1E32H         LINE#         293
  C:1E32H         LINE#         294
  C:1E32H         LINE#         296
  C:1E34H         LINE#         298
  C:1E34H         LINE#         299
  C:1E45H         LINE#         300
  C:1E45H         LINE#         301
  C:1E45H         LINE#         302
  C:1E45H         LINE#         303
  C:1E45H         LINE#         305
  C:1E45H         LINE#         307
  C:1E45H         LINE#         308
  C:1E47H         LINE#         310
  C:1E47H         LINE#         311
  C:1E5AH         LINE#         312
  C:1E5AH         LINE#         313
  C:1E6BH         LINE#         314
  C:1E6BH         LINE#         315
  C:1E6BH         LINE#         316
  C:1E6BH         LINE#         317
  C:1E6BH         LINE#         318
  C:1E6DH         LINE#         320
  C:1E6DH         LINE#         321
  C:1E7EH         LINE#         322
  C:1E7EH         LINE#         323
  C:1E8FH         LINE#         324
  C:1EA0H         LINE#         325
  C:1EA0H         LINE#         326
BL51 BANKED LINKER/LOCATER V6.22                                                      08/24/2018  18:06:45  PAGE 25


  C:1EA0H         LINE#         327
  C:1EA0H         LINE#         328
  C:1EA0H         LINE#         329
  C:1EA3H         LINE#         330
  C:1EA8H         LINE#         331
  C:1EADH         LINE#         332
  C:1EB2H         LINE#         333
  C:1EB7H         LINE#         334
  C:1EBCH         LINE#         335
  C:1EC1H         LINE#         336
  C:1EC6H         LINE#         337
  C:1EC6H         LINE#         339
  C:1EE8H         LINE#         340
  C:1EE8H         LINE#         341
  C:1EF2H         LINE#         342
  C:1EF2H         LINE#         343
  C:1EF7H         LINE#         344
  C:1F00H         LINE#         345
  C:1F17H         LINE#         346
  C:1F17H         LINE#         347
  C:1F27H         LINE#         349
  C:1F27H         LINE#         353
  -------         ENDPROC       KEY_PROCESS
  -------         PROC          KEYPAD_IO_INIT
  C:34C9H         LINE#         356
  C:34C9H         LINE#         357
  C:34C9H         LINE#         358
  C:34CCH         LINE#         359
  C:34CFH         LINE#         360
  C:34D2H         LINE#         361
  C:34D4H         LINE#         362
  -------         ENDPROC       KEYPAD_IO_INIT
  -------         ENDMOD        KEYPAD

  -------         MODULE        VCNL4035
  C:0000H         SYMBOL        _ICE_DUMMY_
  D:0080H         PUBLIC        P0
  B:00B0H.2       PUBLIC        I2C_SCK
  D:00B2H         PUBLIC        P3M0
  D:0090H         PUBLIC        P1
  D:00B1H         PUBLIC        P3M1
  D:00A0H         PUBLIC        P2
  D:00B0H         PUBLIC        P3
  D:00C0H         PUBLIC        P4
  D:00C8H         PUBLIC        P5
  D:00E8H         PUBLIC        P6
  D:00F8H         PUBLIC        P7
  D:00A8H         PUBLIC        IE
  C:3504H         PUBLIC        _DisplayLCD_VCNL4035
  D:00B8H         PUBLIC        IP
  D:00D8H         PUBLIC        CCON
  C:3458H         PUBLIC        I2C_Start
  D:0098H         PUBLIC        SCON
  C:3404H         PUBLIC        I2C_Init
  D:0088H         PUBLIC        TCON
  C:349EH         PUBLIC        uC_NACK
  C:32A2H         PUBLIC        _Wait_ms_i2c
BL51 BANKED LINKER/LOCATER V6.22                                                      08/24/2018  18:06:45  PAGE 26


  C:32E4H         PUBLIC        _I2C_SendByte
  C:341BH         PUBLIC        I2C_Stop
  C:30FAH         PUBLIC        _Write_VCNL4035X
  C:3514H         PUBLIC        nop
  C:2CDBH         PUBLIC        _Read_VCNL4035
  C:34FEH         PUBLIC        uC_ACK
  C:33A4H         PUBLIC        I2C_ACK
  C:3364H         PUBLIC        _Wait_ms_iic
  B:00B0H.1       PUBLIC        I2C_SDA
  D:00D0H         PUBLIC        PSW
  C:326FH         PUBLIC        I2C_ReceiveByte
  -------         PROC          _WAIT_MS_IIC
  D:0006H         SYMBOL        ms
  -------         DO            
  D:0004H         SYMBOL        De_Cnt
  -------         ENDDO         
  C:3364H         LINE#         5
  C:3364H         LINE#         6
  C:3364H         LINE#         8
  C:336EH         LINE#         9
  C:336EH         LINE#         10
  C:3381H         LINE#         11
  C:3381H         LINE#         12
  -------         ENDPROC       _WAIT_MS_IIC
  C:329CH         SYMBOL        L?0048
  C:329EH         SYMBOL        L?0049
  -------         PROC          L?0047
  -------         ENDPROC       L?0047
  C:329CH         SYMBOL        L?0048
  C:329EH         SYMBOL        L?0049
  -------         PROC          _WAIT_MS_I2C
  D:0006H         SYMBOL        ms
  -------         DO            
  D:0004H         SYMBOL        De_Cnt
  -------         ENDDO         
  C:32A2H         LINE#         14
  C:32A2H         LINE#         15
  C:32A2H         LINE#         17
  C:32ACH         LINE#         18
  C:32ACH         LINE#         19
  C:32BFH         LINE#         20
  C:32BFH         LINE#         21
  -------         ENDPROC       _WAIT_MS_I2C
  -------         PROC          NOP
  C:3514H         LINE#         22
  C:3514H         LINE#         23
  C:3514H         LINE#         25
  -------         ENDPROC       NOP
  -------         PROC          I2C_START
  C:3458H         LINE#         26
  C:3458H         LINE#         27
  C:3458H         LINE#         29
  C:345AH         LINE#         30
  C:345CH         LINE#         31
  C:3463H         LINE#         32
  C:3465H         LINE#         33
  C:3468H         LINE#         34
BL51 BANKED LINKER/LOCATER V6.22                                                      08/24/2018  18:06:45  PAGE 27


  C:346AH         LINE#         37
  -------         ENDPROC       I2C_START
  -------         PROC          I2C_STOP
  C:341BH         LINE#         39
  C:341BH         LINE#         40
  C:341BH         LINE#         41
  C:341DH         LINE#         42
  C:341FH         LINE#         43
  C:3422H         LINE#         44
  C:3424H         LINE#         45
  C:3426H         LINE#         46
  C:342DH         LINE#         47
  C:342FH         LINE#         50
  -------         ENDPROC       I2C_STOP
  -------         PROC          L?0050
  -------         ENDPROC       L?0050
  -------         PROC          I2C_ACK
  -------         DO            
  X:03E7H         SYMBOL        i
  D:0003H         SYMBOL        dat
  -------         ENDDO         
  C:33A4H         LINE#         52
  C:33A4H         LINE#         53
  C:33A4H         LINE#         55
  C:33A5H         LINE#         60
  C:33A8H         LINE#         61
  C:33AAH         LINE#         62
  C:33ADH         LINE#         64
  C:33B0H         LINE#         65
  C:33B0H         LINE#         66
  C:33B4H         LINE#         67
  C:33B4H         LINE#         70
  C:33B4H         LINE#         71
  C:33B7H         LINE#         72
  C:33B7H         LINE#         73
  C:33B9H         LINE#         74
  -------         ENDPROC       I2C_ACK
  -------         PROC          UC_ACK
  -------         DO            
  X:0588H         SYMBOL        i
  -------         ENDDO         
  C:34FEH         LINE#         75
  C:34FEH         LINE#         76
  C:34FEH         LINE#         78
  C:34FEH         LINE#         85
  C:34FEH         LINE#         87
  C:34FEH         LINE#         89
  C:34FEH         LINE#         90
  C:34FEH         LINE#         93
  C:3501H         LINE#         94
  C:3503H         LINE#         95
  C:3503H         LINE#         99
  -------         ENDPROC       UC_ACK
  -------         PROC          UC_NACK
  -------         DO            
  X:0589H         SYMBOL        i
  -------         ENDDO         
BL51 BANKED LINKER/LOCATER V6.22                                                      08/24/2018  18:06:45  PAGE 28


  C:349EH         LINE#         101
  C:349EH         LINE#         102
  C:349EH         LINE#         104
  C:349EH         LINE#         108
  C:34A0H         LINE#         111
  C:34A0H         LINE#         112
  C:34A2H         LINE#         113
  C:34A2H         LINE#         115
  C:34A2H         LINE#         116
  C:34A2H         LINE#         119
  C:34A5H         LINE#         120
  C:34A7H         LINE#         121
  C:34AAH         LINE#         122
  C:34ACH         LINE#         123
  C:34ACH         LINE#         127
  -------         ENDPROC       UC_NACK
  -------         PROC          I2C_INIT
  C:3404H         LINE#         129
  C:3404H         LINE#         130
  C:3404H         LINE#         133
  C:3407H         LINE#         134
  C:340AH         LINE#         139
  C:3412H         LINE#         141
  -------         ENDPROC       I2C_INIT
  -------         PROC          _I2C_SENDBYTE
  D:0001H         SYMBOL        dat
  -------         DO            
  D:0003H         SYMBOL        i
  -------         ENDDO         
  C:32E4H         LINE#         145
  C:32E6H         LINE#         146
  C:32E6H         LINE#         149
  C:32E8H         LINE#         150
  C:32E8H         LINE#         151
  C:32EAH         LINE#         153
  C:32EEH         LINE#         154
  C:32EEH         LINE#         155
  C:32F0H         LINE#         156
  C:32F2H         LINE#         158
  C:32F2H         LINE#         159
  C:32F4H         LINE#         160
  C:32F4H         LINE#         161
  C:32F7H         LINE#         162
  C:32F9H         LINE#         164
  C:32FDH         LINE#         165
  C:3300H         LINE#         166
  C:3305H         LINE#         167
  -------         ENDPROC       _I2C_SENDBYTE
  -------         PROC          L?0051
  -------         ENDPROC       L?0051
  -------         PROC          I2C_RECEIVEBYTE
  -------         DO            
  D:0003H         SYMBOL        i
  D:0001H         SYMBOL        dat
  -------         ENDDO         
  C:326FH         LINE#         171
  C:326FH         LINE#         172
BL51 BANKED LINKER/LOCATER V6.22                                                      08/24/2018  18:06:45  PAGE 29


  C:326FH         LINE#         174
  C:3271H         LINE#         178
  C:3272H         LINE#         179
  C:3272H         LINE#         180
  C:3276H         LINE#         181
  C:3278H         LINE#         182
  C:327BH         LINE#         184
  C:327EH         LINE#         185
  C:327EH         LINE#         186
  C:3282H         LINE#         187
  C:3282H         LINE#         188
  C:3282H         LINE#         189
  C:3285H         LINE#         190
  C:3289H         LINE#         191
  C:3289H         LINE#         192
  C:328BH         LINE#         193
  C:328DH         LINE#         194
  C:328DH         LINE#         196
  C:3292H         LINE#         197
  C:3294H         LINE#         198
  -------         ENDPROC       I2C_RECEIVEBYTE
  -------         PROC          _WRITE_VCNL4035X
  X:03E4H         SYMBOL        command_code
  X:03E5H         SYMBOL        dat_h
  X:03E6H         SYMBOL        dat_l
  C:30FAH         LINE#         199
  C:3105H         LINE#         200
  C:3105H         LINE#         201
  C:3108H         LINE#         202
  C:310FH         LINE#         203
  C:310FH         LINE#         204
  C:3115H         LINE#         205
  C:3115H         LINE#         206
  C:311DH         LINE#         207
  C:311DH         LINE#         208
  C:3123H         LINE#         209
  C:312BH         LINE#         211
  C:3131H         LINE#         212
  C:3139H         LINE#         214
  C:313FH         LINE#         215
  C:3142H         LINE#         216
  -------         ENDPROC       _WRITE_VCNL4035X
  -------         PROC          _READ_VCNL4035
  X:0579H         SYMBOL        command_code
  -------         DO            
  X:057BH         SYMBOL        temp_dat
  X:057DH         SYMBOL        temp_dat_l
  X:057FH         SYMBOL        temp_dat_h
  -------         ENDDO         
  C:2CDBH         LINE#         218
  C:2CE3H         LINE#         219
  C:2CE3H         LINE#         220
  C:2CF0H         LINE#         222
  C:2CF3H         LINE#         223
  C:2CF6H         LINE#         224
  C:2CFBH         LINE#         226
  C:2D01H         LINE#         227
BL51 BANKED LINKER/LOCATER V6.22                                                      08/24/2018  18:06:45  PAGE 30


  C:2D01H         LINE#         228
  C:2D01H         LINE#         229
  C:2D01H         LINE#         230
  C:2D0CH         LINE#         231
  C:2D0FH         LINE#         232
  C:2D12H         LINE#         233
  C:2D12H         LINE#         236
  C:2D15H         LINE#         238
  C:2D1CH         LINE#         239
  C:2D1CH         LINE#         240
  C:2D1CH         LINE#         241
  C:2D27H         LINE#         242
  C:2D2AH         LINE#         243
  C:2D2DH         LINE#         244
  C:2D30H         LINE#         245
  C:2D33H         LINE#         246
  C:2D36H         LINE#         247
  C:2D39H         LINE#         248
  C:2D3CH         LINE#         249
  C:2D3FH         LINE#         250
  C:2D3FH         LINE#         251
  C:2D45H         LINE#         252
  C:2D45H         LINE#         253
  C:2D4EH         LINE#         255
  C:2D4EH         LINE#         256
  C:2D54H         LINE#         257
  C:2D54H         LINE#         259
  C:2D56H         LINE#         260
  C:2D5CH         LINE#         261
  C:2D5FH         LINE#         262
  C:2D66H         LINE#         263
  C:2D66H         LINE#         264
  C:2D74H         LINE#         265
  -------         ENDPROC       _READ_VCNL4035
  -------         PROC          _DISPLAYLCD_VCNL4035
  X:058AH         SYMBOL        dat
  C:3504H         LINE#         267
  C:3509H         LINE#         268
  C:3509H         LINE#         270
  -------         ENDPROC       _DISPLAYLCD_VCNL4035
  -------         ENDMOD        VCNL4035

  -------         MODULE        BIPOLARMOTOR
  C:0000H         SYMBOL        _ICE_DUMMY_
  D:0080H         PUBLIC        P0
  D:0090H         PUBLIC        P1
  D:00A0H         PUBLIC        P2
  D:00B0H         PUBLIC        P3
  D:00C0H         PUBLIC        P4
  D:00C8H         PUBLIC        P5
  D:00E8H         PUBLIC        P6
  D:00F8H         PUBLIC        P7
  D:00A8H         PUBLIC        IE
  C:2A57H         PUBLIC        linear_interpolate
  X:0000H         PUBLIC        Time_stamp_PM
  C:3202H         PUBLIC        _Move
  D:00B8H         PUBLIC        IP
BL51 BANKED LINKER/LOCATER V6.22                                                      08/24/2018  18:06:45  PAGE 31


  C:21E1H         PUBLIC        _findDet3x3
  C:19C8H         PUBLIC        _findDet4x4
  D:00D8H         PUBLIC        CCON
  D:0098H         PUBLIC        SCON
  D:0088H         PUBLIC        TCON
  C:3057H         PUBLIC        _Step_move
  C:108AH         PUBLIC        _Update_position
  X:0054H         PUBLIC        RX_pos
  X:039CH         PUBLIC        date_declination_mapping
  C:33C4H         PUBLIC        _BCDtoDec1
  X:03C4H         PUBLIC        degree
  D:00D0H         PUBLIC        PSW
  -------         PROC          L?0046
  -------         ENDPROC       L?0046
  -------         PROC          _BCDTODEC1
  D:0007H         SYMBOL        bcd
  -------         DO            
  D:0006H         SYMBOL        hi
  D:0007H         SYMBOL        lo
  -------         ENDDO         
  C:33C4H         LINE#         22
  C:33C4H         LINE#         23
  C:33C4H         LINE#         25
  C:33C9H         LINE#         26
  C:33CDH         LINE#         27
  C:33D4H         LINE#         28
  -------         ENDPROC       _BCDTODEC1
  -------         PROC          _STEP_MOVE
  X:048BH         SYMBOL        step
  B:0020H.6       SYMBOL        dir
  -------         DO            
  X:048DH         SYMBOL        i
  -------         ENDDO         
  C:3057H         LINE#         34
  C:305FH         LINE#         35
  C:305FH         LINE#         36
  C:3064H         LINE#         37
  C:3067H         LINE#         38
  C:306CH         LINE#         40
  C:306FH         LINE#         42
  C:308BH         LINE#         43
  C:308BH         LINE#         44
  C:308EH         LINE#         45
  C:3095H         LINE#         46
  C:3098H         LINE#         47
  C:309FH         LINE#         48
  C:30AFH         LINE#         49
  -------         ENDPROC       _STEP_MOVE
  -------         PROC          _MOVE
  X:0487H         SYMBOL        distance
  B:0020H.5       SYMBOL        direction
  -------         DO            
  D:0006H         SYMBOL        step
  -------         ENDDO         
  C:3202H         LINE#         51
  C:3208H         LINE#         52
  C:3208H         LINE#         54
BL51 BANKED LINKER/LOCATER V6.22                                                      08/24/2018  18:06:45  PAGE 32


  C:322FH         LINE#         55
  -------         ENDPROC       _MOVE
  C:21C2H         SYMBOL        L?0043
  C:21D6H         SYMBOL        L?0044
  -------         PROC          L?0042
  -------         ENDPROC       L?0042
  C:21C2H         SYMBOL        L?0043
  C:21D6H         SYMBOL        L?0044
  -------         PROC          _FINDDET3X3
  X:0530H         SYMBOL        a11
  X:0534H         SYMBOL        a12
  X:0538H         SYMBOL        a13
  X:053CH         SYMBOL        a21
  X:0540H         SYMBOL        a22
  X:0544H         SYMBOL        a23
  X:0548H         SYMBOL        a31
  X:054CH         SYMBOL        a32
  X:0550H         SYMBOL        a33
  C:21E1H         LINE#         59
  C:21E7H         LINE#         63
  C:21E7H         LINE#         64
  C:237EH         LINE#         66
  -------         ENDPROC       _FINDDET3X3
  -------         PROC          _FINDDET4X4
  X:04F0H         SYMBOL        a11
  X:04F4H         SYMBOL        a12
  X:04F8H         SYMBOL        a13
  X:04FCH         SYMBOL        a14
  X:0500H         SYMBOL        a21
  X:0504H         SYMBOL        a22
  X:0508H         SYMBOL        a23
  X:050CH         SYMBOL        a24
  X:0510H         SYMBOL        a31
  X:0514H         SYMBOL        a32
  X:0518H         SYMBOL        a33
  X:051CH         SYMBOL        a34
  X:0520H         SYMBOL        a41
  X:0524H         SYMBOL        a42
  X:0528H         SYMBOL        a43
  X:052CH         SYMBOL        a44
  C:19C8H         LINE#         67
  C:19CEH         LINE#         71
  C:19CEH         LINE#         78
  C:1C87H         LINE#         82
  -------         ENDPROC       _FINDDET4X4
  -------         PROC          L?0045
  -------         ENDPROC       L?0045
  -------         PROC          LINEAR_INTERPOLATE
  X:0487H         SYMBOL        p1
  X:048FH         SYMBOL        p2
  X:0497H         SYMBOL        x
  -------         DO            
  D:0004H         SYMBOL        fx
  -------         ENDDO         
  C:2A57H         LINE#         88
  C:2A57H         LINE#         89
  C:2A57H         LINE#         92
BL51 BANKED LINKER/LOCATER V6.22                                                      08/24/2018  18:06:45  PAGE 33


  C:2AF6H         LINE#         94
  C:2AF6H         LINE#         95
  -------         ENDPROC       LINEAR_INTERPOLATE
  -------         PROC          _UPDATE_POSITION
  D:0001H         SYMBOL        mnths
  D:0002H         SYMBOL        dys
  X:03E6H         SYMBOL        hurs
  X:03E7H         SYMBOL        mns
  X:03E8H         SYMBOL        sconds
  X:03E9H         SYMBOL        currnt_pos
  -------         DO            
  X:03ECH         SYMBOL        date
  X:03EEH         SYMBOL        i
  X:03F0H         SYMBOL        yy
  X:03F2H         SYMBOL        desired_distance
  X:03F6H         SYMBOL        distance
  X:03FAH         SYMBOL        JP_pos
  X:03FEH         SYMBOL        pos_interpolate_12_17h
  X:0452H         SYMBOL        current_time
  X:0456H         SYMBOL        declination
  X:045AH         SYMBOL        p1
  X:0462H         SYMBOL        p2
  X:046AH         SYMBOL        time
  X:047CH         SYMBOL        location
  X:0484H         SYMBOL        sunCoord
  -------         ENDDO         
  C:108AH         LINE#         98
  C:1093H         LINE#         101
  C:1093H         LINE#         102
  C:109EH         LINE#         103
  C:10A8H         LINE#         112
  C:10B2H         LINE#         113
  C:10BDH         LINE#         114
  C:10CDH         LINE#         115
  C:10E1H         LINE#         116
  C:10F2H         LINE#         117
  C:1101H         LINE#         120
  C:1115H         LINE#         123
  C:1167H         LINE#         125
  C:11A9H         LINE#         126
  C:11B8H         LINE#         127
  C:11B8H         LINE#         129
  C:11D1H         LINE#         130
  C:11D1H         LINE#         131
  C:1241H         LINE#         132
  C:1241H         LINE#         133
  C:1248H         LINE#         134
  C:1248H         LINE#         135
  C:1275H         LINE#         136
  C:1290H         LINE#         138
  C:12D7H         LINE#         139
  C:130BH         LINE#         141
  C:1363H         LINE#         142
  C:1383H         LINE#         144
  C:1383H         LINE#         145
  C:1394H         LINE#         148
  C:13AEH         LINE#         149
BL51 BANKED LINKER/LOCATER V6.22                                                      08/24/2018  18:06:45  PAGE 34


  C:13AEH         LINE#         150
  C:141EH         LINE#         151
  C:141EH         LINE#         152
  C:144BH         LINE#         153
  C:1466H         LINE#         155
  C:1493H         LINE#         156
  C:14AEH         LINE#         158
  C:14E0H         LINE#         161
  C:14E0H         LINE#         163
  C:14F1H         LINE#         165
  C:1518H         LINE#         167
  C:153DH         LINE#         169
  C:1557H         LINE#         170
  C:1569H         LINE#         171
  C:1581H         LINE#         172
  C:1597H         LINE#         173
  C:1597H         LINE#         174
  C:15B3H         LINE#         177
  -------         ENDPROC       _UPDATE_POSITION
  -------         ENDMOD        BIPOLARMOTOR

  -------         MODULE        SUNPOS
  C:0000H         SYMBOL        _ICE_DUMMY_
  C:08E8H         PUBLIC        sunpos
  -------         PROC          SUNPOS
  X:0487H         SYMBOL        udtTime
  X:0499H         SYMBOL        udtLocation
  X:04A1H         SYMBOL        udtSunCoordinates
  -------         DO            
  X:04A4H         SYMBOL        dElapsedJulianDays
  X:04A8H         SYMBOL        dDecimalHours
  X:04ACH         SYMBOL        dEclipticLongitude
  X:04B0H         SYMBOL        dEclipticObliquity
  X:04B4H         SYMBOL        dRightAscension
  X:04B8H         SYMBOL        dDeclination
  X:04BCH         SYMBOL        dY
  X:04C0H         SYMBOL        dX
  -------         DO            
  X:04C4H         SYMBOL        dJulianDate
  X:04C8H         SYMBOL        liAux1
  X:04CCH         SYMBOL        liAux2
  X:04C4H         SYMBOL        dMeanLongitude
  X:04C8H         SYMBOL        dMeanAnomaly
  X:04CCH         SYMBOL        dOmega
  X:04C4H         SYMBOL        dSin_EclipticLongitude
  X:04C4H         SYMBOL        dGreenwichMeanSiderealTime
  X:04C8H         SYMBOL        dLocalMeanSiderealTime
  X:04CCH         SYMBOL        dLatitudeInRadians
  X:04D0H         SYMBOL        dHourAngle
  X:04D4H         SYMBOL        dCos_Latitude
  X:04D8H         SYMBOL        dSin_Latitude
  X:04DCH         SYMBOL        dCos_HourAngle
  X:04E0H         SYMBOL        dParallax
  -------         ENDDO         
  -------         DO            
  X:04C4H         SYMBOL        dMeanLongitude
  X:04C8H         SYMBOL        dMeanAnomaly
BL51 BANKED LINKER/LOCATER V6.22                                                      08/24/2018  18:06:45  PAGE 35


  X:04CCH         SYMBOL        dOmega
  X:04C4H         SYMBOL        dSin_EclipticLongitude
  X:04C4H         SYMBOL        dGreenwichMeanSiderealTime
  X:04C8H         SYMBOL        dLocalMeanSiderealTime
  X:04CCH         SYMBOL        dLatitudeInRadians
  X:04D0H         SYMBOL        dHourAngle
  X:04D4H         SYMBOL        dCos_Latitude
  X:04D8H         SYMBOL        dSin_Latitude
  X:04DCH         SYMBOL        dCos_HourAngle
  X:04E0H         SYMBOL        dParallax
  -------         ENDDO         
  -------         DO            
  X:04C4H         SYMBOL        dSin_EclipticLongitude
  X:04C4H         SYMBOL        dGreenwichMeanSiderealTime
  X:04C8H         SYMBOL        dLocalMeanSiderealTime
  X:04CCH         SYMBOL        dLatitudeInRadians
  X:04D0H         SYMBOL        dHourAngle
  X:04D4H         SYMBOL        dCos_Latitude
  X:04D8H         SYMBOL        dSin_Latitude
  X:04DCH         SYMBOL        dCos_HourAngle
  X:04E0H         SYMBOL        dParallax
  -------         ENDDO         
  -------         DO            
  X:04C4H         SYMBOL        dGreenwichMeanSiderealTime
  X:04C8H         SYMBOL        dLocalMeanSiderealTime
  X:04CCH         SYMBOL        dLatitudeInRadians
  X:04D0H         SYMBOL        dHourAngle
  X:04D4H         SYMBOL        dCos_Latitude
  X:04D8H         SYMBOL        dSin_Latitude
  X:04DCH         SYMBOL        dCos_HourAngle
  X:04E0H         SYMBOL        dParallax
  -------         ENDDO         
  -------         ENDDO         
  C:08E8H         LINE#         6
  C:08E8H         LINE#         7
  C:08E8H         LINE#         9
  C:08E8H         LINE#         27
  C:0932H         LINE#         30
  C:0953H         LINE#         31
  C:0A9AH         LINE#         34
  C:0AE6H         LINE#         36
  C:0B05H         LINE#         37
  C:0B05H         LINE#         42
  C:0B05H         LINE#         46
  C:0B37H         LINE#         47
  C:0B61H         LINE#         48
  C:0B8BH         LINE#         49
  C:0C38H         LINE#         52
  C:0C99H         LINE#         54
  C:0C99H         LINE#         59
  C:0C99H         LINE#         61
  C:0CB0H         LINE#         62
  C:0CD8H         LINE#         63
  C:0CEFH         LINE#         64
  C:0D1AH         LINE#         65
  C:0D51H         LINE#         66
  C:0D7CH         LINE#         67
BL51 BANKED LINKER/LOCATER V6.22                                                      08/24/2018  18:06:45  PAGE 36


  C:0D7CH         LINE#         70
  C:0D7CH         LINE#         79
  C:0DB7H         LINE#         82
  C:0DF1H         LINE#         84
  C:0E16H         LINE#         85
  C:0E35H         LINE#         86
  C:0E4CH         LINE#         87
  C:0E63H         LINE#         88
  C:0E7AH         LINE#         89
  C:0F03H         LINE#         91
  C:0F1DH         LINE#         92
  C:0F7FH         LINE#         93
  C:0FB5H         LINE#         94
  C:0FC7H         LINE#         95
  C:0FF4H         LINE#         96
  C:1021H         LINE#         98
  C:1043H         LINE#         100
  C:107BH         LINE#         103
  C:107BH         LINE#         104
  C:1089H         LINE#         105
  -------         ENDPROC       SUNPOS
  -------         ENDMOD        SUNPOS

  -------         MODULE        ?C_STARTUP
  C:2E0AH         SEGMENT       ?C_C51STARTUP
  I:0021H         SEGMENT       ?STACK
  C:0000H         PUBLIC        ?C_STARTUP
  D:00E0H         SYMBOL        ACC
  D:00F0H         SYMBOL        B
  D:0083H         SYMBOL        DPH
  D:0082H         SYMBOL        DPL
  N:0000H         SYMBOL        IBPSTACK
  N:0100H         SYMBOL        IBPSTACKTOP
  N:0080H         SYMBOL        IDATALEN
  C:2E0DH         SYMBOL        IDATALOOP
  N:0000H         SYMBOL        PBPSTACK
  N:0100H         SYMBOL        PBPSTACKTOP
  N:0000H         SYMBOL        PDATALEN
  N:0000H         SYMBOL        PDATASTART
  N:0000H         SYMBOL        PPAGE
  N:0000H         SYMBOL        PPAGEENABLE
  D:00A0H         SYMBOL        PPAGE_SFR
  D:0081H         SYMBOL        SP
  C:2E0AH         SYMBOL        STARTUP1
  N:0000H         SYMBOL        XBPSTACK
  N:0000H         SYMBOL        XBPSTACKTOP
  N:0000H         SYMBOL        XDATALEN
  N:0000H         SYMBOL        XDATASTART
  C:0000H         LINE#         126
  C:2E0AH         LINE#         133
  C:2E0CH         LINE#         134
  C:2E0DH         LINE#         135
  C:2E0EH         LINE#         136
  C:2E10H         LINE#         185
  C:2E13H         LINE#         196
  -------         ENDMOD        ?C_STARTUP

BL51 BANKED LINKER/LOCATER V6.22                                                      08/24/2018  18:06:45  PAGE 37


  -------         MODULE        ?C?FPADD
  C:002DH         PUBLIC        ?C?FPADD
  C:0029H         PUBLIC        ?C?FPSUB
  -------         ENDMOD        ?C?FPADD

  -------         MODULE        ?C?FPMUL
  C:011EH         PUBLIC        ?C?FPMUL
  -------         ENDMOD        ?C?FPMUL

  -------         MODULE        ?C?FPDIV
  C:0227H         PUBLIC        ?C?FPDIV
  -------         ENDMOD        ?C?FPDIV

  -------         MODULE        ?C?FPCMP
  C:02C6H         PUBLIC        ?C?FPCMP
  C:02C4H         PUBLIC        ?C?FPCMP3
  -------         ENDMOD        ?C?FPCMP

  -------         MODULE        ?C?FPNEG
  C:033DH         PUBLIC        ?C?FPNEG
  -------         ENDMOD        ?C?FPNEG

  -------         MODULE        ?C?FCAST
  C:0358H         PUBLIC        ?C?FCASTC
  C:0353H         PUBLIC        ?C?FCASTI
  C:034EH         PUBLIC        ?C?FCASTL
  -------         ENDMOD        ?C?FCAST

  -------         MODULE        ?C?CASTF
  C:038CH         PUBLIC        ?C?CASTF
  -------         ENDMOD        ?C?CASTF

  -------         MODULE        ATAN2
  X:04E4H         PUBLIC        ?_atan2?BYTE
  C:2BA3H         PUBLIC        _atan2
  -------         ENDMOD        ATAN2

  -------         MODULE        SIN
  C:2709H         PUBLIC        _COS
  C:271FH         PUBLIC        _SIN
  C:275BH         PUBLIC        _TAN
  -------         ENDMOD        SIN

  -------         MODULE        ACOS
  C:30B0H         PUBLIC        _ACOS
  -------         ENDMOD        ACOS

  -------         MODULE        ASIN
  C:31C7H         PUBLIC        _ASIN
  -------         ENDMOD        ASIN

  -------         MODULE        SQRT
  C:2AFBH         PUBLIC        _SQRT
  -------         ENDMOD        SQRT

  -------         MODULE        ATAN
  C:2869H         PUBLIC        _ATAN
BL51 BANKED LINKER/LOCATER V6.22                                                      08/24/2018  18:06:45  PAGE 38


  -------         ENDMOD        ATAN

  -------         MODULE        ?C?COPY
  C:052AH         PUBLIC        ?C?COPY
  -------         ENDMOD        ?C?COPY

  -------         MODULE        ?C?CLDPTR
  C:0550H         PUBLIC        ?C?CLDPTR
  -------         ENDMOD        ?C?CLDPTR

  -------         MODULE        ?C?CSTPTR
  C:0569H         PUBLIC        ?C?CSTPTR
  -------         ENDMOD        ?C?CSTPTR

  -------         MODULE        ?C?IMUL
  C:057BH         PUBLIC        ?C?IMUL
  -------         ENDMOD        ?C?IMUL

  -------         MODULE        ?C?UIDIV
  C:058DH         PUBLIC        ?C?UIDIV
  -------         ENDMOD        ?C?UIDIV

  -------         MODULE        ?C?SIDIV
  C:05E2H         PUBLIC        ?C?SIDIV
  -------         ENDMOD        ?C?SIDIV

  -------         MODULE        ?C?ILDIX
  C:0618H         PUBLIC        ?C?ILDIX
  -------         ENDMOD        ?C?ILDIX

  -------         MODULE        ?C?LMUL
  C:062EH         PUBLIC        ?C?LMUL
  -------         ENDMOD        ?C?LMUL

  -------         MODULE        ?C?SLDIV
  C:3143H         PUBLIC        ?C?SLDIV
  -------         ENDMOD        ?C?SLDIV

  -------         MODULE        ?C?LNEG
  C:067DH         PUBLIC        ?C?LNEG
  -------         ENDMOD        ?C?LNEG

  -------         MODULE        ?C?LLDPTR
  C:068BH         PUBLIC        ?C?LLDPTR
  -------         ENDMOD        ?C?LLDPTR

  -------         MODULE        ?C?LLDOPTR
  C:06ABH         PUBLIC        ?C?LLDOPTR
  -------         ENDMOD        ?C?LLDOPTR

  -------         MODULE        ?C?LSTPTR
  C:06DBH         PUBLIC        ?C?LSTPTR
  -------         ENDMOD        ?C?LSTPTR

  -------         MODULE        ?C?LSTOPTR
  C:06F5H         PUBLIC        ?C?LSTOPTR
  -------         ENDMOD        ?C?LSTOPTR
BL51 BANKED LINKER/LOCATER V6.22                                                      08/24/2018  18:06:45  PAGE 39



  -------         MODULE        ?C?LLDXDATA
  C:0719H         PUBLIC        ?C?LLDXDATA
  -------         ENDMOD        ?C?LLDXDATA

  -------         MODULE        ?C?LLDCODE
  C:0725H         PUBLIC        ?C?LLDCODE
  -------         ENDMOD        ?C?LLDCODE

  -------         MODULE        ?C?LLDXDATA0
  C:0735H         PUBLIC        ?C?LLDXDATA0
  -------         ENDMOD        ?C?LLDXDATA0

  -------         MODULE        ?C?LLDCODE0
  C:0741H         PUBLIC        ?C?LLDCODE0
  -------         ENDMOD        ?C?LLDCODE0

  -------         MODULE        ?C?LLDPTR0
  C:0751H         PUBLIC        ?C?LLDPTR0
  -------         ENDMOD        ?C?LLDPTR0

  -------         MODULE        ?C?LSTXDATA
  C:0771H         PUBLIC        ?C?LSTXDATA
  -------         ENDMOD        ?C?LSTXDATA

  -------         MODULE        ?C?LSTKXDATA
  C:077DH         PUBLIC        ?C?LSTKXDATA
  -------         ENDMOD        ?C?LSTKXDATA

  -------         MODULE        ?C?OFFXADD
  C:07AEH         PUBLIC        ?C?OFFXADD
  -------         ENDMOD        ?C?OFFXADD

  -------         MODULE        ABS
  C:34D5H         PUBLIC        _ABS
  -------         ENDMOD        ABS

  -------         MODULE        ATOI
  C:296BH         PUBLIC        _atoi
  -------         ENDMOD        ATOI

  -------         MODULE        ?C?IILDX
  C:07BAH         PUBLIC        ?C?IILDX
  -------         ENDMOD        ?C?IILDX

  -------         MODULE        ?C?ULDIV
  C:080CH         PUBLIC        ?C?ULDIV
  -------         ENDMOD        ?C?ULDIV

  -------         MODULE        ?C?LLDIDATA
  C:089EH         PUBLIC        ?C?LLDIDATA
  -------         ENDMOD        ?C?LLDIDATA

  -------         MODULE        ?C?LLDPDATA
  C:08AAH         PUBLIC        ?C?LLDPDATA
  -------         ENDMOD        ?C?LLDPDATA

BL51 BANKED LINKER/LOCATER V6.22                                                      08/24/2018  18:06:45  PAGE 40


  -------         MODULE        ?C?LLDIDATA0
  C:08B6H         PUBLIC        ?C?LLDIDATA0
  -------         ENDMOD        ?C?LLDIDATA0

  -------         MODULE        ?C?LLDPDATA0
  C:08C3H         PUBLIC        ?C?LLDPDATA0
  -------         ENDMOD        ?C?LLDPDATA0

  -------         MODULE        ?C?LSTIDATA
  C:08D0H         PUBLIC        ?C?LSTIDATA
  -------         ENDMOD        ?C?LSTIDATA

  -------         MODULE        ?C?LSTPDATA
  C:08DCH         PUBLIC        ?C?LSTPDATA
  -------         ENDMOD        ?C?LSTPDATA

  -------         MODULE        ISDIGIT
  C:34ADH         PUBLIC        _isdigit
  -------         ENDMOD        ISDIGIT

  -------         MODULE        ISSPACE
  C:3444H         PUBLIC        _isspace
  -------         ENDMOD        ISSPACE

*** WARNING L16: UNCALLED SEGMENT, IGNORED FOR OVERLAY PROCESS
    SEGMENT: ?PR?_DISPLAY_PROX?MAIN

*** WARNING L16: UNCALLED SEGMENT, IGNORED FOR OVERLAY PROCESS
    SEGMENT: ?PR?_DAY_OF_YEAR?PCF85063BTL

*** WARNING L16: UNCALLED SEGMENT, IGNORED FOR OVERLAY PROCESS
    SEGMENT: ?PR?INITUART1?UART1

*** WARNING L16: UNCALLED SEGMENT, IGNORED FOR OVERLAY PROCESS
    SEGMENT: ?PR?_SENDSTRING?UART1

*** WARNING L16: UNCALLED SEGMENT, IGNORED FOR OVERLAY PROCESS
    SEGMENT: ?PR?_TEN?UART1

*** WARNING L16: UNCALLED SEGMENT, IGNORED FOR OVERLAY PROCESS
    SEGMENT: ?PR?_UNIT?UART1

*** WARNING L16: UNCALLED SEGMENT, IGNORED FOR OVERLAY PROCESS
    SEGMENT: ?PR?_DECTOBCD?UART1

*** WARNING L16: UNCALLED SEGMENT, IGNORED FOR OVERLAY PROCESS
    SEGMENT: ?PR?_ASCII_LETTER?UART1

*** WARNING L16: UNCALLED SEGMENT, IGNORED FOR OVERLAY PROCESS
    SEGMENT: ?PR?NOP?VCNL4035

*** WARNING L16: UNCALLED SEGMENT, IGNORED FOR OVERLAY PROCESS
    SEGMENT: ?PR?_READ_VCNL4035?VCNL4035

*** WARNING L16: UNCALLED SEGMENT, IGNORED FOR OVERLAY PROCESS
    SEGMENT: ?PR?_DISPLAYLCD_VCNL4035?VCNL4035

BL51 BANKED LINKER/LOCATER V6.22                                                      08/24/2018  18:06:45  PAGE 41


*** WARNING L16: UNCALLED SEGMENT, IGNORED FOR OVERLAY PROCESS
    SEGMENT: ?PR?_FINDDET4X4?BIPOLARMOTOR

*** WARNING L1: UNRESOLVED EXTERNAL SYMBOL
    SYMBOL:  AUTO_MODE
    MODULE:  .\Obj\main.obj (MAIN)

*** WARNING L2: REFERENCE MADE TO UNRESOLVED EXTERNAL
    SYMBOL:  AUTO_MODE
    MODULE:  .\Obj\main.obj (MAIN)
    ADDRESS: 1F45H

*** WARNING L2: REFERENCE MADE TO UNRESOLVED EXTERNAL
    SYMBOL:  AUTO_MODE
    MODULE:  .\Obj\main.obj (MAIN)
    ADDRESS: 200DH

*** WARNING L2: REFERENCE MADE TO UNRESOLVED EXTERNAL
    SYMBOL:  AUTO_MODE
    MODULE:  .\Obj\main.obj (MAIN)
    ADDRESS: 201BH

*** WARNING L2: REFERENCE MADE TO UNRESOLVED EXTERNAL
    SYMBOL:  AUTO_MODE
    MODULE:  .\Obj\main.obj (MAIN)
    ADDRESS: 202DH

*** WARNING L2: REFERENCE MADE TO UNRESOLVED EXTERNAL
    SYMBOL:  AUTO_MODE
    MODULE:  .\Obj\main.obj (MAIN)
    ADDRESS: 206FH

*** WARNING L2: REFERENCE MADE TO UNRESOLVED EXTERNAL
    SYMBOL:  AUTO_MODE
    MODULE:  .\Obj\main.obj (MAIN)
    ADDRESS: 2146H

*** WARNING L1: UNRESOLVED EXTERNAL SYMBOL
    SYMBOL:  AUTO_MODE
    MODULE:  .\Obj\KeyPad.obj (KEYPAD)

*** WARNING L2: REFERENCE MADE TO UNRESOLVED EXTERNAL
    SYMBOL:  AUTO_MODE
    MODULE:  .\Obj\KeyPad.obj (KEYPAD)
    ADDRESS: 1CD5H

*** WARNING L2: REFERENCE MADE TO UNRESOLVED EXTERNAL
    SYMBOL:  AUTO_MODE
    MODULE:  .\Obj\KeyPad.obj (KEYPAD)
    ADDRESS: 1CE0H

*** WARNING L2: REFERENCE MADE TO UNRESOLVED EXTERNAL
    SYMBOL:  AUTO_MODE
    MODULE:  .\Obj\KeyPad.obj (KEYPAD)
    ADDRESS: 1CE7H

Program Size: data=18.0 xdata=1419 code=13589
BL51 BANKED LINKER/LOCATER V6.22                                                      08/24/2018  18:06:45  PAGE 42


LINK/LOCATE RUN COMPLETE.  23 WARNING(S),  0 ERROR(S)
