BL51 BANKED LINKER/LOCATER V6.22                                                        07/11/2018  18:40:52  PAGE 1


BL51 BANKED LINKER/LOCATER V6.22, INVOKED BY:
C:\KEIL_V5\C51\BIN\BL51.EXE .\Obj\main.obj, .\Obj\PCF85063BTL.obj, .\Obj\UART1.obj, .\Obj\LCd_Driver_SPLC780D.obj, .\Obj
>> \KeyPad.obj, .\Obj\VCNL4035.obj, .\Obj\BipolarMotor.obj, .\Obj\STARTUP.obj TO .\Obj\GPIO_RTC_Test PRINT (.\Lis\GPIO_R
>> TC_Test.m51) RAMSIZE (256)


MEMORY MODEL: LARGE WITH FLOATING POINT ARITHMETIC


INPUT MODULES INCLUDED:
  .\Obj\main.obj (MAIN)
  .\Obj\PCF85063BTL.obj (PCF85063BTL)
  .\Obj\UART1.obj (UART1)
  .\Obj\LCd_Driver_SPLC780D.obj (LCD_DRIVER_SPLC780D)
  .\Obj\KeyPad.obj (KEYPAD)
  .\Obj\VCNL4035.obj (VCNL4035)
  .\Obj\BipolarMotor.obj (BIPOLARMOTOR)
  .\Obj\STARTUP.obj (?C_STARTUP)
  C:\KEIL_V5\C51\LIB\C51FPL.LIB (?C?FPMUL)
  C:\KEIL_V5\C51\LIB\C51FPL.LIB (?C?FPDIV)
  C:\KEIL_V5\C51\LIB\C51FPL.LIB (?C?FCAST)
  C:\KEIL_V5\C51\LIB\C51FPL.LIB (?C?CASTF)
  C:\KEIL_V5\C51\LIB\C51FPL.LIB (?C?FPGETOPN)
  C:\KEIL_V5\C51\LIB\C51L.LIB (?C_INIT)
  C:\KEIL_V5\C51\LIB\C51L.LIB (?C?CLDPTR)
  C:\KEIL_V5\C51\LIB\C51L.LIB (?C?CSTPTR)
  C:\KEIL_V5\C51\LIB\C51L.LIB (?C?IMUL)
  C:\KEIL_V5\C51\LIB\C51L.LIB (?C?UIDIV)
  C:\KEIL_V5\C51\LIB\C51L.LIB (?C?SIDIV)
  C:\KEIL_V5\C51\LIB\C51L.LIB (?C?ILDIX)
  C:\KEIL_V5\C51\LIB\C51L.LIB (?C?ILDPTR)
  C:\KEIL_V5\C51\LIB\C51L.LIB (?C?ISTPTR)
  C:\KEIL_V5\C51\LIB\C51L.LIB (?C?LNEG)
  C:\KEIL_V5\C51\LIB\C51L.LIB (?C?LSTXDATA)
  C:\KEIL_V5\C51\LIB\C51L.LIB (?C?OFFXADD)
  C:\KEIL_V5\C51\LIB\C51L.LIB (ABS)
  C:\KEIL_V5\C51\LIB\C51L.LIB (ATOI)
  C:\KEIL_V5\C51\LIB\C51L.LIB (?C?IILDX)
  C:\KEIL_V5\C51\LIB\C51L.LIB (ISDIGIT)
  C:\KEIL_V5\C51\LIB\C51L.LIB (ISSPACE)


LINK MAP OF MODULE:  .\Obj\GPIO_RTC_Test (MAIN)


            TYPE    BASE      LENGTH    RELOCATION   SEGMENT NAME
            -----------------------------------------------------

            * * * * * * *   D A T A   M E M O R Y   * * * * * * *
            REG     0000H     0008H     ABSOLUTE     "REG BANK 0"
            REG     0008H     0008H     ABSOLUTE     "REG BANK 1"
                    0010H     0010H                  *** GAP ***
            BIT     0020H.0   0000H.3   UNIT         _BIT_GROUP_
            BIT     0020H.3   0000H.2   UNIT         ?BI?KEYPAD
            BIT     0020H.5   0000H.1   UNIT         ?BI?MAIN
                    0020H.6   0000H.2                *** GAP ***
            IDATA   0021H     0001H     UNIT         ?STACK

BL51 BANKED LINKER/LOCATER V6.22                                                      07/11/2018  18:40:52  PAGE 2


            * * * * * * *  X D A T A   M E M O R Y  * * * * * * *
            XDATA   0000H     02F4H     UNIT         ?XD?BIPOLARMOTOR
            XDATA   02F4H     002DH     UNIT         _XDATA_GROUP_
            XDATA   0321H     001CH     UNIT         ?XD?MAIN
            XDATA   033DH     0009H     UNIT         ?XD?KEYPAD
            XDATA   0346H     0003H     UNIT         ?XD?_SENDSTRING?UART1
            XDATA   0349H     0001H     UNIT         ?XD?_DISPLAYLCD_VCNL4035?VCNL4035

            * * * * * * *   C O D E   M E M O R Y   * * * * * * *
            CODE    0000H     0003H     ABSOLUTE     
            CODE    0003H     0007H     UNIT         ?PR?KEYPAD_IO_INIT?KEYPAD
            CODE    000AH     0001H     UNIT         ?PR?TM0_ISR?MAIN
            CODE    000BH     0003H     ABSOLUTE     
            CODE    000EH     0015H     UNIT         ?PR?_DISPLAY_LINE?LCD_DRIVER_SPLC780D
            CODE    0023H     0003H     ABSOLUTE     
            CODE    0026H     03C9H     UNIT         ?C?LIB_CODE
            CODE    03EFH     0338H     UNIT         ?C_INITSEG
            CODE    0727H     0272H     UNIT         ?PR?KEY_PROCESS?KEYPAD
            CODE    0999H     01A1H     UNIT         ?PR?_UPDATE_POSITION?BIPOLARMOTOR
            CODE    0B3AH     0194H     UNIT         ?PR?KEY_SCAN?KEYPAD
            CODE    0CCEH     018FH     UNIT         ?PR?MAIN?MAIN
            CODE    0E5DH     00DBH     UNIT         ?PR?_ATOI?ATOI
            CODE    0F38H     009BH     UNIT         ?PR?UART?MAIN
            CODE    0FD3H     009AH     UNIT         ?PR?_READ_VCNL4035?VCNL4035
            CODE    106DH     0095H     UNIT         ?PR?_DISPLAY_PROX?MAIN
            CODE    1102H     008CH     UNIT         ?C_C51STARTUP
            CODE    118EH     007CH     UNIT         ?PR?_DAY_OF_YEAR?PCF85063BTL
            CODE    120AH     0075H     UNIT         ?PR?_WRITEDATA?LCD_DRIVER_SPLC780D
            CODE    127FH     006FH     UNIT         ?PR?_READ_TIME?PCF85063BTL
            CODE    12EEH     0059H     UNIT         ?PR?_STEP_MOVE?BIPOLARMOTOR
            CODE    1347H     0054H     UNIT         ?PR?LCD_INIT?LCD_DRIVER_SPLC780D
            CODE    139BH     0049H     UNIT         ?PR?_WRITE_VCNL4035X?VCNL4035
            CODE    13E4H     0040H     UNIT         ?PR?_COMMAND?LCD_DRIVER_SPLC780D
            CODE    1424H     0034H     UNIT         ?PR?_MOVE?BIPOLARMOTOR
            CODE    1458H     0033H     UNIT         ?PR?_SENDSTRING?UART1
            CODE    148BH     002CH     UNIT         ?PR?I2C_RECEIVEBYTE?VCNL4035
            CODE    14B7H     002BH     UNIT         ?PR?_WAIT_MS_I2C?VCNL4035
            CODE    14E2H     0024H     UNIT         ?PR?_WAIT_MS?LCD_DRIVER_SPLC780D
            CODE    1506H     0022H     UNIT         ?PR?_I2C_SENDBYTE?VCNL4035
            CODE    1528H     0020H     UNIT         ?PR?_SPI_SENDBYTE?PCF85063BTL
            CODE    1548H     0020H     UNIT         ?PR?SPI_RECEIVEBYTE?PCF85063BTL
            CODE    1568H     001EH     UNIT         ?PR?_DELAY_MS?KEYPAD
            CODE    1586H     001EH     UNIT         ?PR?_WAIT_MS_IIC?VCNL4035
            CODE    15A4H     001DH     UNIT         ?PR?_DISPLAYLCD?LCD_DRIVER_SPLC780D
            CODE    15C1H     001BH     UNIT         ?PR?I2C_ACK?VCNL4035
            CODE    15DCH     0018H     UNIT         ?PR?_SPI_WRITETIME?PCF85063BTL
            CODE    15F4H     0017H     UNIT         ?PR?_ASCIITOBCD?UART1
            CODE    160BH     0017H     UNIT         ?PR?I2C_INIT?VCNL4035
            CODE    1622H     0015H     UNIT         ?PR?I2C_STOP?VCNL4035
            CODE    1637H     0014H     UNIT         ?PR?_PCF85063BTL_DELAY?PCF85063BTL
            CODE    164BH     0014H     UNIT         ?PR?_ISSPACE?ISSPACE
            CODE    165FH     0013H     UNIT         ?PR?I2C_START?VCNL4035
            CODE    1672H     0011H     UNIT         ?PR?_SPI_READTIME?PCF85063BTL
            CODE    1683H     0011H     UNIT         ?PR?INITUART1?UART1
            CODE    1694H     000FH     UNIT         ?PR?UC_NACK?VCNL4035
            CODE    16A3H     000FH     UNIT         ?PR?_ISDIGIT?ISDIGIT
            CODE    16B2H     000DH     UNIT         ?PR?SPI_INIT?PCF85063BTL
BL51 BANKED LINKER/LOCATER V6.22                                                      07/11/2018  18:40:52  PAGE 3


            CODE    16BFH     000CH     UNIT         ?PR?_ABS?ABS
            CODE    16CBH     000AH     UNIT         ?PR?LCD_RETURN_HOME?LCD_DRIVER_SPLC780D
            CODE    16D5H     000AH     UNIT         ?PR?LCD_CLEAR?LCD_DRIVER_SPLC780D
            CODE    16DFH     0009H     UNIT         ?PR?_SENDUART1?MAIN
            CODE    16E8H     0006H     UNIT         ?PR?_TEN?UART1
            CODE    16EEH     0006H     UNIT         ?PR?UC_ACK?VCNL4035
            CODE    16F4H     0006H     UNIT         ?PR?_DISPLAYLCD_VCNL4035?VCNL4035
            CODE    16FAH     0005H     UNIT         ?PR?_UNIT?UART1
            CODE    16FFH     0005H     UNIT         ?PR?_ASCII_LETTER?UART1
            CODE    1704H     0001H     UNIT         ?PR?_DECTOBCD?UART1
            CODE    1705H     0001H     UNIT         ?PR?NOP?VCNL4035



OVERLAY MAP OF MODULE:   .\Obj\GPIO_RTC_Test (MAIN)


SEGMENT                                            BIT_GROUP          XDATA_GROUP
  +--> CALLED SEGMENT                           START    LENGTH     START    LENGTH
-----------------------------------------------------------------------------------
?PR?UART?MAIN                                   -----    -----      -----    -----
  +--> ?PR?_ASCIITOBCD?UART1

?PR?_ASCIITOBCD?UART1                           -----    -----      -----    -----
  +--> ?PR?_ATOI?ATOI

?PR?_ATOI?ATOI                                  0020H.0  0000H.1    02F4H    0005H
  +--> ?PR?_ISSPACE?ISSPACE
  +--> ?PR?_ISDIGIT?ISDIGIT

*** NEW ROOT ***************************************************

?C_C51STARTUP                                   -----    -----      -----    -----
  +--> ?PR?MAIN?MAIN
  +--> ?C_INITSEG

?PR?MAIN?MAIN                                   -----    -----      02F9H    0010H
  +--> ?PR?LCD_INIT?LCD_DRIVER_SPLC780D
  +--> ?PR?SPI_INIT?PCF85063BTL
  +--> ?PR?KEYPAD_IO_INIT?KEYPAD
  +--> ?PR?INITUART1?UART1
  +--> ?PR?I2C_INIT?VCNL4035
  +--> ?PR?_SPI_WRITETIME?PCF85063BTL
  +--> ?PR?_DELAY_MS?KEYPAD
  +--> ?PR?_DISPLAY_LINE?LCD_DRIVER_SPLC780D
  +--> ?PR?_WRITEDATA?LCD_DRIVER_SPLC780D
  +--> ?PR?KEY_PROCESS?KEYPAD
  +--> ?PR?_DISPLAYLCD?LCD_DRIVER_SPLC780D
  +--> ?PR?_READ_VCNL4035?VCNL4035
  +--> ?PR?_DISPLAY_PROX?MAIN
  +--> ?PR?_STEP_MOVE?BIPOLARMOTOR
  +--> ?PR?LCD_RETURN_HOME?LCD_DRIVER_SPLC780D
  +--> ?PR?_READ_TIME?PCF85063BTL
  +--> ?PR?_UPDATE_POSITION?BIPOLARMOTOR
  +--> ?PR?_SENDUART1?MAIN

?PR?LCD_INIT?LCD_DRIVER_SPLC780D                -----    -----      -----    -----
BL51 BANKED LINKER/LOCATER V6.22                                                      07/11/2018  18:40:52  PAGE 4


  +--> ?PR?_WAIT_MS?LCD_DRIVER_SPLC780D
  +--> ?PR?_COMMAND?LCD_DRIVER_SPLC780D

?PR?_COMMAND?LCD_DRIVER_SPLC780D                -----    -----      -----    -----
  +--> ?PR?_WAIT_MS?LCD_DRIVER_SPLC780D

?PR?I2C_INIT?VCNL4035                           -----    -----      -----    -----
  +--> ?PR?_WRITE_VCNL4035X?VCNL4035

?PR?_WRITE_VCNL4035X?VCNL4035                   -----    -----      0309H    0003H
  +--> ?PR?I2C_START?VCNL4035
  +--> ?PR?_WAIT_MS_I2C?VCNL4035
  +--> ?PR?I2C_ACK?VCNL4035
  +--> ?PR?_I2C_SENDBYTE?VCNL4035
  +--> ?PR?I2C_STOP?VCNL4035

?PR?I2C_START?VCNL4035                          -----    -----      -----    -----
  +--> ?PR?_WAIT_MS_IIC?VCNL4035
  +--> ?PR?_WAIT_MS_I2C?VCNL4035

?PR?I2C_ACK?VCNL4035                            -----    -----      0311H    0001H
  +--> ?PR?_I2C_SENDBYTE?VCNL4035
  +--> ?PR?_WAIT_MS_I2C?VCNL4035

?PR?_I2C_SENDBYTE?VCNL4035                      -----    -----      -----    -----
  +--> ?PR?_WAIT_MS_I2C?VCNL4035

?PR?I2C_STOP?VCNL4035                           -----    -----      -----    -----
  +--> ?PR?_WAIT_MS_I2C?VCNL4035

?PR?_SPI_WRITETIME?PCF85063BTL                  -----    -----      -----    -----
  +--> ?PR?_SPI_SENDBYTE?PCF85063BTL

?PR?_SPI_SENDBYTE?PCF85063BTL                   -----    -----      -----    -----
  +--> ?PR?_PCF85063BTL_DELAY?PCF85063BTL

?PR?_DISPLAY_LINE?LCD_DRIVER_SPLC780D           -----    -----      -----    -----
  +--> ?PR?_COMMAND?LCD_DRIVER_SPLC780D

?PR?_WRITEDATA?LCD_DRIVER_SPLC780D              -----    -----      030FH    0001H
  +--> ?PR?_WAIT_MS?LCD_DRIVER_SPLC780D

?PR?KEY_PROCESS?KEYPAD                          -----    -----      0309H    0006H
  +--> ?PR?KEY_SCAN?KEYPAD
  +--> ?PR?_SPI_WRITETIME?PCF85063BTL
  +--> ?PR?LCD_CLEAR?LCD_DRIVER_SPLC780D
  +--> ?PR?_COMMAND?LCD_DRIVER_SPLC780D
  +--> ?PR?_WRITEDATA?LCD_DRIVER_SPLC780D

?PR?KEY_SCAN?KEYPAD                             -----    -----      030FH    0003H
  +--> ?PR?_DELAY_MS?KEYPAD

?PR?LCD_CLEAR?LCD_DRIVER_SPLC780D               -----    -----      -----    -----
  +--> ?PR?_COMMAND?LCD_DRIVER_SPLC780D

?PR?_DISPLAYLCD?LCD_DRIVER_SPLC780D             -----    -----      0309H    0001H
  +--> ?PR?_WRITEDATA?LCD_DRIVER_SPLC780D
BL51 BANKED LINKER/LOCATER V6.22                                                      07/11/2018  18:40:52  PAGE 5



?PR?_READ_VCNL4035?VCNL4035                     -----    -----      0309H    0008H
  +--> ?PR?I2C_START?VCNL4035
  +--> ?PR?_WAIT_MS_I2C?VCNL4035
  +--> ?PR?_I2C_SENDBYTE?VCNL4035
  +--> ?PR?I2C_ACK?VCNL4035
  +--> ?PR?I2C_RECEIVEBYTE?VCNL4035
  +--> ?PR?UC_ACK?VCNL4035
  +--> ?PR?UC_NACK?VCNL4035
  +--> ?PR?I2C_STOP?VCNL4035
  +--> ?PR?_WAIT_MS_IIC?VCNL4035

?PR?I2C_RECEIVEBYTE?VCNL4035                    -----    -----      -----    -----
  +--> ?PR?_WAIT_MS_I2C?VCNL4035

?PR?UC_ACK?VCNL4035                             -----    -----      0311H    0001H
  +--> ?PR?_WAIT_MS_I2C?VCNL4035

?PR?UC_NACK?VCNL4035                            -----    -----      0311H    0001H
  +--> ?PR?_WAIT_MS_I2C?VCNL4035

?PR?_DISPLAY_PROX?MAIN                          -----    -----      0309H    0004H
  +--> ?PR?_WRITEDATA?LCD_DRIVER_SPLC780D

?PR?_STEP_MOVE?BIPOLARMOTOR                     0020H.2  0000H.1    031DH    0004H
  +--> ?PR?_WAIT_MS?LCD_DRIVER_SPLC780D

?PR?LCD_RETURN_HOME?LCD_DRIVER_SPLC780D         -----    -----      -----    -----
  +--> ?PR?_COMMAND?LCD_DRIVER_SPLC780D

?PR?_READ_TIME?PCF85063BTL                      -----    -----      0309H    000FH
  +--> ?PR?_SPI_READTIME?PCF85063BTL

?PR?_SPI_READTIME?PCF85063BTL                   -----    -----      -----    -----
  +--> ?PR?_SPI_SENDBYTE?PCF85063BTL
  +--> ?PR?SPI_RECEIVEBYTE?PCF85063BTL

?PR?SPI_RECEIVEBYTE?PCF85063BTL                 -----    -----      -----    -----
  +--> ?PR?_PCF85063BTL_DELAY?PCF85063BTL

?PR?_UPDATE_POSITION?BIPOLARMOTOR               -----    -----      0309H    0010H
  +--> ?PR?_DAY_OF_YEAR?PCF85063BTL
  +--> ?PR?_ABS?ABS
  +--> ?PR?_MOVE?BIPOLARMOTOR

?PR?_MOVE?BIPOLARMOTOR                          0020H.1  0000H.1    0319H    0004H
  +--> ?PR?_STEP_MOVE?BIPOLARMOTOR



SYMBOL TABLE OF MODULE:  .\Obj\GPIO_RTC_Test (MAIN)

  VALUE           TYPE          NAME
  ----------------------------------

  -------         MODULE        MAIN
  C:0000H         SYMBOL        _ICE_DUMMY_
BL51 BANKED LINKER/LOCATER V6.22                                                      07/11/2018  18:40:52  PAGE 6


  D:0080H         PUBLIC        P0
  D:0090H         PUBLIC        P1
  D:00A0H         PUBLIC        P2
  D:00B0H         PUBLIC        P3
  D:00C0H         PUBLIC        P4
  D:00C8H         PUBLIC        P5
  X:0329H         SYMBOL        PressedKey
  B:00A8H.7       PUBLIC        EA
  D:00E8H         PUBLIC        P6
  D:00F8H         PUBLIC        P7
  X:032DH         PUBLIC        RX_Data_Uart_Cnt
  D:00A8H         PUBLIC        IE
  D:00B8H         PUBLIC        IP
  B:0098H.0       PUBLIC        RI
  B:0098H.1       PUBLIC        TI
  C:0F38H         PUBLIC        Uart
  D:00D8H         PUBLIC        CCON
  C:0CCEH         PUBLIC        main
  D:0099H         PUBLIC        SBUF
  D:0098H         PUBLIC        SCON
  D:0089H         PUBLIC        TMOD
  D:0088H         PUBLIC        TCON
  X:032FH         SYMBOL        KeyCount
  X:0331H         PUBLIC        Rec_data_hour
  X:0334H         PUBLIC        Rec_data_min
  D:008EH         PUBLIC        AUXR
  C:000AH         PUBLIC        tm0_isr
  B:0020H.5       PUBLIC        busy
  D:00E0H         PUBLIC        ACC
  B:00A8H.1       PUBLIC        ET0
  D:008CH         PUBLIC        TH0
  X:0337H         PUBLIC        hour_count
  D:008AH         PUBLIC        TL0
  X:0338H         PUBLIC        min_count
  B:0088H.4       PUBLIC        TR0
  X:0339H         SYMBOL        KeyNum
  X:033AH         SYMBOL        KeyNum_Old
  C:106DH         PUBLIC        _Display_Prox
  X:033BH         PUBLIC        st_time
  D:00D0H         PUBLIC        PSW
  C:16DFH         PUBLIC        _SendUART1
  -------         PROC          TM0_ISR
  C:000AH         LINE#         52
  C:000AH         LINE#         55
  -------         ENDPROC       TM0_ISR
  -------         PROC          MAIN
  -------         DO            
  X:02F9H         SYMBOL        seconds
  X:02FAH         SYMBOL        mins
  X:02FBH         SYMBOL        hours
  X:02FCH         SYMBOL        days
  X:02FDH         SYMBOL        months
  X:02FEH         SYMBOL        prox_data
  X:0321H         SYMBOL        KeyCount
  X:0323H         SYMBOL        KeyNum_Old
  X:0324H         SYMBOL        KeyNum
  X:0325H         SYMBOL        PressedKey
BL51 BANKED LINKER/LOCATER V6.22                                                      07/11/2018  18:40:52  PAGE 7


  X:0300H         SYMBOL        count
  X:0302H         SYMBOL        numStr
  X:0307H         SYMBOL        current_position
  -------         ENDDO         
  C:0CCEH         LINE#         57
  C:0CCEH         LINE#         58
  C:0CCEH         LINE#         64
  C:0CD5H         LINE#         66
  C:0CDBH         LINE#         67
  C:0CDDH         LINE#         68
  C:0CDFH         LINE#         77
  C:0CE2H         LINE#         78
  C:0CE5H         LINE#         79
  C:0CE8H         LINE#         80
  C:0CEBH         LINE#         81
  C:0CEEH         LINE#         83
  C:0CF1H         LINE#         84
  C:0CF4H         LINE#         85
  C:0CF7H         LINE#         86
  C:0CF9H         LINE#         87
  C:0CFBH         LINE#         88
  C:0CFDH         LINE#         90
  C:0CFFH         LINE#         91
  C:0D06H         LINE#         92
  C:0D0DH         LINE#         93
  C:0D14H         LINE#         94
  C:0D1BH         LINE#         98
  C:0D22H         LINE#         99
  C:0D27H         LINE#         100
  C:0D2CH         LINE#         101
  C:0D31H         LINE#         102
  C:0D36H         LINE#         103
  C:0D3BH         LINE#         106
  C:0D3BH         LINE#         107
  C:0D3BH         LINE#         108
  C:0D3EH         LINE#         109
  C:0D4CH         LINE#         111
  C:0D4CH         LINE#         112
  C:0D53H         LINE#         113
  C:0D5BH         LINE#         114
  C:0D60H         LINE#         115
  C:0D68H         LINE#         116
  C:0D6DH         LINE#         117
  C:0D77H         LINE#         119
  C:0D7FH         LINE#         121
  C:0D87H         LINE#         123
  C:0D96H         LINE#         124
  C:0D99H         LINE#         132
  C:0DABH         LINE#         133
  C:0DABH         LINE#         134
  C:0DB6H         LINE#         136
  C:0DB6H         LINE#         137
  C:0DB9H         LINE#         139
  C:0DB9H         LINE#         140
  C:0DF4H         LINE#         141
  C:0E22H         LINE#         145
  C:0E2FH         LINE#         146
BL51 BANKED LINKER/LOCATER V6.22                                                      07/11/2018  18:40:52  PAGE 8


  C:0E2FH         LINE#         147
  C:0E39H         LINE#         148
  C:0E43H         LINE#         149
  C:0E4AH         LINE#         150
  C:0E52H         LINE#         151
  C:0E5AH         LINE#         152
  -------         ENDPROC       MAIN
  -------         PROC          UART
  C:0F38H         LINE#         165
  C:0F45H         LINE#         167
  C:0F48H         LINE#         168
  C:0F48H         LINE#         169
  C:0F56H         LINE#         170
  C:0F58H         LINE#         171
  C:0F6AH         LINE#         172
  C:0F79H         LINE#         173
  C:0F84H         LINE#         174
  C:0F84H         LINE#         177
  C:0F91H         LINE#         178
  C:0F97H         LINE#         179
  C:0F97H         LINE#         180
  C:0F9DH         LINE#         181
  C:0FABH         LINE#         182
  C:0FB9H         LINE#         183
  C:0FC1H         LINE#         188
  C:0FC1H         LINE#         189
  C:0FC1H         LINE#         192
  C:0FC1H         LINE#         193
  C:0FC4H         LINE#         194
  C:0FC4H         LINE#         195
  C:0FC6H         LINE#         196
  C:0FC8H         LINE#         197
  C:0FC8H         LINE#         198
  -------         ENDPROC       UART
  -------         PROC          _SENDUART1
  D:0007H         SYMBOL        dat
  C:16DFH         LINE#         201
  C:16DFH         LINE#         202
  C:16DFH         LINE#         203
  C:16E2H         LINE#         204
  C:16E4H         LINE#         205
  C:16E5H         LINE#         206
  C:16E7H         LINE#         207
  -------         ENDPROC       _SENDUART1
  -------         PROC          _DISPLAY_PROX
  D:0002H         SYMBOL        dat
  -------         DO            
  X:0309H         SYMBOL        unit
  X:030AH         SYMBOL        ten
  X:030BH         SYMBOL        hundred
  X:030CH         SYMBOL        thousand
  -------         ENDDO         
  C:106DH         LINE#         210
  C:1071H         LINE#         211
  C:1071H         LINE#         213
  C:107DH         LINE#         214
  C:108DH         LINE#         215
BL51 BANKED LINKER/LOCATER V6.22                                                      07/11/2018  18:40:52  PAGE 9


  C:10A9H         LINE#         216
  C:10D9H         LINE#         217
  C:10E3H         LINE#         218
  C:10EDH         LINE#         219
  C:10F7H         LINE#         220
  C:1101H         LINE#         222
  -------         ENDPROC       _DISPLAY_PROX
  -------         ENDMOD        MAIN

  -------         MODULE        PCF85063BTL
  C:0000H         SYMBOL        _ICE_DUMMY_
  D:0096H         PUBLIC        P2M0
  D:0080H         PUBLIC        P0
  D:0095H         PUBLIC        P2M1
  D:0090H         PUBLIC        P1
  D:00A0H         PUBLIC        P2
  D:00B0H         PUBLIC        P3
  D:00C0H         PUBLIC        P4
  D:00C8H         PUBLIC        P5
  D:00E8H         PUBLIC        P6
  B:00A0H.2       PUBLIC        PCF85063BTL_SDI
  D:00F8H         PUBLIC        P7
  B:00A0H.1       PUBLIC        PCF85063BTL_SCK
  B:00A0H.2       PUBLIC        PCF85063BTL_SDO
  D:00A8H         PUBLIC        IE
  C:127FH         PUBLIC        _Read_time
  C:163DH         PUBLIC        _PCF85063BTL_Delay
  D:00B8H         PUBLIC        IP
  D:00D8H         PUBLIC        CCON
  C:118EH         PUBLIC        _Day_Of_Year
  C:1548H         PUBLIC        SPI_ReceiveByte
  D:0098H         PUBLIC        SCON
  D:0088H         PUBLIC        TCON
  B:00A0H.0       PUBLIC        PCF85063BTL_CS
  C:1672H         PUBLIC        _SPI_ReadTime
  C:16B2H         PUBLIC        SPI_Init
  C:15DCH         PUBLIC        _SPI_WriteTime
  C:1528H         PUBLIC        _SPI_SendByte
  D:00D0H         PUBLIC        PSW
  C:1639H         SYMBOL        L?0046
  -------         PROC          L?0045
  -------         ENDPROC       L?0045
  C:1639H         SYMBOL        L?0046
  -------         PROC          _PCF85063BTL_DELAY
  D:0006H         SYMBOL        us
  C:163DH         LINE#         8
  C:163DH         LINE#         9
  C:163DH         LINE#         10
  C:1647H         LINE#         11
  C:1647H         LINE#         12
  C:1648H         LINE#         13
  C:164AH         LINE#         14
  -------         ENDPROC       _PCF85063BTL_DELAY
  -------         PROC          _SPI_SENDBYTE
  D:0005H         SYMBOL        dat
  -------         DO            
  D:0003H         SYMBOL        i
BL51 BANKED LINKER/LOCATER V6.22                                                      07/11/2018  18:40:52  PAGE 10


  -------         ENDDO         
  C:1528H         LINE#         17
  C:152AH         LINE#         18
  C:152AH         LINE#         20
  C:152CH         LINE#         21
  C:152CH         LINE#         22
  C:152EH         LINE#         23
  C:1532H         LINE#         24
  C:1532H         LINE#         25
  C:1534H         LINE#         26
  C:1536H         LINE#         28
  C:1536H         LINE#         29
  C:1538H         LINE#         30
  C:1538H         LINE#         31
  C:153BH         LINE#         32
  C:153BH         LINE#         33
  C:153EH         LINE#         34
  C:1542H         LINE#         35
  C:1547H         LINE#         36
  -------         ENDPROC       _SPI_SENDBYTE
  -------         PROC          SPI_RECEIVEBYTE
  -------         DO            
  D:0003H         SYMBOL        i
  D:0005H         SYMBOL        dat
  -------         ENDDO         
  C:1548H         LINE#         39
  C:1548H         LINE#         40
  C:1548H         LINE#         42
  C:154AH         LINE#         44
  C:154CH         LINE#         45
  C:154DH         LINE#         46
  C:154DH         LINE#         47
  C:1551H         LINE#         48
  C:1553H         LINE#         49
  C:1556H         LINE#         51
  C:1559H         LINE#         52
  C:1559H         LINE#         53
  C:155DH         LINE#         54
  C:155DH         LINE#         55
  C:155DH         LINE#         56
  C:1560H         LINE#         57
  C:1565H         LINE#         58
  C:1567H         LINE#         59
  -------         ENDPROC       SPI_RECEIVEBYTE
  -------         PROC          _SPI_READTIME
  D:0007H         SYMBOL        addr
  -------         DO            
  D:0006H         SYMBOL        dat
  -------         ENDDO         
  C:1672H         LINE#         61
  C:1672H         LINE#         62
  C:1672H         LINE#         64
  C:1674H         LINE#         65
  C:1676H         LINE#         66
  C:167DH         LINE#         67
  C:1680H         LINE#         68
  C:1682H         LINE#         69
BL51 BANKED LINKER/LOCATER V6.22                                                      07/11/2018  18:40:52  PAGE 11


  C:1682H         LINE#         70
  -------         ENDPROC       _SPI_READTIME
  -------         PROC          _SPI_WRITETIME
  D:0002H         SYMBOL        val
  D:0005H         SYMBOL        addr
  C:15DCH         LINE#         71
  C:15DEH         LINE#         72
  C:15DEH         LINE#         74
  C:15E0H         LINE#         75
  C:15E7H         LINE#         76
  C:15ECH         LINE#         77
  C:15F1H         LINE#         78
  C:15F3H         LINE#         79
  -------         ENDPROC       _SPI_WRITETIME
  -------         PROC          SPI_INIT
  C:16B2H         LINE#         83
  C:16B2H         LINE#         84
  C:16B2H         LINE#         89
  C:16B5H         LINE#         90
  C:16B8H         LINE#         91
  C:16BAH         LINE#         92
  C:16BCH         LINE#         93
  C:16BEH         LINE#         94
  -------         ENDPROC       SPI_INIT
  -------         PROC          _READ_TIME
  X:0309H         SYMBOL        months
  X:030CH         SYMBOL        days
  X:030FH         SYMBOL        hours
  X:0312H         SYMBOL        mins
  X:0315H         SYMBOL        seconds
  C:127FH         LINE#         96
  C:128AH         LINE#         97
  C:128AH         LINE#         99
  C:129EH         LINE#         101
  C:12B2H         LINE#         103
  C:12C6H         LINE#         108
  C:12DAH         LINE#         113
  -------         ENDPROC       _READ_TIME
  -------         PROC          _DAY_OF_YEAR
  D:0007H         SYMBOL        months
  D:0005H         SYMBOL        days
  C:118EH         LINE#         120
  C:118EH         LINE#         121
  C:118EH         LINE#         123
  C:11C7H         LINE#         124
  C:11C7H         LINE#         125
  C:11C7H         LINE#         126
  C:11CCH         LINE#         127
  C:11CCH         LINE#         128
  C:11CCH         LINE#         129
  C:11D1H         LINE#         130
  C:11D1H         LINE#         131
  C:11D1H         LINE#         132
  C:11D6H         LINE#         133
  C:11D6H         LINE#         134
  C:11D6H         LINE#         135
  C:11DBH         LINE#         136
BL51 BANKED LINKER/LOCATER V6.22                                                      07/11/2018  18:40:52  PAGE 12


  C:11DBH         LINE#         137
  C:11DBH         LINE#         138
  C:11E0H         LINE#         139
  C:11E0H         LINE#         140
  C:11E0H         LINE#         141
  C:11E5H         LINE#         142
  C:11E5H         LINE#         143
  C:11E5H         LINE#         144
  C:11EAH         LINE#         145
  C:11EAH         LINE#         146
  C:11EAH         LINE#         147
  C:11EFH         LINE#         148
  C:11EFH         LINE#         149
  C:11EFH         LINE#         150
  C:11F7H         LINE#         151
  C:11F7H         LINE#         152
  C:11F7H         LINE#         153
  C:11FCH         LINE#         154
  C:11FCH         LINE#         155
  C:11FCH         LINE#         156
  C:1201H         LINE#         157
  C:1201H         LINE#         158
  C:1201H         LINE#         159
  C:1209H         LINE#         160
  C:1209H         LINE#         161
  C:1209H         LINE#         162
  -------         ENDPROC       _DAY_OF_YEAR
  -------         ENDMOD        PCF85063BTL

  -------         MODULE        UART1
  C:0000H         SYMBOL        _ICE_DUMMY_
  D:0080H         PUBLIC        P0
  D:0090H         PUBLIC        P1
  D:00A0H         PUBLIC        P2
  D:00B0H         PUBLIC        P3
  D:00C0H         PUBLIC        P4
  D:00C8H         PUBLIC        P5
  B:00A8H.7       PUBLIC        EA
  D:00E8H         PUBLIC        P6
  D:00F8H         PUBLIC        P7
  C:1458H         PUBLIC        _SendString
  D:00A8H         PUBLIC        IE
  B:00A8H.4       PUBLIC        ES
  D:00B8H         PUBLIC        IP
  C:15F4H         PUBLIC        _ASCIItoBCD
  D:00D8H         PUBLIC        CCON
  C:1683H         PUBLIC        initUART1
  D:0098H         PUBLIC        SCON
  D:0088H         PUBLIC        TCON
  C:1704H         PUBLIC        _DectoBCD
  C:16FFH         PUBLIC        _ASCII_Letter
  D:008EH         PUBLIC        AUXR
  C:16FAH         PUBLIC        _unit
  C:16E8H         PUBLIC        _ten
  D:00D6H         PUBLIC        T2H
  D:00D7H         PUBLIC        T2L
  D:00D0H         PUBLIC        PSW
BL51 BANKED LINKER/LOCATER V6.22                                                      07/11/2018  18:40:52  PAGE 13


  -------         PROC          INITUART1
  C:1683H         LINE#         21
  C:1683H         LINE#         22
  C:1683H         LINE#         23
  C:1686H         LINE#         24
  C:1689H         LINE#         25
  C:168CH         LINE#         26
  C:168FH         LINE#         27
  C:1691H         LINE#         28
  C:1693H         LINE#         30
  -------         ENDPROC       INITUART1
  -------         PROC          _SENDSTRING
  X:0346H         SYMBOL        s
  C:1458H         LINE#         35
  C:1463H         LINE#         36
  C:1463H         LINE#         37
  C:1473H         LINE#         38
  C:1473H         LINE#         39
  C:1488H         LINE#         40
  C:148AH         LINE#         41
  -------         ENDPROC       _SENDSTRING
  -------         PROC          _TEN
  D:0007H         SYMBOL        BCD
  C:16E8H         LINE#         43
  C:16E8H         LINE#         44
  C:16E8H         LINE#         45
  C:16EDH         LINE#         46
  -------         ENDPROC       _TEN
  -------         PROC          _UNIT
  D:0007H         SYMBOL        BCD
  C:16FAH         LINE#         47
  C:16FAH         LINE#         48
  C:16FAH         LINE#         52
  C:16FEH         LINE#         53
  -------         ENDPROC       _UNIT
  -------         PROC          _DECTOBCD
  D:0007H         SYMBOL        dec
  C:1704H         LINE#         54
  C:1704H         LINE#         55
  C:1704H         LINE#         57
  C:1704H         LINE#         58
  -------         ENDPROC       _DECTOBCD
  -------         PROC          _ASCII_LETTER
  D:0007H         SYMBOL        dat
  C:16FFH         LINE#         60
  C:16FFH         LINE#         61
  C:16FFH         LINE#         63
  C:1703H         LINE#         64
  -------         ENDPROC       _ASCII_LETTER
  -------         PROC          _ASCIITOBCD
  D:0001H         SYMBOL        ascii
  -------         DO            
  D:0007H         SYMBOL        dec_val
  D:0006H         SYMBOL        ten
  D:0007H         SYMBOL        unit
  -------         ENDDO         
  C:15F4H         LINE#         66
BL51 BANKED LINKER/LOCATER V6.22                                                      07/11/2018  18:40:52  PAGE 14


  C:15F4H         LINE#         67
  C:15F4H         LINE#         69
  C:15F7H         LINE#         70
  C:15FDH         LINE#         71
  C:1604H         LINE#         72
  C:160AH         LINE#         74
  -------         ENDPROC       _ASCIITOBCD
  -------         ENDMOD        UART1

  -------         MODULE        LCD_DRIVER_SPLC780D
  C:0000H         SYMBOL        _ICE_DUMMY_
  D:0080H         PUBLIC        P0
  D:0090H         PUBLIC        P1
  D:00A0H         PUBLIC        P2
  D:00B0H         PUBLIC        P3
  D:00C0H         PUBLIC        P4
  D:00C8H         PUBLIC        P5
  D:00E8H         PUBLIC        P6
  D:00F8H         PUBLIC        P7
  C:120AH         PUBLIC        _WriteData
  D:00A8H         PUBLIC        IE
  D:00B8H         PUBLIC        IP
  D:00D8H         PUBLIC        CCON
  B:0090H.4       PUBLIC        LCD_D4
  B:0090H.5       PUBLIC        LCD_D5
  B:0090H.6       PUBLIC        LCD_D6
  C:15A4H         PUBLIC        _DisplayLCD
  B:0090H.7       PUBLIC        LCD_D7
  D:0098H         PUBLIC        SCON
  D:0088H         PUBLIC        TCON
  C:16D5H         PUBLIC        LCD_clear
  C:13E4H         PUBLIC        _Command
  C:000EH         PUBLIC        _Display_Line
  C:1347H         PUBLIC        LCD_Init
  C:14E8H         PUBLIC        _Wait_ms
  B:0090H.1       PUBLIC        LCD_RS
  B:0090H.2       PUBLIC        LCD_RW
  C:16CBH         PUBLIC        LCD_return_home
  B:0090H.3       PUBLIC        LCD_E
  D:00D0H         PUBLIC        PSW
  -------         PROC          LCD_INIT
  C:1347H         LINE#         9
  C:1347H         LINE#         10
  C:1347H         LINE#         12
  C:134EH         LINE#         13
  C:1353H         LINE#         15
  C:135AH         LINE#         16
  C:135FH         LINE#         18
  C:1362H         LINE#         19
  C:1367H         LINE#         21
  C:136AH         LINE#         22
  C:136FH         LINE#         24
  C:1376H         LINE#         27
  C:137BH         LINE#         28
  C:1380H         LINE#         30
  C:1385H         LINE#         31
  C:138AH         LINE#         33
BL51 BANKED LINKER/LOCATER V6.22                                                      07/11/2018  18:40:52  PAGE 15


  C:138FH         LINE#         34
  C:1394H         LINE#         35
  -------         ENDPROC       LCD_INIT
  -------         PROC          _WRITEDATA
  X:030FH         SYMBOL        dat
  C:120AH         LINE#         38
  C:120FH         LINE#         39
  C:120FH         LINE#         44
  C:1211H         LINE#         45
  C:1213H         LINE#         47
  C:1221H         LINE#         48
  C:122DH         LINE#         49
  C:1239H         LINE#         50
  C:1243H         LINE#         51
  C:1245H         LINE#         52
  C:124CH         LINE#         53
  C:124EH         LINE#         55
  C:125EH         LINE#         56
  C:1269H         LINE#         57
  C:1273H         LINE#         58
  C:1277H         LINE#         60
  C:1277H         LINE#         61
  C:127AH         LINE#         62
  C:127CH         LINE#         63
  C:127EH         LINE#         65
  -------         ENDPROC       _WRITEDATA
  -------         PROC          _COMMAND
  D:0007H         SYMBOL        dat
  C:13E4H         LINE#         67
  C:13E4H         LINE#         68
  C:13E4H         LINE#         69
  C:13E6H         LINE#         70
  C:13E8H         LINE#         72
  C:13F2H         LINE#         73
  C:13F6H         LINE#         75
  C:13F8H         LINE#         76
  C:1401H         LINE#         77
  C:1405H         LINE#         79
  C:1407H         LINE#         80
  C:140EH         LINE#         81
  C:1412H         LINE#         83
  C:1414H         LINE#         84
  C:1418H         LINE#         85
  C:141CH         LINE#         87
  C:141EH         LINE#         88
  C:141EH         LINE#         89
  C:1421H         LINE#         90
  C:1423H         LINE#         91
  -------         ENDPROC       _COMMAND
  C:14E4H         SYMBOL        L?0028
  -------         PROC          L?0027
  -------         ENDPROC       L?0027
  C:14E4H         SYMBOL        L?0028
  -------         PROC          _WAIT_MS
  D:0006H         SYMBOL        ms
  -------         DO            
  D:0004H         SYMBOL        De_Cnt
BL51 BANKED LINKER/LOCATER V6.22                                                      07/11/2018  18:40:52  PAGE 16


  -------         ENDDO         
  C:14E8H         LINE#         93
  C:14E8H         LINE#         94
  C:14E8H         LINE#         96
  C:14F2H         LINE#         97
  C:14F2H         LINE#         98
  C:1505H         LINE#         99
  C:1505H         LINE#         100
  -------         ENDPROC       _WAIT_MS
  -------         PROC          _DISPLAYLCD
  D:0007H         SYMBOL        BCD
  -------         DO            
  D:0006H         SYMBOL        first_digit
  X:0309H         SYMBOL        second_digit
  -------         ENDDO         
  C:15A4H         LINE#         101
  C:15A4H         LINE#         102
  C:15A4H         LINE#         104
  C:15ABH         LINE#         105
  C:15B4H         LINE#         107
  C:15B9H         LINE#         109
  -------         ENDPROC       _DISPLAYLCD
  -------         PROC          LCD_RETURN_HOME
  C:16CBH         LINE#         113
  C:16CBH         LINE#         114
  C:16CBH         LINE#         115
  C:16D0H         LINE#         116
  -------         ENDPROC       LCD_RETURN_HOME
  -------         PROC          LCD_CLEAR
  C:16D5H         LINE#         119
  C:16D5H         LINE#         120
  C:16D5H         LINE#         121
  C:16DAH         LINE#         122
  -------         ENDPROC       LCD_CLEAR
  -------         PROC          _DISPLAY_LINE
  D:0006H         SYMBOL        line
  C:000EH         LINE#         126
  C:000EH         LINE#         127
  C:000EH         LINE#         128
  C:0014H         LINE#         129
  C:0014H         LINE#         130
  C:0016H         LINE#         131
  C:0016H         LINE#         132
  C:0018H         LINE#         134
  C:0018H         LINE#         135
  C:001DH         LINE#         136
  C:0022H         LINE#         137
  C:0022H         LINE#         138
  -------         ENDPROC       _DISPLAY_LINE
  -------         ENDMOD        LCD_DRIVER_SPLC780D

  -------         MODULE        KEYPAD
  C:0000H         SYMBOL        _ICE_DUMMY_
  D:0093H         PUBLIC        P0M1
  D:0080H         PUBLIC        P0
  D:0090H         PUBLIC        P1
  D:00A0H         PUBLIC        P2
BL51 BANKED LINKER/LOCATER V6.22                                                      07/11/2018  18:40:52  PAGE 17


  D:00B0H         PUBLIC        P3
  D:00C0H         PUBLIC        P4
  D:00C8H         PUBLIC        P5
  D:00E8H         PUBLIC        P6
  D:00F8H         PUBLIC        P7
  D:00A8H         PUBLIC        IE
  C:0B3AH         PUBLIC        Key_Scan
  D:00B8H         PUBLIC        IP
  D:00D8H         PUBLIC        CCON
  C:0003H         PUBLIC        KeyPad_IO_Init
  C:1568H         PUBLIC        _Delay_ms
  D:0098H         PUBLIC        SCON
  D:0088H         PUBLIC        TCON
  B:0020H.3       PUBLIC        move
  B:0020H.4       PUBLIC        direction
  C:0727H         PUBLIC        Key_Process
  D:00D0H         PUBLIC        PSW
  D:0094H         PUBLIC        P0M0
  -------         PROC          _DELAY_MS
  D:0006H         SYMBOL        ms
  -------         DO            
  D:0004H         SYMBOL        De_Cnt
  -------         ENDDO         
  C:1568H         LINE#         15
  C:1568H         LINE#         16
  C:1568H         LINE#         18
  C:1572H         LINE#         19
  C:1572H         LINE#         20
  C:1585H         LINE#         21
  C:1585H         LINE#         22
  -------         ENDPROC       _DELAY_MS
  -------         PROC          KEY_SCAN
  -------         DO            
  X:030FH         SYMBOL        KeyTemp1
  X:0310H         SYMBOL        KeyTemp2
  X:0311H         SYMBOL        KeyValue
  -------         ENDDO         
  C:0B3AH         LINE#         23
  C:0B3AH         LINE#         24
  C:0B3AH         LINE#         29
  C:0B3DH         LINE#         32
  C:0B40H         LINE#         34
  C:0B48H         LINE#         35
  C:0B4FH         LINE#         36
  C:0B4FH         LINE#         37
  C:0B56H         LINE#         38
  C:0B5BH         LINE#         39
  C:0B62H         LINE#         40
  C:0B62H         LINE#         43
  C:0B65H         LINE#         44
  C:0B68H         LINE#         45
  C:0B6DH         LINE#         46
  C:0B71H         LINE#         47
  C:0B71H         LINE#         48
  C:0B79H         LINE#         49
  C:0B79H         LINE#         50
  C:0B7CH         LINE#         51
BL51 BANKED LINKER/LOCATER V6.22                                                      07/11/2018  18:40:52  PAGE 18


  C:0B84H         LINE#         52
  C:0B86H         LINE#         54
  C:0B9AH         LINE#         55
  C:0B9AH         LINE#         56
  C:0B9AH         LINE#         57
  C:0B9AH         LINE#         58
  C:0BA0H         LINE#         60
  C:0BA2H         LINE#         61
  C:0BA2H         LINE#         62
  C:0BA2H         LINE#         63
  C:0BA8H         LINE#         65
  C:0BAAH         LINE#         66
  C:0BAAH         LINE#         67
  C:0BAAH         LINE#         68
  C:0BB0H         LINE#         70
  C:0BB2H         LINE#         71
  C:0BB2H         LINE#         72
  C:0BB2H         LINE#         73
  C:0BB8H         LINE#         75
  C:0BB8H         LINE#         76
  C:0BB8H         LINE#         77
  C:0BB8H         LINE#         80
  C:0BBBH         LINE#         81
  C:0BBEH         LINE#         82
  C:0BC6H         LINE#         83
  C:0BCAH         LINE#         84
  C:0BCAH         LINE#         85
  C:0BD2H         LINE#         86
  C:0BD2H         LINE#         87
  C:0BD5H         LINE#         88
  C:0BDDH         LINE#         89
  C:0BDFH         LINE#         90
  C:0BF3H         LINE#         91
  C:0BF3H         LINE#         92
  C:0BF3H         LINE#         93
  C:0BF3H         LINE#         94
  C:0BF9H         LINE#         96
  C:0BFBH         LINE#         97
  C:0BFBH         LINE#         98
  C:0BFBH         LINE#         99
  C:0C01H         LINE#         101
  C:0C03H         LINE#         102
  C:0C03H         LINE#         103
  C:0C03H         LINE#         104
  C:0C09H         LINE#         106
  C:0C0BH         LINE#         107
  C:0C0BH         LINE#         108
  C:0C0BH         LINE#         109
  C:0C10H         LINE#         111
  C:0C10H         LINE#         112
  C:0C10H         LINE#         113
  C:0C10H         LINE#         116
  C:0C13H         LINE#         117
  C:0C16H         LINE#         118
  C:0C1EH         LINE#         119
  C:0C22H         LINE#         120
  C:0C22H         LINE#         121
BL51 BANKED LINKER/LOCATER V6.22                                                      07/11/2018  18:40:52  PAGE 19


  C:0C2AH         LINE#         122
  C:0C2AH         LINE#         123
  C:0C2DH         LINE#         124
  C:0C35H         LINE#         125
  C:0C37H         LINE#         126
  C:0C4BH         LINE#         127
  C:0C4BH         LINE#         128
  C:0C4BH         LINE#         129
  C:0C4BH         LINE#         130
  C:0C51H         LINE#         132
  C:0C53H         LINE#         133
  C:0C53H         LINE#         134
  C:0C53H         LINE#         135
  C:0C59H         LINE#         137
  C:0C5BH         LINE#         138
  C:0C5BH         LINE#         139
  C:0C5BH         LINE#         140
  C:0C61H         LINE#         142
  C:0C63H         LINE#         143
  C:0C63H         LINE#         144
  C:0C63H         LINE#         145
  C:0C69H         LINE#         147
  C:0C69H         LINE#         148
  C:0C69H         LINE#         149
  C:0C69H         LINE#         153
  C:0C6CH         LINE#         154
  C:0C6FH         LINE#         155
  C:0C77H         LINE#         156
  C:0C7BH         LINE#         157
  C:0C7BH         LINE#         158
  C:0C83H         LINE#         159
  C:0C83H         LINE#         160
  C:0C86H         LINE#         161
  C:0C8EH         LINE#         162
  C:0C90H         LINE#         163
  C:0CA4H         LINE#         164
  C:0CA4H         LINE#         165
  C:0CA4H         LINE#         166
  C:0CA4H         LINE#         167
  C:0CAAH         LINE#         169
  C:0CACH         LINE#         170
  C:0CACH         LINE#         171
  C:0CACH         LINE#         172
  C:0CB2H         LINE#         174
  C:0CB4H         LINE#         175
  C:0CB4H         LINE#         176
  C:0CB4H         LINE#         177
  C:0CBAH         LINE#         179
  C:0CBCH         LINE#         180
  C:0CBCH         LINE#         181
  C:0CBCH         LINE#         182
  C:0CC2H         LINE#         184
  C:0CC2H         LINE#         185
  C:0CC2H         LINE#         186
  C:0CC2H         LINE#         188
  C:0CC8H         LINE#         189
  C:0CC8H         LINE#         191
BL51 BANKED LINKER/LOCATER V6.22                                                      07/11/2018  18:40:52  PAGE 20


  C:0CC8H         LINE#         192
  C:0CCBH         LINE#         193
  C:0CCBH         LINE#         194
  C:0CCBH         LINE#         196
  C:0CCBH         LINE#         197
  C:0CCDH         LINE#         198
  C:0CCDH         LINE#         199
  -------         ENDPROC       KEY_SCAN
  -------         PROC          KEY_PROCESS
  -------         DO            
  X:033DH         SYMBOL        KeyCount
  X:033FH         SYMBOL        KeyNum_Old
  X:0340H         SYMBOL        KeyNum
  X:0341H         SYMBOL        PressedKey
  X:0309H         SYMBOL        d
  D:0004H         SYMBOL        hours
  D:0006H         SYMBOL        mins
  X:030BH         SYMBOL        months
  X:030DH         SYMBOL        days
  -------         ENDDO         
  C:0727H         LINE#         200
  C:0727H         LINE#         201
  C:0727H         LINE#         205
  C:072FH         LINE#         206
  C:0737H         LINE#         208
  C:0744H         LINE#         209
  C:0744H         LINE#         210
  C:0747H         LINE#         211
  C:074AH         LINE#         213
  C:074DH         LINE#         215
  C:074DH         LINE#         216
  C:0758H         LINE#         217
  C:0758H         LINE#         218
  C:075BH         LINE#         220
  C:075BH         LINE#         221
  C:0762H         LINE#         222
  C:0762H         LINE#         223
  C:0765H         LINE#         225
  C:0765H         LINE#         226
  C:0775H         LINE#         227
  C:0775H         LINE#         228
  C:0787H         LINE#         229
  C:0795H         LINE#         230
  C:07A4H         LINE#         231
  C:07A4H         LINE#         233
  C:07AAH         LINE#         237
  C:07C0H         LINE#         238
  C:07D1H         LINE#         239
  C:07ECH         LINE#         240
  C:07ECH         LINE#         241
  C:07FCH         LINE#         242
  C:080DH         LINE#         243
  C:080DH         LINE#         247
  C:0826H         LINE#         248
  C:083DH         LINE#         249
  C:085DH         LINE#         250
  C:085DH         LINE#         251
BL51 BANKED LINKER/LOCATER V6.22                                                      07/11/2018  18:40:52  PAGE 21


  C:0867H         LINE#         252
  C:0867H         LINE#         253
  C:0870H         LINE#         254
  C:0870H         LINE#         255
  C:0884H         LINE#         256
  C:0884H         LINE#         257
  C:0884H         LINE#         258
  C:0884H         LINE#         259
  C:0884H         LINE#         260
  C:0886H         LINE#         262
  C:0886H         LINE#         263
  C:0892H         LINE#         264
  C:0892H         LINE#         265
  C:08A3H         LINE#         266
  C:08A3H         LINE#         267
  C:08A3H         LINE#         268
  C:08A3H         LINE#         269
  C:08A3H         LINE#         271
  C:08A5H         LINE#         273
  C:08A5H         LINE#         274
  C:08B6H         LINE#         275
  C:08B6H         LINE#         276
  C:08B6H         LINE#         277
  C:08B6H         LINE#         278
  C:08B6H         LINE#         280
  C:08B6H         LINE#         282
  C:08B6H         LINE#         283
  C:08B8H         LINE#         285
  C:08B8H         LINE#         286
  C:08CBH         LINE#         287
  C:08CBH         LINE#         288
  C:08DCH         LINE#         289
  C:08DCH         LINE#         290
  C:08DCH         LINE#         291
  C:08DCH         LINE#         292
  C:08DCH         LINE#         293
  C:08DEH         LINE#         295
  C:08DEH         LINE#         296
  C:08EFH         LINE#         297
  C:08EFH         LINE#         298
  C:0900H         LINE#         299
  C:0911H         LINE#         300
  C:0911H         LINE#         301
  C:0911H         LINE#         302
  C:0911H         LINE#         303
  C:0911H         LINE#         304
  C:0914H         LINE#         305
  C:0919H         LINE#         306
  C:091EH         LINE#         307
  C:0923H         LINE#         308
  C:0928H         LINE#         309
  C:092DH         LINE#         310
  C:0932H         LINE#         311
  C:0937H         LINE#         312
  C:0937H         LINE#         314
  C:0959H         LINE#         315
  C:0959H         LINE#         316
BL51 BANKED LINKER/LOCATER V6.22                                                      07/11/2018  18:40:52  PAGE 22


  C:0963H         LINE#         317
  C:0963H         LINE#         318
  C:0968H         LINE#         319
  C:0971H         LINE#         320
  C:0988H         LINE#         321
  C:0988H         LINE#         322
  C:0998H         LINE#         324
  C:0998H         LINE#         328
  -------         ENDPROC       KEY_PROCESS
  -------         PROC          KEYPAD_IO_INIT
  C:0003H         LINE#         331
  C:0003H         LINE#         332
  C:0003H         LINE#         333
  C:0006H         LINE#         334
  C:0009H         LINE#         335
  -------         ENDPROC       KEYPAD_IO_INIT
  -------         ENDMOD        KEYPAD

  -------         MODULE        VCNL4035
  C:0000H         SYMBOL        _ICE_DUMMY_
  D:0080H         PUBLIC        P0
  B:00B0H.2       PUBLIC        I2C_SCK
  D:00B2H         PUBLIC        P3M0
  D:0090H         PUBLIC        P1
  D:00B1H         PUBLIC        P3M1
  D:00A0H         PUBLIC        P2
  D:00B0H         PUBLIC        P3
  D:00C0H         PUBLIC        P4
  D:00C8H         PUBLIC        P5
  D:00E8H         PUBLIC        P6
  D:00F8H         PUBLIC        P7
  D:00A8H         PUBLIC        IE
  C:16F4H         PUBLIC        _DisplayLCD_VCNL4035
  D:00B8H         PUBLIC        IP
  D:00D8H         PUBLIC        CCON
  C:165FH         PUBLIC        I2C_Start
  D:0098H         PUBLIC        SCON
  C:160BH         PUBLIC        I2C_Init
  D:0088H         PUBLIC        TCON
  C:1694H         PUBLIC        uC_NACK
  C:14C4H         PUBLIC        _Wait_ms_i2c
  C:1506H         PUBLIC        _I2C_SendByte
  C:1622H         PUBLIC        I2C_Stop
  C:139BH         PUBLIC        _Write_VCNL4035X
  C:1705H         PUBLIC        nop
  C:0FD3H         PUBLIC        _Read_VCNL4035
  C:16EEH         PUBLIC        uC_ACK
  C:15C6H         PUBLIC        I2C_ACK
  C:1586H         PUBLIC        _Wait_ms_iic
  B:00B0H.1       PUBLIC        I2C_SDA
  D:00D0H         PUBLIC        PSW
  C:1491H         PUBLIC        I2C_ReceiveByte
  -------         PROC          _WAIT_MS_IIC
  D:0006H         SYMBOL        ms
  -------         DO            
  D:0004H         SYMBOL        De_Cnt
  -------         ENDDO         
BL51 BANKED LINKER/LOCATER V6.22                                                      07/11/2018  18:40:52  PAGE 23


  C:1586H         LINE#         5
  C:1586H         LINE#         6
  C:1586H         LINE#         8
  C:1590H         LINE#         9
  C:1590H         LINE#         10
  C:15A3H         LINE#         11
  C:15A3H         LINE#         12
  -------         ENDPROC       _WAIT_MS_IIC
  C:14BEH         SYMBOL        L?0048
  C:14C0H         SYMBOL        L?0049
  -------         PROC          L?0047
  -------         ENDPROC       L?0047
  C:14BEH         SYMBOL        L?0048
  C:14C0H         SYMBOL        L?0049
  -------         PROC          _WAIT_MS_I2C
  D:0006H         SYMBOL        ms
  -------         DO            
  D:0004H         SYMBOL        De_Cnt
  -------         ENDDO         
  C:14C4H         LINE#         14
  C:14C4H         LINE#         15
  C:14C4H         LINE#         17
  C:14CEH         LINE#         18
  C:14CEH         LINE#         19
  C:14E1H         LINE#         20
  C:14E1H         LINE#         21
  -------         ENDPROC       _WAIT_MS_I2C
  -------         PROC          NOP
  C:1705H         LINE#         22
  C:1705H         LINE#         23
  C:1705H         LINE#         25
  -------         ENDPROC       NOP
  -------         PROC          I2C_START
  C:165FH         LINE#         26
  C:165FH         LINE#         27
  C:165FH         LINE#         29
  C:1661H         LINE#         30
  C:1663H         LINE#         31
  C:166AH         LINE#         32
  C:166CH         LINE#         33
  C:166FH         LINE#         34
  C:1671H         LINE#         37
  -------         ENDPROC       I2C_START
  -------         PROC          I2C_STOP
  C:1622H         LINE#         39
  C:1622H         LINE#         40
  C:1622H         LINE#         41
  C:1624H         LINE#         42
  C:1626H         LINE#         43
  C:1629H         LINE#         44
  C:162BH         LINE#         45
  C:162DH         LINE#         46
  C:1634H         LINE#         47
  C:1636H         LINE#         50
  -------         ENDPROC       I2C_STOP
  -------         PROC          L?0050
  -------         ENDPROC       L?0050
BL51 BANKED LINKER/LOCATER V6.22                                                      07/11/2018  18:40:52  PAGE 24


  -------         PROC          I2C_ACK
  -------         DO            
  X:0311H         SYMBOL        i
  D:0003H         SYMBOL        dat
  -------         ENDDO         
  C:15C6H         LINE#         52
  C:15C6H         LINE#         53
  C:15C6H         LINE#         55
  C:15C7H         LINE#         60
  C:15CAH         LINE#         61
  C:15CCH         LINE#         62
  C:15CFH         LINE#         64
  C:15D2H         LINE#         65
  C:15D2H         LINE#         66
  C:15D6H         LINE#         67
  C:15D6H         LINE#         70
  C:15D6H         LINE#         71
  C:15D9H         LINE#         72
  C:15D9H         LINE#         73
  C:15DBH         LINE#         74
  -------         ENDPROC       I2C_ACK
  -------         PROC          UC_ACK
  -------         DO            
  X:0311H         SYMBOL        i
  -------         ENDDO         
  C:16EEH         LINE#         75
  C:16EEH         LINE#         76
  C:16EEH         LINE#         78
  C:16EEH         LINE#         85
  C:16EEH         LINE#         87
  C:16EEH         LINE#         89
  C:16EEH         LINE#         90
  C:16EEH         LINE#         93
  C:16F1H         LINE#         94
  C:16F3H         LINE#         95
  C:16F3H         LINE#         99
  -------         ENDPROC       UC_ACK
  -------         PROC          UC_NACK
  -------         DO            
  X:0311H         SYMBOL        i
  -------         ENDDO         
  C:1694H         LINE#         101
  C:1694H         LINE#         102
  C:1694H         LINE#         104
  C:1694H         LINE#         108
  C:1696H         LINE#         111
  C:1696H         LINE#         112
  C:1698H         LINE#         113
  C:1698H         LINE#         115
  C:1698H         LINE#         116
  C:1698H         LINE#         119
  C:169BH         LINE#         120
  C:169DH         LINE#         121
  C:16A0H         LINE#         122
  C:16A2H         LINE#         123
  C:16A2H         LINE#         127
  -------         ENDPROC       UC_NACK
BL51 BANKED LINKER/LOCATER V6.22                                                      07/11/2018  18:40:52  PAGE 25


  -------         PROC          I2C_INIT
  C:160BH         LINE#         129
  C:160BH         LINE#         130
  C:160BH         LINE#         133
  C:160EH         LINE#         134
  C:1611H         LINE#         139
  C:1619H         LINE#         141
  -------         ENDPROC       I2C_INIT
  -------         PROC          _I2C_SENDBYTE
  D:0001H         SYMBOL        dat
  -------         DO            
  D:0003H         SYMBOL        i
  -------         ENDDO         
  C:1506H         LINE#         145
  C:1508H         LINE#         146
  C:1508H         LINE#         149
  C:150AH         LINE#         150
  C:150AH         LINE#         151
  C:150CH         LINE#         153
  C:1510H         LINE#         154
  C:1510H         LINE#         155
  C:1512H         LINE#         156
  C:1514H         LINE#         158
  C:1514H         LINE#         159
  C:1516H         LINE#         160
  C:1516H         LINE#         161
  C:1519H         LINE#         162
  C:151BH         LINE#         164
  C:151FH         LINE#         165
  C:1522H         LINE#         166
  C:1527H         LINE#         167
  -------         ENDPROC       _I2C_SENDBYTE
  -------         PROC          L?0051
  -------         ENDPROC       L?0051
  -------         PROC          I2C_RECEIVEBYTE
  -------         DO            
  D:0003H         SYMBOL        i
  D:0001H         SYMBOL        dat
  -------         ENDDO         
  C:1491H         LINE#         171
  C:1491H         LINE#         172
  C:1491H         LINE#         174
  C:1493H         LINE#         178
  C:1494H         LINE#         179
  C:1494H         LINE#         180
  C:1498H         LINE#         181
  C:149AH         LINE#         182
  C:149DH         LINE#         184
  C:14A0H         LINE#         185
  C:14A0H         LINE#         186
  C:14A4H         LINE#         187
  C:14A4H         LINE#         188
  C:14A4H         LINE#         189
  C:14A7H         LINE#         190
  C:14ABH         LINE#         191
  C:14ABH         LINE#         192
  C:14ADH         LINE#         193
BL51 BANKED LINKER/LOCATER V6.22                                                      07/11/2018  18:40:52  PAGE 26


  C:14AFH         LINE#         194
  C:14AFH         LINE#         196
  C:14B4H         LINE#         197
  C:14B6H         LINE#         198
  -------         ENDPROC       I2C_RECEIVEBYTE
  -------         PROC          _WRITE_VCNL4035X
  X:0309H         SYMBOL        command_code
  X:030AH         SYMBOL        dat_h
  X:030BH         SYMBOL        dat_l
  C:139BH         LINE#         199
  C:13A6H         LINE#         200
  C:13A6H         LINE#         201
  C:13A9H         LINE#         202
  C:13B0H         LINE#         203
  C:13B0H         LINE#         204
  C:13B6H         LINE#         205
  C:13B6H         LINE#         206
  C:13BEH         LINE#         207
  C:13BEH         LINE#         208
  C:13C4H         LINE#         209
  C:13CCH         LINE#         211
  C:13D2H         LINE#         212
  C:13DAH         LINE#         214
  C:13E0H         LINE#         215
  C:13E3H         LINE#         216
  -------         ENDPROC       _WRITE_VCNL4035X
  -------         PROC          _READ_VCNL4035
  X:0309H         SYMBOL        command_code
  -------         DO            
  X:030BH         SYMBOL        temp_dat
  X:030DH         SYMBOL        temp_dat_l
  X:030FH         SYMBOL        temp_dat_h
  -------         ENDDO         
  C:0FD3H         LINE#         218
  C:0FDBH         LINE#         219
  C:0FDBH         LINE#         220
  C:0FE8H         LINE#         222
  C:0FEBH         LINE#         223
  C:0FEEH         LINE#         224
  C:0FF3H         LINE#         226
  C:0FF9H         LINE#         227
  C:0FF9H         LINE#         228
  C:0FF9H         LINE#         229
  C:0FF9H         LINE#         230
  C:1004H         LINE#         231
  C:1007H         LINE#         232
  C:100AH         LINE#         233
  C:100AH         LINE#         236
  C:100DH         LINE#         238
  C:1014H         LINE#         239
  C:1014H         LINE#         240
  C:1014H         LINE#         241
  C:101FH         LINE#         242
  C:1022H         LINE#         243
  C:1025H         LINE#         244
  C:1028H         LINE#         245
  C:102BH         LINE#         246
BL51 BANKED LINKER/LOCATER V6.22                                                      07/11/2018  18:40:52  PAGE 27


  C:102EH         LINE#         247
  C:1031H         LINE#         248
  C:1034H         LINE#         249
  C:1037H         LINE#         250
  C:1037H         LINE#         251
  C:103DH         LINE#         252
  C:103DH         LINE#         253
  C:1046H         LINE#         255
  C:1046H         LINE#         256
  C:104CH         LINE#         257
  C:104CH         LINE#         259
  C:104EH         LINE#         260
  C:1054H         LINE#         261
  C:1057H         LINE#         262
  C:105EH         LINE#         263
  C:105EH         LINE#         264
  C:106CH         LINE#         265
  -------         ENDPROC       _READ_VCNL4035
  -------         PROC          _DISPLAYLCD_VCNL4035
  X:0349H         SYMBOL        dat
  C:16F4H         LINE#         267
  C:16F9H         LINE#         268
  C:16F9H         LINE#         270
  -------         ENDPROC       _DISPLAYLCD_VCNL4035
  -------         ENDMOD        VCNL4035

  -------         MODULE        BIPOLARMOTOR
  C:0000H         SYMBOL        _ICE_DUMMY_
  D:0080H         PUBLIC        P0
  D:0090H         PUBLIC        P1
  D:00A0H         PUBLIC        P2
  D:00B0H         PUBLIC        P3
  D:00C0H         PUBLIC        P4
  D:00C8H         PUBLIC        P5
  D:00E8H         PUBLIC        P6
  D:00F8H         PUBLIC        P7
  D:00A8H         PUBLIC        IE
  X:0000H         PUBLIC        receiver_pos
  X:01D6H         PUBLIC        Time_stamp_PM
  C:1424H         PUBLIC        _Move
  D:00B8H         PUBLIC        IP
  D:00D8H         PUBLIC        CCON
  D:0098H         PUBLIC        SCON
  D:0088H         PUBLIC        TCON
  C:12EEH         PUBLIC        _Step_move
  C:0999H         PUBLIC        _Update_position
  X:02F0H         PUBLIC        degree
  D:00D0H         PUBLIC        PSW
  -------         PROC          _STEP_MOVE
  X:031DH         SYMBOL        step
  B:0020H.2       SYMBOL        dir
  -------         DO            
  X:031FH         SYMBOL        i
  -------         ENDDO         
  C:12EEH         LINE#         15
  C:12F6H         LINE#         16
  C:12F6H         LINE#         17
BL51 BANKED LINKER/LOCATER V6.22                                                      07/11/2018  18:40:52  PAGE 28


  C:12FBH         LINE#         18
  C:12FEH         LINE#         19
  C:1303H         LINE#         21
  C:1306H         LINE#         23
  C:1322H         LINE#         24
  C:1322H         LINE#         25
  C:1325H         LINE#         26
  C:132CH         LINE#         27
  C:132FH         LINE#         28
  C:1336H         LINE#         29
  C:1346H         LINE#         30
  -------         ENDPROC       _STEP_MOVE
  -------         PROC          _MOVE
  X:0319H         SYMBOL        distance
  B:0020H.1       SYMBOL        direction
  -------         DO            
  D:0006H         SYMBOL        step
  -------         ENDDO         
  C:1424H         LINE#         32
  C:142AH         LINE#         33
  C:142AH         LINE#         35
  C:1451H         LINE#         36
  -------         ENDPROC       _MOVE
  -------         PROC          _UPDATE_POSITION
  D:0007H         SYMBOL        months
  D:0005H         SYMBOL        days
  X:030BH         SYMBOL        hours
  X:030CH         SYMBOL        mins
  X:030DH         SYMBOL        seconds
  X:030EH         SYMBOL        current_pos
  -------         DO            
  X:0311H         SYMBOL        date
  X:0313H         SYMBOL        i
  X:0315H         SYMBOL        desired_distance
  X:0317H         SYMBOL        distance
  -------         ENDDO         
  C:0999H         LINE#         42
  C:099EH         LINE#         43
  C:099EH         LINE#         46
  C:09A9H         LINE#         48
  C:09C3H         LINE#         49
  C:09C3H         LINE#         50
  C:0A32H         LINE#         51
  C:0A32H         LINE#         52
  C:0A52H         LINE#         53
  C:0A52H         LINE#         54
  C:0A52H         LINE#         55
  C:0A5DH         LINE#         56
  C:0A5FH         LINE#         57
  C:0A5FH         LINE#         58
  C:0A70H         LINE#         59
  C:0A72H         LINE#         60
  C:0A72H         LINE#         61
  C:0A83H         LINE#         62
  C:0A85H         LINE#         63
  C:0A85H         LINE#         64
  C:0A96H         LINE#         65
BL51 BANKED LINKER/LOCATER V6.22                                                      07/11/2018  18:40:52  PAGE 29


  C:0A98H         LINE#         66
  C:0A98H         LINE#         67
  C:0ABDH         LINE#         68
  C:0ABDH         LINE#         70
  C:0AE0H         LINE#         71
  C:0AE6H         LINE#         72
  C:0AF1H         LINE#         73
  C:0AF1H         LINE#         74
  C:0B06H         LINE#         75
  C:0B08H         LINE#         76
  C:0B18H         LINE#         77
  C:0B18H         LINE#         78
  C:0B28H         LINE#         79
  C:0B28H         LINE#         81
  C:0B28H         LINE#         82
  C:0B28H         LINE#         83
  C:0B39H         LINE#         84
  -------         ENDPROC       _UPDATE_POSITION
  -------         ENDMOD        BIPOLARMOTOR

  -------         MODULE        ?C_STARTUP
  C:1102H         SEGMENT       ?C_C51STARTUP
  I:0021H         SEGMENT       ?STACK
  C:0000H         PUBLIC        ?C_STARTUP
  D:00E0H         SYMBOL        ACC
  D:00F0H         SYMBOL        B
  D:0083H         SYMBOL        DPH
  D:0082H         SYMBOL        DPL
  N:0000H         SYMBOL        IBPSTACK
  N:0100H         SYMBOL        IBPSTACKTOP
  N:0080H         SYMBOL        IDATALEN
  C:1105H         SYMBOL        IDATALOOP
  N:0000H         SYMBOL        PBPSTACK
  N:0100H         SYMBOL        PBPSTACKTOP
  N:0000H         SYMBOL        PDATALEN
  N:0000H         SYMBOL        PDATASTART
  N:0000H         SYMBOL        PPAGE
  N:0000H         SYMBOL        PPAGEENABLE
  D:00A0H         SYMBOL        PPAGE_SFR
  D:0081H         SYMBOL        SP
  C:1102H         SYMBOL        STARTUP1
  N:0000H         SYMBOL        XBPSTACK
  N:0000H         SYMBOL        XBPSTACKTOP
  N:0000H         SYMBOL        XDATALEN
  N:0000H         SYMBOL        XDATASTART
  C:0000H         LINE#         126
  C:1102H         LINE#         133
  C:1104H         LINE#         134
  C:1105H         LINE#         135
  C:1106H         LINE#         136
  C:1108H         LINE#         185
  C:110BH         LINE#         196
  -------         ENDMOD        ?C_STARTUP

  -------         MODULE        ?C?FPMUL
  C:0026H         PUBLIC        ?C?FPMUL
  -------         ENDMOD        ?C?FPMUL
BL51 BANKED LINKER/LOCATER V6.22                                                      07/11/2018  18:40:52  PAGE 30



  -------         MODULE        ?C?FPDIV
  C:012FH         PUBLIC        ?C?FPDIV
  -------         ENDMOD        ?C?FPDIV

  -------         MODULE        ?C?FCAST
  C:01D6H         PUBLIC        ?C?FCASTC
  C:01D1H         PUBLIC        ?C?FCASTI
  C:01CCH         PUBLIC        ?C?FCASTL
  -------         ENDMOD        ?C?FCAST

  -------         MODULE        ?C?CASTF
  C:020AH         PUBLIC        ?C?CASTF
  -------         ENDMOD        ?C?CASTF

  -------         MODULE        ?C?CLDPTR
  C:028BH         PUBLIC        ?C?CLDPTR
  -------         ENDMOD        ?C?CLDPTR

  -------         MODULE        ?C?CSTPTR
  C:02A4H         PUBLIC        ?C?CSTPTR
  -------         ENDMOD        ?C?CSTPTR

  -------         MODULE        ?C?IMUL
  C:02B6H         PUBLIC        ?C?IMUL
  -------         ENDMOD        ?C?IMUL

  -------         MODULE        ?C?UIDIV
  C:02C8H         PUBLIC        ?C?UIDIV
  -------         ENDMOD        ?C?UIDIV

  -------         MODULE        ?C?SIDIV
  C:031DH         PUBLIC        ?C?SIDIV
  -------         ENDMOD        ?C?SIDIV

  -------         MODULE        ?C?ILDIX
  C:0353H         PUBLIC        ?C?ILDIX
  -------         ENDMOD        ?C?ILDIX

  -------         MODULE        ?C?ILDPTR
  C:0369H         PUBLIC        ?C?ILDPTR
  -------         ENDMOD        ?C?ILDPTR

  -------         MODULE        ?C?ISTPTR
  C:0394H         PUBLIC        ?C?ISTPTR
  -------         ENDMOD        ?C?ISTPTR

  -------         MODULE        ?C?LNEG
  C:03B3H         PUBLIC        ?C?LNEG
  -------         ENDMOD        ?C?LNEG

  -------         MODULE        ?C?LSTXDATA
  C:03C1H         PUBLIC        ?C?LSTXDATA
  -------         ENDMOD        ?C?LSTXDATA

  -------         MODULE        ?C?OFFXADD
  C:03CDH         PUBLIC        ?C?OFFXADD
BL51 BANKED LINKER/LOCATER V6.22                                                      07/11/2018  18:40:52  PAGE 31


  -------         ENDMOD        ?C?OFFXADD

  -------         MODULE        ABS
  C:16BFH         PUBLIC        _ABS
  -------         ENDMOD        ABS

  -------         MODULE        ATOI
  C:0E5DH         PUBLIC        _atoi
  -------         ENDMOD        ATOI

  -------         MODULE        ?C?IILDX
  C:03D9H         PUBLIC        ?C?IILDX
  -------         ENDMOD        ?C?IILDX

  -------         MODULE        ISDIGIT
  C:16A3H         PUBLIC        _isdigit
  -------         ENDMOD        ISDIGIT

  -------         MODULE        ISSPACE
  C:164BH         PUBLIC        _isspace
  -------         ENDMOD        ISSPACE

*** WARNING L16: UNCALLED SEGMENT, IGNORED FOR OVERLAY PROCESS
    SEGMENT: ?PR?_SENDSTRING?UART1

*** WARNING L16: UNCALLED SEGMENT, IGNORED FOR OVERLAY PROCESS
    SEGMENT: ?PR?_TEN?UART1

*** WARNING L16: UNCALLED SEGMENT, IGNORED FOR OVERLAY PROCESS
    SEGMENT: ?PR?_UNIT?UART1

*** WARNING L16: UNCALLED SEGMENT, IGNORED FOR OVERLAY PROCESS
    SEGMENT: ?PR?_DECTOBCD?UART1

*** WARNING L16: UNCALLED SEGMENT, IGNORED FOR OVERLAY PROCESS
    SEGMENT: ?PR?_ASCII_LETTER?UART1

*** WARNING L16: UNCALLED SEGMENT, IGNORED FOR OVERLAY PROCESS
    SEGMENT: ?PR?NOP?VCNL4035

*** WARNING L16: UNCALLED SEGMENT, IGNORED FOR OVERLAY PROCESS
    SEGMENT: ?PR?_DISPLAYLCD_VCNL4035?VCNL4035

Program Size: data=17.6 xdata=842 code=5894
LINK/LOCATE RUN COMPLETE.  7 WARNING(S),  0 ERROR(S)
