BL51 BANKED LINKER/LOCATER V6.22                                                        07/31/2018  09:50:56  PAGE 1


BL51 BANKED LINKER/LOCATER V6.22, INVOKED BY:
C:\KEIL\C51\BIN\BL51.EXE .\Obj\main.obj, .\Obj\PCF85063BTL.obj, .\Obj\UART1.obj, .\Obj\LCd_Driver_SPLC780D.obj, .\Obj\Ke
>> yPad.obj, .\Obj\VCNL4035.obj, .\Obj\BipolarMotor.obj, .\Obj\STARTUP.obj TO .\Obj\GPIO_RTC_Test PRINT (.\Lis\GPIO_RTC_
>> Test.m51) RAMSIZE (256)


MEMORY MODEL: LARGE WITH FLOATING POINT ARITHMETIC


INPUT MODULES INCLUDED:
  .\Obj\main.obj (MAIN)
  .\Obj\PCF85063BTL.obj (PCF85063BTL)
  .\Obj\UART1.obj (UART1)
  .\Obj\LCd_Driver_SPLC780D.obj (LCD_DRIVER_SPLC780D)
  .\Obj\KeyPad.obj (KEYPAD)
  .\Obj\VCNL4035.obj (VCNL4035)
  .\Obj\BipolarMotor.obj (BIPOLARMOTOR)
  .\Obj\STARTUP.obj (?C_STARTUP)
  C:\KEIL\C51\LIB\C51FPL.LIB (?C?FPADD)
  C:\KEIL\C51\LIB\C51FPL.LIB (?C?FPMUL)
  C:\KEIL\C51\LIB\C51FPL.LIB (?C?FPDIV)
  C:\KEIL\C51\LIB\C51FPL.LIB (?C?FPCMP)
  C:\KEIL\C51\LIB\C51FPL.LIB (?C?FPNEG)
  C:\KEIL\C51\LIB\C51FPL.LIB (?C?FCAST)
  C:\KEIL\C51\LIB\C51FPL.LIB (?C?CASTF)
  C:\KEIL\C51\LIB\C51FPL.LIB (?C?FPGETOPN)
  C:\KEIL\C51\LIB\C51L.LIB (?C_INIT)
  C:\KEIL\C51\LIB\C51L.LIB (?C?CLDPTR)
  C:\KEIL\C51\LIB\C51L.LIB (?C?CSTPTR)
  C:\KEIL\C51\LIB\C51L.LIB (?C?IMUL)
  C:\KEIL\C51\LIB\C51L.LIB (?C?UIDIV)
  C:\KEIL\C51\LIB\C51L.LIB (?C?SIDIV)
  C:\KEIL\C51\LIB\C51L.LIB (?C?ILDIX)
  C:\KEIL\C51\LIB\C51L.LIB (?C?LNEG)
  C:\KEIL\C51\LIB\C51L.LIB (?C?LLDPTR)
  C:\KEIL\C51\LIB\C51L.LIB (?C?LSTPTR)
  C:\KEIL\C51\LIB\C51L.LIB (?C?LLDPTR0)
  C:\KEIL\C51\LIB\C51L.LIB (?C?LSTXDATA)
  C:\KEIL\C51\LIB\C51L.LIB (?C?LSTKXDATA)
  C:\KEIL\C51\LIB\C51L.LIB (?C?OFFXADD)
  C:\KEIL\C51\LIB\C51L.LIB (ABS)
  C:\KEIL\C51\LIB\C51L.LIB (ATOI)
  C:\KEIL\C51\LIB\C51L.LIB (?C?IILDX)
  C:\KEIL\C51\LIB\C51L.LIB (?C?LLDIDATA)
  C:\KEIL\C51\LIB\C51L.LIB (?C?LLDXDATA)
  C:\KEIL\C51\LIB\C51L.LIB (?C?LLDPDATA)
  C:\KEIL\C51\LIB\C51L.LIB (?C?LLDCODE)
  C:\KEIL\C51\LIB\C51L.LIB (?C?LLDIDATA0)
  C:\KEIL\C51\LIB\C51L.LIB (?C?LLDXDATA0)
  C:\KEIL\C51\LIB\C51L.LIB (?C?LLDPDATA0)
  C:\KEIL\C51\LIB\C51L.LIB (?C?LLDCODE0)
  C:\KEIL\C51\LIB\C51L.LIB (?C?LSTIDATA)
  C:\KEIL\C51\LIB\C51L.LIB (?C?LSTPDATA)
  C:\KEIL\C51\LIB\C51L.LIB (ISDIGIT)
  C:\KEIL\C51\LIB\C51L.LIB (ISSPACE)


LINK MAP OF MODULE:  .\Obj\GPIO_RTC_Test (MAIN)
BL51 BANKED LINKER/LOCATER V6.22                                                      07/31/2018  09:50:56  PAGE 2




            TYPE    BASE      LENGTH    RELOCATION   SEGMENT NAME
            -----------------------------------------------------

            * * * * * * *   D A T A   M E M O R Y   * * * * * * *
            REG     0000H     0008H     ABSOLUTE     "REG BANK 0"
            REG     0008H     0008H     ABSOLUTE     "REG BANK 1"
                    0010H     0010H                  *** GAP ***
            BIT     0020H.0   0000H.3   UNIT         ?BI?KEYPAD
            BIT     0020H.3   0000H.3   UNIT         _BIT_GROUP_
            BIT     0020H.6   0000H.1   UNIT         ?BI?MAIN
                    0020H.7   0000H.1                *** GAP ***
            IDATA   0021H     0001H     UNIT         ?STACK

            * * * * * * *  X D A T A   M E M O R Y  * * * * * * *
            XDATA   0000H     007CH     UNIT         ?XD?BIPOLARMOTOR
            XDATA   007CH     0034H     UNIT         _XDATA_GROUP_
            XDATA   00B0H     001CH     UNIT         ?XD?MAIN
            XDATA   00CCH     0009H     UNIT         ?XD?KEYPAD
            XDATA   00D5H     0008H     UNIT         ?XD?_READ_VCNL4035?VCNL4035
            XDATA   00DDH     0004H     UNIT         ?XD?_DISPLAY_PROX?MAIN
            XDATA   00E1H     0003H     UNIT         ?XD?_SENDSTRING?UART1
            XDATA   00E4H     0001H     UNIT         ?XD?UC_ACK?VCNL4035
            XDATA   00E5H     0001H     UNIT         ?XD?UC_NACK?VCNL4035
            XDATA   00E6H     0001H     UNIT         ?XD?_DISPLAYLCD_VCNL4035?VCNL4035

            * * * * * * *   C O D E   M E M O R Y   * * * * * * *
            CODE    0000H     0003H     ABSOLUTE     
            CODE    0003H     0007H     UNIT         ?PR?KEYPAD_IO_INIT?KEYPAD
            CODE    000AH     0001H     UNIT         ?PR?TM0_ISR?MAIN
            CODE    000BH     0003H     ABSOLUTE     
            CODE    000EH     0015H     UNIT         ?PR?_DISPLAY_LINE?LCD_DRIVER_SPLC780D
            CODE    0023H     0003H     ABSOLUTE     
            CODE    0026H     060EH     UNIT         ?C?LIB_CODE
            CODE    0634H     0535H     UNIT         ?PR?_UPDATE_POSITION?BIPOLARMOTOR
            CODE    0B69H     0279H     UNIT         ?PR?KEY_PROCESS?KEYPAD
            CODE    0DE2H     022CH     UNIT         ?PR?MAIN?MAIN
            CODE    100EH     01B5H     UNIT         ?PR?_DISPLAY_POS?MAIN
            CODE    11C3H     0194H     UNIT         ?PR?KEY_SCAN?KEYPAD
            CODE    1357H     00DBH     UNIT         ?PR?_ATOI?ATOI
            CODE    1432H     00C5H     UNIT         ?C_INITSEG
            CODE    14F7H     009BH     UNIT         ?PR?UART?MAIN
            CODE    1592H     009AH     UNIT         ?PR?_READ_VCNL4035?VCNL4035
            CODE    162CH     0095H     UNIT         ?PR?_DISPLAY_PROX?MAIN
            CODE    16C1H     008CH     UNIT         ?C_C51STARTUP
            CODE    174DH     0084H     UNIT         ?PR?_DAY_OF_YEAR?PCF85063BTL
            CODE    17D1H     0075H     UNIT         ?PR?_WRITEDATA?LCD_DRIVER_SPLC780D
            CODE    1846H     006FH     UNIT         ?PR?_READ_TIME?PCF85063BTL
            CODE    18B5H     0059H     UNIT         ?PR?_STEP_MOVE?BIPOLARMOTOR
            CODE    190EH     0054H     UNIT         ?PR?LCD_INIT?LCD_DRIVER_SPLC780D
            CODE    1962H     0049H     UNIT         ?PR?_WRITE_VCNL4035X?VCNL4035
            CODE    19ABH     0040H     UNIT         ?PR?_COMMAND?LCD_DRIVER_SPLC780D
            CODE    19EBH     0034H     UNIT         ?PR?_MOVE?BIPOLARMOTOR
            CODE    1A1FH     0033H     UNIT         ?PR?_SENDSTRING?UART1
            CODE    1A52H     002CH     UNIT         ?PR?I2C_RECEIVEBYTE?VCNL4035
            CODE    1A7EH     002BH     UNIT         ?PR?_WAIT_MS_I2C?VCNL4035
BL51 BANKED LINKER/LOCATER V6.22                                                      07/31/2018  09:50:56  PAGE 3


            CODE    1AA9H     0024H     UNIT         ?PR?_WAIT_MS?LCD_DRIVER_SPLC780D
            CODE    1ACDH     0024H     UNIT         ?PR?_BCDTODEC1?BIPOLARMOTOR
            CODE    1AF1H     0022H     UNIT         ?PR?_I2C_SENDBYTE?VCNL4035
            CODE    1B13H     0020H     UNIT         ?PR?_SPI_SENDBYTE?PCF85063BTL
            CODE    1B33H     0020H     UNIT         ?PR?SPI_RECEIVEBYTE?PCF85063BTL
            CODE    1B53H     001EH     UNIT         ?PR?_DELAY_MS?KEYPAD
            CODE    1B71H     001EH     UNIT         ?PR?_WAIT_MS_IIC?VCNL4035
            CODE    1B8FH     001DH     UNIT         ?PR?_DISPLAYLCD?LCD_DRIVER_SPLC780D
            CODE    1BACH     001BH     UNIT         ?PR?I2C_ACK?VCNL4035
            CODE    1BC7H     0018H     UNIT         ?PR?_SPI_WRITETIME?PCF85063BTL
            CODE    1BDFH     0017H     UNIT         ?PR?_ASCIITOBCD?UART1
            CODE    1BF6H     0017H     UNIT         ?PR?I2C_INIT?VCNL4035
            CODE    1C0DH     0015H     UNIT         ?PR?I2C_STOP?VCNL4035
            CODE    1C22H     0014H     UNIT         ?PR?_PCF85063BTL_DELAY?PCF85063BTL
            CODE    1C36H     0014H     UNIT         ?PR?_ISSPACE?ISSPACE
            CODE    1C4AH     0013H     UNIT         ?PR?I2C_START?VCNL4035
            CODE    1C5DH     0011H     UNIT         ?PR?_SPI_READTIME?PCF85063BTL
            CODE    1C6EH     0011H     UNIT         ?PR?_BCDTODEC?PCF85063BTL
            CODE    1C7FH     0011H     UNIT         ?PR?INITUART1?UART1
            CODE    1C90H     000FH     UNIT         ?PR?UC_NACK?VCNL4035
            CODE    1C9FH     000FH     UNIT         ?PR?_ISDIGIT?ISDIGIT
            CODE    1CAEH     000DH     UNIT         ?PR?SPI_INIT?PCF85063BTL
            CODE    1CBBH     000CH     UNIT         ?PR?_ABS?ABS
            CODE    1CC7H     000AH     UNIT         ?PR?LCD_RETURN_HOME?LCD_DRIVER_SPLC780D
            CODE    1CD1H     000AH     UNIT         ?PR?LCD_CLEAR?LCD_DRIVER_SPLC780D
            CODE    1CDBH     0009H     UNIT         ?PR?_SENDUART1?MAIN
            CODE    1CE4H     0006H     UNIT         ?PR?_TEN?UART1
            CODE    1CEAH     0006H     UNIT         ?PR?UC_ACK?VCNL4035
            CODE    1CF0H     0006H     UNIT         ?PR?_DISPLAYLCD_VCNL4035?VCNL4035
            CODE    1CF6H     0005H     UNIT         ?PR?_UNIT?UART1
            CODE    1CFBH     0005H     UNIT         ?PR?_ASCII_LETTER?UART1
            CODE    1D00H     0001H     UNIT         ?PR?_DECTOBCD?UART1
            CODE    1D01H     0001H     UNIT         ?PR?NOP?VCNL4035



OVERLAY MAP OF MODULE:   .\Obj\GPIO_RTC_Test (MAIN)


SEGMENT                                            BIT_GROUP          XDATA_GROUP
  +--> CALLED SEGMENT                           START    LENGTH     START    LENGTH
-----------------------------------------------------------------------------------
?PR?UART?MAIN                                   -----    -----      -----    -----
  +--> ?PR?_ASCIITOBCD?UART1

?PR?_ASCIITOBCD?UART1                           -----    -----      -----    -----
  +--> ?PR?_ATOI?ATOI

?PR?_ATOI?ATOI                                  0020H.3  0000H.1    007CH    0005H
  +--> ?PR?_ISSPACE?ISSPACE
  +--> ?PR?_ISDIGIT?ISDIGIT

*** NEW ROOT ***************************************************

?C_C51STARTUP                                   -----    -----      -----    -----
  +--> ?PR?MAIN?MAIN
  +--> ?C_INITSEG
BL51 BANKED LINKER/LOCATER V6.22                                                      07/31/2018  09:50:56  PAGE 4



?PR?MAIN?MAIN                                   -----    -----      0081H    0013H
  +--> ?PR?LCD_INIT?LCD_DRIVER_SPLC780D
  +--> ?PR?SPI_INIT?PCF85063BTL
  +--> ?PR?KEYPAD_IO_INIT?KEYPAD
  +--> ?PR?INITUART1?UART1
  +--> ?PR?I2C_INIT?VCNL4035
  +--> ?PR?_SPI_WRITETIME?PCF85063BTL
  +--> ?PR?_DELAY_MS?KEYPAD
  +--> ?PR?_DISPLAY_LINE?LCD_DRIVER_SPLC780D
  +--> ?PR?_WRITEDATA?LCD_DRIVER_SPLC780D
  +--> ?PR?KEY_PROCESS?KEYPAD
  +--> ?PR?_COMMAND?LCD_DRIVER_SPLC780D
  +--> ?PR?_DISPLAY_POS?MAIN
  +--> ?PR?_DISPLAYLCD?LCD_DRIVER_SPLC780D
  +--> ?PR?_STEP_MOVE?BIPOLARMOTOR
  +--> ?PR?LCD_RETURN_HOME?LCD_DRIVER_SPLC780D
  +--> ?PR?_READ_TIME?PCF85063BTL
  +--> ?PR?_UPDATE_POSITION?BIPOLARMOTOR
  +--> ?PR?_SENDUART1?MAIN

?PR?LCD_INIT?LCD_DRIVER_SPLC780D                -----    -----      -----    -----
  +--> ?PR?_WAIT_MS?LCD_DRIVER_SPLC780D
  +--> ?PR?_COMMAND?LCD_DRIVER_SPLC780D

?PR?_COMMAND?LCD_DRIVER_SPLC780D                -----    -----      -----    -----
  +--> ?PR?_WAIT_MS?LCD_DRIVER_SPLC780D

?PR?I2C_INIT?VCNL4035                           -----    -----      -----    -----
  +--> ?PR?_WRITE_VCNL4035X?VCNL4035

?PR?_WRITE_VCNL4035X?VCNL4035                   -----    -----      0094H    0003H
  +--> ?PR?I2C_START?VCNL4035
  +--> ?PR?_WAIT_MS_I2C?VCNL4035
  +--> ?PR?I2C_ACK?VCNL4035
  +--> ?PR?_I2C_SENDBYTE?VCNL4035
  +--> ?PR?I2C_STOP?VCNL4035

?PR?I2C_START?VCNL4035                          -----    -----      -----    -----
  +--> ?PR?_WAIT_MS_IIC?VCNL4035
  +--> ?PR?_WAIT_MS_I2C?VCNL4035

?PR?I2C_ACK?VCNL4035                            -----    -----      0097H    0001H
  +--> ?PR?_I2C_SENDBYTE?VCNL4035
  +--> ?PR?_WAIT_MS_I2C?VCNL4035

?PR?_I2C_SENDBYTE?VCNL4035                      -----    -----      -----    -----
  +--> ?PR?_WAIT_MS_I2C?VCNL4035

?PR?I2C_STOP?VCNL4035                           -----    -----      -----    -----
  +--> ?PR?_WAIT_MS_I2C?VCNL4035

?PR?_SPI_WRITETIME?PCF85063BTL                  -----    -----      -----    -----
  +--> ?PR?_SPI_SENDBYTE?PCF85063BTL

?PR?_SPI_SENDBYTE?PCF85063BTL                   -----    -----      -----    -----
  +--> ?PR?_PCF85063BTL_DELAY?PCF85063BTL
BL51 BANKED LINKER/LOCATER V6.22                                                      07/31/2018  09:50:56  PAGE 5



?PR?_DISPLAY_LINE?LCD_DRIVER_SPLC780D           -----    -----      -----    -----
  +--> ?PR?_COMMAND?LCD_DRIVER_SPLC780D

?PR?_WRITEDATA?LCD_DRIVER_SPLC780D              -----    -----      009EH    0001H
  +--> ?PR?_WAIT_MS?LCD_DRIVER_SPLC780D

?PR?KEY_PROCESS?KEYPAD                          -----    -----      0094H    0006H
  +--> ?PR?KEY_SCAN?KEYPAD
  +--> ?PR?_SPI_WRITETIME?PCF85063BTL
  +--> ?PR?LCD_CLEAR?LCD_DRIVER_SPLC780D
  +--> ?PR?_COMMAND?LCD_DRIVER_SPLC780D
  +--> ?PR?_WRITEDATA?LCD_DRIVER_SPLC780D

?PR?KEY_SCAN?KEYPAD                             -----    -----      009AH    0003H
  +--> ?PR?_DELAY_MS?KEYPAD

?PR?LCD_CLEAR?LCD_DRIVER_SPLC780D               -----    -----      -----    -----
  +--> ?PR?_COMMAND?LCD_DRIVER_SPLC780D

?PR?_DISPLAY_POS?MAIN                           -----    -----      0094H    000AH
  +--> ?PR?_ABS?ABS
  +--> ?PR?_WRITEDATA?LCD_DRIVER_SPLC780D

?PR?_DISPLAYLCD?LCD_DRIVER_SPLC780D             -----    -----      0094H    0001H
  +--> ?PR?_WRITEDATA?LCD_DRIVER_SPLC780D

?PR?_STEP_MOVE?BIPOLARMOTOR                     0020H.5  0000H.1    00ACH    0004H
  +--> ?PR?_WAIT_MS?LCD_DRIVER_SPLC780D

?PR?LCD_RETURN_HOME?LCD_DRIVER_SPLC780D         -----    -----      -----    -----
  +--> ?PR?_COMMAND?LCD_DRIVER_SPLC780D

?PR?_READ_TIME?PCF85063BTL                      -----    -----      0094H    000FH
  +--> ?PR?_SPI_READTIME?PCF85063BTL

?PR?_SPI_READTIME?PCF85063BTL                   -----    -----      -----    -----
  +--> ?PR?_SPI_SENDBYTE?PCF85063BTL
  +--> ?PR?SPI_RECEIVEBYTE?PCF85063BTL

?PR?SPI_RECEIVEBYTE?PCF85063BTL                 -----    -----      -----    -----
  +--> ?PR?_PCF85063BTL_DELAY?PCF85063BTL

?PR?_UPDATE_POSITION?BIPOLARMOTOR               -----    -----      0094H    0014H
  +--> ?PR?_DAY_OF_YEAR?PCF85063BTL
  +--> ?PR?_BCDTODEC1?BIPOLARMOTOR
  +--> ?PR?_MOVE?BIPOLARMOTOR

?PR?_DAY_OF_YEAR?PCF85063BTL                    -----    -----      -----    -----
  +--> ?PR?_BCDTODEC?PCF85063BTL

?PR?_MOVE?BIPOLARMOTOR                          0020H.4  0000H.1    00A8H    0004H
  +--> ?PR?_STEP_MOVE?BIPOLARMOTOR



SYMBOL TABLE OF MODULE:  .\Obj\GPIO_RTC_Test (MAIN)
BL51 BANKED LINKER/LOCATER V6.22                                                      07/31/2018  09:50:56  PAGE 6



  VALUE           TYPE          NAME
  ----------------------------------

  -------         MODULE        MAIN
  C:0000H         SYMBOL        _ICE_DUMMY_
  D:0080H         PUBLIC        P0
  D:0090H         PUBLIC        P1
  D:00A0H         PUBLIC        P2
  D:00B0H         PUBLIC        P3
  D:00C0H         PUBLIC        P4
  D:00C8H         PUBLIC        P5
  X:00B8H         SYMBOL        PressedKey
  B:00A8H.7       PUBLIC        EA
  D:00E8H         PUBLIC        P6
  D:00F8H         PUBLIC        P7
  X:00BCH         PUBLIC        RX_Data_Uart_Cnt
  D:00A8H         PUBLIC        IE
  D:00B8H         PUBLIC        IP
  B:0098H.0       PUBLIC        RI
  B:0098H.1       PUBLIC        TI
  C:14F7H         PUBLIC        Uart
  D:00D8H         PUBLIC        CCON
  C:0DE2H         PUBLIC        main
  D:0099H         PUBLIC        SBUF
  D:0098H         PUBLIC        SCON
  D:0089H         PUBLIC        TMOD
  D:0088H         PUBLIC        TCON
  B:00B0H.3       PUBLIC        P33
  X:00BEH         SYMBOL        KeyCount
  X:00C0H         PUBLIC        Rec_data_hour
  X:00C3H         PUBLIC        Rec_data_min
  D:008EH         PUBLIC        AUXR
  C:000AH         PUBLIC        tm0_isr
  B:0020H.6       PUBLIC        busy
  D:00E0H         PUBLIC        ACC
  B:00A8H.1       PUBLIC        ET0
  D:008CH         PUBLIC        TH0
  X:00C6H         PUBLIC        hour_count
  D:008AH         PUBLIC        TL0
  X:00C7H         PUBLIC        min_count
  B:0088H.4       PUBLIC        TR0
  X:00C8H         SYMBOL        KeyNum
  X:00C9H         SYMBOL        KeyNum_Old
  C:162CH         PUBLIC        _Display_Prox
  C:100EH         PUBLIC        _Display_Pos
  X:00CAH         PUBLIC        st_time
  D:00D0H         PUBLIC        PSW
  C:1CDBH         PUBLIC        _SendUART1
  -------         PROC          TM0_ISR
  C:000AH         LINE#         53
  C:000AH         LINE#         56
  -------         ENDPROC       TM0_ISR
  -------         PROC          MAIN
  -------         DO            
  X:0081H         SYMBOL        seconds
  X:0082H         SYMBOL        mins
BL51 BANKED LINKER/LOCATER V6.22                                                      07/31/2018  09:50:56  PAGE 7


  X:0083H         SYMBOL        hours
  X:0084H         SYMBOL        days
  X:0085H         SYMBOL        months
  X:0086H         SYMBOL        prox_data
  X:00B0H         SYMBOL        KeyCount
  X:00B2H         SYMBOL        KeyNum_Old
  X:00B3H         SYMBOL        KeyNum
  X:00B4H         SYMBOL        PressedKey
  X:0088H         SYMBOL        prox_flag
  X:0089H         SYMBOL        count
  X:008BH         SYMBOL        numStr
  X:0090H         SYMBOL        current_position
  -------         ENDDO         
  C:0DE2H         LINE#         58
  C:0DE2H         LINE#         59
  C:0DE2H         LINE#         64
  C:0DE8H         LINE#         66
  C:0DEDH         LINE#         68
  C:0DF7H         LINE#         69
  C:0DF9H         LINE#         70
  C:0DFBH         LINE#         71
  C:0DFDH         LINE#         80
  C:0E00H         LINE#         81
  C:0E03H         LINE#         82
  C:0E06H         LINE#         83
  C:0E09H         LINE#         84
  C:0E0CH         LINE#         86
  C:0E0FH         LINE#         87
  C:0E12H         LINE#         88
  C:0E15H         LINE#         89
  C:0E17H         LINE#         90
  C:0E19H         LINE#         91
  C:0E1BH         LINE#         93
  C:0E1DH         LINE#         94
  C:0E24H         LINE#         95
  C:0E2BH         LINE#         96
  C:0E32H         LINE#         97
  C:0E39H         LINE#         101
  C:0E40H         LINE#         102
  C:0E45H         LINE#         103
  C:0E4AH         LINE#         104
  C:0E4FH         LINE#         105
  C:0E54H         LINE#         106
  C:0E59H         LINE#         109
  C:0E59H         LINE#         110
  C:0E59H         LINE#         111
  C:0E5CH         LINE#         112
  C:0E6AH         LINE#         114
  C:0E6AH         LINE#         117
  C:0E6FH         LINE#         118
  C:0E74H         LINE#         120
  C:0E79H         LINE#         121
  C:0E7EH         LINE#         122
  C:0E83H         LINE#         123
  C:0E88H         LINE#         125
  C:0E99H         LINE#         127
  C:0EA0H         LINE#         128
BL51 BANKED LINKER/LOCATER V6.22                                                      07/31/2018  09:50:56  PAGE 8


  C:0EA8H         LINE#         129
  C:0EADH         LINE#         130
  C:0EB5H         LINE#         131
  C:0EBAH         LINE#         132
  C:0EC4H         LINE#         134
  C:0ECCH         LINE#         136
  C:0ED4H         LINE#         148
  C:0ED7H         LINE#         149
  C:0ED7H         LINE#         150
  C:0EE2H         LINE#         151
  C:0EF9H         LINE#         152
  C:0EF9H         LINE#         153
  C:0EFBH         LINE#         154
  C:0EFDH         LINE#         156
  C:0EFDH         LINE#         157
  C:0F08H         LINE#         158
  C:0F08H         LINE#         159
  C:0F0DH         LINE#         160
  C:0F0DH         LINE#         161
  C:0F10H         LINE#         162
  C:0F10H         LINE#         163
  C:0F12H         LINE#         164
  C:0F1DH         LINE#         165
  C:0F34H         LINE#         166
  C:0F34H         LINE#         167
  C:0F36H         LINE#         168
  C:0F38H         LINE#         170
  C:0F38H         LINE#         171
  C:0F43H         LINE#         172
  C:0F43H         LINE#         173
  C:0F48H         LINE#         174
  C:0F48H         LINE#         182
  C:0F51H         LINE#         183
  C:0F51H         LINE#         184
  C:0F5BH         LINE#         185
  C:0F61H         LINE#         186
  C:0F63H         LINE#         187
  C:0F65H         LINE#         188
  C:0F67H         LINE#         189
  C:0F67H         LINE#         190
  C:0F6AH         LINE#         192
  C:0F6AH         LINE#         193
  C:0FA5H         LINE#         194
  C:0FD3H         LINE#         198
  C:0FE0H         LINE#         199
  C:0FE0H         LINE#         200
  C:0FEAH         LINE#         201
  C:0FF4H         LINE#         202
  C:0FFBH         LINE#         203
  C:1003H         LINE#         204
  C:100BH         LINE#         205
  -------         ENDPROC       MAIN
  -------         PROC          UART
  C:14F7H         LINE#         218
  C:1504H         LINE#         220
  C:1507H         LINE#         221
  C:1507H         LINE#         222
BL51 BANKED LINKER/LOCATER V6.22                                                      07/31/2018  09:50:56  PAGE 9


  C:1515H         LINE#         223
  C:1517H         LINE#         224
  C:1529H         LINE#         225
  C:1538H         LINE#         226
  C:1543H         LINE#         227
  C:1543H         LINE#         230
  C:1550H         LINE#         231
  C:1556H         LINE#         232
  C:1556H         LINE#         233
  C:155CH         LINE#         234
  C:156AH         LINE#         235
  C:1578H         LINE#         236
  C:1580H         LINE#         241
  C:1580H         LINE#         242
  C:1580H         LINE#         245
  C:1580H         LINE#         246
  C:1583H         LINE#         247
  C:1583H         LINE#         248
  C:1585H         LINE#         249
  C:1587H         LINE#         250
  C:1587H         LINE#         251
  -------         ENDPROC       UART
  -------         PROC          _SENDUART1
  D:0007H         SYMBOL        dat
  C:1CDBH         LINE#         254
  C:1CDBH         LINE#         255
  C:1CDBH         LINE#         256
  C:1CDEH         LINE#         257
  C:1CE0H         LINE#         258
  C:1CE1H         LINE#         259
  C:1CE3H         LINE#         260
  -------         ENDPROC       _SENDUART1
  -------         PROC          _DISPLAY_PROX
  D:0002H         SYMBOL        dat
  -------         DO            
  X:00DDH         SYMBOL        unit
  X:00DEH         SYMBOL        ten
  X:00DFH         SYMBOL        hundred
  X:00E0H         SYMBOL        thousand
  -------         ENDDO         
  C:162CH         LINE#         263
  C:1630H         LINE#         264
  C:1630H         LINE#         266
  C:163CH         LINE#         267
  C:164CH         LINE#         268
  C:1668H         LINE#         269
  C:1698H         LINE#         270
  C:16A2H         LINE#         271
  C:16ACH         LINE#         272
  C:16B6H         LINE#         273
  C:16C0H         LINE#         275
  -------         ENDPROC       _DISPLAY_PROX
  -------         PROC          _DISPLAY_POS
  X:0094H         SYMBOL        sign_dat
  -------         DO            
  X:0098H         SYMBOL        unit
  X:0099H         SYMBOL        ten
BL51 BANKED LINKER/LOCATER V6.22                                                      07/31/2018  09:50:56  PAGE 10


  X:009AH         SYMBOL        hundred
  D:0003H         SYMBOL        thousand
  X:009BH         SYMBOL        after_dot
  X:009CH         SYMBOL        dat
  -------         ENDDO         
  C:100EH         LINE#         278
  C:1014H         LINE#         279
  C:1014H         LINE#         283
  C:1030H         LINE#         284
  C:104AH         LINE#         285
  C:106EH         LINE#         287
  C:10B8H         LINE#         289
  C:10CFH         LINE#         290
  C:10DCH         LINE#         291
  C:10FEH         LINE#         292
  C:1133H         LINE#         293
  C:114BH         LINE#         294
  C:114BH         LINE#         296
  C:1155H         LINE#         297
  C:115FH         LINE#         298
  C:1169H         LINE#         299
  C:116EH         LINE#         300
  C:1178H         LINE#         301
  C:117DH         LINE#         302
  C:1182H         LINE#         303
  C:1184H         LINE#         304
  C:1186H         LINE#         306
  C:1186H         LINE#         308
  C:118BH         LINE#         309
  C:1195H         LINE#         310
  C:119FH         LINE#         311
  C:11A9H         LINE#         312
  C:11AEH         LINE#         313
  C:11B8H         LINE#         314
  C:11BDH         LINE#         315
  C:11C2H         LINE#         317
  C:11C2H         LINE#         319
  -------         ENDPROC       _DISPLAY_POS
  -------         ENDMOD        MAIN

  -------         MODULE        PCF85063BTL
  C:0000H         SYMBOL        _ICE_DUMMY_
  D:0096H         PUBLIC        P2M0
  D:0080H         PUBLIC        P0
  D:0095H         PUBLIC        P2M1
  D:0090H         PUBLIC        P1
  D:00A0H         PUBLIC        P2
  D:00B0H         PUBLIC        P3
  D:00C0H         PUBLIC        P4
  D:00C8H         PUBLIC        P5
  D:00E8H         PUBLIC        P6
  B:00A0H.2       PUBLIC        PCF85063BTL_SDI
  D:00F8H         PUBLIC        P7
  B:00A0H.1       PUBLIC        PCF85063BTL_SCK
  B:00A0H.2       PUBLIC        PCF85063BTL_SDO
  D:00A8H         PUBLIC        IE
  C:1846H         PUBLIC        _Read_time
BL51 BANKED LINKER/LOCATER V6.22                                                      07/31/2018  09:50:56  PAGE 11


  C:1C28H         PUBLIC        _PCF85063BTL_Delay
  D:00B8H         PUBLIC        IP
  D:00D8H         PUBLIC        CCON
  C:174DH         PUBLIC        _Day_Of_Year
  C:1B33H         PUBLIC        SPI_ReceiveByte
  D:0098H         PUBLIC        SCON
  D:0088H         PUBLIC        TCON
  C:1C6EH         PUBLIC        _BCDtoDec
  B:00A0H.0       PUBLIC        PCF85063BTL_CS
  C:1C5DH         PUBLIC        _SPI_ReadTime
  C:1CAEH         PUBLIC        SPI_Init
  C:1BC7H         PUBLIC        _SPI_WriteTime
  C:1B13H         PUBLIC        _SPI_SendByte
  D:00D0H         PUBLIC        PSW
  C:1C24H         SYMBOL        L?0047
  -------         PROC          L?0046
  -------         ENDPROC       L?0046
  C:1C24H         SYMBOL        L?0047
  -------         PROC          _PCF85063BTL_DELAY
  D:0006H         SYMBOL        us
  C:1C28H         LINE#         8
  C:1C28H         LINE#         9
  C:1C28H         LINE#         10
  C:1C32H         LINE#         11
  C:1C32H         LINE#         12
  C:1C33H         LINE#         13
  C:1C35H         LINE#         14
  -------         ENDPROC       _PCF85063BTL_DELAY
  -------         PROC          _SPI_SENDBYTE
  D:0005H         SYMBOL        dat
  -------         DO            
  D:0003H         SYMBOL        i
  -------         ENDDO         
  C:1B13H         LINE#         17
  C:1B15H         LINE#         18
  C:1B15H         LINE#         20
  C:1B17H         LINE#         21
  C:1B17H         LINE#         22
  C:1B19H         LINE#         23
  C:1B1DH         LINE#         24
  C:1B1DH         LINE#         25
  C:1B1FH         LINE#         26
  C:1B21H         LINE#         28
  C:1B21H         LINE#         29
  C:1B23H         LINE#         30
  C:1B23H         LINE#         31
  C:1B26H         LINE#         32
  C:1B26H         LINE#         33
  C:1B29H         LINE#         34
  C:1B2DH         LINE#         35
  C:1B32H         LINE#         36
  -------         ENDPROC       _SPI_SENDBYTE
  -------         PROC          SPI_RECEIVEBYTE
  -------         DO            
  D:0003H         SYMBOL        i
  D:0005H         SYMBOL        dat
  -------         ENDDO         
BL51 BANKED LINKER/LOCATER V6.22                                                      07/31/2018  09:50:56  PAGE 12


  C:1B33H         LINE#         39
  C:1B33H         LINE#         40
  C:1B33H         LINE#         42
  C:1B35H         LINE#         44
  C:1B37H         LINE#         45
  C:1B38H         LINE#         46
  C:1B38H         LINE#         47
  C:1B3CH         LINE#         48
  C:1B3EH         LINE#         49
  C:1B41H         LINE#         51
  C:1B44H         LINE#         52
  C:1B44H         LINE#         53
  C:1B48H         LINE#         54
  C:1B48H         LINE#         55
  C:1B48H         LINE#         56
  C:1B4BH         LINE#         57
  C:1B50H         LINE#         58
  C:1B52H         LINE#         59
  -------         ENDPROC       SPI_RECEIVEBYTE
  -------         PROC          _SPI_READTIME
  D:0007H         SYMBOL        addr
  -------         DO            
  D:0006H         SYMBOL        dat
  -------         ENDDO         
  C:1C5DH         LINE#         61
  C:1C5DH         LINE#         62
  C:1C5DH         LINE#         64
  C:1C5FH         LINE#         65
  C:1C61H         LINE#         66
  C:1C68H         LINE#         67
  C:1C6BH         LINE#         68
  C:1C6DH         LINE#         69
  C:1C6DH         LINE#         70
  -------         ENDPROC       _SPI_READTIME
  -------         PROC          _SPI_WRITETIME
  D:0002H         SYMBOL        val
  D:0005H         SYMBOL        addr
  C:1BC7H         LINE#         71
  C:1BC9H         LINE#         72
  C:1BC9H         LINE#         74
  C:1BCBH         LINE#         75
  C:1BD2H         LINE#         76
  C:1BD7H         LINE#         77
  C:1BDCH         LINE#         78
  C:1BDEH         LINE#         79
  -------         ENDPROC       _SPI_WRITETIME
  -------         PROC          SPI_INIT
  C:1CAEH         LINE#         83
  C:1CAEH         LINE#         84
  C:1CAEH         LINE#         89
  C:1CB1H         LINE#         90
  C:1CB4H         LINE#         91
  C:1CB6H         LINE#         92
  C:1CB8H         LINE#         93
  C:1CBAH         LINE#         94
  -------         ENDPROC       SPI_INIT
  -------         PROC          _READ_TIME
BL51 BANKED LINKER/LOCATER V6.22                                                      07/31/2018  09:50:56  PAGE 13


  X:0094H         SYMBOL        months
  X:0097H         SYMBOL        days
  X:009AH         SYMBOL        hours
  X:009DH         SYMBOL        mins
  X:00A0H         SYMBOL        seconds
  C:1846H         LINE#         96
  C:1851H         LINE#         97
  C:1851H         LINE#         99
  C:1865H         LINE#         101
  C:1879H         LINE#         103
  C:188DH         LINE#         108
  C:18A1H         LINE#         113
  -------         ENDPROC       _READ_TIME
  -------         PROC          _BCDTODEC
  D:0007H         SYMBOL        bcd
  -------         DO            
  D:0006H         SYMBOL        hi
  D:0007H         SYMBOL        lo
  -------         ENDDO         
  C:1C6EH         LINE#         119
  C:1C6EH         LINE#         120
  C:1C6EH         LINE#         122
  C:1C73H         LINE#         123
  C:1C77H         LINE#         124
  C:1C7EH         LINE#         125
  -------         ENDPROC       _BCDTODEC
  -------         PROC          _DAY_OF_YEAR
  D:0007H         SYMBOL        months_bcd
  D:0005H         SYMBOL        days_bcd
  -------         DO            
  D:0004H         SYMBOL        months
  D:0007H         SYMBOL        days
  -------         ENDDO         
  C:174DH         LINE#         126
  C:174DH         LINE#         127
  C:174DH         LINE#         130
  C:1752H         LINE#         132
  C:1757H         LINE#         134
  C:1790H         LINE#         135
  C:1790H         LINE#         136
  C:1790H         LINE#         137
  C:1793H         LINE#         138
  C:1793H         LINE#         139
  C:1793H         LINE#         140
  C:1798H         LINE#         141
  C:1798H         LINE#         142
  C:1798H         LINE#         143
  C:179DH         LINE#         144
  C:179DH         LINE#         145
  C:179DH         LINE#         146
  C:17A2H         LINE#         147
  C:17A2H         LINE#         148
  C:17A2H         LINE#         149
  C:17A7H         LINE#         150
  C:17A7H         LINE#         151
  C:17A7H         LINE#         152
  C:17ACH         LINE#         153
BL51 BANKED LINKER/LOCATER V6.22                                                      07/31/2018  09:50:56  PAGE 14


  C:17ACH         LINE#         154
  C:17ACH         LINE#         155
  C:17B1H         LINE#         156
  C:17B1H         LINE#         157
  C:17B1H         LINE#         158
  C:17B6H         LINE#         159
  C:17B6H         LINE#         160
  C:17B6H         LINE#         161
  C:17BEH         LINE#         162
  C:17BEH         LINE#         163
  C:17BEH         LINE#         164
  C:17C3H         LINE#         165
  C:17C3H         LINE#         166
  C:17C3H         LINE#         167
  C:17C8H         LINE#         168
  C:17C8H         LINE#         169
  C:17C8H         LINE#         170
  C:17D0H         LINE#         171
  C:17D0H         LINE#         172
  C:17D0H         LINE#         173
  -------         ENDPROC       _DAY_OF_YEAR
  -------         ENDMOD        PCF85063BTL

  -------         MODULE        UART1
  C:0000H         SYMBOL        _ICE_DUMMY_
  D:0080H         PUBLIC        P0
  D:0090H         PUBLIC        P1
  D:00A0H         PUBLIC        P2
  D:00B0H         PUBLIC        P3
  D:00C0H         PUBLIC        P4
  D:00C8H         PUBLIC        P5
  B:00A8H.7       PUBLIC        EA
  D:00E8H         PUBLIC        P6
  D:00F8H         PUBLIC        P7
  C:1A1FH         PUBLIC        _SendString
  D:00A8H         PUBLIC        IE
  B:00A8H.4       PUBLIC        ES
  D:00B8H         PUBLIC        IP
  C:1BDFH         PUBLIC        _ASCIItoBCD
  D:00D8H         PUBLIC        CCON
  C:1C7FH         PUBLIC        initUART1
  D:0098H         PUBLIC        SCON
  D:0088H         PUBLIC        TCON
  C:1D00H         PUBLIC        _DectoBCD
  C:1CFBH         PUBLIC        _ASCII_Letter
  D:008EH         PUBLIC        AUXR
  C:1CF6H         PUBLIC        _unit
  C:1CE4H         PUBLIC        _ten
  D:00D6H         PUBLIC        T2H
  D:00D7H         PUBLIC        T2L
  D:00D0H         PUBLIC        PSW
  -------         PROC          INITUART1
  C:1C7FH         LINE#         21
  C:1C7FH         LINE#         22
  C:1C7FH         LINE#         23
  C:1C82H         LINE#         24
  C:1C85H         LINE#         25
BL51 BANKED LINKER/LOCATER V6.22                                                      07/31/2018  09:50:56  PAGE 15


  C:1C88H         LINE#         26
  C:1C8BH         LINE#         27
  C:1C8DH         LINE#         28
  C:1C8FH         LINE#         30
  -------         ENDPROC       INITUART1
  -------         PROC          _SENDSTRING
  X:00E1H         SYMBOL        s
  C:1A1FH         LINE#         35
  C:1A2AH         LINE#         36
  C:1A2AH         LINE#         37
  C:1A3AH         LINE#         38
  C:1A3AH         LINE#         39
  C:1A4FH         LINE#         40
  C:1A51H         LINE#         41
  -------         ENDPROC       _SENDSTRING
  -------         PROC          _TEN
  D:0007H         SYMBOL        BCD
  C:1CE4H         LINE#         43
  C:1CE4H         LINE#         44
  C:1CE4H         LINE#         45
  C:1CE9H         LINE#         46
  -------         ENDPROC       _TEN
  -------         PROC          _UNIT
  D:0007H         SYMBOL        BCD
  C:1CF6H         LINE#         47
  C:1CF6H         LINE#         48
  C:1CF6H         LINE#         52
  C:1CFAH         LINE#         53
  -------         ENDPROC       _UNIT
  -------         PROC          _DECTOBCD
  D:0007H         SYMBOL        dec
  C:1D00H         LINE#         54
  C:1D00H         LINE#         55
  C:1D00H         LINE#         57
  C:1D00H         LINE#         58
  -------         ENDPROC       _DECTOBCD
  -------         PROC          _ASCII_LETTER
  D:0007H         SYMBOL        dat
  C:1CFBH         LINE#         60
  C:1CFBH         LINE#         61
  C:1CFBH         LINE#         63
  C:1CFFH         LINE#         64
  -------         ENDPROC       _ASCII_LETTER
  -------         PROC          _ASCIITOBCD
  D:0001H         SYMBOL        ascii
  -------         DO            
  D:0007H         SYMBOL        dec_val
  D:0006H         SYMBOL        ten
  D:0007H         SYMBOL        unit
  -------         ENDDO         
  C:1BDFH         LINE#         66
  C:1BDFH         LINE#         67
  C:1BDFH         LINE#         69
  C:1BE2H         LINE#         70
  C:1BE8H         LINE#         71
  C:1BEFH         LINE#         72
  C:1BF5H         LINE#         74
BL51 BANKED LINKER/LOCATER V6.22                                                      07/31/2018  09:50:56  PAGE 16


  -------         ENDPROC       _ASCIITOBCD
  -------         ENDMOD        UART1

  -------         MODULE        LCD_DRIVER_SPLC780D
  C:0000H         SYMBOL        _ICE_DUMMY_
  D:0080H         PUBLIC        P0
  D:0090H         PUBLIC        P1
  D:00A0H         PUBLIC        P2
  D:00B0H         PUBLIC        P3
  D:00C0H         PUBLIC        P4
  D:00C8H         PUBLIC        P5
  D:00E8H         PUBLIC        P6
  D:00F8H         PUBLIC        P7
  C:17D1H         PUBLIC        _WriteData
  D:00A8H         PUBLIC        IE
  D:00B8H         PUBLIC        IP
  D:00D8H         PUBLIC        CCON
  B:0090H.4       PUBLIC        LCD_D4
  B:0090H.5       PUBLIC        LCD_D5
  B:0090H.6       PUBLIC        LCD_D6
  C:1B8FH         PUBLIC        _DisplayLCD
  B:0090H.7       PUBLIC        LCD_D7
  D:0098H         PUBLIC        SCON
  D:0088H         PUBLIC        TCON
  C:1CD1H         PUBLIC        LCD_clear
  C:19ABH         PUBLIC        _Command
  C:000EH         PUBLIC        _Display_Line
  C:190EH         PUBLIC        LCD_Init
  C:1AAFH         PUBLIC        _Wait_ms
  B:0090H.1       PUBLIC        LCD_RS
  B:0090H.2       PUBLIC        LCD_RW
  C:1CC7H         PUBLIC        LCD_return_home
  B:0090H.3       PUBLIC        LCD_E
  D:00D0H         PUBLIC        PSW
  -------         PROC          LCD_INIT
  C:190EH         LINE#         9
  C:190EH         LINE#         10
  C:190EH         LINE#         12
  C:1915H         LINE#         13
  C:191AH         LINE#         15
  C:1921H         LINE#         16
  C:1926H         LINE#         18
  C:1929H         LINE#         19
  C:192EH         LINE#         21
  C:1931H         LINE#         22
  C:1936H         LINE#         24
  C:193DH         LINE#         27
  C:1942H         LINE#         28
  C:1947H         LINE#         30
  C:194CH         LINE#         31
  C:1951H         LINE#         33
  C:1956H         LINE#         34
  C:195BH         LINE#         35
  -------         ENDPROC       LCD_INIT
  -------         PROC          _WRITEDATA
  X:009EH         SYMBOL        dat
  C:17D1H         LINE#         38
BL51 BANKED LINKER/LOCATER V6.22                                                      07/31/2018  09:50:56  PAGE 17


  C:17D6H         LINE#         39
  C:17D6H         LINE#         44
  C:17D8H         LINE#         45
  C:17DAH         LINE#         47
  C:17E8H         LINE#         48
  C:17F4H         LINE#         49
  C:1800H         LINE#         50
  C:180AH         LINE#         51
  C:180CH         LINE#         52
  C:1813H         LINE#         53
  C:1815H         LINE#         55
  C:1825H         LINE#         56
  C:1830H         LINE#         57
  C:183AH         LINE#         58
  C:183EH         LINE#         60
  C:183EH         LINE#         61
  C:1841H         LINE#         62
  C:1843H         LINE#         63
  C:1845H         LINE#         65
  -------         ENDPROC       _WRITEDATA
  -------         PROC          _COMMAND
  D:0007H         SYMBOL        dat
  C:19ABH         LINE#         67
  C:19ABH         LINE#         68
  C:19ABH         LINE#         69
  C:19ADH         LINE#         70
  C:19AFH         LINE#         72
  C:19B9H         LINE#         73
  C:19BDH         LINE#         75
  C:19BFH         LINE#         76
  C:19C8H         LINE#         77
  C:19CCH         LINE#         79
  C:19CEH         LINE#         80
  C:19D5H         LINE#         81
  C:19D9H         LINE#         83
  C:19DBH         LINE#         84
  C:19DFH         LINE#         85
  C:19E3H         LINE#         87
  C:19E5H         LINE#         88
  C:19E5H         LINE#         89
  C:19E8H         LINE#         90
  C:19EAH         LINE#         91
  -------         ENDPROC       _COMMAND
  C:1AABH         SYMBOL        L?0028
  -------         PROC          L?0027
  -------         ENDPROC       L?0027
  C:1AABH         SYMBOL        L?0028
  -------         PROC          _WAIT_MS
  D:0006H         SYMBOL        ms
  -------         DO            
  D:0004H         SYMBOL        De_Cnt
  -------         ENDDO         
  C:1AAFH         LINE#         93
  C:1AAFH         LINE#         94
  C:1AAFH         LINE#         96
  C:1AB9H         LINE#         97
  C:1AB9H         LINE#         98
BL51 BANKED LINKER/LOCATER V6.22                                                      07/31/2018  09:50:56  PAGE 18


  C:1ACCH         LINE#         99
  C:1ACCH         LINE#         100
  -------         ENDPROC       _WAIT_MS
  -------         PROC          _DISPLAYLCD
  D:0007H         SYMBOL        BCD
  -------         DO            
  D:0006H         SYMBOL        first_digit
  X:0094H         SYMBOL        second_digit
  -------         ENDDO         
  C:1B8FH         LINE#         101
  C:1B8FH         LINE#         102
  C:1B8FH         LINE#         104
  C:1B96H         LINE#         105
  C:1B9FH         LINE#         107
  C:1BA4H         LINE#         109
  -------         ENDPROC       _DISPLAYLCD
  -------         PROC          LCD_RETURN_HOME
  C:1CC7H         LINE#         113
  C:1CC7H         LINE#         114
  C:1CC7H         LINE#         115
  C:1CCCH         LINE#         116
  -------         ENDPROC       LCD_RETURN_HOME
  -------         PROC          LCD_CLEAR
  C:1CD1H         LINE#         119
  C:1CD1H         LINE#         120
  C:1CD1H         LINE#         121
  C:1CD6H         LINE#         122
  -------         ENDPROC       LCD_CLEAR
  -------         PROC          _DISPLAY_LINE
  D:0006H         SYMBOL        line
  C:000EH         LINE#         126
  C:000EH         LINE#         127
  C:000EH         LINE#         128
  C:0014H         LINE#         129
  C:0014H         LINE#         130
  C:0016H         LINE#         131
  C:0016H         LINE#         132
  C:0018H         LINE#         134
  C:0018H         LINE#         135
  C:001DH         LINE#         136
  C:0022H         LINE#         137
  C:0022H         LINE#         138
  -------         ENDPROC       _DISPLAY_LINE
  -------         ENDMOD        LCD_DRIVER_SPLC780D

  -------         MODULE        KEYPAD
  C:0000H         SYMBOL        _ICE_DUMMY_
  D:0093H         PUBLIC        P0M1
  D:0080H         PUBLIC        P0
  D:0090H         PUBLIC        P1
  D:00A0H         PUBLIC        P2
  D:00B0H         PUBLIC        P3
  D:00C0H         PUBLIC        P4
  D:00C8H         PUBLIC        P5
  D:00E8H         PUBLIC        P6
  D:00F8H         PUBLIC        P7
  D:00A8H         PUBLIC        IE
BL51 BANKED LINKER/LOCATER V6.22                                                      07/31/2018  09:50:56  PAGE 19


  C:11C3H         PUBLIC        Key_Scan
  D:00B8H         PUBLIC        IP
  D:00D8H         PUBLIC        CCON
  C:0003H         PUBLIC        KeyPad_IO_Init
  C:1B53H         PUBLIC        _Delay_ms
  D:0098H         PUBLIC        SCON
  D:0088H         PUBLIC        TCON
  B:0020H.0       PUBLIC        small_move
  B:0020H.1       PUBLIC        move
  B:0020H.2       PUBLIC        direction
  C:0B69H         PUBLIC        Key_Process
  D:00D0H         PUBLIC        PSW
  D:0094H         PUBLIC        P0M0
  -------         PROC          _DELAY_MS
  D:0006H         SYMBOL        ms
  -------         DO            
  D:0004H         SYMBOL        De_Cnt
  -------         ENDDO         
  C:1B53H         LINE#         16
  C:1B53H         LINE#         17
  C:1B53H         LINE#         19
  C:1B5DH         LINE#         20
  C:1B5DH         LINE#         21
  C:1B70H         LINE#         22
  C:1B70H         LINE#         23
  -------         ENDPROC       _DELAY_MS
  -------         PROC          KEY_SCAN
  -------         DO            
  X:009AH         SYMBOL        KeyTemp1
  X:009BH         SYMBOL        KeyTemp2
  X:009CH         SYMBOL        KeyValue
  -------         ENDDO         
  C:11C3H         LINE#         24
  C:11C3H         LINE#         25
  C:11C3H         LINE#         30
  C:11C6H         LINE#         33
  C:11C9H         LINE#         35
  C:11D1H         LINE#         36
  C:11D8H         LINE#         37
  C:11D8H         LINE#         38
  C:11DFH         LINE#         39
  C:11E4H         LINE#         40
  C:11EBH         LINE#         41
  C:11EBH         LINE#         44
  C:11EEH         LINE#         45
  C:11F1H         LINE#         46
  C:11F6H         LINE#         47
  C:11FAH         LINE#         48
  C:11FAH         LINE#         49
  C:1202H         LINE#         50
  C:1202H         LINE#         51
  C:1205H         LINE#         52
  C:120DH         LINE#         53
  C:120FH         LINE#         55
  C:1223H         LINE#         56
  C:1223H         LINE#         57
  C:1223H         LINE#         58
BL51 BANKED LINKER/LOCATER V6.22                                                      07/31/2018  09:50:56  PAGE 20


  C:1223H         LINE#         59
  C:1229H         LINE#         61
  C:122BH         LINE#         62
  C:122BH         LINE#         63
  C:122BH         LINE#         64
  C:1231H         LINE#         66
  C:1233H         LINE#         67
  C:1233H         LINE#         68
  C:1233H         LINE#         69
  C:1239H         LINE#         71
  C:123BH         LINE#         72
  C:123BH         LINE#         73
  C:123BH         LINE#         74
  C:1241H         LINE#         76
  C:1241H         LINE#         77
  C:1241H         LINE#         78
  C:1241H         LINE#         81
  C:1244H         LINE#         82
  C:1247H         LINE#         83
  C:124FH         LINE#         84
  C:1253H         LINE#         85
  C:1253H         LINE#         86
  C:125BH         LINE#         87
  C:125BH         LINE#         88
  C:125EH         LINE#         89
  C:1266H         LINE#         90
  C:1268H         LINE#         91
  C:127CH         LINE#         92
  C:127CH         LINE#         93
  C:127CH         LINE#         94
  C:127CH         LINE#         95
  C:1282H         LINE#         97
  C:1284H         LINE#         98
  C:1284H         LINE#         99
  C:1284H         LINE#         100
  C:128AH         LINE#         102
  C:128CH         LINE#         103
  C:128CH         LINE#         104
  C:128CH         LINE#         105
  C:1292H         LINE#         107
  C:1294H         LINE#         108
  C:1294H         LINE#         109
  C:1294H         LINE#         110
  C:1299H         LINE#         112
  C:1299H         LINE#         113
  C:1299H         LINE#         114
  C:1299H         LINE#         117
  C:129CH         LINE#         118
  C:129FH         LINE#         119
  C:12A7H         LINE#         120
  C:12ABH         LINE#         121
  C:12ABH         LINE#         122
  C:12B3H         LINE#         123
  C:12B3H         LINE#         124
  C:12B6H         LINE#         125
  C:12BEH         LINE#         126
  C:12C0H         LINE#         127
BL51 BANKED LINKER/LOCATER V6.22                                                      07/31/2018  09:50:56  PAGE 21


  C:12D4H         LINE#         128
  C:12D4H         LINE#         129
  C:12D4H         LINE#         130
  C:12D4H         LINE#         131
  C:12DAH         LINE#         133
  C:12DCH         LINE#         134
  C:12DCH         LINE#         135
  C:12DCH         LINE#         136
  C:12E2H         LINE#         138
  C:12E4H         LINE#         139
  C:12E4H         LINE#         140
  C:12E4H         LINE#         141
  C:12EAH         LINE#         143
  C:12ECH         LINE#         144
  C:12ECH         LINE#         145
  C:12ECH         LINE#         146
  C:12F2H         LINE#         148
  C:12F2H         LINE#         149
  C:12F2H         LINE#         150
  C:12F2H         LINE#         154
  C:12F5H         LINE#         155
  C:12F8H         LINE#         156
  C:1300H         LINE#         157
  C:1304H         LINE#         158
  C:1304H         LINE#         159
  C:130CH         LINE#         160
  C:130CH         LINE#         161
  C:130FH         LINE#         162
  C:1317H         LINE#         163
  C:1319H         LINE#         164
  C:132DH         LINE#         165
  C:132DH         LINE#         166
  C:132DH         LINE#         167
  C:132DH         LINE#         168
  C:1333H         LINE#         170
  C:1335H         LINE#         171
  C:1335H         LINE#         172
  C:1335H         LINE#         173
  C:133BH         LINE#         175
  C:133DH         LINE#         176
  C:133DH         LINE#         177
  C:133DH         LINE#         178
  C:1343H         LINE#         180
  C:1345H         LINE#         181
  C:1345H         LINE#         182
  C:1345H         LINE#         183
  C:134BH         LINE#         185
  C:134BH         LINE#         186
  C:134BH         LINE#         187
  C:134BH         LINE#         189
  C:1351H         LINE#         190
  C:1351H         LINE#         192
  C:1351H         LINE#         193
  C:1354H         LINE#         194
  C:1354H         LINE#         195
  C:1354H         LINE#         197
  C:1354H         LINE#         198
BL51 BANKED LINKER/LOCATER V6.22                                                      07/31/2018  09:50:56  PAGE 22


  C:1356H         LINE#         199
  C:1356H         LINE#         200
  -------         ENDPROC       KEY_SCAN
  -------         PROC          KEY_PROCESS
  -------         DO            
  X:00CCH         SYMBOL        KeyCount
  X:00CEH         SYMBOL        KeyNum_Old
  X:00CFH         SYMBOL        KeyNum
  X:00D0H         SYMBOL        PressedKey
  X:0094H         SYMBOL        d
  D:0004H         SYMBOL        hours
  D:0006H         SYMBOL        mins
  X:0096H         SYMBOL        months
  X:0098H         SYMBOL        days
  -------         ENDDO         
  C:0B69H         LINE#         201
  C:0B69H         LINE#         202
  C:0B69H         LINE#         206
  C:0B71H         LINE#         207
  C:0B79H         LINE#         209
  C:0B86H         LINE#         210
  C:0B86H         LINE#         211
  C:0B89H         LINE#         212
  C:0B8CH         LINE#         214
  C:0B8FH         LINE#         216
  C:0B8FH         LINE#         217
  C:0B9AH         LINE#         218
  C:0B9AH         LINE#         219
  C:0B9DH         LINE#         221
  C:0B9DH         LINE#         222
  C:0BA4H         LINE#         223
  C:0BA4H         LINE#         224
  C:0BA7H         LINE#         226
  C:0BA7H         LINE#         228
  C:0BABH         LINE#         229
  C:0BABH         LINE#         230
  C:0BAEH         LINE#         232
  C:0BAEH         LINE#         233
  C:0BBEH         LINE#         234
  C:0BBEH         LINE#         235
  C:0BD0H         LINE#         236
  C:0BDEH         LINE#         237
  C:0BEDH         LINE#         238
  C:0BEDH         LINE#         240
  C:0BF3H         LINE#         244
  C:0C09H         LINE#         245
  C:0C1AH         LINE#         246
  C:0C35H         LINE#         247
  C:0C35H         LINE#         248
  C:0C45H         LINE#         249
  C:0C56H         LINE#         250
  C:0C56H         LINE#         254
  C:0C6FH         LINE#         255
  C:0C86H         LINE#         256
  C:0CA6H         LINE#         257
  C:0CA6H         LINE#         258
  C:0CB0H         LINE#         259
BL51 BANKED LINKER/LOCATER V6.22                                                      07/31/2018  09:50:56  PAGE 23


  C:0CB0H         LINE#         260
  C:0CB9H         LINE#         261
  C:0CB9H         LINE#         262
  C:0CCDH         LINE#         263
  C:0CCDH         LINE#         264
  C:0CCDH         LINE#         265
  C:0CCDH         LINE#         266
  C:0CCDH         LINE#         267
  C:0CCFH         LINE#         269
  C:0CCFH         LINE#         270
  C:0CDBH         LINE#         271
  C:0CDBH         LINE#         272
  C:0CECH         LINE#         273
  C:0CECH         LINE#         274
  C:0CECH         LINE#         275
  C:0CECH         LINE#         276
  C:0CECH         LINE#         278
  C:0CEEH         LINE#         280
  C:0CEEH         LINE#         281
  C:0CFFH         LINE#         282
  C:0CFFH         LINE#         283
  C:0CFFH         LINE#         284
  C:0CFFH         LINE#         285
  C:0CFFH         LINE#         287
  C:0CFFH         LINE#         289
  C:0CFFH         LINE#         290
  C:0D01H         LINE#         292
  C:0D01H         LINE#         293
  C:0D14H         LINE#         294
  C:0D14H         LINE#         295
  C:0D25H         LINE#         296
  C:0D25H         LINE#         297
  C:0D25H         LINE#         298
  C:0D25H         LINE#         299
  C:0D25H         LINE#         300
  C:0D27H         LINE#         302
  C:0D27H         LINE#         303
  C:0D38H         LINE#         304
  C:0D38H         LINE#         305
  C:0D49H         LINE#         306
  C:0D5AH         LINE#         307
  C:0D5AH         LINE#         308
  C:0D5AH         LINE#         309
  C:0D5AH         LINE#         310
  C:0D5AH         LINE#         311
  C:0D5DH         LINE#         312
  C:0D62H         LINE#         313
  C:0D67H         LINE#         314
  C:0D6CH         LINE#         315
  C:0D71H         LINE#         316
  C:0D76H         LINE#         317
  C:0D7BH         LINE#         318
  C:0D80H         LINE#         319
  C:0D80H         LINE#         321
  C:0DA2H         LINE#         322
  C:0DA2H         LINE#         323
  C:0DACH         LINE#         324
BL51 BANKED LINKER/LOCATER V6.22                                                      07/31/2018  09:50:56  PAGE 24


  C:0DACH         LINE#         325
  C:0DB1H         LINE#         326
  C:0DBAH         LINE#         327
  C:0DD1H         LINE#         328
  C:0DD1H         LINE#         329
  C:0DE1H         LINE#         331
  C:0DE1H         LINE#         335
  -------         ENDPROC       KEY_PROCESS
  -------         PROC          KEYPAD_IO_INIT
  C:0003H         LINE#         338
  C:0003H         LINE#         339
  C:0003H         LINE#         340
  C:0006H         LINE#         341
  C:0009H         LINE#         342
  -------         ENDPROC       KEYPAD_IO_INIT
  -------         ENDMOD        KEYPAD

  -------         MODULE        VCNL4035
  C:0000H         SYMBOL        _ICE_DUMMY_
  D:0080H         PUBLIC        P0
  B:00B0H.2       PUBLIC        I2C_SCK
  D:00B2H         PUBLIC        P3M0
  D:0090H         PUBLIC        P1
  D:00B1H         PUBLIC        P3M1
  D:00A0H         PUBLIC        P2
  D:00B0H         PUBLIC        P3
  D:00C0H         PUBLIC        P4
  D:00C8H         PUBLIC        P5
  D:00E8H         PUBLIC        P6
  D:00F8H         PUBLIC        P7
  D:00A8H         PUBLIC        IE
  C:1CF0H         PUBLIC        _DisplayLCD_VCNL4035
  D:00B8H         PUBLIC        IP
  D:00D8H         PUBLIC        CCON
  C:1C4AH         PUBLIC        I2C_Start
  D:0098H         PUBLIC        SCON
  C:1BF6H         PUBLIC        I2C_Init
  D:0088H         PUBLIC        TCON
  C:1C90H         PUBLIC        uC_NACK
  C:1A8BH         PUBLIC        _Wait_ms_i2c
  C:1AF1H         PUBLIC        _I2C_SendByte
  C:1C0DH         PUBLIC        I2C_Stop
  C:1962H         PUBLIC        _Write_VCNL4035X
  C:1D01H         PUBLIC        nop
  C:1592H         PUBLIC        _Read_VCNL4035
  C:1CEAH         PUBLIC        uC_ACK
  C:1BB1H         PUBLIC        I2C_ACK
  C:1B71H         PUBLIC        _Wait_ms_iic
  B:00B0H.1       PUBLIC        I2C_SDA
  D:00D0H         PUBLIC        PSW
  C:1A58H         PUBLIC        I2C_ReceiveByte
  -------         PROC          _WAIT_MS_IIC
  D:0006H         SYMBOL        ms
  -------         DO            
  D:0004H         SYMBOL        De_Cnt
  -------         ENDDO         
  C:1B71H         LINE#         5
BL51 BANKED LINKER/LOCATER V6.22                                                      07/31/2018  09:50:56  PAGE 25


  C:1B71H         LINE#         6
  C:1B71H         LINE#         8
  C:1B7BH         LINE#         9
  C:1B7BH         LINE#         10
  C:1B8EH         LINE#         11
  C:1B8EH         LINE#         12
  -------         ENDPROC       _WAIT_MS_IIC
  C:1A85H         SYMBOL        L?0048
  C:1A87H         SYMBOL        L?0049
  -------         PROC          L?0047
  -------         ENDPROC       L?0047
  C:1A85H         SYMBOL        L?0048
  C:1A87H         SYMBOL        L?0049
  -------         PROC          _WAIT_MS_I2C
  D:0006H         SYMBOL        ms
  -------         DO            
  D:0004H         SYMBOL        De_Cnt
  -------         ENDDO         
  C:1A8BH         LINE#         14
  C:1A8BH         LINE#         15
  C:1A8BH         LINE#         17
  C:1A95H         LINE#         18
  C:1A95H         LINE#         19
  C:1AA8H         LINE#         20
  C:1AA8H         LINE#         21
  -------         ENDPROC       _WAIT_MS_I2C
  -------         PROC          NOP
  C:1D01H         LINE#         22
  C:1D01H         LINE#         23
  C:1D01H         LINE#         25
  -------         ENDPROC       NOP
  -------         PROC          I2C_START
  C:1C4AH         LINE#         26
  C:1C4AH         LINE#         27
  C:1C4AH         LINE#         29
  C:1C4CH         LINE#         30
  C:1C4EH         LINE#         31
  C:1C55H         LINE#         32
  C:1C57H         LINE#         33
  C:1C5AH         LINE#         34
  C:1C5CH         LINE#         37
  -------         ENDPROC       I2C_START
  -------         PROC          I2C_STOP
  C:1C0DH         LINE#         39
  C:1C0DH         LINE#         40
  C:1C0DH         LINE#         41
  C:1C0FH         LINE#         42
  C:1C11H         LINE#         43
  C:1C14H         LINE#         44
  C:1C16H         LINE#         45
  C:1C18H         LINE#         46
  C:1C1FH         LINE#         47
  C:1C21H         LINE#         50
  -------         ENDPROC       I2C_STOP
  -------         PROC          L?0050
  -------         ENDPROC       L?0050
  -------         PROC          I2C_ACK
BL51 BANKED LINKER/LOCATER V6.22                                                      07/31/2018  09:50:56  PAGE 26


  -------         DO            
  X:0097H         SYMBOL        i
  D:0003H         SYMBOL        dat
  -------         ENDDO         
  C:1BB1H         LINE#         52
  C:1BB1H         LINE#         53
  C:1BB1H         LINE#         55
  C:1BB2H         LINE#         60
  C:1BB5H         LINE#         61
  C:1BB7H         LINE#         62
  C:1BBAH         LINE#         64
  C:1BBDH         LINE#         65
  C:1BBDH         LINE#         66
  C:1BC1H         LINE#         67
  C:1BC1H         LINE#         70
  C:1BC1H         LINE#         71
  C:1BC4H         LINE#         72
  C:1BC4H         LINE#         73
  C:1BC6H         LINE#         74
  -------         ENDPROC       I2C_ACK
  -------         PROC          UC_ACK
  -------         DO            
  X:00E4H         SYMBOL        i
  -------         ENDDO         
  C:1CEAH         LINE#         75
  C:1CEAH         LINE#         76
  C:1CEAH         LINE#         78
  C:1CEAH         LINE#         85
  C:1CEAH         LINE#         87
  C:1CEAH         LINE#         89
  C:1CEAH         LINE#         90
  C:1CEAH         LINE#         93
  C:1CEDH         LINE#         94
  C:1CEFH         LINE#         95
  C:1CEFH         LINE#         99
  -------         ENDPROC       UC_ACK
  -------         PROC          UC_NACK
  -------         DO            
  X:00E5H         SYMBOL        i
  -------         ENDDO         
  C:1C90H         LINE#         101
  C:1C90H         LINE#         102
  C:1C90H         LINE#         104
  C:1C90H         LINE#         108
  C:1C92H         LINE#         111
  C:1C92H         LINE#         112
  C:1C94H         LINE#         113
  C:1C94H         LINE#         115
  C:1C94H         LINE#         116
  C:1C94H         LINE#         119
  C:1C97H         LINE#         120
  C:1C99H         LINE#         121
  C:1C9CH         LINE#         122
  C:1C9EH         LINE#         123
  C:1C9EH         LINE#         127
  -------         ENDPROC       UC_NACK
  -------         PROC          I2C_INIT
BL51 BANKED LINKER/LOCATER V6.22                                                      07/31/2018  09:50:56  PAGE 27


  C:1BF6H         LINE#         129
  C:1BF6H         LINE#         130
  C:1BF6H         LINE#         133
  C:1BF9H         LINE#         134
  C:1BFCH         LINE#         139
  C:1C04H         LINE#         141
  -------         ENDPROC       I2C_INIT
  -------         PROC          _I2C_SENDBYTE
  D:0001H         SYMBOL        dat
  -------         DO            
  D:0003H         SYMBOL        i
  -------         ENDDO         
  C:1AF1H         LINE#         145
  C:1AF3H         LINE#         146
  C:1AF3H         LINE#         149
  C:1AF5H         LINE#         150
  C:1AF5H         LINE#         151
  C:1AF7H         LINE#         153
  C:1AFBH         LINE#         154
  C:1AFBH         LINE#         155
  C:1AFDH         LINE#         156
  C:1AFFH         LINE#         158
  C:1AFFH         LINE#         159
  C:1B01H         LINE#         160
  C:1B01H         LINE#         161
  C:1B04H         LINE#         162
  C:1B06H         LINE#         164
  C:1B0AH         LINE#         165
  C:1B0DH         LINE#         166
  C:1B12H         LINE#         167
  -------         ENDPROC       _I2C_SENDBYTE
  -------         PROC          L?0051
  -------         ENDPROC       L?0051
  -------         PROC          I2C_RECEIVEBYTE
  -------         DO            
  D:0003H         SYMBOL        i
  D:0001H         SYMBOL        dat
  -------         ENDDO         
  C:1A58H         LINE#         171
  C:1A58H         LINE#         172
  C:1A58H         LINE#         174
  C:1A5AH         LINE#         178
  C:1A5BH         LINE#         179
  C:1A5BH         LINE#         180
  C:1A5FH         LINE#         181
  C:1A61H         LINE#         182
  C:1A64H         LINE#         184
  C:1A67H         LINE#         185
  C:1A67H         LINE#         186
  C:1A6BH         LINE#         187
  C:1A6BH         LINE#         188
  C:1A6BH         LINE#         189
  C:1A6EH         LINE#         190
  C:1A72H         LINE#         191
  C:1A72H         LINE#         192
  C:1A74H         LINE#         193
  C:1A76H         LINE#         194
BL51 BANKED LINKER/LOCATER V6.22                                                      07/31/2018  09:50:56  PAGE 28


  C:1A76H         LINE#         196
  C:1A7BH         LINE#         197
  C:1A7DH         LINE#         198
  -------         ENDPROC       I2C_RECEIVEBYTE
  -------         PROC          _WRITE_VCNL4035X
  X:0094H         SYMBOL        command_code
  X:0095H         SYMBOL        dat_h
  X:0096H         SYMBOL        dat_l
  C:1962H         LINE#         199
  C:196DH         LINE#         200
  C:196DH         LINE#         201
  C:1970H         LINE#         202
  C:1977H         LINE#         203
  C:1977H         LINE#         204
  C:197DH         LINE#         205
  C:197DH         LINE#         206
  C:1985H         LINE#         207
  C:1985H         LINE#         208
  C:198BH         LINE#         209
  C:1993H         LINE#         211
  C:1999H         LINE#         212
  C:19A1H         LINE#         214
  C:19A7H         LINE#         215
  C:19AAH         LINE#         216
  -------         ENDPROC       _WRITE_VCNL4035X
  -------         PROC          _READ_VCNL4035
  X:00D5H         SYMBOL        command_code
  -------         DO            
  X:00D7H         SYMBOL        temp_dat
  X:00D9H         SYMBOL        temp_dat_l
  X:00DBH         SYMBOL        temp_dat_h
  -------         ENDDO         
  C:1592H         LINE#         218
  C:159AH         LINE#         219
  C:159AH         LINE#         220
  C:15A7H         LINE#         222
  C:15AAH         LINE#         223
  C:15ADH         LINE#         224
  C:15B2H         LINE#         226
  C:15B8H         LINE#         227
  C:15B8H         LINE#         228
  C:15B8H         LINE#         229
  C:15B8H         LINE#         230
  C:15C3H         LINE#         231
  C:15C6H         LINE#         232
  C:15C9H         LINE#         233
  C:15C9H         LINE#         236
  C:15CCH         LINE#         238
  C:15D3H         LINE#         239
  C:15D3H         LINE#         240
  C:15D3H         LINE#         241
  C:15DEH         LINE#         242
  C:15E1H         LINE#         243
  C:15E4H         LINE#         244
  C:15E7H         LINE#         245
  C:15EAH         LINE#         246
  C:15EDH         LINE#         247
BL51 BANKED LINKER/LOCATER V6.22                                                      07/31/2018  09:50:56  PAGE 29


  C:15F0H         LINE#         248
  C:15F3H         LINE#         249
  C:15F6H         LINE#         250
  C:15F6H         LINE#         251
  C:15FCH         LINE#         252
  C:15FCH         LINE#         253
  C:1605H         LINE#         255
  C:1605H         LINE#         256
  C:160BH         LINE#         257
  C:160BH         LINE#         259
  C:160DH         LINE#         260
  C:1613H         LINE#         261
  C:1616H         LINE#         262
  C:161DH         LINE#         263
  C:161DH         LINE#         264
  C:162BH         LINE#         265
  -------         ENDPROC       _READ_VCNL4035
  -------         PROC          _DISPLAYLCD_VCNL4035
  X:00E6H         SYMBOL        dat
  C:1CF0H         LINE#         267
  C:1CF5H         LINE#         268
  C:1CF5H         LINE#         270
  -------         ENDPROC       _DISPLAYLCD_VCNL4035
  -------         ENDMOD        VCNL4035

  -------         MODULE        BIPOLARMOTOR
  C:0000H         SYMBOL        _ICE_DUMMY_
  D:0080H         PUBLIC        P0
  D:0090H         PUBLIC        P1
  D:00A0H         PUBLIC        P2
  D:00B0H         PUBLIC        P3
  D:00C0H         PUBLIC        P4
  D:00C8H         PUBLIC        P5
  D:00E8H         PUBLIC        P6
  D:00F8H         PUBLIC        P7
  D:00A8H         PUBLIC        IE
  X:0000H         PUBLIC        receiver_pos
  X:0044H         PUBLIC        Time_stamp_PM
  C:19EBH         PUBLIC        _Move
  D:00B8H         PUBLIC        IP
  X:0077H         PUBLIC        num_of_time_stamp
  D:00D8H         PUBLIC        CCON
  D:0098H         PUBLIC        SCON
  D:0088H         PUBLIC        TCON
  C:18B5H         PUBLIC        _Step_move
  C:0634H         PUBLIC        _Update_position
  C:1AE0H         PUBLIC        _BCDtoDec1
  X:0078H         PUBLIC        degree
  D:00D0H         PUBLIC        PSW
  C:1ACDH         SYMBOL        L?0050
  -------         PROC          L?0049
  -------         ENDPROC       L?0049
  C:1ACDH         SYMBOL        L?0050
  -------         PROC          _BCDTODEC1
  D:0007H         SYMBOL        bcd
  -------         DO            
  D:0006H         SYMBOL        hi
BL51 BANKED LINKER/LOCATER V6.22                                                      07/31/2018  09:50:56  PAGE 30


  D:0007H         SYMBOL        lo
  -------         ENDDO         
  C:1AE0H         LINE#         11
  C:1AE0H         LINE#         12
  C:1AE0H         LINE#         14
  C:1AE5H         LINE#         15
  C:1AE9H         LINE#         16
  C:1AF0H         LINE#         17
  -------         ENDPROC       _BCDTODEC1
  -------         PROC          _STEP_MOVE
  X:00ACH         SYMBOL        step
  B:0020H.5       SYMBOL        dir
  -------         DO            
  X:00AEH         SYMBOL        i
  -------         ENDDO         
  C:18B5H         LINE#         23
  C:18BDH         LINE#         24
  C:18BDH         LINE#         25
  C:18C2H         LINE#         26
  C:18C5H         LINE#         27
  C:18CAH         LINE#         29
  C:18CDH         LINE#         31
  C:18E9H         LINE#         32
  C:18E9H         LINE#         33
  C:18ECH         LINE#         34
  C:18F3H         LINE#         35
  C:18F6H         LINE#         36
  C:18FDH         LINE#         37
  C:190DH         LINE#         38
  -------         ENDPROC       _STEP_MOVE
  -------         PROC          _MOVE
  X:00A8H         SYMBOL        distance
  B:0020H.4       SYMBOL        direction
  -------         DO            
  D:0006H         SYMBOL        step
  -------         ENDDO         
  C:19EBH         LINE#         40
  C:19F1H         LINE#         41
  C:19F1H         LINE#         43
  C:1A18H         LINE#         44
  -------         ENDPROC       _MOVE
  -------         PROC          _UPDATE_POSITION
  X:0094H         SYMBOL        mnths
  X:0095H         SYMBOL        dys
  X:0096H         SYMBOL        hurs
  X:0097H         SYMBOL        mns
  X:0098H         SYMBOL        sconds
  X:0099H         SYMBOL        currnt_pos
  -------         DO            
  X:009CH         SYMBOL        date
  X:009EH         SYMBOL        i
  X:00A0H         SYMBOL        desired_distance
  X:00A4H         SYMBOL        distance
  -------         ENDDO         
  C:0634H         LINE#         50
  C:063FH         LINE#         51
  C:063FH         LINE#         53
BL51 BANKED LINKER/LOCATER V6.22                                                      07/31/2018  09:50:56  PAGE 31


  C:0649H         LINE#         57
  C:065DH         LINE#         58
  C:0670H         LINE#         60
  C:068EH         LINE#         61
  C:068EH         LINE#         62
  C:0709H         LINE#         63
  C:0709H         LINE#         64
  C:072CH         LINE#         65
  C:072CH         LINE#         66
  C:072CH         LINE#         67
  C:073EH         LINE#         68
  C:0740H         LINE#         69
  C:0740H         LINE#         70
  C:0756H         LINE#         71
  C:0758H         LINE#         72
  C:0758H         LINE#         73
  C:076EH         LINE#         74
  C:0770H         LINE#         75
  C:0770H         LINE#         76
  C:0786H         LINE#         77
  C:0788H         LINE#         78
  C:0788H         LINE#         79
  C:07B2H         LINE#         80
  C:07B2H         LINE#         81
  C:07B2H         LINE#         82
  C:07B2H         LINE#         83
  C:07B2H         LINE#         87
  C:07D7H         LINE#         88
  C:07F3H         LINE#         89
  C:080DH         LINE#         90
  C:080DH         LINE#         91
  C:080DH         LINE#         92
  C:0810H         LINE#         93
  C:082BH         LINE#         94
  C:082BH         LINE#         95
  C:082BH         LINE#         96
  C:082EH         LINE#         98
  C:082EH         LINE#         99
  C:082EH         LINE#         101
  C:082EH         LINE#         102
  C:082EH         LINE#         103
  C:090EH         LINE#         104
  C:090EH         LINE#         105
  C:0924H         LINE#         106
  C:0924H         LINE#         107
  C:0924H         LINE#         108
  C:0ABCH         LINE#         112
  C:0ABCH         LINE#         113
  C:0AE1H         LINE#         114
  C:0AFDH         LINE#         115
  C:0B17H         LINE#         116
  C:0B17H         LINE#         117
  C:0B27H         LINE#         118
  C:0B29H         LINE#         119
  C:0B41H         LINE#         120
  C:0B41H         LINE#         121
  C:0B57H         LINE#         122
BL51 BANKED LINKER/LOCATER V6.22                                                      07/31/2018  09:50:56  PAGE 32


  C:0B57H         LINE#         124
  C:0B57H         LINE#         125
  C:0B57H         LINE#         127
  C:0B57H         LINE#         129
  C:0B57H         LINE#         131
  C:0B68H         LINE#         132
  -------         ENDPROC       _UPDATE_POSITION
  -------         ENDMOD        BIPOLARMOTOR

  -------         MODULE        ?C_STARTUP
  C:16C1H         SEGMENT       ?C_C51STARTUP
  I:0021H         SEGMENT       ?STACK
  C:0000H         PUBLIC        ?C_STARTUP
  D:00E0H         SYMBOL        ACC
  D:00F0H         SYMBOL        B
  D:0083H         SYMBOL        DPH
  D:0082H         SYMBOL        DPL
  N:0000H         SYMBOL        IBPSTACK
  N:0100H         SYMBOL        IBPSTACKTOP
  N:0080H         SYMBOL        IDATALEN
  C:16C4H         SYMBOL        IDATALOOP
  N:0000H         SYMBOL        PBPSTACK
  N:0100H         SYMBOL        PBPSTACKTOP
  N:0000H         SYMBOL        PDATALEN
  N:0000H         SYMBOL        PDATASTART
  N:0000H         SYMBOL        PPAGE
  N:0000H         SYMBOL        PPAGEENABLE
  D:00A0H         SYMBOL        PPAGE_SFR
  D:0081H         SYMBOL        SP
  C:16C1H         SYMBOL        STARTUP1
  N:0000H         SYMBOL        XBPSTACK
  N:0000H         SYMBOL        XBPSTACKTOP
  N:0000H         SYMBOL        XDATALEN
  N:0000H         SYMBOL        XDATASTART
  C:0000H         LINE#         126
  C:16C1H         LINE#         133
  C:16C3H         LINE#         134
  C:16C4H         LINE#         135
  C:16C5H         LINE#         136
  C:16C7H         LINE#         185
  C:16CAH         LINE#         196
  -------         ENDMOD        ?C_STARTUP

  -------         MODULE        ?C?FPADD
  C:002DH         PUBLIC        ?C?FPADD
  C:0029H         PUBLIC        ?C?FPSUB
  -------         ENDMOD        ?C?FPADD

  -------         MODULE        ?C?FPMUL
  C:011EH         PUBLIC        ?C?FPMUL
  -------         ENDMOD        ?C?FPMUL

  -------         MODULE        ?C?FPDIV
  C:0227H         PUBLIC        ?C?FPDIV
  -------         ENDMOD        ?C?FPDIV

  -------         MODULE        ?C?FPCMP
BL51 BANKED LINKER/LOCATER V6.22                                                      07/31/2018  09:50:56  PAGE 33


  C:02C6H         PUBLIC        ?C?FPCMP
  C:02C4H         PUBLIC        ?C?FPCMP3
  -------         ENDMOD        ?C?FPCMP

  -------         MODULE        ?C?FPNEG
  C:033DH         PUBLIC        ?C?FPNEG
  -------         ENDMOD        ?C?FPNEG

  -------         MODULE        ?C?FCAST
  C:0358H         PUBLIC        ?C?FCASTC
  C:0353H         PUBLIC        ?C?FCASTI
  C:034EH         PUBLIC        ?C?FCASTL
  -------         ENDMOD        ?C?FCAST

  -------         MODULE        ?C?CASTF
  C:038CH         PUBLIC        ?C?CASTF
  -------         ENDMOD        ?C?CASTF

  -------         MODULE        ?C?CLDPTR
  C:040DH         PUBLIC        ?C?CLDPTR
  -------         ENDMOD        ?C?CLDPTR

  -------         MODULE        ?C?CSTPTR
  C:0426H         PUBLIC        ?C?CSTPTR
  -------         ENDMOD        ?C?CSTPTR

  -------         MODULE        ?C?IMUL
  C:0438H         PUBLIC        ?C?IMUL
  -------         ENDMOD        ?C?IMUL

  -------         MODULE        ?C?UIDIV
  C:044AH         PUBLIC        ?C?UIDIV
  -------         ENDMOD        ?C?UIDIV

  -------         MODULE        ?C?SIDIV
  C:049FH         PUBLIC        ?C?SIDIV
  -------         ENDMOD        ?C?SIDIV

  -------         MODULE        ?C?ILDIX
  C:04D5H         PUBLIC        ?C?ILDIX
  -------         ENDMOD        ?C?ILDIX

  -------         MODULE        ?C?LNEG
  C:04EBH         PUBLIC        ?C?LNEG
  -------         ENDMOD        ?C?LNEG

  -------         MODULE        ?C?LLDPTR
  C:04F9H         PUBLIC        ?C?LLDPTR
  -------         ENDMOD        ?C?LLDPTR

  -------         MODULE        ?C?LSTPTR
  C:0519H         PUBLIC        ?C?LSTPTR
  -------         ENDMOD        ?C?LSTPTR

  -------         MODULE        ?C?LLDPTR0
  C:0533H         PUBLIC        ?C?LLDPTR0
  -------         ENDMOD        ?C?LLDPTR0
BL51 BANKED LINKER/LOCATER V6.22                                                      07/31/2018  09:50:56  PAGE 34



  -------         MODULE        ?C?LSTXDATA
  C:0553H         PUBLIC        ?C?LSTXDATA
  -------         ENDMOD        ?C?LSTXDATA

  -------         MODULE        ?C?LSTKXDATA
  C:055FH         PUBLIC        ?C?LSTKXDATA
  -------         ENDMOD        ?C?LSTKXDATA

  -------         MODULE        ?C?OFFXADD
  C:0590H         PUBLIC        ?C?OFFXADD
  -------         ENDMOD        ?C?OFFXADD

  -------         MODULE        ABS
  C:1CBBH         PUBLIC        _ABS
  -------         ENDMOD        ABS

  -------         MODULE        ATOI
  C:1357H         PUBLIC        _atoi
  -------         ENDMOD        ATOI

  -------         MODULE        ?C?IILDX
  C:059CH         PUBLIC        ?C?IILDX
  -------         ENDMOD        ?C?IILDX

  -------         MODULE        ?C?LLDIDATA
  C:05B2H         PUBLIC        ?C?LLDIDATA
  -------         ENDMOD        ?C?LLDIDATA

  -------         MODULE        ?C?LLDXDATA
  C:05BEH         PUBLIC        ?C?LLDXDATA
  -------         ENDMOD        ?C?LLDXDATA

  -------         MODULE        ?C?LLDPDATA
  C:05CAH         PUBLIC        ?C?LLDPDATA
  -------         ENDMOD        ?C?LLDPDATA

  -------         MODULE        ?C?LLDCODE
  C:05D6H         PUBLIC        ?C?LLDCODE
  -------         ENDMOD        ?C?LLDCODE

  -------         MODULE        ?C?LLDIDATA0
  C:05E6H         PUBLIC        ?C?LLDIDATA0
  -------         ENDMOD        ?C?LLDIDATA0

  -------         MODULE        ?C?LLDXDATA0
  C:05F3H         PUBLIC        ?C?LLDXDATA0
  -------         ENDMOD        ?C?LLDXDATA0

  -------         MODULE        ?C?LLDPDATA0
  C:05FFH         PUBLIC        ?C?LLDPDATA0
  -------         ENDMOD        ?C?LLDPDATA0

  -------         MODULE        ?C?LLDCODE0
  C:060CH         PUBLIC        ?C?LLDCODE0
  -------         ENDMOD        ?C?LLDCODE0

BL51 BANKED LINKER/LOCATER V6.22                                                      07/31/2018  09:50:56  PAGE 35


  -------         MODULE        ?C?LSTIDATA
  C:061CH         PUBLIC        ?C?LSTIDATA
  -------         ENDMOD        ?C?LSTIDATA

  -------         MODULE        ?C?LSTPDATA
  C:0628H         PUBLIC        ?C?LSTPDATA
  -------         ENDMOD        ?C?LSTPDATA

  -------         MODULE        ISDIGIT
  C:1C9FH         PUBLIC        _isdigit
  -------         ENDMOD        ISDIGIT

  -------         MODULE        ISSPACE
  C:1C36H         PUBLIC        _isspace
  -------         ENDMOD        ISSPACE

*** WARNING L16: UNCALLED SEGMENT, IGNORED FOR OVERLAY PROCESS
    SEGMENT: ?PR?_DISPLAY_PROX?MAIN

*** WARNING L16: UNCALLED SEGMENT, IGNORED FOR OVERLAY PROCESS
    SEGMENT: ?PR?_SENDSTRING?UART1

*** WARNING L16: UNCALLED SEGMENT, IGNORED FOR OVERLAY PROCESS
    SEGMENT: ?PR?_TEN?UART1

*** WARNING L16: UNCALLED SEGMENT, IGNORED FOR OVERLAY PROCESS
    SEGMENT: ?PR?_UNIT?UART1

*** WARNING L16: UNCALLED SEGMENT, IGNORED FOR OVERLAY PROCESS
    SEGMENT: ?PR?_DECTOBCD?UART1

*** WARNING L16: UNCALLED SEGMENT, IGNORED FOR OVERLAY PROCESS
    SEGMENT: ?PR?_ASCII_LETTER?UART1

*** WARNING L16: UNCALLED SEGMENT, IGNORED FOR OVERLAY PROCESS
    SEGMENT: ?PR?NOP?VCNL4035

*** WARNING L16: UNCALLED SEGMENT, IGNORED FOR OVERLAY PROCESS
    SEGMENT: ?PR?_READ_VCNL4035?VCNL4035

*** WARNING L16: UNCALLED SEGMENT, IGNORED FOR OVERLAY PROCESS
    SEGMENT: ?PR?_DISPLAYLCD_VCNL4035?VCNL4035

Program Size: data=17.7 xdata=231 code=7426
LINK/LOCATE RUN COMPLETE.  9 WARNING(S),  0 ERROR(S)
