BL51 BANKED LINKER/LOCATER V6.22                                                        07/17/2018  16:04:06  PAGE 1


BL51 BANKED LINKER/LOCATER V6.22, INVOKED BY:
C:\KEIL_V5\C51\BIN\BL51.EXE .\Obj\main.obj, .\Obj\PCF85063BTL.obj, .\Obj\UART1.obj, .\Obj\LCd_Driver_SPLC780D.obj, .\Obj
>> \KeyPad.obj, .\Obj\VCNL4035.obj, .\Obj\BipolarMotor.obj, .\Obj\STARTUP.obj TO .\Obj\GPIO_RTC_Test PRINT (.\Lis\GPIO_R
>> TC_Test.m51) RAMSIZE (256)


MEMORY MODEL: LARGE WITH FLOATING POINT ARITHMETIC


INPUT MODULES INCLUDED:
  .\Obj\main.obj (MAIN)
  .\Obj\PCF85063BTL.obj (PCF85063BTL)
  .\Obj\UART1.obj (UART1)
  .\Obj\LCd_Driver_SPLC780D.obj (LCD_DRIVER_SPLC780D)
  .\Obj\KeyPad.obj (KEYPAD)
  .\Obj\VCNL4035.obj (VCNL4035)
  .\Obj\BipolarMotor.obj (BIPOLARMOTOR)
  .\Obj\STARTUP.obj (?C_STARTUP)
  C:\KEIL_V5\C51\LIB\C51FPL.LIB (?C?FPMUL)
  C:\KEIL_V5\C51\LIB\C51FPL.LIB (?C?FPDIV)
  C:\KEIL_V5\C51\LIB\C51FPL.LIB (?C?FCAST)
  C:\KEIL_V5\C51\LIB\C51FPL.LIB (?C?CASTF)
  C:\KEIL_V5\C51\LIB\C51FPL.LIB (?C?FPGETOPN)
  C:\KEIL_V5\C51\LIB\C51L.LIB (?C_INIT)
  C:\KEIL_V5\C51\LIB\C51L.LIB (?C?CLDPTR)
  C:\KEIL_V5\C51\LIB\C51L.LIB (?C?CSTPTR)
  C:\KEIL_V5\C51\LIB\C51L.LIB (?C?IMUL)
  C:\KEIL_V5\C51\LIB\C51L.LIB (?C?UIDIV)
  C:\KEIL_V5\C51\LIB\C51L.LIB (?C?SIDIV)
  C:\KEIL_V5\C51\LIB\C51L.LIB (?C?ILDIX)
  C:\KEIL_V5\C51\LIB\C51L.LIB (?C?ILDPTR)
  C:\KEIL_V5\C51\LIB\C51L.LIB (?C?ISTPTR)
  C:\KEIL_V5\C51\LIB\C51L.LIB (?C?LNEG)
  C:\KEIL_V5\C51\LIB\C51L.LIB (?C?LSTXDATA)
  C:\KEIL_V5\C51\LIB\C51L.LIB (?C?OFFXADD)
  C:\KEIL_V5\C51\LIB\C51L.LIB (ABS)
  C:\KEIL_V5\C51\LIB\C51L.LIB (ATOI)
  C:\KEIL_V5\C51\LIB\C51L.LIB (?C?IILDX)
  C:\KEIL_V5\C51\LIB\C51L.LIB (ISDIGIT)
  C:\KEIL_V5\C51\LIB\C51L.LIB (ISSPACE)


LINK MAP OF MODULE:  .\Obj\GPIO_RTC_Test (MAIN)


            TYPE    BASE      LENGTH    RELOCATION   SEGMENT NAME
            -----------------------------------------------------

            * * * * * * *   D A T A   M E M O R Y   * * * * * * *
            REG     0000H     0008H     ABSOLUTE     "REG BANK 0"
            REG     0008H     0008H     ABSOLUTE     "REG BANK 1"
                    0010H     0010H                  *** GAP ***
            BIT     0020H.0   0000H.3   UNIT         _BIT_GROUP_
            BIT     0020H.3   0000H.2   UNIT         ?BI?KEYPAD
            BIT     0020H.5   0000H.1   UNIT         ?BI?MAIN
                    0020H.6   0000H.2                *** GAP ***
            IDATA   0021H     0001H     UNIT         ?STACK

BL51 BANKED LINKER/LOCATER V6.22                                                      07/17/2018  16:04:06  PAGE 2


            * * * * * * *  X D A T A   M E M O R Y  * * * * * * *
            XDATA   0000H     0267H     UNIT         ?XD?BIPOLARMOTOR
            XDATA   0267H     002DH     UNIT         _XDATA_GROUP_
            XDATA   0294H     001CH     UNIT         ?XD?MAIN
            XDATA   02B0H     0009H     UNIT         ?XD?KEYPAD
            XDATA   02B9H     0003H     UNIT         ?XD?_SENDSTRING?UART1
            XDATA   02BCH     0001H     UNIT         ?XD?_DISPLAYLCD_VCNL4035?VCNL4035

            * * * * * * *   C O D E   M E M O R Y   * * * * * * *
            CODE    0000H     0003H     ABSOLUTE     
            CODE    0003H     0007H     UNIT         ?PR?KEYPAD_IO_INIT?KEYPAD
            CODE    000AH     0001H     UNIT         ?PR?TM0_ISR?MAIN
            CODE    000BH     0003H     ABSOLUTE     
            CODE    000EH     0015H     UNIT         ?PR?_DISPLAY_LINE?LCD_DRIVER_SPLC780D
            CODE    0023H     0003H     ABSOLUTE     
            CODE    0026H     03C9H     UNIT         ?C?LIB_CODE
            CODE    03EFH     02ABH     UNIT         ?C_INITSEG
            CODE    069AH     0272H     UNIT         ?PR?KEY_PROCESS?KEYPAD
            CODE    090CH     01E0H     UNIT         ?PR?MAIN?MAIN
            CODE    0AECH     0194H     UNIT         ?PR?KEY_SCAN?KEYPAD
            CODE    0C80H     016EH     UNIT         ?PR?_UPDATE_POSITION?BIPOLARMOTOR
            CODE    0DEEH     00DBH     UNIT         ?PR?_ATOI?ATOI
            CODE    0EC9H     00DAH     UNIT         ?PR?_DISPLAY_POS?MAIN
            CODE    0FA3H     009BH     UNIT         ?PR?UART?MAIN
            CODE    103EH     009AH     UNIT         ?PR?_READ_VCNL4035?VCNL4035
            CODE    10D8H     0095H     UNIT         ?PR?_DISPLAY_PROX?MAIN
            CODE    116DH     008CH     UNIT         ?C_C51STARTUP
            CODE    11F9H     0084H     UNIT         ?PR?_DAY_OF_YEAR?PCF85063BTL
            CODE    127DH     0075H     UNIT         ?PR?_WRITEDATA?LCD_DRIVER_SPLC780D
            CODE    12F2H     006FH     UNIT         ?PR?_READ_TIME?PCF85063BTL
            CODE    1361H     0059H     UNIT         ?PR?_STEP_MOVE?BIPOLARMOTOR
            CODE    13BAH     0054H     UNIT         ?PR?LCD_INIT?LCD_DRIVER_SPLC780D
            CODE    140EH     0049H     UNIT         ?PR?_WRITE_VCNL4035X?VCNL4035
            CODE    1457H     0040H     UNIT         ?PR?_COMMAND?LCD_DRIVER_SPLC780D
            CODE    1497H     0034H     UNIT         ?PR?_MOVE?BIPOLARMOTOR
            CODE    14CBH     0033H     UNIT         ?PR?_SENDSTRING?UART1
            CODE    14FEH     002CH     UNIT         ?PR?I2C_RECEIVEBYTE?VCNL4035
            CODE    152AH     002BH     UNIT         ?PR?_WAIT_MS_I2C?VCNL4035
            CODE    1555H     0024H     UNIT         ?PR?_WAIT_MS?LCD_DRIVER_SPLC780D
            CODE    1579H     0022H     UNIT         ?PR?_I2C_SENDBYTE?VCNL4035
            CODE    159BH     0020H     UNIT         ?PR?_SPI_SENDBYTE?PCF85063BTL
            CODE    15BBH     0020H     UNIT         ?PR?SPI_RECEIVEBYTE?PCF85063BTL
            CODE    15DBH     001EH     UNIT         ?PR?_DELAY_MS?KEYPAD
            CODE    15F9H     001EH     UNIT         ?PR?_WAIT_MS_IIC?VCNL4035
            CODE    1617H     001DH     UNIT         ?PR?_DISPLAYLCD?LCD_DRIVER_SPLC780D
            CODE    1634H     001BH     UNIT         ?PR?I2C_ACK?VCNL4035
            CODE    164FH     0018H     UNIT         ?PR?_SPI_WRITETIME?PCF85063BTL
            CODE    1667H     0017H     UNIT         ?PR?_ASCIITOBCD?UART1
            CODE    167EH     0017H     UNIT         ?PR?I2C_INIT?VCNL4035
            CODE    1695H     0015H     UNIT         ?PR?I2C_STOP?VCNL4035
            CODE    16AAH     0014H     UNIT         ?PR?_PCF85063BTL_DELAY?PCF85063BTL
            CODE    16BEH     0014H     UNIT         ?PR?_ISSPACE?ISSPACE
            CODE    16D2H     0013H     UNIT         ?PR?I2C_START?VCNL4035
            CODE    16E5H     0011H     UNIT         ?PR?_SPI_READTIME?PCF85063BTL
            CODE    16F6H     0011H     UNIT         ?PR?_BCDTODEC?PCF85063BTL
            CODE    1707H     0011H     UNIT         ?PR?INITUART1?UART1
            CODE    1718H     0011H     UNIT         ?PR?_BCDTODEC1?BIPOLARMOTOR
BL51 BANKED LINKER/LOCATER V6.22                                                      07/17/2018  16:04:06  PAGE 3


            CODE    1729H     000FH     UNIT         ?PR?UC_NACK?VCNL4035
            CODE    1738H     000FH     UNIT         ?PR?_ISDIGIT?ISDIGIT
            CODE    1747H     000DH     UNIT         ?PR?SPI_INIT?PCF85063BTL
            CODE    1754H     000CH     UNIT         ?PR?_ABS?ABS
            CODE    1760H     000AH     UNIT         ?PR?LCD_RETURN_HOME?LCD_DRIVER_SPLC780D
            CODE    176AH     000AH     UNIT         ?PR?LCD_CLEAR?LCD_DRIVER_SPLC780D
            CODE    1774H     0009H     UNIT         ?PR?_SENDUART1?MAIN
            CODE    177DH     0006H     UNIT         ?PR?_TEN?UART1
            CODE    1783H     0006H     UNIT         ?PR?UC_ACK?VCNL4035
            CODE    1789H     0006H     UNIT         ?PR?_DISPLAYLCD_VCNL4035?VCNL4035
            CODE    178FH     0005H     UNIT         ?PR?_UNIT?UART1
            CODE    1794H     0005H     UNIT         ?PR?_ASCII_LETTER?UART1
            CODE    1799H     0001H     UNIT         ?PR?_DECTOBCD?UART1
            CODE    179AH     0001H     UNIT         ?PR?NOP?VCNL4035



OVERLAY MAP OF MODULE:   .\Obj\GPIO_RTC_Test (MAIN)


SEGMENT                                            BIT_GROUP          XDATA_GROUP
  +--> CALLED SEGMENT                           START    LENGTH     START    LENGTH
-----------------------------------------------------------------------------------
?PR?UART?MAIN                                   -----    -----      -----    -----
  +--> ?PR?_ASCIITOBCD?UART1

?PR?_ASCIITOBCD?UART1                           -----    -----      -----    -----
  +--> ?PR?_ATOI?ATOI

?PR?_ATOI?ATOI                                  0020H.0  0000H.1    0267H    0005H
  +--> ?PR?_ISSPACE?ISSPACE
  +--> ?PR?_ISDIGIT?ISDIGIT

*** NEW ROOT ***************************************************

?C_C51STARTUP                                   -----    -----      -----    -----
  +--> ?PR?MAIN?MAIN
  +--> ?C_INITSEG

?PR?MAIN?MAIN                                   -----    -----      026CH    0010H
  +--> ?PR?LCD_INIT?LCD_DRIVER_SPLC780D
  +--> ?PR?SPI_INIT?PCF85063BTL
  +--> ?PR?KEYPAD_IO_INIT?KEYPAD
  +--> ?PR?INITUART1?UART1
  +--> ?PR?I2C_INIT?VCNL4035
  +--> ?PR?_SPI_WRITETIME?PCF85063BTL
  +--> ?PR?_DELAY_MS?KEYPAD
  +--> ?PR?_DISPLAY_LINE?LCD_DRIVER_SPLC780D
  +--> ?PR?_WRITEDATA?LCD_DRIVER_SPLC780D
  +--> ?PR?KEY_PROCESS?KEYPAD
  +--> ?PR?_COMMAND?LCD_DRIVER_SPLC780D
  +--> ?PR?_DISPLAY_POS?MAIN
  +--> ?PR?_DISPLAYLCD?LCD_DRIVER_SPLC780D
  +--> ?PR?_READ_VCNL4035?VCNL4035
  +--> ?PR?_DISPLAY_PROX?MAIN
  +--> ?PR?_STEP_MOVE?BIPOLARMOTOR
  +--> ?PR?LCD_RETURN_HOME?LCD_DRIVER_SPLC780D
BL51 BANKED LINKER/LOCATER V6.22                                                      07/17/2018  16:04:06  PAGE 4


  +--> ?PR?_READ_TIME?PCF85063BTL
  +--> ?PR?_UPDATE_POSITION?BIPOLARMOTOR
  +--> ?PR?_SENDUART1?MAIN

?PR?LCD_INIT?LCD_DRIVER_SPLC780D                -----    -----      -----    -----
  +--> ?PR?_WAIT_MS?LCD_DRIVER_SPLC780D
  +--> ?PR?_COMMAND?LCD_DRIVER_SPLC780D

?PR?_COMMAND?LCD_DRIVER_SPLC780D                -----    -----      -----    -----
  +--> ?PR?_WAIT_MS?LCD_DRIVER_SPLC780D

?PR?I2C_INIT?VCNL4035                           -----    -----      -----    -----
  +--> ?PR?_WRITE_VCNL4035X?VCNL4035

?PR?_WRITE_VCNL4035X?VCNL4035                   -----    -----      027CH    0003H
  +--> ?PR?I2C_START?VCNL4035
  +--> ?PR?_WAIT_MS_I2C?VCNL4035
  +--> ?PR?I2C_ACK?VCNL4035
  +--> ?PR?_I2C_SENDBYTE?VCNL4035
  +--> ?PR?I2C_STOP?VCNL4035

?PR?I2C_START?VCNL4035                          -----    -----      -----    -----
  +--> ?PR?_WAIT_MS_IIC?VCNL4035
  +--> ?PR?_WAIT_MS_I2C?VCNL4035

?PR?I2C_ACK?VCNL4035                            -----    -----      0284H    0001H
  +--> ?PR?_I2C_SENDBYTE?VCNL4035
  +--> ?PR?_WAIT_MS_I2C?VCNL4035

?PR?_I2C_SENDBYTE?VCNL4035                      -----    -----      -----    -----
  +--> ?PR?_WAIT_MS_I2C?VCNL4035

?PR?I2C_STOP?VCNL4035                           -----    -----      -----    -----
  +--> ?PR?_WAIT_MS_I2C?VCNL4035

?PR?_SPI_WRITETIME?PCF85063BTL                  -----    -----      -----    -----
  +--> ?PR?_SPI_SENDBYTE?PCF85063BTL

?PR?_SPI_SENDBYTE?PCF85063BTL                   -----    -----      -----    -----
  +--> ?PR?_PCF85063BTL_DELAY?PCF85063BTL

?PR?_DISPLAY_LINE?LCD_DRIVER_SPLC780D           -----    -----      -----    -----
  +--> ?PR?_COMMAND?LCD_DRIVER_SPLC780D

?PR?_WRITEDATA?LCD_DRIVER_SPLC780D              -----    -----      0282H    0001H
  +--> ?PR?_WAIT_MS?LCD_DRIVER_SPLC780D

?PR?KEY_PROCESS?KEYPAD                          -----    -----      027CH    0006H
  +--> ?PR?KEY_SCAN?KEYPAD
  +--> ?PR?_SPI_WRITETIME?PCF85063BTL
  +--> ?PR?LCD_CLEAR?LCD_DRIVER_SPLC780D
  +--> ?PR?_COMMAND?LCD_DRIVER_SPLC780D
  +--> ?PR?_WRITEDATA?LCD_DRIVER_SPLC780D

?PR?KEY_SCAN?KEYPAD                             -----    -----      0282H    0003H
  +--> ?PR?_DELAY_MS?KEYPAD

BL51 BANKED LINKER/LOCATER V6.22                                                      07/17/2018  16:04:06  PAGE 5


?PR?LCD_CLEAR?LCD_DRIVER_SPLC780D               -----    -----      -----    -----
  +--> ?PR?_COMMAND?LCD_DRIVER_SPLC780D

?PR?_DISPLAY_POS?MAIN                           -----    -----      027CH    0006H
  +--> ?PR?_ABS?ABS
  +--> ?PR?_WRITEDATA?LCD_DRIVER_SPLC780D

?PR?_DISPLAYLCD?LCD_DRIVER_SPLC780D             -----    -----      027CH    0001H
  +--> ?PR?_WRITEDATA?LCD_DRIVER_SPLC780D

?PR?_READ_VCNL4035?VCNL4035                     -----    -----      027CH    0008H
  +--> ?PR?I2C_START?VCNL4035
  +--> ?PR?_WAIT_MS_I2C?VCNL4035
  +--> ?PR?_I2C_SENDBYTE?VCNL4035
  +--> ?PR?I2C_ACK?VCNL4035
  +--> ?PR?I2C_RECEIVEBYTE?VCNL4035
  +--> ?PR?UC_ACK?VCNL4035
  +--> ?PR?UC_NACK?VCNL4035
  +--> ?PR?I2C_STOP?VCNL4035
  +--> ?PR?_WAIT_MS_IIC?VCNL4035

?PR?I2C_RECEIVEBYTE?VCNL4035                    -----    -----      -----    -----
  +--> ?PR?_WAIT_MS_I2C?VCNL4035

?PR?UC_ACK?VCNL4035                             -----    -----      0284H    0001H
  +--> ?PR?_WAIT_MS_I2C?VCNL4035

?PR?UC_NACK?VCNL4035                            -----    -----      0284H    0001H
  +--> ?PR?_WAIT_MS_I2C?VCNL4035

?PR?_DISPLAY_PROX?MAIN                          -----    -----      027CH    0004H
  +--> ?PR?_WRITEDATA?LCD_DRIVER_SPLC780D

?PR?_STEP_MOVE?BIPOLARMOTOR                     0020H.2  0000H.1    0290H    0004H
  +--> ?PR?_WAIT_MS?LCD_DRIVER_SPLC780D

?PR?LCD_RETURN_HOME?LCD_DRIVER_SPLC780D         -----    -----      -----    -----
  +--> ?PR?_COMMAND?LCD_DRIVER_SPLC780D

?PR?_READ_TIME?PCF85063BTL                      -----    -----      027CH    000FH
  +--> ?PR?_SPI_READTIME?PCF85063BTL

?PR?_SPI_READTIME?PCF85063BTL                   -----    -----      -----    -----
  +--> ?PR?_SPI_SENDBYTE?PCF85063BTL
  +--> ?PR?SPI_RECEIVEBYTE?PCF85063BTL

?PR?SPI_RECEIVEBYTE?PCF85063BTL                 -----    -----      -----    -----
  +--> ?PR?_PCF85063BTL_DELAY?PCF85063BTL

?PR?_UPDATE_POSITION?BIPOLARMOTOR               -----    -----      027CH    0010H
  +--> ?PR?_DAY_OF_YEAR?PCF85063BTL
  +--> ?PR?_BCDTODEC1?BIPOLARMOTOR
  +--> ?PR?_ABS?ABS
  +--> ?PR?_MOVE?BIPOLARMOTOR

?PR?_DAY_OF_YEAR?PCF85063BTL                    -----    -----      -----    -----
  +--> ?PR?_BCDTODEC?PCF85063BTL
BL51 BANKED LINKER/LOCATER V6.22                                                      07/17/2018  16:04:06  PAGE 6



?PR?_MOVE?BIPOLARMOTOR                          0020H.1  0000H.1    028CH    0004H
  +--> ?PR?_STEP_MOVE?BIPOLARMOTOR



SYMBOL TABLE OF MODULE:  .\Obj\GPIO_RTC_Test (MAIN)

  VALUE           TYPE          NAME
  ----------------------------------

  -------         MODULE        MAIN
  C:0000H         SYMBOL        _ICE_DUMMY_
  D:0080H         PUBLIC        P0
  D:0090H         PUBLIC        P1
  D:00A0H         PUBLIC        P2
  D:00B0H         PUBLIC        P3
  D:00C0H         PUBLIC        P4
  D:00C8H         PUBLIC        P5
  X:029CH         SYMBOL        PressedKey
  B:00A8H.7       PUBLIC        EA
  D:00E8H         PUBLIC        P6
  D:00F8H         PUBLIC        P7
  X:02A0H         PUBLIC        RX_Data_Uart_Cnt
  D:00A8H         PUBLIC        IE
  D:00B8H         PUBLIC        IP
  B:0098H.0       PUBLIC        RI
  B:0098H.1       PUBLIC        TI
  C:0FA3H         PUBLIC        Uart
  D:00D8H         PUBLIC        CCON
  C:090CH         PUBLIC        main
  D:0099H         PUBLIC        SBUF
  D:0098H         PUBLIC        SCON
  D:0089H         PUBLIC        TMOD
  D:0088H         PUBLIC        TCON
  X:02A2H         SYMBOL        KeyCount
  X:02A4H         PUBLIC        Rec_data_hour
  X:02A7H         PUBLIC        Rec_data_min
  D:008EH         PUBLIC        AUXR
  C:000AH         PUBLIC        tm0_isr
  B:0020H.5       PUBLIC        busy
  D:00E0H         PUBLIC        ACC
  B:00A8H.1       PUBLIC        ET0
  D:008CH         PUBLIC        TH0
  X:02AAH         PUBLIC        hour_count
  D:008AH         PUBLIC        TL0
  X:02ABH         PUBLIC        min_count
  B:0088H.4       PUBLIC        TR0
  X:02ACH         SYMBOL        KeyNum
  X:02ADH         SYMBOL        KeyNum_Old
  C:10D8H         PUBLIC        _Display_Prox
  C:0EC9H         PUBLIC        _Display_Pos
  X:02AEH         PUBLIC        st_time
  D:00D0H         PUBLIC        PSW
  C:1774H         PUBLIC        _SendUART1
  -------         PROC          TM0_ISR
  C:000AH         LINE#         53
BL51 BANKED LINKER/LOCATER V6.22                                                      07/17/2018  16:04:06  PAGE 7


  C:000AH         LINE#         56
  -------         ENDPROC       TM0_ISR
  -------         PROC          MAIN
  -------         DO            
  X:026CH         SYMBOL        seconds
  X:026DH         SYMBOL        mins
  X:026EH         SYMBOL        hours
  X:026FH         SYMBOL        days
  X:0270H         SYMBOL        months
  X:0271H         SYMBOL        prox_data
  X:0294H         SYMBOL        KeyCount
  X:0296H         SYMBOL        KeyNum_Old
  X:0297H         SYMBOL        KeyNum
  X:0298H         SYMBOL        PressedKey
  X:0273H         SYMBOL        count
  X:0275H         SYMBOL        numStr
  X:027AH         SYMBOL        current_position
  -------         ENDDO         
  C:090CH         LINE#         58
  C:090CH         LINE#         59
  C:090CH         LINE#         65
  C:0913H         LINE#         67
  C:0919H         LINE#         68
  C:091BH         LINE#         69
  C:091DH         LINE#         78
  C:0920H         LINE#         79
  C:0923H         LINE#         80
  C:0926H         LINE#         81
  C:0929H         LINE#         82
  C:092CH         LINE#         84
  C:092FH         LINE#         85
  C:0932H         LINE#         86
  C:0935H         LINE#         87
  C:0937H         LINE#         88
  C:0939H         LINE#         89
  C:093BH         LINE#         91
  C:093DH         LINE#         92
  C:0944H         LINE#         93
  C:094BH         LINE#         94
  C:0952H         LINE#         95
  C:0959H         LINE#         99
  C:0960H         LINE#         100
  C:0965H         LINE#         101
  C:096AH         LINE#         102
  C:096FH         LINE#         103
  C:0974H         LINE#         104
  C:0979H         LINE#         107
  C:0979H         LINE#         108
  C:0979H         LINE#         109
  C:097CH         LINE#         110
  C:098AH         LINE#         112
  C:098AH         LINE#         115
  C:098FH         LINE#         116
  C:0994H         LINE#         118
  C:0999H         LINE#         119
  C:099EH         LINE#         120
  C:09A3H         LINE#         121
BL51 BANKED LINKER/LOCATER V6.22                                                      07/17/2018  16:04:06  PAGE 8


  C:09A8H         LINE#         123
  C:09B3H         LINE#         125
  C:09BAH         LINE#         126
  C:09C2H         LINE#         127
  C:09C7H         LINE#         128
  C:09CFH         LINE#         129
  C:09D4H         LINE#         130
  C:09DEH         LINE#         132
  C:09E6H         LINE#         134
  C:09EEH         LINE#         136
  C:09FDH         LINE#         137
  C:0A00H         LINE#         145
  C:0A03H         LINE#         146
  C:0A03H         LINE#         147
  C:0A0EH         LINE#         148
  C:0A11H         LINE#         149
  C:0A11H         LINE#         150
  C:0A1FH         LINE#         151
  C:0A21H         LINE#         153
  C:0A21H         LINE#         154
  C:0A2FH         LINE#         155
  C:0A2FH         LINE#         157
  C:0A2FH         LINE#         158
  C:0A3EH         LINE#         159
  C:0A3EH         LINE#         160
  C:0A45H         LINE#         161
  C:0A45H         LINE#         163
  C:0A48H         LINE#         165
  C:0A48H         LINE#         166
  C:0A83H         LINE#         167
  C:0AB1H         LINE#         171
  C:0ABEH         LINE#         172
  C:0ABEH         LINE#         173
  C:0AC8H         LINE#         174
  C:0AD2H         LINE#         175
  C:0AD9H         LINE#         176
  C:0AE1H         LINE#         177
  C:0AE9H         LINE#         178
  -------         ENDPROC       MAIN
  -------         PROC          UART
  C:0FA3H         LINE#         191
  C:0FB0H         LINE#         193
  C:0FB3H         LINE#         194
  C:0FB3H         LINE#         195
  C:0FC1H         LINE#         196
  C:0FC3H         LINE#         197
  C:0FD5H         LINE#         198
  C:0FE4H         LINE#         199
  C:0FEFH         LINE#         200
  C:0FEFH         LINE#         203
  C:0FFCH         LINE#         204
  C:1002H         LINE#         205
  C:1002H         LINE#         206
  C:1008H         LINE#         207
  C:1016H         LINE#         208
  C:1024H         LINE#         209
  C:102CH         LINE#         214
BL51 BANKED LINKER/LOCATER V6.22                                                      07/17/2018  16:04:06  PAGE 9


  C:102CH         LINE#         215
  C:102CH         LINE#         218
  C:102CH         LINE#         219
  C:102FH         LINE#         220
  C:102FH         LINE#         221
  C:1031H         LINE#         222
  C:1033H         LINE#         223
  C:1033H         LINE#         224
  -------         ENDPROC       UART
  -------         PROC          _SENDUART1
  D:0007H         SYMBOL        dat
  C:1774H         LINE#         227
  C:1774H         LINE#         228
  C:1774H         LINE#         229
  C:1777H         LINE#         230
  C:1779H         LINE#         231
  C:177AH         LINE#         232
  C:177CH         LINE#         233
  -------         ENDPROC       _SENDUART1
  -------         PROC          _DISPLAY_PROX
  D:0002H         SYMBOL        dat
  -------         DO            
  X:027CH         SYMBOL        unit
  X:027DH         SYMBOL        ten
  X:027EH         SYMBOL        hundred
  X:027FH         SYMBOL        thousand
  -------         ENDDO         
  C:10D8H         LINE#         236
  C:10DCH         LINE#         237
  C:10DCH         LINE#         239
  C:10E8H         LINE#         240
  C:10F8H         LINE#         241
  C:1114H         LINE#         242
  C:1144H         LINE#         243
  C:114EH         LINE#         244
  C:1158H         LINE#         245
  C:1162H         LINE#         246
  C:116CH         LINE#         248
  -------         ENDPROC       _DISPLAY_PROX
  -------         PROC          _DISPLAY_POS
  X:027CH         SYMBOL        sign_dat
  -------         DO            
  X:027EH         SYMBOL        unit
  X:027FH         SYMBOL        ten
  X:0280H         SYMBOL        hundred
  X:0281H         SYMBOL        thousand
  D:0002H         SYMBOL        dat
  -------         ENDDO         
  C:0EC9H         LINE#         251
  C:0ED1H         LINE#         252
  C:0ED1H         LINE#         255
  C:0ED8H         LINE#         256
  C:0EE4H         LINE#         257
  C:0EF4H         LINE#         258
  C:0F10H         LINE#         259
  C:0F41H         LINE#         260
  C:0F4CH         LINE#         261
BL51 BANKED LINKER/LOCATER V6.22                                                      07/17/2018  16:04:06  PAGE 10


  C:0F4CH         LINE#         263
  C:0F53H         LINE#         264
  C:0F5DH         LINE#         265
  C:0F67H         LINE#         266
  C:0F6CH         LINE#         267
  C:0F71H         LINE#         268
  C:0F73H         LINE#         269
  C:0F75H         LINE#         271
  C:0F75H         LINE#         273
  C:0F7AH         LINE#         274
  C:0F84H         LINE#         275
  C:0F8EH         LINE#         276
  C:0F98H         LINE#         277
  C:0F9DH         LINE#         278
  C:0FA2H         LINE#         280
  C:0FA2H         LINE#         282
  -------         ENDPROC       _DISPLAY_POS
  -------         ENDMOD        MAIN

  -------         MODULE        PCF85063BTL
  C:0000H         SYMBOL        _ICE_DUMMY_
  D:0096H         PUBLIC        P2M0
  D:0080H         PUBLIC        P0
  D:0095H         PUBLIC        P2M1
  D:0090H         PUBLIC        P1
  D:00A0H         PUBLIC        P2
  D:00B0H         PUBLIC        P3
  D:00C0H         PUBLIC        P4
  D:00C8H         PUBLIC        P5
  D:00E8H         PUBLIC        P6
  B:00A0H.2       PUBLIC        PCF85063BTL_SDI
  D:00F8H         PUBLIC        P7
  B:00A0H.1       PUBLIC        PCF85063BTL_SCK
  B:00A0H.2       PUBLIC        PCF85063BTL_SDO
  D:00A8H         PUBLIC        IE
  C:12F2H         PUBLIC        _Read_time
  C:16B0H         PUBLIC        _PCF85063BTL_Delay
  D:00B8H         PUBLIC        IP
  D:00D8H         PUBLIC        CCON
  C:11F9H         PUBLIC        _Day_Of_Year
  C:15BBH         PUBLIC        SPI_ReceiveByte
  D:0098H         PUBLIC        SCON
  D:0088H         PUBLIC        TCON
  C:16F6H         PUBLIC        _BCDtoDec
  B:00A0H.0       PUBLIC        PCF85063BTL_CS
  C:16E5H         PUBLIC        _SPI_ReadTime
  C:1747H         PUBLIC        SPI_Init
  C:164FH         PUBLIC        _SPI_WriteTime
  C:159BH         PUBLIC        _SPI_SendByte
  D:00D0H         PUBLIC        PSW
  C:16ACH         SYMBOL        L?0047
  -------         PROC          L?0046
  -------         ENDPROC       L?0046
  C:16ACH         SYMBOL        L?0047
  -------         PROC          _PCF85063BTL_DELAY
  D:0006H         SYMBOL        us
  C:16B0H         LINE#         8
BL51 BANKED LINKER/LOCATER V6.22                                                      07/17/2018  16:04:06  PAGE 11


  C:16B0H         LINE#         9
  C:16B0H         LINE#         10
  C:16BAH         LINE#         11
  C:16BAH         LINE#         12
  C:16BBH         LINE#         13
  C:16BDH         LINE#         14
  -------         ENDPROC       _PCF85063BTL_DELAY
  -------         PROC          _SPI_SENDBYTE
  D:0005H         SYMBOL        dat
  -------         DO            
  D:0003H         SYMBOL        i
  -------         ENDDO         
  C:159BH         LINE#         17
  C:159DH         LINE#         18
  C:159DH         LINE#         20
  C:159FH         LINE#         21
  C:159FH         LINE#         22
  C:15A1H         LINE#         23
  C:15A5H         LINE#         24
  C:15A5H         LINE#         25
  C:15A7H         LINE#         26
  C:15A9H         LINE#         28
  C:15A9H         LINE#         29
  C:15ABH         LINE#         30
  C:15ABH         LINE#         31
  C:15AEH         LINE#         32
  C:15AEH         LINE#         33
  C:15B1H         LINE#         34
  C:15B5H         LINE#         35
  C:15BAH         LINE#         36
  -------         ENDPROC       _SPI_SENDBYTE
  -------         PROC          SPI_RECEIVEBYTE
  -------         DO            
  D:0003H         SYMBOL        i
  D:0005H         SYMBOL        dat
  -------         ENDDO         
  C:15BBH         LINE#         39
  C:15BBH         LINE#         40
  C:15BBH         LINE#         42
  C:15BDH         LINE#         44
  C:15BFH         LINE#         45
  C:15C0H         LINE#         46
  C:15C0H         LINE#         47
  C:15C4H         LINE#         48
  C:15C6H         LINE#         49
  C:15C9H         LINE#         51
  C:15CCH         LINE#         52
  C:15CCH         LINE#         53
  C:15D0H         LINE#         54
  C:15D0H         LINE#         55
  C:15D0H         LINE#         56
  C:15D3H         LINE#         57
  C:15D8H         LINE#         58
  C:15DAH         LINE#         59
  -------         ENDPROC       SPI_RECEIVEBYTE
  -------         PROC          _SPI_READTIME
  D:0007H         SYMBOL        addr
BL51 BANKED LINKER/LOCATER V6.22                                                      07/17/2018  16:04:06  PAGE 12


  -------         DO            
  D:0006H         SYMBOL        dat
  -------         ENDDO         
  C:16E5H         LINE#         61
  C:16E5H         LINE#         62
  C:16E5H         LINE#         64
  C:16E7H         LINE#         65
  C:16E9H         LINE#         66
  C:16F0H         LINE#         67
  C:16F3H         LINE#         68
  C:16F5H         LINE#         69
  C:16F5H         LINE#         70
  -------         ENDPROC       _SPI_READTIME
  -------         PROC          _SPI_WRITETIME
  D:0002H         SYMBOL        val
  D:0005H         SYMBOL        addr
  C:164FH         LINE#         71
  C:1651H         LINE#         72
  C:1651H         LINE#         74
  C:1653H         LINE#         75
  C:165AH         LINE#         76
  C:165FH         LINE#         77
  C:1664H         LINE#         78
  C:1666H         LINE#         79
  -------         ENDPROC       _SPI_WRITETIME
  -------         PROC          SPI_INIT
  C:1747H         LINE#         83
  C:1747H         LINE#         84
  C:1747H         LINE#         89
  C:174AH         LINE#         90
  C:174DH         LINE#         91
  C:174FH         LINE#         92
  C:1751H         LINE#         93
  C:1753H         LINE#         94
  -------         ENDPROC       SPI_INIT
  -------         PROC          _READ_TIME
  X:027CH         SYMBOL        months
  X:027FH         SYMBOL        days
  X:0282H         SYMBOL        hours
  X:0285H         SYMBOL        mins
  X:0288H         SYMBOL        seconds
  C:12F2H         LINE#         96
  C:12FDH         LINE#         97
  C:12FDH         LINE#         99
  C:1311H         LINE#         101
  C:1325H         LINE#         103
  C:1339H         LINE#         108
  C:134DH         LINE#         113
  -------         ENDPROC       _READ_TIME
  -------         PROC          _BCDTODEC
  D:0007H         SYMBOL        bcd
  -------         DO            
  D:0006H         SYMBOL        hi
  D:0007H         SYMBOL        lo
  -------         ENDDO         
  C:16F6H         LINE#         119
  C:16F6H         LINE#         120
BL51 BANKED LINKER/LOCATER V6.22                                                      07/17/2018  16:04:06  PAGE 13


  C:16F6H         LINE#         122
  C:16FBH         LINE#         123
  C:16FFH         LINE#         124
  C:1706H         LINE#         125
  -------         ENDPROC       _BCDTODEC
  -------         PROC          _DAY_OF_YEAR
  D:0007H         SYMBOL        months_bcd
  D:0005H         SYMBOL        days_bcd
  -------         DO            
  D:0004H         SYMBOL        months
  D:0007H         SYMBOL        days
  -------         ENDDO         
  C:11F9H         LINE#         126
  C:11F9H         LINE#         127
  C:11F9H         LINE#         130
  C:11FEH         LINE#         132
  C:1203H         LINE#         134
  C:123CH         LINE#         135
  C:123CH         LINE#         136
  C:123CH         LINE#         137
  C:123FH         LINE#         138
  C:123FH         LINE#         139
  C:123FH         LINE#         140
  C:1244H         LINE#         141
  C:1244H         LINE#         142
  C:1244H         LINE#         143
  C:1249H         LINE#         144
  C:1249H         LINE#         145
  C:1249H         LINE#         146
  C:124EH         LINE#         147
  C:124EH         LINE#         148
  C:124EH         LINE#         149
  C:1253H         LINE#         150
  C:1253H         LINE#         151
  C:1253H         LINE#         152
  C:1258H         LINE#         153
  C:1258H         LINE#         154
  C:1258H         LINE#         155
  C:125DH         LINE#         156
  C:125DH         LINE#         157
  C:125DH         LINE#         158
  C:1262H         LINE#         159
  C:1262H         LINE#         160
  C:1262H         LINE#         161
  C:126AH         LINE#         162
  C:126AH         LINE#         163
  C:126AH         LINE#         164
  C:126FH         LINE#         165
  C:126FH         LINE#         166
  C:126FH         LINE#         167
  C:1274H         LINE#         168
  C:1274H         LINE#         169
  C:1274H         LINE#         170
  C:127CH         LINE#         171
  C:127CH         LINE#         172
  C:127CH         LINE#         173
  -------         ENDPROC       _DAY_OF_YEAR
BL51 BANKED LINKER/LOCATER V6.22                                                      07/17/2018  16:04:06  PAGE 14


  -------         ENDMOD        PCF85063BTL

  -------         MODULE        UART1
  C:0000H         SYMBOL        _ICE_DUMMY_
  D:0080H         PUBLIC        P0
  D:0090H         PUBLIC        P1
  D:00A0H         PUBLIC        P2
  D:00B0H         PUBLIC        P3
  D:00C0H         PUBLIC        P4
  D:00C8H         PUBLIC        P5
  B:00A8H.7       PUBLIC        EA
  D:00E8H         PUBLIC        P6
  D:00F8H         PUBLIC        P7
  C:14CBH         PUBLIC        _SendString
  D:00A8H         PUBLIC        IE
  B:00A8H.4       PUBLIC        ES
  D:00B8H         PUBLIC        IP
  C:1667H         PUBLIC        _ASCIItoBCD
  D:00D8H         PUBLIC        CCON
  C:1707H         PUBLIC        initUART1
  D:0098H         PUBLIC        SCON
  D:0088H         PUBLIC        TCON
  C:1799H         PUBLIC        _DectoBCD
  C:1794H         PUBLIC        _ASCII_Letter
  D:008EH         PUBLIC        AUXR
  C:178FH         PUBLIC        _unit
  C:177DH         PUBLIC        _ten
  D:00D6H         PUBLIC        T2H
  D:00D7H         PUBLIC        T2L
  D:00D0H         PUBLIC        PSW
  -------         PROC          INITUART1
  C:1707H         LINE#         21
  C:1707H         LINE#         22
  C:1707H         LINE#         23
  C:170AH         LINE#         24
  C:170DH         LINE#         25
  C:1710H         LINE#         26
  C:1713H         LINE#         27
  C:1715H         LINE#         28
  C:1717H         LINE#         30
  -------         ENDPROC       INITUART1
  -------         PROC          _SENDSTRING
  X:02B9H         SYMBOL        s
  C:14CBH         LINE#         35
  C:14D6H         LINE#         36
  C:14D6H         LINE#         37
  C:14E6H         LINE#         38
  C:14E6H         LINE#         39
  C:14FBH         LINE#         40
  C:14FDH         LINE#         41
  -------         ENDPROC       _SENDSTRING
  -------         PROC          _TEN
  D:0007H         SYMBOL        BCD
  C:177DH         LINE#         43
  C:177DH         LINE#         44
  C:177DH         LINE#         45
  C:1782H         LINE#         46
BL51 BANKED LINKER/LOCATER V6.22                                                      07/17/2018  16:04:06  PAGE 15


  -------         ENDPROC       _TEN
  -------         PROC          _UNIT
  D:0007H         SYMBOL        BCD
  C:178FH         LINE#         47
  C:178FH         LINE#         48
  C:178FH         LINE#         52
  C:1793H         LINE#         53
  -------         ENDPROC       _UNIT
  -------         PROC          _DECTOBCD
  D:0007H         SYMBOL        dec
  C:1799H         LINE#         54
  C:1799H         LINE#         55
  C:1799H         LINE#         57
  C:1799H         LINE#         58
  -------         ENDPROC       _DECTOBCD
  -------         PROC          _ASCII_LETTER
  D:0007H         SYMBOL        dat
  C:1794H         LINE#         60
  C:1794H         LINE#         61
  C:1794H         LINE#         63
  C:1798H         LINE#         64
  -------         ENDPROC       _ASCII_LETTER
  -------         PROC          _ASCIITOBCD
  D:0001H         SYMBOL        ascii
  -------         DO            
  D:0007H         SYMBOL        dec_val
  D:0006H         SYMBOL        ten
  D:0007H         SYMBOL        unit
  -------         ENDDO         
  C:1667H         LINE#         66
  C:1667H         LINE#         67
  C:1667H         LINE#         69
  C:166AH         LINE#         70
  C:1670H         LINE#         71
  C:1677H         LINE#         72
  C:167DH         LINE#         74
  -------         ENDPROC       _ASCIITOBCD
  -------         ENDMOD        UART1

  -------         MODULE        LCD_DRIVER_SPLC780D
  C:0000H         SYMBOL        _ICE_DUMMY_
  D:0080H         PUBLIC        P0
  D:0090H         PUBLIC        P1
  D:00A0H         PUBLIC        P2
  D:00B0H         PUBLIC        P3
  D:00C0H         PUBLIC        P4
  D:00C8H         PUBLIC        P5
  D:00E8H         PUBLIC        P6
  D:00F8H         PUBLIC        P7
  C:127DH         PUBLIC        _WriteData
  D:00A8H         PUBLIC        IE
  D:00B8H         PUBLIC        IP
  D:00D8H         PUBLIC        CCON
  B:0090H.4       PUBLIC        LCD_D4
  B:0090H.5       PUBLIC        LCD_D5
  B:0090H.6       PUBLIC        LCD_D6
  C:1617H         PUBLIC        _DisplayLCD
BL51 BANKED LINKER/LOCATER V6.22                                                      07/17/2018  16:04:06  PAGE 16


  B:0090H.7       PUBLIC        LCD_D7
  D:0098H         PUBLIC        SCON
  D:0088H         PUBLIC        TCON
  C:176AH         PUBLIC        LCD_clear
  C:1457H         PUBLIC        _Command
  C:000EH         PUBLIC        _Display_Line
  C:13BAH         PUBLIC        LCD_Init
  C:155BH         PUBLIC        _Wait_ms
  B:0090H.1       PUBLIC        LCD_RS
  B:0090H.2       PUBLIC        LCD_RW
  C:1760H         PUBLIC        LCD_return_home
  B:0090H.3       PUBLIC        LCD_E
  D:00D0H         PUBLIC        PSW
  -------         PROC          LCD_INIT
  C:13BAH         LINE#         9
  C:13BAH         LINE#         10
  C:13BAH         LINE#         12
  C:13C1H         LINE#         13
  C:13C6H         LINE#         15
  C:13CDH         LINE#         16
  C:13D2H         LINE#         18
  C:13D5H         LINE#         19
  C:13DAH         LINE#         21
  C:13DDH         LINE#         22
  C:13E2H         LINE#         24
  C:13E9H         LINE#         27
  C:13EEH         LINE#         28
  C:13F3H         LINE#         30
  C:13F8H         LINE#         31
  C:13FDH         LINE#         33
  C:1402H         LINE#         34
  C:1407H         LINE#         35
  -------         ENDPROC       LCD_INIT
  -------         PROC          _WRITEDATA
  X:0282H         SYMBOL        dat
  C:127DH         LINE#         38
  C:1282H         LINE#         39
  C:1282H         LINE#         44
  C:1284H         LINE#         45
  C:1286H         LINE#         47
  C:1294H         LINE#         48
  C:12A0H         LINE#         49
  C:12ACH         LINE#         50
  C:12B6H         LINE#         51
  C:12B8H         LINE#         52
  C:12BFH         LINE#         53
  C:12C1H         LINE#         55
  C:12D1H         LINE#         56
  C:12DCH         LINE#         57
  C:12E6H         LINE#         58
  C:12EAH         LINE#         60
  C:12EAH         LINE#         61
  C:12EDH         LINE#         62
  C:12EFH         LINE#         63
  C:12F1H         LINE#         65
  -------         ENDPROC       _WRITEDATA
  -------         PROC          _COMMAND
BL51 BANKED LINKER/LOCATER V6.22                                                      07/17/2018  16:04:06  PAGE 17


  D:0007H         SYMBOL        dat
  C:1457H         LINE#         67
  C:1457H         LINE#         68
  C:1457H         LINE#         69
  C:1459H         LINE#         70
  C:145BH         LINE#         72
  C:1465H         LINE#         73
  C:1469H         LINE#         75
  C:146BH         LINE#         76
  C:1474H         LINE#         77
  C:1478H         LINE#         79
  C:147AH         LINE#         80
  C:1481H         LINE#         81
  C:1485H         LINE#         83
  C:1487H         LINE#         84
  C:148BH         LINE#         85
  C:148FH         LINE#         87
  C:1491H         LINE#         88
  C:1491H         LINE#         89
  C:1494H         LINE#         90
  C:1496H         LINE#         91
  -------         ENDPROC       _COMMAND
  C:1557H         SYMBOL        L?0028
  -------         PROC          L?0027
  -------         ENDPROC       L?0027
  C:1557H         SYMBOL        L?0028
  -------         PROC          _WAIT_MS
  D:0006H         SYMBOL        ms
  -------         DO            
  D:0004H         SYMBOL        De_Cnt
  -------         ENDDO         
  C:155BH         LINE#         93
  C:155BH         LINE#         94
  C:155BH         LINE#         96
  C:1565H         LINE#         97
  C:1565H         LINE#         98
  C:1578H         LINE#         99
  C:1578H         LINE#         100
  -------         ENDPROC       _WAIT_MS
  -------         PROC          _DISPLAYLCD
  D:0007H         SYMBOL        BCD
  -------         DO            
  D:0006H         SYMBOL        first_digit
  X:027CH         SYMBOL        second_digit
  -------         ENDDO         
  C:1617H         LINE#         101
  C:1617H         LINE#         102
  C:1617H         LINE#         104
  C:161EH         LINE#         105
  C:1627H         LINE#         107
  C:162CH         LINE#         109
  -------         ENDPROC       _DISPLAYLCD
  -------         PROC          LCD_RETURN_HOME
  C:1760H         LINE#         113
  C:1760H         LINE#         114
  C:1760H         LINE#         115
  C:1765H         LINE#         116
BL51 BANKED LINKER/LOCATER V6.22                                                      07/17/2018  16:04:06  PAGE 18


  -------         ENDPROC       LCD_RETURN_HOME
  -------         PROC          LCD_CLEAR
  C:176AH         LINE#         119
  C:176AH         LINE#         120
  C:176AH         LINE#         121
  C:176FH         LINE#         122
  -------         ENDPROC       LCD_CLEAR
  -------         PROC          _DISPLAY_LINE
  D:0006H         SYMBOL        line
  C:000EH         LINE#         126
  C:000EH         LINE#         127
  C:000EH         LINE#         128
  C:0014H         LINE#         129
  C:0014H         LINE#         130
  C:0016H         LINE#         131
  C:0016H         LINE#         132
  C:0018H         LINE#         134
  C:0018H         LINE#         135
  C:001DH         LINE#         136
  C:0022H         LINE#         137
  C:0022H         LINE#         138
  -------         ENDPROC       _DISPLAY_LINE
  -------         ENDMOD        LCD_DRIVER_SPLC780D

  -------         MODULE        KEYPAD
  C:0000H         SYMBOL        _ICE_DUMMY_
  D:0093H         PUBLIC        P0M1
  D:0080H         PUBLIC        P0
  D:0090H         PUBLIC        P1
  D:00A0H         PUBLIC        P2
  D:00B0H         PUBLIC        P3
  D:00C0H         PUBLIC        P4
  D:00C8H         PUBLIC        P5
  D:00E8H         PUBLIC        P6
  D:00F8H         PUBLIC        P7
  D:00A8H         PUBLIC        IE
  C:0AECH         PUBLIC        Key_Scan
  D:00B8H         PUBLIC        IP
  D:00D8H         PUBLIC        CCON
  C:0003H         PUBLIC        KeyPad_IO_Init
  C:15DBH         PUBLIC        _Delay_ms
  D:0098H         PUBLIC        SCON
  D:0088H         PUBLIC        TCON
  B:0020H.3       PUBLIC        move
  B:0020H.4       PUBLIC        direction
  C:069AH         PUBLIC        Key_Process
  D:00D0H         PUBLIC        PSW
  D:0094H         PUBLIC        P0M0
  -------         PROC          _DELAY_MS
  D:0006H         SYMBOL        ms
  -------         DO            
  D:0004H         SYMBOL        De_Cnt
  -------         ENDDO         
  C:15DBH         LINE#         15
  C:15DBH         LINE#         16
  C:15DBH         LINE#         18
  C:15E5H         LINE#         19
BL51 BANKED LINKER/LOCATER V6.22                                                      07/17/2018  16:04:06  PAGE 19


  C:15E5H         LINE#         20
  C:15F8H         LINE#         21
  C:15F8H         LINE#         22
  -------         ENDPROC       _DELAY_MS
  -------         PROC          KEY_SCAN
  -------         DO            
  X:0282H         SYMBOL        KeyTemp1
  X:0283H         SYMBOL        KeyTemp2
  X:0284H         SYMBOL        KeyValue
  -------         ENDDO         
  C:0AECH         LINE#         23
  C:0AECH         LINE#         24
  C:0AECH         LINE#         29
  C:0AEFH         LINE#         32
  C:0AF2H         LINE#         34
  C:0AFAH         LINE#         35
  C:0B01H         LINE#         36
  C:0B01H         LINE#         37
  C:0B08H         LINE#         38
  C:0B0DH         LINE#         39
  C:0B14H         LINE#         40
  C:0B14H         LINE#         43
  C:0B17H         LINE#         44
  C:0B1AH         LINE#         45
  C:0B1FH         LINE#         46
  C:0B23H         LINE#         47
  C:0B23H         LINE#         48
  C:0B2BH         LINE#         49
  C:0B2BH         LINE#         50
  C:0B2EH         LINE#         51
  C:0B36H         LINE#         52
  C:0B38H         LINE#         54
  C:0B4CH         LINE#         55
  C:0B4CH         LINE#         56
  C:0B4CH         LINE#         57
  C:0B4CH         LINE#         58
  C:0B52H         LINE#         60
  C:0B54H         LINE#         61
  C:0B54H         LINE#         62
  C:0B54H         LINE#         63
  C:0B5AH         LINE#         65
  C:0B5CH         LINE#         66
  C:0B5CH         LINE#         67
  C:0B5CH         LINE#         68
  C:0B62H         LINE#         70
  C:0B64H         LINE#         71
  C:0B64H         LINE#         72
  C:0B64H         LINE#         73
  C:0B6AH         LINE#         75
  C:0B6AH         LINE#         76
  C:0B6AH         LINE#         77
  C:0B6AH         LINE#         80
  C:0B6DH         LINE#         81
  C:0B70H         LINE#         82
  C:0B78H         LINE#         83
  C:0B7CH         LINE#         84
  C:0B7CH         LINE#         85
BL51 BANKED LINKER/LOCATER V6.22                                                      07/17/2018  16:04:06  PAGE 20


  C:0B84H         LINE#         86
  C:0B84H         LINE#         87
  C:0B87H         LINE#         88
  C:0B8FH         LINE#         89
  C:0B91H         LINE#         90
  C:0BA5H         LINE#         91
  C:0BA5H         LINE#         92
  C:0BA5H         LINE#         93
  C:0BA5H         LINE#         94
  C:0BABH         LINE#         96
  C:0BADH         LINE#         97
  C:0BADH         LINE#         98
  C:0BADH         LINE#         99
  C:0BB3H         LINE#         101
  C:0BB5H         LINE#         102
  C:0BB5H         LINE#         103
  C:0BB5H         LINE#         104
  C:0BBBH         LINE#         106
  C:0BBDH         LINE#         107
  C:0BBDH         LINE#         108
  C:0BBDH         LINE#         109
  C:0BC2H         LINE#         111
  C:0BC2H         LINE#         112
  C:0BC2H         LINE#         113
  C:0BC2H         LINE#         116
  C:0BC5H         LINE#         117
  C:0BC8H         LINE#         118
  C:0BD0H         LINE#         119
  C:0BD4H         LINE#         120
  C:0BD4H         LINE#         121
  C:0BDCH         LINE#         122
  C:0BDCH         LINE#         123
  C:0BDFH         LINE#         124
  C:0BE7H         LINE#         125
  C:0BE9H         LINE#         126
  C:0BFDH         LINE#         127
  C:0BFDH         LINE#         128
  C:0BFDH         LINE#         129
  C:0BFDH         LINE#         130
  C:0C03H         LINE#         132
  C:0C05H         LINE#         133
  C:0C05H         LINE#         134
  C:0C05H         LINE#         135
  C:0C0BH         LINE#         137
  C:0C0DH         LINE#         138
  C:0C0DH         LINE#         139
  C:0C0DH         LINE#         140
  C:0C13H         LINE#         142
  C:0C15H         LINE#         143
  C:0C15H         LINE#         144
  C:0C15H         LINE#         145
  C:0C1BH         LINE#         147
  C:0C1BH         LINE#         148
  C:0C1BH         LINE#         149
  C:0C1BH         LINE#         153
  C:0C1EH         LINE#         154
  C:0C21H         LINE#         155
BL51 BANKED LINKER/LOCATER V6.22                                                      07/17/2018  16:04:06  PAGE 21


  C:0C29H         LINE#         156
  C:0C2DH         LINE#         157
  C:0C2DH         LINE#         158
  C:0C35H         LINE#         159
  C:0C35H         LINE#         160
  C:0C38H         LINE#         161
  C:0C40H         LINE#         162
  C:0C42H         LINE#         163
  C:0C56H         LINE#         164
  C:0C56H         LINE#         165
  C:0C56H         LINE#         166
  C:0C56H         LINE#         167
  C:0C5CH         LINE#         169
  C:0C5EH         LINE#         170
  C:0C5EH         LINE#         171
  C:0C5EH         LINE#         172
  C:0C64H         LINE#         174
  C:0C66H         LINE#         175
  C:0C66H         LINE#         176
  C:0C66H         LINE#         177
  C:0C6CH         LINE#         179
  C:0C6EH         LINE#         180
  C:0C6EH         LINE#         181
  C:0C6EH         LINE#         182
  C:0C74H         LINE#         184
  C:0C74H         LINE#         185
  C:0C74H         LINE#         186
  C:0C74H         LINE#         188
  C:0C7AH         LINE#         189
  C:0C7AH         LINE#         191
  C:0C7AH         LINE#         192
  C:0C7DH         LINE#         193
  C:0C7DH         LINE#         194
  C:0C7DH         LINE#         196
  C:0C7DH         LINE#         197
  C:0C7FH         LINE#         198
  C:0C7FH         LINE#         199
  -------         ENDPROC       KEY_SCAN
  -------         PROC          KEY_PROCESS
  -------         DO            
  X:02B0H         SYMBOL        KeyCount
  X:02B2H         SYMBOL        KeyNum_Old
  X:02B3H         SYMBOL        KeyNum
  X:02B4H         SYMBOL        PressedKey
  X:027CH         SYMBOL        d
  D:0004H         SYMBOL        hours
  D:0006H         SYMBOL        mins
  X:027EH         SYMBOL        months
  X:0280H         SYMBOL        days
  -------         ENDDO         
  C:069AH         LINE#         200
  C:069AH         LINE#         201
  C:069AH         LINE#         205
  C:06A2H         LINE#         206
  C:06AAH         LINE#         208
  C:06B7H         LINE#         209
  C:06B7H         LINE#         210
BL51 BANKED LINKER/LOCATER V6.22                                                      07/17/2018  16:04:06  PAGE 22


  C:06BAH         LINE#         211
  C:06BDH         LINE#         213
  C:06C0H         LINE#         215
  C:06C0H         LINE#         216
  C:06CBH         LINE#         217
  C:06CBH         LINE#         218
  C:06CEH         LINE#         220
  C:06CEH         LINE#         221
  C:06D5H         LINE#         222
  C:06D5H         LINE#         223
  C:06D8H         LINE#         225
  C:06D8H         LINE#         226
  C:06E8H         LINE#         227
  C:06E8H         LINE#         228
  C:06FAH         LINE#         229
  C:0708H         LINE#         230
  C:0717H         LINE#         231
  C:0717H         LINE#         233
  C:071DH         LINE#         237
  C:0733H         LINE#         238
  C:0744H         LINE#         239
  C:075FH         LINE#         240
  C:075FH         LINE#         241
  C:076FH         LINE#         242
  C:0780H         LINE#         243
  C:0780H         LINE#         247
  C:0799H         LINE#         248
  C:07B0H         LINE#         249
  C:07D0H         LINE#         250
  C:07D0H         LINE#         251
  C:07DAH         LINE#         252
  C:07DAH         LINE#         253
  C:07E3H         LINE#         254
  C:07E3H         LINE#         255
  C:07F7H         LINE#         256
  C:07F7H         LINE#         257
  C:07F7H         LINE#         258
  C:07F7H         LINE#         259
  C:07F7H         LINE#         260
  C:07F9H         LINE#         262
  C:07F9H         LINE#         263
  C:0805H         LINE#         264
  C:0805H         LINE#         265
  C:0816H         LINE#         266
  C:0816H         LINE#         267
  C:0816H         LINE#         268
  C:0816H         LINE#         269
  C:0816H         LINE#         271
  C:0818H         LINE#         273
  C:0818H         LINE#         274
  C:0829H         LINE#         275
  C:0829H         LINE#         276
  C:0829H         LINE#         277
  C:0829H         LINE#         278
  C:0829H         LINE#         280
  C:0829H         LINE#         282
  C:0829H         LINE#         283
BL51 BANKED LINKER/LOCATER V6.22                                                      07/17/2018  16:04:06  PAGE 23


  C:082BH         LINE#         285
  C:082BH         LINE#         286
  C:083EH         LINE#         287
  C:083EH         LINE#         288
  C:084FH         LINE#         289
  C:084FH         LINE#         290
  C:084FH         LINE#         291
  C:084FH         LINE#         292
  C:084FH         LINE#         293
  C:0851H         LINE#         295
  C:0851H         LINE#         296
  C:0862H         LINE#         297
  C:0862H         LINE#         298
  C:0873H         LINE#         299
  C:0884H         LINE#         300
  C:0884H         LINE#         301
  C:0884H         LINE#         302
  C:0884H         LINE#         303
  C:0884H         LINE#         304
  C:0887H         LINE#         305
  C:088CH         LINE#         306
  C:0891H         LINE#         307
  C:0896H         LINE#         308
  C:089BH         LINE#         309
  C:08A0H         LINE#         310
  C:08A5H         LINE#         311
  C:08AAH         LINE#         312
  C:08AAH         LINE#         314
  C:08CCH         LINE#         315
  C:08CCH         LINE#         316
  C:08D6H         LINE#         317
  C:08D6H         LINE#         318
  C:08DBH         LINE#         319
  C:08E4H         LINE#         320
  C:08FBH         LINE#         321
  C:08FBH         LINE#         322
  C:090BH         LINE#         324
  C:090BH         LINE#         328
  -------         ENDPROC       KEY_PROCESS
  -------         PROC          KEYPAD_IO_INIT
  C:0003H         LINE#         331
  C:0003H         LINE#         332
  C:0003H         LINE#         333
  C:0006H         LINE#         334
  C:0009H         LINE#         335
  -------         ENDPROC       KEYPAD_IO_INIT
  -------         ENDMOD        KEYPAD

  -------         MODULE        VCNL4035
  C:0000H         SYMBOL        _ICE_DUMMY_
  D:0080H         PUBLIC        P0
  B:00B0H.2       PUBLIC        I2C_SCK
  D:00B2H         PUBLIC        P3M0
  D:0090H         PUBLIC        P1
  D:00B1H         PUBLIC        P3M1
  D:00A0H         PUBLIC        P2
  D:00B0H         PUBLIC        P3
BL51 BANKED LINKER/LOCATER V6.22                                                      07/17/2018  16:04:06  PAGE 24


  D:00C0H         PUBLIC        P4
  D:00C8H         PUBLIC        P5
  D:00E8H         PUBLIC        P6
  D:00F8H         PUBLIC        P7
  D:00A8H         PUBLIC        IE
  C:1789H         PUBLIC        _DisplayLCD_VCNL4035
  D:00B8H         PUBLIC        IP
  D:00D8H         PUBLIC        CCON
  C:16D2H         PUBLIC        I2C_Start
  D:0098H         PUBLIC        SCON
  C:167EH         PUBLIC        I2C_Init
  D:0088H         PUBLIC        TCON
  C:1729H         PUBLIC        uC_NACK
  C:1537H         PUBLIC        _Wait_ms_i2c
  C:1579H         PUBLIC        _I2C_SendByte
  C:1695H         PUBLIC        I2C_Stop
  C:140EH         PUBLIC        _Write_VCNL4035X
  C:179AH         PUBLIC        nop
  C:103EH         PUBLIC        _Read_VCNL4035
  C:1783H         PUBLIC        uC_ACK
  C:1639H         PUBLIC        I2C_ACK
  C:15F9H         PUBLIC        _Wait_ms_iic
  B:00B0H.1       PUBLIC        I2C_SDA
  D:00D0H         PUBLIC        PSW
  C:1504H         PUBLIC        I2C_ReceiveByte
  -------         PROC          _WAIT_MS_IIC
  D:0006H         SYMBOL        ms
  -------         DO            
  D:0004H         SYMBOL        De_Cnt
  -------         ENDDO         
  C:15F9H         LINE#         5
  C:15F9H         LINE#         6
  C:15F9H         LINE#         8
  C:1603H         LINE#         9
  C:1603H         LINE#         10
  C:1616H         LINE#         11
  C:1616H         LINE#         12
  -------         ENDPROC       _WAIT_MS_IIC
  C:1531H         SYMBOL        L?0048
  C:1533H         SYMBOL        L?0049
  -------         PROC          L?0047
  -------         ENDPROC       L?0047
  C:1531H         SYMBOL        L?0048
  C:1533H         SYMBOL        L?0049
  -------         PROC          _WAIT_MS_I2C
  D:0006H         SYMBOL        ms
  -------         DO            
  D:0004H         SYMBOL        De_Cnt
  -------         ENDDO         
  C:1537H         LINE#         14
  C:1537H         LINE#         15
  C:1537H         LINE#         17
  C:1541H         LINE#         18
  C:1541H         LINE#         19
  C:1554H         LINE#         20
  C:1554H         LINE#         21
  -------         ENDPROC       _WAIT_MS_I2C
BL51 BANKED LINKER/LOCATER V6.22                                                      07/17/2018  16:04:06  PAGE 25


  -------         PROC          NOP
  C:179AH         LINE#         22
  C:179AH         LINE#         23
  C:179AH         LINE#         25
  -------         ENDPROC       NOP
  -------         PROC          I2C_START
  C:16D2H         LINE#         26
  C:16D2H         LINE#         27
  C:16D2H         LINE#         29
  C:16D4H         LINE#         30
  C:16D6H         LINE#         31
  C:16DDH         LINE#         32
  C:16DFH         LINE#         33
  C:16E2H         LINE#         34
  C:16E4H         LINE#         37
  -------         ENDPROC       I2C_START
  -------         PROC          I2C_STOP
  C:1695H         LINE#         39
  C:1695H         LINE#         40
  C:1695H         LINE#         41
  C:1697H         LINE#         42
  C:1699H         LINE#         43
  C:169CH         LINE#         44
  C:169EH         LINE#         45
  C:16A0H         LINE#         46
  C:16A7H         LINE#         47
  C:16A9H         LINE#         50
  -------         ENDPROC       I2C_STOP
  -------         PROC          L?0050
  -------         ENDPROC       L?0050
  -------         PROC          I2C_ACK
  -------         DO            
  X:0284H         SYMBOL        i
  D:0003H         SYMBOL        dat
  -------         ENDDO         
  C:1639H         LINE#         52
  C:1639H         LINE#         53
  C:1639H         LINE#         55
  C:163AH         LINE#         60
  C:163DH         LINE#         61
  C:163FH         LINE#         62
  C:1642H         LINE#         64
  C:1645H         LINE#         65
  C:1645H         LINE#         66
  C:1649H         LINE#         67
  C:1649H         LINE#         70
  C:1649H         LINE#         71
  C:164CH         LINE#         72
  C:164CH         LINE#         73
  C:164EH         LINE#         74
  -------         ENDPROC       I2C_ACK
  -------         PROC          UC_ACK
  -------         DO            
  X:0284H         SYMBOL        i
  -------         ENDDO         
  C:1783H         LINE#         75
  C:1783H         LINE#         76
BL51 BANKED LINKER/LOCATER V6.22                                                      07/17/2018  16:04:06  PAGE 26


  C:1783H         LINE#         78
  C:1783H         LINE#         85
  C:1783H         LINE#         87
  C:1783H         LINE#         89
  C:1783H         LINE#         90
  C:1783H         LINE#         93
  C:1786H         LINE#         94
  C:1788H         LINE#         95
  C:1788H         LINE#         99
  -------         ENDPROC       UC_ACK
  -------         PROC          UC_NACK
  -------         DO            
  X:0284H         SYMBOL        i
  -------         ENDDO         
  C:1729H         LINE#         101
  C:1729H         LINE#         102
  C:1729H         LINE#         104
  C:1729H         LINE#         108
  C:172BH         LINE#         111
  C:172BH         LINE#         112
  C:172DH         LINE#         113
  C:172DH         LINE#         115
  C:172DH         LINE#         116
  C:172DH         LINE#         119
  C:1730H         LINE#         120
  C:1732H         LINE#         121
  C:1735H         LINE#         122
  C:1737H         LINE#         123
  C:1737H         LINE#         127
  -------         ENDPROC       UC_NACK
  -------         PROC          I2C_INIT
  C:167EH         LINE#         129
  C:167EH         LINE#         130
  C:167EH         LINE#         133
  C:1681H         LINE#         134
  C:1684H         LINE#         139
  C:168CH         LINE#         141
  -------         ENDPROC       I2C_INIT
  -------         PROC          _I2C_SENDBYTE
  D:0001H         SYMBOL        dat
  -------         DO            
  D:0003H         SYMBOL        i
  -------         ENDDO         
  C:1579H         LINE#         145
  C:157BH         LINE#         146
  C:157BH         LINE#         149
  C:157DH         LINE#         150
  C:157DH         LINE#         151
  C:157FH         LINE#         153
  C:1583H         LINE#         154
  C:1583H         LINE#         155
  C:1585H         LINE#         156
  C:1587H         LINE#         158
  C:1587H         LINE#         159
  C:1589H         LINE#         160
  C:1589H         LINE#         161
  C:158CH         LINE#         162
BL51 BANKED LINKER/LOCATER V6.22                                                      07/17/2018  16:04:06  PAGE 27


  C:158EH         LINE#         164
  C:1592H         LINE#         165
  C:1595H         LINE#         166
  C:159AH         LINE#         167
  -------         ENDPROC       _I2C_SENDBYTE
  -------         PROC          L?0051
  -------         ENDPROC       L?0051
  -------         PROC          I2C_RECEIVEBYTE
  -------         DO            
  D:0003H         SYMBOL        i
  D:0001H         SYMBOL        dat
  -------         ENDDO         
  C:1504H         LINE#         171
  C:1504H         LINE#         172
  C:1504H         LINE#         174
  C:1506H         LINE#         178
  C:1507H         LINE#         179
  C:1507H         LINE#         180
  C:150BH         LINE#         181
  C:150DH         LINE#         182
  C:1510H         LINE#         184
  C:1513H         LINE#         185
  C:1513H         LINE#         186
  C:1517H         LINE#         187
  C:1517H         LINE#         188
  C:1517H         LINE#         189
  C:151AH         LINE#         190
  C:151EH         LINE#         191
  C:151EH         LINE#         192
  C:1520H         LINE#         193
  C:1522H         LINE#         194
  C:1522H         LINE#         196
  C:1527H         LINE#         197
  C:1529H         LINE#         198
  -------         ENDPROC       I2C_RECEIVEBYTE
  -------         PROC          _WRITE_VCNL4035X
  X:027CH         SYMBOL        command_code
  X:027DH         SYMBOL        dat_h
  X:027EH         SYMBOL        dat_l
  C:140EH         LINE#         199
  C:1419H         LINE#         200
  C:1419H         LINE#         201
  C:141CH         LINE#         202
  C:1423H         LINE#         203
  C:1423H         LINE#         204
  C:1429H         LINE#         205
  C:1429H         LINE#         206
  C:1431H         LINE#         207
  C:1431H         LINE#         208
  C:1437H         LINE#         209
  C:143FH         LINE#         211
  C:1445H         LINE#         212
  C:144DH         LINE#         214
  C:1453H         LINE#         215
  C:1456H         LINE#         216
  -------         ENDPROC       _WRITE_VCNL4035X
  -------         PROC          _READ_VCNL4035
BL51 BANKED LINKER/LOCATER V6.22                                                      07/17/2018  16:04:06  PAGE 28


  X:027CH         SYMBOL        command_code
  -------         DO            
  X:027EH         SYMBOL        temp_dat
  X:0280H         SYMBOL        temp_dat_l
  X:0282H         SYMBOL        temp_dat_h
  -------         ENDDO         
  C:103EH         LINE#         218
  C:1046H         LINE#         219
  C:1046H         LINE#         220
  C:1053H         LINE#         222
  C:1056H         LINE#         223
  C:1059H         LINE#         224
  C:105EH         LINE#         226
  C:1064H         LINE#         227
  C:1064H         LINE#         228
  C:1064H         LINE#         229
  C:1064H         LINE#         230
  C:106FH         LINE#         231
  C:1072H         LINE#         232
  C:1075H         LINE#         233
  C:1075H         LINE#         236
  C:1078H         LINE#         238
  C:107FH         LINE#         239
  C:107FH         LINE#         240
  C:107FH         LINE#         241
  C:108AH         LINE#         242
  C:108DH         LINE#         243
  C:1090H         LINE#         244
  C:1093H         LINE#         245
  C:1096H         LINE#         246
  C:1099H         LINE#         247
  C:109CH         LINE#         248
  C:109FH         LINE#         249
  C:10A2H         LINE#         250
  C:10A2H         LINE#         251
  C:10A8H         LINE#         252
  C:10A8H         LINE#         253
  C:10B1H         LINE#         255
  C:10B1H         LINE#         256
  C:10B7H         LINE#         257
  C:10B7H         LINE#         259
  C:10B9H         LINE#         260
  C:10BFH         LINE#         261
  C:10C2H         LINE#         262
  C:10C9H         LINE#         263
  C:10C9H         LINE#         264
  C:10D7H         LINE#         265
  -------         ENDPROC       _READ_VCNL4035
  -------         PROC          _DISPLAYLCD_VCNL4035
  X:02BCH         SYMBOL        dat
  C:1789H         LINE#         267
  C:178EH         LINE#         268
  C:178EH         LINE#         270
  -------         ENDPROC       _DISPLAYLCD_VCNL4035
  -------         ENDMOD        VCNL4035

  -------         MODULE        BIPOLARMOTOR
BL51 BANKED LINKER/LOCATER V6.22                                                      07/17/2018  16:04:06  PAGE 29


  C:0000H         SYMBOL        _ICE_DUMMY_
  D:0080H         PUBLIC        P0
  D:0090H         PUBLIC        P1
  D:00A0H         PUBLIC        P2
  D:00B0H         PUBLIC        P3
  D:00C0H         PUBLIC        P4
  D:00C8H         PUBLIC        P5
  D:00E8H         PUBLIC        P6
  D:00F8H         PUBLIC        P7
  D:00A8H         PUBLIC        IE
  X:0000H         PUBLIC        receiver_pos
  X:01D6H         PUBLIC        Time_stamp_PM
  C:1497H         PUBLIC        _Move
  D:00B8H         PUBLIC        IP
  D:00D8H         PUBLIC        CCON
  D:0098H         PUBLIC        SCON
  D:0088H         PUBLIC        TCON
  C:1361H         PUBLIC        _Step_move
  C:0C80H         PUBLIC        _Update_position
  C:1718H         PUBLIC        _BCDtoDec1
  X:0263H         PUBLIC        degree
  D:00D0H         PUBLIC        PSW
  -------         PROC          _BCDTODEC1
  D:0007H         SYMBOL        bcd
  -------         DO            
  D:0006H         SYMBOL        hi
  D:0007H         SYMBOL        lo
  -------         ENDDO         
  C:1718H         LINE#         11
  C:1718H         LINE#         12
  C:1718H         LINE#         14
  C:171DH         LINE#         15
  C:1721H         LINE#         16
  C:1728H         LINE#         17
  -------         ENDPROC       _BCDTODEC1
  -------         PROC          _STEP_MOVE
  X:0290H         SYMBOL        step
  B:0020H.2       SYMBOL        dir
  -------         DO            
  X:0292H         SYMBOL        i
  -------         ENDDO         
  C:1361H         LINE#         23
  C:1369H         LINE#         24
  C:1369H         LINE#         25
  C:136EH         LINE#         26
  C:1371H         LINE#         27
  C:1376H         LINE#         29
  C:1379H         LINE#         31
  C:1395H         LINE#         32
  C:1395H         LINE#         33
  C:1398H         LINE#         34
  C:139FH         LINE#         35
  C:13A2H         LINE#         36
  C:13A9H         LINE#         37
  C:13B9H         LINE#         38
  -------         ENDPROC       _STEP_MOVE
  -------         PROC          _MOVE
BL51 BANKED LINKER/LOCATER V6.22                                                      07/17/2018  16:04:06  PAGE 30


  X:028CH         SYMBOL        distance
  B:0020H.1       SYMBOL        direction
  -------         DO            
  D:0006H         SYMBOL        step
  -------         ENDDO         
  C:1497H         LINE#         40
  C:149DH         LINE#         41
  C:149DH         LINE#         43
  C:14C4H         LINE#         44
  -------         ENDPROC       _MOVE
  -------         PROC          _UPDATE_POSITION
  D:0007H         SYMBOL        mnths
  D:0005H         SYMBOL        dys
  X:027EH         SYMBOL        hurs
  X:027FH         SYMBOL        mns
  X:0280H         SYMBOL        sconds
  X:0281H         SYMBOL        currnt_pos
  -------         DO            
  X:0284H         SYMBOL        date
  X:0286H         SYMBOL        i
  X:0288H         SYMBOL        desired_distance
  X:028AH         SYMBOL        distance
  -------         ENDDO         
  C:0C80H         LINE#         50
  C:0C85H         LINE#         51
  C:0C85H         LINE#         57
  C:0C90H         LINE#         59
  C:0C95H         LINE#         60
  C:0C95H         LINE#         61
  C:0D10H         LINE#         62
  C:0D10H         LINE#         63
  C:0D2DH         LINE#         64
  C:0D2DH         LINE#         65
  C:0D2DH         LINE#         66
  C:0D30H         LINE#         67
  C:0D32H         LINE#         68
  C:0D32H         LINE#         69
  C:0D35H         LINE#         70
  C:0D37H         LINE#         71
  C:0D37H         LINE#         72
  C:0D3AH         LINE#         73
  C:0D3CH         LINE#         74
  C:0D3CH         LINE#         75
  C:0D3FH         LINE#         76
  C:0D41H         LINE#         77
  C:0D41H         LINE#         78
  C:0D60H         LINE#         79
  C:0D60H         LINE#         80
  C:0D60H         LINE#         83
  C:0D83H         LINE#         84
  C:0D89H         LINE#         85
  C:0D94H         LINE#         86
  C:0D94H         LINE#         87
  C:0DA9H         LINE#         88
  C:0DABH         LINE#         89
  C:0DBBH         LINE#         90
  C:0DBBH         LINE#         91
BL51 BANKED LINKER/LOCATER V6.22                                                      07/17/2018  16:04:06  PAGE 31


  C:0DCBH         LINE#         92
  C:0DCBH         LINE#         94
  C:0DCBH         LINE#         95
  C:0DCBH         LINE#         96
  C:0DEDH         LINE#         97
  -------         ENDPROC       _UPDATE_POSITION
  -------         ENDMOD        BIPOLARMOTOR

  -------         MODULE        ?C_STARTUP
  C:116DH         SEGMENT       ?C_C51STARTUP
  I:0021H         SEGMENT       ?STACK
  C:0000H         PUBLIC        ?C_STARTUP
  D:00E0H         SYMBOL        ACC
  D:00F0H         SYMBOL        B
  D:0083H         SYMBOL        DPH
  D:0082H         SYMBOL        DPL
  N:0000H         SYMBOL        IBPSTACK
  N:0100H         SYMBOL        IBPSTACKTOP
  N:0080H         SYMBOL        IDATALEN
  C:1170H         SYMBOL        IDATALOOP
  N:0000H         SYMBOL        PBPSTACK
  N:0100H         SYMBOL        PBPSTACKTOP
  N:0000H         SYMBOL        PDATALEN
  N:0000H         SYMBOL        PDATASTART
  N:0000H         SYMBOL        PPAGE
  N:0000H         SYMBOL        PPAGEENABLE
  D:00A0H         SYMBOL        PPAGE_SFR
  D:0081H         SYMBOL        SP
  C:116DH         SYMBOL        STARTUP1
  N:0000H         SYMBOL        XBPSTACK
  N:0000H         SYMBOL        XBPSTACKTOP
  N:0000H         SYMBOL        XDATALEN
  N:0000H         SYMBOL        XDATASTART
  C:0000H         LINE#         126
  C:116DH         LINE#         133
  C:116FH         LINE#         134
  C:1170H         LINE#         135
  C:1171H         LINE#         136
  C:1173H         LINE#         185
  C:1176H         LINE#         196
  -------         ENDMOD        ?C_STARTUP

  -------         MODULE        ?C?FPMUL
  C:0026H         PUBLIC        ?C?FPMUL
  -------         ENDMOD        ?C?FPMUL

  -------         MODULE        ?C?FPDIV
  C:012FH         PUBLIC        ?C?FPDIV
  -------         ENDMOD        ?C?FPDIV

  -------         MODULE        ?C?FCAST
  C:01D6H         PUBLIC        ?C?FCASTC
  C:01D1H         PUBLIC        ?C?FCASTI
  C:01CCH         PUBLIC        ?C?FCASTL
  -------         ENDMOD        ?C?FCAST

  -------         MODULE        ?C?CASTF
BL51 BANKED LINKER/LOCATER V6.22                                                      07/17/2018  16:04:06  PAGE 32


  C:020AH         PUBLIC        ?C?CASTF
  -------         ENDMOD        ?C?CASTF

  -------         MODULE        ?C?CLDPTR
  C:028BH         PUBLIC        ?C?CLDPTR
  -------         ENDMOD        ?C?CLDPTR

  -------         MODULE        ?C?CSTPTR
  C:02A4H         PUBLIC        ?C?CSTPTR
  -------         ENDMOD        ?C?CSTPTR

  -------         MODULE        ?C?IMUL
  C:02B6H         PUBLIC        ?C?IMUL
  -------         ENDMOD        ?C?IMUL

  -------         MODULE        ?C?UIDIV
  C:02C8H         PUBLIC        ?C?UIDIV
  -------         ENDMOD        ?C?UIDIV

  -------         MODULE        ?C?SIDIV
  C:031DH         PUBLIC        ?C?SIDIV
  -------         ENDMOD        ?C?SIDIV

  -------         MODULE        ?C?ILDIX
  C:0353H         PUBLIC        ?C?ILDIX
  -------         ENDMOD        ?C?ILDIX

  -------         MODULE        ?C?ILDPTR
  C:0369H         PUBLIC        ?C?ILDPTR
  -------         ENDMOD        ?C?ILDPTR

  -------         MODULE        ?C?ISTPTR
  C:0394H         PUBLIC        ?C?ISTPTR
  -------         ENDMOD        ?C?ISTPTR

  -------         MODULE        ?C?LNEG
  C:03B3H         PUBLIC        ?C?LNEG
  -------         ENDMOD        ?C?LNEG

  -------         MODULE        ?C?LSTXDATA
  C:03C1H         PUBLIC        ?C?LSTXDATA
  -------         ENDMOD        ?C?LSTXDATA

  -------         MODULE        ?C?OFFXADD
  C:03CDH         PUBLIC        ?C?OFFXADD
  -------         ENDMOD        ?C?OFFXADD

  -------         MODULE        ABS
  C:1754H         PUBLIC        _ABS
  -------         ENDMOD        ABS

  -------         MODULE        ATOI
  C:0DEEH         PUBLIC        _atoi
  -------         ENDMOD        ATOI

  -------         MODULE        ?C?IILDX
  C:03D9H         PUBLIC        ?C?IILDX
BL51 BANKED LINKER/LOCATER V6.22                                                      07/17/2018  16:04:06  PAGE 33


  -------         ENDMOD        ?C?IILDX

  -------         MODULE        ISDIGIT
  C:1738H         PUBLIC        _isdigit
  -------         ENDMOD        ISDIGIT

  -------         MODULE        ISSPACE
  C:16BEH         PUBLIC        _isspace
  -------         ENDMOD        ISSPACE

*** WARNING L16: UNCALLED SEGMENT, IGNORED FOR OVERLAY PROCESS
    SEGMENT: ?PR?_SENDSTRING?UART1

*** WARNING L16: UNCALLED SEGMENT, IGNORED FOR OVERLAY PROCESS
    SEGMENT: ?PR?_TEN?UART1

*** WARNING L16: UNCALLED SEGMENT, IGNORED FOR OVERLAY PROCESS
    SEGMENT: ?PR?_UNIT?UART1

*** WARNING L16: UNCALLED SEGMENT, IGNORED FOR OVERLAY PROCESS
    SEGMENT: ?PR?_DECTOBCD?UART1

*** WARNING L16: UNCALLED SEGMENT, IGNORED FOR OVERLAY PROCESS
    SEGMENT: ?PR?_ASCII_LETTER?UART1

*** WARNING L16: UNCALLED SEGMENT, IGNORED FOR OVERLAY PROCESS
    SEGMENT: ?PR?NOP?VCNL4035

*** WARNING L16: UNCALLED SEGMENT, IGNORED FOR OVERLAY PROCESS
    SEGMENT: ?PR?_DISPLAYLCD_VCNL4035?VCNL4035

Program Size: data=17.6 xdata=701 code=6043
LINK/LOCATE RUN COMPLETE.  7 WARNING(S),  0 ERROR(S)
