BL51 BANKED LINKER/LOCATER V6.22                                                        05/16/2018  10:22:31  PAGE 1


BL51 BANKED LINKER/LOCATER V6.22, INVOKED BY:
C:\KEIL_V5\C51\BIN\BL51.EXE .\Obj\main.obj, .\Obj\PCF85063BTL.obj, .\Obj\UART1.obj, .\Obj\LCd_Driver_SPLC780D.obj, .\Obj
>> \KeyPad.obj, .\Obj\STARTUP.obj TO .\Obj\GPIO_RTC_Test PRINT (.\Lis\GPIO_RTC_Test.m51) RAMSIZE (256)


MEMORY MODEL: LARGE


INPUT MODULES INCLUDED:
  .\Obj\main.obj (MAIN)
  .\Obj\PCF85063BTL.obj (PCF85063BTL)
  .\Obj\UART1.obj (UART1)
  .\Obj\LCd_Driver_SPLC780D.obj (LCD_DRIVER_SPLC780D)
  .\Obj\KeyPad.obj (KEYPAD)
  .\Obj\STARTUP.obj (?C_STARTUP)
  C:\KEIL_V5\C51\LIB\C51L.LIB (?C_INIT)
  C:\KEIL_V5\C51\LIB\C51L.LIB (?C?CLDPTR)
  C:\KEIL_V5\C51\LIB\C51L.LIB (?C?CSTPTR)
  C:\KEIL_V5\C51\LIB\C51L.LIB (?C?ILDIX)
  C:\KEIL_V5\C51\LIB\C51L.LIB (ATOI)
  C:\KEIL_V5\C51\LIB\C51L.LIB (?C?IMUL)
  C:\KEIL_V5\C51\LIB\C51L.LIB (?C?IILDX)
  C:\KEIL_V5\C51\LIB\C51L.LIB (ISDIGIT)
  C:\KEIL_V5\C51\LIB\C51L.LIB (ISSPACE)


LINK MAP OF MODULE:  .\Obj\GPIO_RTC_Test (MAIN)


            TYPE    BASE      LENGTH    RELOCATION   SEGMENT NAME
            -----------------------------------------------------

            * * * * * * *   D A T A   M E M O R Y   * * * * * * *
            REG     0000H     0008H     ABSOLUTE     "REG BANK 0"
            REG     0008H     0008H     ABSOLUTE     "REG BANK 1"
                    0010H     0010H                  *** GAP ***
            BIT     0020H.0   0000H.1   UNIT         ?BI?MAIN
            BIT     0020H.1   0000H.1   UNIT         _BIT_GROUP_
                    0020H.2   0000H.6                *** GAP ***
            IDATA   0021H     0001H     UNIT         ?STACK

            * * * * * * *  X D A T A   M E M O R Y  * * * * * * *
            XDATA   0000H     0020H     UNIT         _XDATA_GROUP_
            XDATA   0020H     001CH     UNIT         ?XD?MAIN
            XDATA   003CH     0008H     UNIT         ?XD?KEYPAD
            XDATA   0044H     0003H     UNIT         ?XD?_SENDSTRING?UART1

            * * * * * * *   C O D E   M E M O R Y   * * * * * * *
            CODE    0000H     0003H     ABSOLUTE     
            CODE    0003H     0007H     UNIT         ?PR?KEYPAD_IO_INIT?KEYPAD
            CODE    000AH     0001H     UNIT         ?PR?TM0_ISR?MAIN
            CODE    000BH     0003H     ABSOLUTE     
            CODE    000EH     0014H     UNIT         ?PR?_PCF85063BTL_DELAY?PCF85063BTL
            CODE    0022H     0001H     UNIT         ?PR?_DECTOBCD?UART1
            CODE    0023H     0003H     ABSOLUTE     
            CODE    0026H     0155H     UNIT         ?PR?MAIN?MAIN
            CODE    017BH     0139H     UNIT         ?PR?KEY_SCAN?KEYPAD
            CODE    02B4H     00DBH     UNIT         ?PR?_ATOI?ATOI
BL51 BANKED LINKER/LOCATER V6.22                                                      05/16/2018  10:22:31  PAGE 2


            CODE    038FH     009BH     UNIT         ?PR?UART?MAIN
            CODE    042AH     008CH     UNIT         ?C_C51STARTUP
            CODE    04B6H     0075H     UNIT         ?PR?_WRITEDATA?LCD_DRIVER_SPLC780D
            CODE    052BH     0074H     UNIT         ?PR?KEY_PROCESS?KEYPAD
            CODE    059FH     006FH     UNIT         ?PR?_DISPLAY_TIME?UART1
            CODE    060EH     0069H     UNIT         ?C?LIB_CODE
            CODE    0677H     0054H     UNIT         ?PR?LCD_INIT?LCD_DRIVER_SPLC780D
            CODE    06CBH     0040H     UNIT         ?PR?_COMMAND?LCD_DRIVER_SPLC780D
            CODE    070BH     003BH     UNIT         ?C_INITSEG
            CODE    0746H     0033H     UNIT         ?PR?_SENDSTRING?UART1
            CODE    0779H     0024H     UNIT         ?PR?_WAIT_MS?LCD_DRIVER_SPLC780D
            CODE    079DH     0020H     UNIT         ?PR?_SPI_SENDBYTE?PCF85063BTL
            CODE    07BDH     0020H     UNIT         ?PR?SPI_RECEIVEBYTE?PCF85063BTL
            CODE    07DDH     001EH     UNIT         ?PR?_DELAY_MS?KEYPAD
            CODE    07FBH     001DH     UNIT         ?PR?_DISPLAYLCD?LCD_DRIVER_SPLC780D
            CODE    0818H     0018H     UNIT         ?PR?_SPI_WRITETIME?PCF85063BTL
            CODE    0830H     0017H     UNIT         ?PR?_ASCIITOBCD?UART1
            CODE    0847H     0014H     UNIT         ?PR?_ISSPACE?ISSPACE
            CODE    085BH     0011H     UNIT         ?PR?_SPI_READTIME?PCF85063BTL
            CODE    086CH     0011H     UNIT         ?PR?INITUART1?UART1
            CODE    087DH     000FH     UNIT         ?PR?_ISDIGIT?ISDIGIT
            CODE    088CH     000DH     UNIT         ?PR?SPI_INIT?PCF85063BTL
            CODE    0899H     000AH     UNIT         ?PR?LCD_RETURN_HOME?LCD_DRIVER_SPLC780D
            CODE    08A3H     000AH     UNIT         ?PR?LCD_CLEAR?LCD_DRIVER_SPLC780D
            CODE    08ADH     0009H     UNIT         ?PR?_SENDUART1?MAIN
            CODE    08B6H     0006H     UNIT         ?PR?_TEN?UART1
            CODE    08BCH     0005H     UNIT         ?PR?_UNIT?UART1
            CODE    08C1H     0005H     UNIT         ?PR?_ASCII_LETTER?UART1



OVERLAY MAP OF MODULE:   .\Obj\GPIO_RTC_Test (MAIN)


SEGMENT                                            BIT_GROUP          XDATA_GROUP
  +--> CALLED SEGMENT                           START    LENGTH     START    LENGTH
-----------------------------------------------------------------------------------
?PR?UART?MAIN                                   -----    -----      -----    -----
  +--> ?PR?_ASCIITOBCD?UART1

?PR?_ASCIITOBCD?UART1                           -----    -----      -----    -----
  +--> ?PR?_ATOI?ATOI

?PR?_ATOI?ATOI                                  0020H.1  0000H.1    0000H    0005H
  +--> ?PR?_ISSPACE?ISSPACE
  +--> ?PR?_ISDIGIT?ISDIGIT

*** NEW ROOT ***************************************************

?C_C51STARTUP                                   -----    -----      -----    -----
  +--> ?PR?MAIN?MAIN
  +--> ?C_INITSEG

?PR?MAIN?MAIN                                   -----    -----      0005H    000CH
  +--> ?PR?LCD_INIT?LCD_DRIVER_SPLC780D
  +--> ?PR?SPI_INIT?PCF85063BTL
  +--> ?PR?KEYPAD_IO_INIT?KEYPAD
BL51 BANKED LINKER/LOCATER V6.22                                                      05/16/2018  10:22:31  PAGE 3


  +--> ?PR?INITUART1?UART1
  +--> ?PR?_SPI_WRITETIME?PCF85063BTL
  +--> ?PR?_DELAY_MS?KEYPAD
  +--> ?PR?_DISPLAYLCD?LCD_DRIVER_SPLC780D
  +--> ?PR?_WRITEDATA?LCD_DRIVER_SPLC780D
  +--> ?PR?LCD_RETURN_HOME?LCD_DRIVER_SPLC780D
  +--> ?PR?KEY_SCAN?KEYPAD
  +--> ?PR?_SENDUART1?MAIN
  +--> ?PR?_DISPLAY_TIME?UART1

?PR?LCD_INIT?LCD_DRIVER_SPLC780D                -----    -----      -----    -----
  +--> ?PR?_WAIT_MS?LCD_DRIVER_SPLC780D
  +--> ?PR?_COMMAND?LCD_DRIVER_SPLC780D

?PR?_COMMAND?LCD_DRIVER_SPLC780D                -----    -----      -----    -----
  +--> ?PR?_WAIT_MS?LCD_DRIVER_SPLC780D

?PR?_SPI_WRITETIME?PCF85063BTL                  -----    -----      -----    -----
  +--> ?PR?_SPI_SENDBYTE?PCF85063BTL

?PR?_SPI_SENDBYTE?PCF85063BTL                   -----    -----      -----    -----
  +--> ?PR?_PCF85063BTL_DELAY?PCF85063BTL

?PR?_DISPLAYLCD?LCD_DRIVER_SPLC780D             -----    -----      0011H    0001H
  +--> ?PR?_WRITEDATA?LCD_DRIVER_SPLC780D

?PR?_WRITEDATA?LCD_DRIVER_SPLC780D              -----    -----      0012H    0001H
  +--> ?PR?_WAIT_MS?LCD_DRIVER_SPLC780D

?PR?LCD_RETURN_HOME?LCD_DRIVER_SPLC780D         -----    -----      -----    -----
  +--> ?PR?_COMMAND?LCD_DRIVER_SPLC780D

?PR?KEY_SCAN?KEYPAD                             -----    -----      0011H    0003H
  +--> ?PR?_DELAY_MS?KEYPAD

?PR?_DISPLAY_TIME?UART1                         -----    -----      0011H    000FH
  +--> ?PR?_SPI_READTIME?PCF85063BTL

?PR?_SPI_READTIME?PCF85063BTL                   -----    -----      -----    -----
  +--> ?PR?_SPI_SENDBYTE?PCF85063BTL
  +--> ?PR?SPI_RECEIVEBYTE?PCF85063BTL

?PR?SPI_RECEIVEBYTE?PCF85063BTL                 -----    -----      -----    -----
  +--> ?PR?_PCF85063BTL_DELAY?PCF85063BTL



SYMBOL TABLE OF MODULE:  .\Obj\GPIO_RTC_Test (MAIN)

  VALUE           TYPE          NAME
  ----------------------------------

  -------         MODULE        MAIN
  C:0000H         SYMBOL        _ICE_DUMMY_
  D:0080H         PUBLIC        P0
  D:0090H         PUBLIC        P1
  D:00A0H         PUBLIC        P2
BL51 BANKED LINKER/LOCATER V6.22                                                      05/16/2018  10:22:31  PAGE 4


  D:00B0H         PUBLIC        P3
  D:00C0H         PUBLIC        P4
  D:00C8H         PUBLIC        P5
  X:0028H         SYMBOL        PressedKey
  B:00A8H.7       PUBLIC        EA
  D:00E8H         PUBLIC        P6
  D:00F8H         PUBLIC        P7
  X:002CH         PUBLIC        RX_Data_Uart_Cnt
  D:00A8H         PUBLIC        IE
  D:00B8H         PUBLIC        IP
  B:0098H.0       PUBLIC        RI
  B:0098H.1       PUBLIC        TI
  C:038FH         PUBLIC        Uart
  D:00D8H         PUBLIC        CCON
  C:0026H         PUBLIC        main
  D:0099H         PUBLIC        SBUF
  D:0098H         PUBLIC        SCON
  D:0089H         PUBLIC        TMOD
  D:0088H         PUBLIC        TCON
  X:002EH         SYMBOL        KeyCount
  X:0030H         PUBLIC        Rec_data_hour
  X:0033H         PUBLIC        Rec_data_min
  D:008EH         PUBLIC        AUXR
  C:000AH         PUBLIC        tm0_isr
  B:0020H.0       PUBLIC        busy
  D:00E0H         PUBLIC        ACC
  B:00A8H.1       PUBLIC        ET0
  D:008CH         PUBLIC        TH0
  X:0036H         PUBLIC        hour_count
  D:008AH         PUBLIC        TL0
  X:0037H         PUBLIC        min_count
  B:0088H.4       PUBLIC        TR0
  X:0038H         SYMBOL        KeyNum
  X:0039H         SYMBOL        KeyNum_Old
  X:003AH         PUBLIC        st_time
  D:00D0H         PUBLIC        PSW
  C:08ADH         PUBLIC        _SendUART1
  -------         PROC          TM0_ISR
  C:000AH         LINE#         41
  C:000AH         LINE#         44
  -------         ENDPROC       TM0_ISR
  -------         PROC          MAIN
  -------         DO            
  X:0005H         SYMBOL        seconds
  X:0006H         SYMBOL        mins
  X:0007H         SYMBOL        hours
  X:0008H         SYMBOL        days
  X:0009H         SYMBOL        months
  X:0020H         SYMBOL        KeyCount
  X:0022H         SYMBOL        KeyNum_Old
  X:0023H         SYMBOL        KeyNum
  X:0024H         SYMBOL        PressedKey
  X:000AH         SYMBOL        sec_decimal
  X:000CH         SYMBOL        numStr
  -------         ENDDO         
  C:0026H         LINE#         46
  C:0026H         LINE#         47
BL51 BANKED LINKER/LOCATER V6.22                                                      05/16/2018  10:22:31  PAGE 5


  C:0026H         LINE#         54
  C:0029H         LINE#         55
  C:002CH         LINE#         56
  C:002FH         LINE#         57
  C:0032H         LINE#         59
  C:0035H         LINE#         60
  C:0038H         LINE#         61
  C:003BH         LINE#         62
  C:003DH         LINE#         63
  C:003FH         LINE#         64
  C:0041H         LINE#         66
  C:0043H         LINE#         67
  C:004AH         LINE#         68
  C:0051H         LINE#         69
  C:0058H         LINE#         70
  C:005FH         LINE#         71
  C:005FH         LINE#         72
  C:005FH         LINE#         73
  C:0067H         LINE#         74
  C:006CH         LINE#         75
  C:0074H         LINE#         76
  C:0079H         LINE#         77
  C:0083H         LINE#         84
  C:0086H         LINE#         86
  C:008EH         LINE#         87
  C:0096H         LINE#         89
  C:00A5H         LINE#         90
  C:00A5H         LINE#         91
  C:00B7H         LINE#         92
  C:00C5H         LINE#         93
  C:00D1H         LINE#         94
  C:00D1H         LINE#         95
  C:00D7H         LINE#         96
  C:00E7H         LINE#         97
  C:00F6H         LINE#         98
  C:00FBH         LINE#         99
  C:0105H         LINE#         100
  C:0105H         LINE#         102
  C:0105H         LINE#         103
  C:010FH         LINE#         104
  C:010FH         LINE#         105
  C:0119H         LINE#         106
  C:0123H         LINE#         107
  C:012AH         LINE#         108
  C:0132H         LINE#         109
  C:013AH         LINE#         110
  C:013DH         LINE#         112
  C:013DH         LINE#         113
  C:0178H         LINE#         115
  C:0178H         LINE#         116
  -------         ENDPROC       MAIN
  -------         PROC          UART
  C:038FH         LINE#         123
  C:039CH         LINE#         125
  C:039FH         LINE#         126
  C:039FH         LINE#         127
  C:03ADH         LINE#         128
BL51 BANKED LINKER/LOCATER V6.22                                                      05/16/2018  10:22:31  PAGE 6


  C:03AFH         LINE#         129
  C:03C1H         LINE#         130
  C:03D0H         LINE#         131
  C:03DBH         LINE#         132
  C:03DBH         LINE#         135
  C:03E8H         LINE#         136
  C:03EEH         LINE#         137
  C:03EEH         LINE#         138
  C:03F4H         LINE#         139
  C:0402H         LINE#         140
  C:0410H         LINE#         141
  C:0418H         LINE#         146
  C:0418H         LINE#         147
  C:0418H         LINE#         150
  C:0418H         LINE#         151
  C:041BH         LINE#         152
  C:041BH         LINE#         153
  C:041DH         LINE#         154
  C:041FH         LINE#         155
  C:041FH         LINE#         156
  -------         ENDPROC       UART
  -------         PROC          _SENDUART1
  D:0007H         SYMBOL        dat
  C:08ADH         LINE#         159
  C:08ADH         LINE#         160
  C:08ADH         LINE#         161
  C:08B0H         LINE#         162
  C:08B2H         LINE#         163
  C:08B3H         LINE#         164
  C:08B5H         LINE#         165
  -------         ENDPROC       _SENDUART1
  -------         ENDMOD        MAIN

  -------         MODULE        PCF85063BTL
  C:0000H         SYMBOL        _ICE_DUMMY_
  D:0096H         PUBLIC        P2M0
  D:0080H         PUBLIC        P0
  D:0095H         PUBLIC        P2M1
  D:0090H         PUBLIC        P1
  D:00A0H         PUBLIC        P2
  D:00B0H         PUBLIC        P3
  D:00C0H         PUBLIC        P4
  D:00C8H         PUBLIC        P5
  D:00E8H         PUBLIC        P6
  B:00A0H.2       PUBLIC        PCF85063BTL_SDI
  D:00F8H         PUBLIC        P7
  B:00A0H.1       PUBLIC        PCF85063BTL_SCK
  B:00A0H.2       PUBLIC        PCF85063BTL_SDO
  D:00A8H         PUBLIC        IE
  C:0014H         PUBLIC        _PCF85063BTL_Delay
  D:00B8H         PUBLIC        IP
  D:00D8H         PUBLIC        CCON
  C:07BDH         PUBLIC        SPI_ReceiveByte
  D:0098H         PUBLIC        SCON
  D:0088H         PUBLIC        TCON
  B:00A0H.0       PUBLIC        PCF85063BTL_CS
  C:085BH         PUBLIC        _SPI_ReadTime
BL51 BANKED LINKER/LOCATER V6.22                                                      05/16/2018  10:22:31  PAGE 7


  C:088CH         PUBLIC        SPI_Init
  C:0818H         PUBLIC        _SPI_WriteTime
  C:079DH         PUBLIC        _SPI_SendByte
  D:00D0H         PUBLIC        PSW
  C:0010H         SYMBOL        L?0020
  -------         PROC          L?0019
  -------         ENDPROC       L?0019
  C:0010H         SYMBOL        L?0020
  -------         PROC          _PCF85063BTL_DELAY
  D:0006H         SYMBOL        us
  C:0014H         LINE#         8
  C:0014H         LINE#         9
  C:0014H         LINE#         10
  C:001EH         LINE#         11
  C:001EH         LINE#         12
  C:001FH         LINE#         13
  C:0021H         LINE#         14
  -------         ENDPROC       _PCF85063BTL_DELAY
  -------         PROC          _SPI_SENDBYTE
  D:0005H         SYMBOL        dat
  -------         DO            
  D:0003H         SYMBOL        i
  -------         ENDDO         
  C:079DH         LINE#         17
  C:079FH         LINE#         18
  C:079FH         LINE#         20
  C:07A1H         LINE#         21
  C:07A1H         LINE#         22
  C:07A3H         LINE#         23
  C:07A7H         LINE#         24
  C:07A7H         LINE#         25
  C:07A9H         LINE#         26
  C:07ABH         LINE#         28
  C:07ABH         LINE#         29
  C:07ADH         LINE#         30
  C:07ADH         LINE#         31
  C:07B0H         LINE#         32
  C:07B0H         LINE#         33
  C:07B3H         LINE#         34
  C:07B7H         LINE#         35
  C:07BCH         LINE#         36
  -------         ENDPROC       _SPI_SENDBYTE
  -------         PROC          SPI_RECEIVEBYTE
  -------         DO            
  D:0003H         SYMBOL        i
  D:0005H         SYMBOL        dat
  -------         ENDDO         
  C:07BDH         LINE#         39
  C:07BDH         LINE#         40
  C:07BDH         LINE#         42
  C:07BFH         LINE#         44
  C:07C1H         LINE#         45
  C:07C2H         LINE#         46
  C:07C2H         LINE#         47
  C:07C6H         LINE#         48
  C:07C8H         LINE#         49
  C:07CBH         LINE#         51
BL51 BANKED LINKER/LOCATER V6.22                                                      05/16/2018  10:22:31  PAGE 8


  C:07CEH         LINE#         52
  C:07CEH         LINE#         53
  C:07D2H         LINE#         54
  C:07D2H         LINE#         55
  C:07D2H         LINE#         56
  C:07D5H         LINE#         57
  C:07DAH         LINE#         58
  C:07DCH         LINE#         59
  -------         ENDPROC       SPI_RECEIVEBYTE
  -------         PROC          _SPI_READTIME
  D:0007H         SYMBOL        addr
  -------         DO            
  D:0006H         SYMBOL        dat
  -------         ENDDO         
  C:085BH         LINE#         61
  C:085BH         LINE#         62
  C:085BH         LINE#         64
  C:085DH         LINE#         65
  C:085FH         LINE#         66
  C:0866H         LINE#         67
  C:0869H         LINE#         68
  C:086BH         LINE#         69
  C:086BH         LINE#         70
  -------         ENDPROC       _SPI_READTIME
  -------         PROC          _SPI_WRITETIME
  D:0002H         SYMBOL        val
  D:0005H         SYMBOL        addr
  C:0818H         LINE#         71
  C:081AH         LINE#         72
  C:081AH         LINE#         74
  C:081CH         LINE#         75
  C:0823H         LINE#         76
  C:0828H         LINE#         77
  C:082DH         LINE#         78
  C:082FH         LINE#         79
  -------         ENDPROC       _SPI_WRITETIME
  -------         PROC          SPI_INIT
  C:088CH         LINE#         83
  C:088CH         LINE#         84
  C:088CH         LINE#         89
  C:088FH         LINE#         90
  C:0892H         LINE#         91
  C:0894H         LINE#         92
  C:0896H         LINE#         93
  C:0898H         LINE#         94
  -------         ENDPROC       SPI_INIT
  -------         ENDMOD        PCF85063BTL

  -------         MODULE        UART1
  C:0000H         SYMBOL        _ICE_DUMMY_
  D:0080H         PUBLIC        P0
  D:0090H         PUBLIC        P1
  D:00A0H         PUBLIC        P2
  D:00B0H         PUBLIC        P3
  D:00C0H         PUBLIC        P4
  D:00C8H         PUBLIC        P5
  B:00A8H.7       PUBLIC        EA
BL51 BANKED LINKER/LOCATER V6.22                                                      05/16/2018  10:22:31  PAGE 9


  D:00E8H         PUBLIC        P6
  D:00F8H         PUBLIC        P7
  C:0746H         PUBLIC        _SendString
  D:00A8H         PUBLIC        IE
  B:00A8H.4       PUBLIC        ES
  D:00B8H         PUBLIC        IP
  C:0830H         PUBLIC        _ASCIItoBCD
  D:00D8H         PUBLIC        CCON
  C:086CH         PUBLIC        initUART1
  D:0098H         PUBLIC        SCON
  D:0088H         PUBLIC        TCON
  C:0022H         PUBLIC        _DectoBCD
  C:08C1H         PUBLIC        _ASCII_Letter
  D:008EH         PUBLIC        AUXR
  C:08BCH         PUBLIC        _unit
  C:08B6H         PUBLIC        _ten
  D:00D6H         PUBLIC        T2H
  D:00D7H         PUBLIC        T2L
  C:059FH         PUBLIC        _Display_time
  D:00D0H         PUBLIC        PSW
  -------         PROC          INITUART1
  C:086CH         LINE#         21
  C:086CH         LINE#         22
  C:086CH         LINE#         23
  C:086FH         LINE#         24
  C:0872H         LINE#         25
  C:0875H         LINE#         26
  C:0878H         LINE#         27
  C:087AH         LINE#         28
  C:087CH         LINE#         30
  -------         ENDPROC       INITUART1
  -------         PROC          _SENDSTRING
  X:0044H         SYMBOL        s
  C:0746H         LINE#         35
  C:0751H         LINE#         36
  C:0751H         LINE#         37
  C:0761H         LINE#         38
  C:0761H         LINE#         39
  C:0776H         LINE#         40
  C:0778H         LINE#         41
  -------         ENDPROC       _SENDSTRING
  -------         PROC          _TEN
  D:0007H         SYMBOL        BCD
  C:08B6H         LINE#         43
  C:08B6H         LINE#         44
  C:08B6H         LINE#         45
  C:08BBH         LINE#         46
  -------         ENDPROC       _TEN
  -------         PROC          _UNIT
  D:0007H         SYMBOL        BCD
  C:08BCH         LINE#         47
  C:08BCH         LINE#         48
  C:08BCH         LINE#         52
  C:08C0H         LINE#         53
  -------         ENDPROC       _UNIT
  -------         PROC          _DECTOBCD
  D:0007H         SYMBOL        dec
BL51 BANKED LINKER/LOCATER V6.22                                                      05/16/2018  10:22:31  PAGE 10


  C:0022H         LINE#         54
  C:0022H         LINE#         55
  C:0022H         LINE#         57
  C:0022H         LINE#         58
  -------         ENDPROC       _DECTOBCD
  -------         PROC          _ASCII_LETTER
  D:0007H         SYMBOL        dat
  C:08C1H         LINE#         60
  C:08C1H         LINE#         61
  C:08C1H         LINE#         63
  C:08C5H         LINE#         64
  -------         ENDPROC       _ASCII_LETTER
  -------         PROC          _ASCIITOBCD
  D:0001H         SYMBOL        ascii
  -------         DO            
  D:0007H         SYMBOL        dec_val
  D:0006H         SYMBOL        ten
  D:0007H         SYMBOL        unit
  -------         ENDDO         
  C:0830H         LINE#         66
  C:0830H         LINE#         67
  C:0830H         LINE#         69
  C:0833H         LINE#         70
  C:0839H         LINE#         71
  C:0840H         LINE#         72
  C:0846H         LINE#         74
  -------         ENDPROC       _ASCIITOBCD
  -------         PROC          _DISPLAY_TIME
  X:0011H         SYMBOL        months
  X:0014H         SYMBOL        days
  X:0017H         SYMBOL        hours
  X:001AH         SYMBOL        mins
  X:001DH         SYMBOL        seconds
  C:059FH         LINE#         75
  C:05AAH         LINE#         76
  C:05AAH         LINE#         78
  C:05BEH         LINE#         80
  C:05D2H         LINE#         82
  C:05E6H         LINE#         87
  C:05FAH         LINE#         92
  -------         ENDPROC       _DISPLAY_TIME
  -------         ENDMOD        UART1

  -------         MODULE        LCD_DRIVER_SPLC780D
  C:0000H         SYMBOL        _ICE_DUMMY_
  D:0080H         PUBLIC        P0
  D:0090H         PUBLIC        P1
  D:00A0H         PUBLIC        P2
  D:00B0H         PUBLIC        P3
  D:00C0H         PUBLIC        P4
  D:00C8H         PUBLIC        P5
  D:00E8H         PUBLIC        P6
  D:00F8H         PUBLIC        P7
  C:04B6H         PUBLIC        _WriteData
  D:00A8H         PUBLIC        IE
  D:00B8H         PUBLIC        IP
  D:00D8H         PUBLIC        CCON
BL51 BANKED LINKER/LOCATER V6.22                                                      05/16/2018  10:22:31  PAGE 11


  B:0090H.4       PUBLIC        LCD_D4
  B:0090H.5       PUBLIC        LCD_D5
  B:0090H.6       PUBLIC        LCD_D6
  C:07FBH         PUBLIC        _DisplayLCD
  B:0090H.7       PUBLIC        LCD_D7
  D:0098H         PUBLIC        SCON
  D:0088H         PUBLIC        TCON
  C:08A3H         PUBLIC        LCD_clear
  C:06CBH         PUBLIC        _Command
  C:0677H         PUBLIC        LCD_Init
  C:077FH         PUBLIC        _Wait_ms
  B:0090H.1       PUBLIC        LCD_RS
  B:0090H.2       PUBLIC        LCD_RW
  C:0899H         PUBLIC        LCD_return_home
  B:0090H.3       PUBLIC        LCD_E
  D:00D0H         PUBLIC        PSW
  -------         PROC          LCD_INIT
  C:0677H         LINE#         9
  C:0677H         LINE#         10
  C:0677H         LINE#         12
  C:067EH         LINE#         13
  C:0683H         LINE#         15
  C:068AH         LINE#         16
  C:068FH         LINE#         18
  C:0692H         LINE#         19
  C:0697H         LINE#         21
  C:069AH         LINE#         22
  C:069FH         LINE#         26
  C:06A4H         LINE#         27
  C:06A9H         LINE#         30
  C:06AEH         LINE#         31
  C:06B3H         LINE#         32
  C:06B8H         LINE#         33
  C:06BFH         LINE#         34
  C:06C4H         LINE#         35
  -------         ENDPROC       LCD_INIT
  -------         PROC          _WRITEDATA
  X:0012H         SYMBOL        dat
  C:04B6H         LINE#         38
  C:04BBH         LINE#         39
  C:04BBH         LINE#         44
  C:04BDH         LINE#         45
  C:04BFH         LINE#         47
  C:04CDH         LINE#         48
  C:04D9H         LINE#         49
  C:04E5H         LINE#         50
  C:04EFH         LINE#         51
  C:04F1H         LINE#         52
  C:04F8H         LINE#         53
  C:04FAH         LINE#         55
  C:050AH         LINE#         56
  C:0515H         LINE#         57
  C:051FH         LINE#         58
  C:0523H         LINE#         60
  C:0523H         LINE#         61
  C:0526H         LINE#         62
  C:0528H         LINE#         63
BL51 BANKED LINKER/LOCATER V6.22                                                      05/16/2018  10:22:31  PAGE 12


  C:052AH         LINE#         65
  -------         ENDPROC       _WRITEDATA
  -------         PROC          _COMMAND
  D:0007H         SYMBOL        dat
  C:06CBH         LINE#         67
  C:06CBH         LINE#         68
  C:06CBH         LINE#         69
  C:06CDH         LINE#         70
  C:06CFH         LINE#         75
  C:06D9H         LINE#         76
  C:06DDH         LINE#         78
  C:06DFH         LINE#         79
  C:06E8H         LINE#         80
  C:06ECH         LINE#         82
  C:06EEH         LINE#         83
  C:06F5H         LINE#         84
  C:06F9H         LINE#         86
  C:06FBH         LINE#         87
  C:06FFH         LINE#         88
  C:0703H         LINE#         90
  C:0705H         LINE#         94
  C:0705H         LINE#         95
  C:0708H         LINE#         96
  C:070AH         LINE#         97
  -------         ENDPROC       _COMMAND
  C:077BH         SYMBOL        L?0024
  -------         PROC          L?0023
  -------         ENDPROC       L?0023
  C:077BH         SYMBOL        L?0024
  -------         PROC          _WAIT_MS
  D:0006H         SYMBOL        ms
  -------         DO            
  D:0004H         SYMBOL        De_Cnt
  -------         ENDDO         
  C:077FH         LINE#         99
  C:077FH         LINE#         100
  C:077FH         LINE#         102
  C:0789H         LINE#         103
  C:0789H         LINE#         104
  C:079CH         LINE#         105
  C:079CH         LINE#         106
  -------         ENDPROC       _WAIT_MS
  -------         PROC          _DISPLAYLCD
  D:0007H         SYMBOL        BCD
  -------         DO            
  D:0006H         SYMBOL        first_digit
  X:0011H         SYMBOL        second_digit
  -------         ENDDO         
  C:07FBH         LINE#         107
  C:07FBH         LINE#         108
  C:07FBH         LINE#         110
  C:0802H         LINE#         111
  C:080BH         LINE#         113
  C:0810H         LINE#         115
  -------         ENDPROC       _DISPLAYLCD
  -------         PROC          LCD_RETURN_HOME
  C:0899H         LINE#         119
BL51 BANKED LINKER/LOCATER V6.22                                                      05/16/2018  10:22:31  PAGE 13


  C:0899H         LINE#         120
  C:0899H         LINE#         121
  C:089EH         LINE#         122
  -------         ENDPROC       LCD_RETURN_HOME
  -------         PROC          LCD_CLEAR
  C:08A3H         LINE#         125
  C:08A3H         LINE#         126
  C:08A3H         LINE#         127
  C:08A8H         LINE#         128
  -------         ENDPROC       LCD_CLEAR
  -------         ENDMOD        LCD_DRIVER_SPLC780D

  -------         MODULE        KEYPAD
  C:0000H         SYMBOL        _ICE_DUMMY_
  D:0093H         PUBLIC        P0M1
  D:0080H         PUBLIC        P0
  D:0090H         PUBLIC        P1
  D:00A0H         PUBLIC        P2
  D:00B0H         PUBLIC        P3
  D:00C0H         PUBLIC        P4
  D:00C8H         PUBLIC        P5
  D:00E8H         PUBLIC        P6
  D:00F8H         PUBLIC        P7
  D:00A8H         PUBLIC        IE
  C:017BH         PUBLIC        Key_Scan
  D:00B8H         PUBLIC        IP
  D:00D8H         PUBLIC        CCON
  C:0003H         PUBLIC        KeyPad_IO_Init
  C:07DDH         PUBLIC        _Delay_ms
  D:0098H         PUBLIC        SCON
  D:0088H         PUBLIC        TCON
  C:052BH         PUBLIC        Key_Process
  D:00D0H         PUBLIC        PSW
  D:0094H         PUBLIC        P0M0
  -------         PROC          _DELAY_MS
  D:0006H         SYMBOL        ms
  -------         DO            
  D:0004H         SYMBOL        De_Cnt
  -------         ENDDO         
  C:07DDH         LINE#         9
  C:07DDH         LINE#         10
  C:07DDH         LINE#         12
  C:07E7H         LINE#         13
  C:07E7H         LINE#         14
  C:07FAH         LINE#         15
  C:07FAH         LINE#         16
  -------         ENDPROC       _DELAY_MS
  -------         PROC          KEY_SCAN
  -------         DO            
  X:0011H         SYMBOL        KeyTemp1
  X:0012H         SYMBOL        KeyTemp2
  X:0013H         SYMBOL        KeyValue
  -------         ENDDO         
  C:017BH         LINE#         17
  C:017BH         LINE#         18
  C:017BH         LINE#         23
  C:017EH         LINE#         26
BL51 BANKED LINKER/LOCATER V6.22                                                      05/16/2018  10:22:31  PAGE 14


  C:0181H         LINE#         28
  C:0189H         LINE#         29
  C:0190H         LINE#         30
  C:0190H         LINE#         31
  C:0197H         LINE#         32
  C:019CH         LINE#         33
  C:01A3H         LINE#         34
  C:01A3H         LINE#         37
  C:01A6H         LINE#         38
  C:01A9H         LINE#         39
  C:01AEH         LINE#         40
  C:01B2H         LINE#         41
  C:01B2H         LINE#         42
  C:01BAH         LINE#         43
  C:01BAH         LINE#         44
  C:01BDH         LINE#         45
  C:01C5H         LINE#         46
  C:01C7H         LINE#         48
  C:01DBH         LINE#         49
  C:01DBH         LINE#         50
  C:01DBH         LINE#         51
  C:01DBH         LINE#         52
  C:01E1H         LINE#         54
  C:01E3H         LINE#         55
  C:01E3H         LINE#         56
  C:01E3H         LINE#         57
  C:01E9H         LINE#         59
  C:01EBH         LINE#         60
  C:01EBH         LINE#         61
  C:01EBH         LINE#         62
  C:01F1H         LINE#         64
  C:01F3H         LINE#         65
  C:01F3H         LINE#         66
  C:01F3H         LINE#         67
  C:01F8H         LINE#         69
  C:01F8H         LINE#         70
  C:01F8H         LINE#         71
  C:01F8H         LINE#         74
  C:01FBH         LINE#         75
  C:01FEH         LINE#         76
  C:0206H         LINE#         77
  C:020AH         LINE#         78
  C:020AH         LINE#         79
  C:0212H         LINE#         80
  C:0212H         LINE#         81
  C:0215H         LINE#         82
  C:021DH         LINE#         83
  C:021FH         LINE#         84
  C:0233H         LINE#         85
  C:0233H         LINE#         86
  C:0233H         LINE#         87
  C:0233H         LINE#         88
  C:0239H         LINE#         90
  C:023BH         LINE#         91
  C:023BH         LINE#         92
  C:023BH         LINE#         93
  C:0241H         LINE#         95
BL51 BANKED LINKER/LOCATER V6.22                                                      05/16/2018  10:22:31  PAGE 15


  C:0243H         LINE#         96
  C:0243H         LINE#         97
  C:0243H         LINE#         98
  C:0249H         LINE#         100
  C:024BH         LINE#         101
  C:024BH         LINE#         102
  C:024BH         LINE#         103
  C:0250H         LINE#         105
  C:0250H         LINE#         106
  C:0250H         LINE#         107
  C:0250H         LINE#         110
  C:0253H         LINE#         111
  C:0256H         LINE#         112
  C:025EH         LINE#         113
  C:0262H         LINE#         114
  C:0262H         LINE#         115
  C:026AH         LINE#         116
  C:026AH         LINE#         117
  C:026DH         LINE#         118
  C:0275H         LINE#         119
  C:0277H         LINE#         120
  C:028BH         LINE#         121
  C:028BH         LINE#         122
  C:028BH         LINE#         123
  C:028BH         LINE#         124
  C:0291H         LINE#         126
  C:0293H         LINE#         127
  C:0293H         LINE#         128
  C:0293H         LINE#         129
  C:0299H         LINE#         131
  C:029BH         LINE#         132
  C:029BH         LINE#         133
  C:029BH         LINE#         134
  C:02A1H         LINE#         136
  C:02A3H         LINE#         137
  C:02A3H         LINE#         138
  C:02A3H         LINE#         139
  C:02A8H         LINE#         141
  C:02A8H         LINE#         142
  C:02A8H         LINE#         143
  C:02A8H         LINE#         144
  C:02AEH         LINE#         145
  C:02AEH         LINE#         147
  C:02AEH         LINE#         148
  C:02B1H         LINE#         149
  C:02B1H         LINE#         150
  C:02B1H         LINE#         152
  C:02B1H         LINE#         153
  C:02B3H         LINE#         154
  C:02B3H         LINE#         155
  -------         ENDPROC       KEY_SCAN
  -------         PROC          KEY_PROCESS
  -------         DO            
  X:003CH         SYMBOL        KeyCount
  X:003EH         SYMBOL        KeyNum_Old
  X:003FH         SYMBOL        KeyNum
  X:0040H         SYMBOL        PressedKey
BL51 BANKED LINKER/LOCATER V6.22                                                      05/16/2018  10:22:31  PAGE 16


  -------         ENDDO         
  C:052BH         LINE#         156
  C:052BH         LINE#         157
  C:052BH         LINE#         160
  C:0533H         LINE#         161
  C:053BH         LINE#         163
  C:054AH         LINE#         164
  C:054AH         LINE#         165
  C:055CH         LINE#         166
  C:056AH         LINE#         167
  C:0576H         LINE#         168
  C:0576H         LINE#         169
  C:057CH         LINE#         170
  C:058DH         LINE#         171
  C:059EH         LINE#         172
  C:059EH         LINE#         174
  C:059EH         LINE#         176
  -------         ENDPROC       KEY_PROCESS
  -------         PROC          KEYPAD_IO_INIT
  C:0003H         LINE#         179
  C:0003H         LINE#         180
  C:0003H         LINE#         181
  C:0006H         LINE#         182
  C:0009H         LINE#         184
  -------         ENDPROC       KEYPAD_IO_INIT
  -------         ENDMOD        KEYPAD

  -------         MODULE        ?C_STARTUP
  C:042AH         SEGMENT       ?C_C51STARTUP
  I:0021H         SEGMENT       ?STACK
  C:0000H         PUBLIC        ?C_STARTUP
  D:00E0H         SYMBOL        ACC
  D:00F0H         SYMBOL        B
  D:0083H         SYMBOL        DPH
  D:0082H         SYMBOL        DPL
  N:0000H         SYMBOL        IBPSTACK
  N:0100H         SYMBOL        IBPSTACKTOP
  N:0080H         SYMBOL        IDATALEN
  C:042DH         SYMBOL        IDATALOOP
  N:0000H         SYMBOL        PBPSTACK
  N:0100H         SYMBOL        PBPSTACKTOP
  N:0000H         SYMBOL        PDATALEN
  N:0000H         SYMBOL        PDATASTART
  N:0000H         SYMBOL        PPAGE
  N:0000H         SYMBOL        PPAGEENABLE
  D:00A0H         SYMBOL        PPAGE_SFR
  D:0081H         SYMBOL        SP
  C:042AH         SYMBOL        STARTUP1
  N:0000H         SYMBOL        XBPSTACK
  N:0000H         SYMBOL        XBPSTACKTOP
  N:0000H         SYMBOL        XDATALEN
  N:0000H         SYMBOL        XDATASTART
  C:0000H         LINE#         126
  C:042AH         LINE#         133
  C:042CH         LINE#         134
  C:042DH         LINE#         135
  C:042EH         LINE#         136
BL51 BANKED LINKER/LOCATER V6.22                                                      05/16/2018  10:22:31  PAGE 17


  C:0430H         LINE#         185
  C:0433H         LINE#         196
  -------         ENDMOD        ?C_STARTUP

  -------         MODULE        ?C?CLDPTR
  C:060EH         PUBLIC        ?C?CLDPTR
  -------         ENDMOD        ?C?CLDPTR

  -------         MODULE        ?C?CSTPTR
  C:0627H         PUBLIC        ?C?CSTPTR
  -------         ENDMOD        ?C?CSTPTR

  -------         MODULE        ?C?ILDIX
  C:0639H         PUBLIC        ?C?ILDIX
  -------         ENDMOD        ?C?ILDIX

  -------         MODULE        ATOI
  C:02B4H         PUBLIC        _atoi
  -------         ENDMOD        ATOI

  -------         MODULE        ?C?IMUL
  C:064FH         PUBLIC        ?C?IMUL
  -------         ENDMOD        ?C?IMUL

  -------         MODULE        ?C?IILDX
  C:0661H         PUBLIC        ?C?IILDX
  -------         ENDMOD        ?C?IILDX

  -------         MODULE        ISDIGIT
  C:087DH         PUBLIC        _isdigit
  -------         ENDMOD        ISDIGIT

  -------         MODULE        ISSPACE
  C:0847H         PUBLIC        _isspace
  -------         ENDMOD        ISSPACE

*** WARNING L16: UNCALLED SEGMENT, IGNORED FOR OVERLAY PROCESS
    SEGMENT: ?PR?_SENDSTRING?UART1

*** WARNING L16: UNCALLED SEGMENT, IGNORED FOR OVERLAY PROCESS
    SEGMENT: ?PR?_TEN?UART1

*** WARNING L16: UNCALLED SEGMENT, IGNORED FOR OVERLAY PROCESS
    SEGMENT: ?PR?_UNIT?UART1

*** WARNING L16: UNCALLED SEGMENT, IGNORED FOR OVERLAY PROCESS
    SEGMENT: ?PR?_DECTOBCD?UART1

*** WARNING L16: UNCALLED SEGMENT, IGNORED FOR OVERLAY PROCESS
    SEGMENT: ?PR?_ASCII_LETTER?UART1

*** WARNING L16: UNCALLED SEGMENT, IGNORED FOR OVERLAY PROCESS
    SEGMENT: ?PR?LCD_CLEAR?LCD_DRIVER_SPLC780D

*** WARNING L16: UNCALLED SEGMENT, IGNORED FOR OVERLAY PROCESS
    SEGMENT: ?PR?KEY_PROCESS?KEYPAD

BL51 BANKED LINKER/LOCATER V6.22                                                      05/16/2018  10:22:31  PAGE 18


Program Size: data=17.2 xdata=71 code=2246
LINK/LOCATE RUN COMPLETE.  7 WARNING(S),  0 ERROR(S)
