BL51 BANKED LINKER/LOCATER V6.22                                                        07/29/2018  09:32:50  PAGE 1


BL51 BANKED LINKER/LOCATER V6.22, INVOKED BY:
C:\KEIL\C51\BIN\BL51.EXE .\Obj\main.obj, .\Obj\PCF85063BTL.obj, .\Obj\UART1.obj, .\Obj\LCd_Driver_SPLC780D.obj, .\Obj\Ke
>> yPad.obj, .\Obj\VCNL4035.obj, .\Obj\BipolarMotor.obj, .\Obj\STARTUP.obj TO .\Obj\GPIO_RTC_Test PRINT (.\Lis\GPIO_RTC_
>> Test.m51) RAMSIZE (256)


MEMORY MODEL: LARGE WITH FLOATING POINT ARITHMETIC


INPUT MODULES INCLUDED:
  .\Obj\main.obj (MAIN)
  .\Obj\PCF85063BTL.obj (PCF85063BTL)
  .\Obj\UART1.obj (UART1)
  .\Obj\LCd_Driver_SPLC780D.obj (LCD_DRIVER_SPLC780D)
  .\Obj\KeyPad.obj (KEYPAD)
  .\Obj\VCNL4035.obj (VCNL4035)
  .\Obj\BipolarMotor.obj (BIPOLARMOTOR)
  .\Obj\STARTUP.obj (?C_STARTUP)
  C:\KEIL\C51\LIB\C51FPL.LIB (?C?FPADD)
  C:\KEIL\C51\LIB\C51FPL.LIB (?C?FPMUL)
  C:\KEIL\C51\LIB\C51FPL.LIB (?C?FPDIV)
  C:\KEIL\C51\LIB\C51FPL.LIB (?C?FPCMP)
  C:\KEIL\C51\LIB\C51FPL.LIB (?C?FPNEG)
  C:\KEIL\C51\LIB\C51FPL.LIB (?C?FCAST)
  C:\KEIL\C51\LIB\C51FPL.LIB (?C?CASTF)
  C:\KEIL\C51\LIB\C51FPL.LIB (?C?FPGETOPN)
  C:\KEIL\C51\LIB\C51L.LIB (?C_INIT)
  C:\KEIL\C51\LIB\C51L.LIB (?C?CLDPTR)
  C:\KEIL\C51\LIB\C51L.LIB (?C?CSTPTR)
  C:\KEIL\C51\LIB\C51L.LIB (?C?IMUL)
  C:\KEIL\C51\LIB\C51L.LIB (?C?UIDIV)
  C:\KEIL\C51\LIB\C51L.LIB (?C?SIDIV)
  C:\KEIL\C51\LIB\C51L.LIB (?C?ILDIX)
  C:\KEIL\C51\LIB\C51L.LIB (?C?LNEG)
  C:\KEIL\C51\LIB\C51L.LIB (?C?LLDPTR)
  C:\KEIL\C51\LIB\C51L.LIB (?C?LSTPTR)
  C:\KEIL\C51\LIB\C51L.LIB (?C?LLDPTR0)
  C:\KEIL\C51\LIB\C51L.LIB (?C?LSTXDATA)
  C:\KEIL\C51\LIB\C51L.LIB (?C?LSTKXDATA)
  C:\KEIL\C51\LIB\C51L.LIB (?C?OFFXADD)
  C:\KEIL\C51\LIB\C51L.LIB (ABS)
  C:\KEIL\C51\LIB\C51L.LIB (ATOI)
  C:\KEIL\C51\LIB\C51L.LIB (?C?IILDX)
  C:\KEIL\C51\LIB\C51L.LIB (?C?LLDIDATA)
  C:\KEIL\C51\LIB\C51L.LIB (?C?LLDXDATA)
  C:\KEIL\C51\LIB\C51L.LIB (?C?LLDPDATA)
  C:\KEIL\C51\LIB\C51L.LIB (?C?LLDCODE)
  C:\KEIL\C51\LIB\C51L.LIB (?C?LLDIDATA0)
  C:\KEIL\C51\LIB\C51L.LIB (?C?LLDXDATA0)
  C:\KEIL\C51\LIB\C51L.LIB (?C?LLDPDATA0)
  C:\KEIL\C51\LIB\C51L.LIB (?C?LLDCODE0)
  C:\KEIL\C51\LIB\C51L.LIB (?C?LSTIDATA)
  C:\KEIL\C51\LIB\C51L.LIB (?C?LSTPDATA)
  C:\KEIL\C51\LIB\C51L.LIB (ISDIGIT)
  C:\KEIL\C51\LIB\C51L.LIB (ISSPACE)


LINK MAP OF MODULE:  .\Obj\GPIO_RTC_Test (MAIN)
BL51 BANKED LINKER/LOCATER V6.22                                                      07/29/2018  09:32:50  PAGE 2




            TYPE    BASE      LENGTH    RELOCATION   SEGMENT NAME
            -----------------------------------------------------

            * * * * * * *   D A T A   M E M O R Y   * * * * * * *
            REG     0000H     0008H     ABSOLUTE     "REG BANK 0"
            REG     0008H     0008H     ABSOLUTE     "REG BANK 1"
                    0010H     0010H                  *** GAP ***
            BIT     0020H.0   0000H.3   UNIT         ?BI?KEYPAD
            BIT     0020H.3   0000H.3   UNIT         _BIT_GROUP_
            BIT     0020H.6   0000H.1   UNIT         ?BI?MAIN
                    0020H.7   0000H.1                *** GAP ***
            IDATA   0021H     0001H     UNIT         ?STACK

            * * * * * * *  X D A T A   M E M O R Y  * * * * * * *
            XDATA   0000H     0089H     UNIT         ?XD?BIPOLARMOTOR
            XDATA   0089H     0034H     UNIT         _XDATA_GROUP_
            XDATA   00BDH     001CH     UNIT         ?XD?MAIN
            XDATA   00D9H     0009H     UNIT         ?XD?KEYPAD
            XDATA   00E2H     0008H     UNIT         ?XD?_READ_VCNL4035?VCNL4035
            XDATA   00EAH     0004H     UNIT         ?XD?_DISPLAY_PROX?MAIN
            XDATA   00EEH     0003H     UNIT         ?XD?_SENDSTRING?UART1
            XDATA   00F1H     0001H     UNIT         ?XD?UC_ACK?VCNL4035
            XDATA   00F2H     0001H     UNIT         ?XD?UC_NACK?VCNL4035
            XDATA   00F3H     0001H     UNIT         ?XD?_DISPLAYLCD_VCNL4035?VCNL4035

            * * * * * * *   C O D E   M E M O R Y   * * * * * * *
            CODE    0000H     0003H     ABSOLUTE     
            CODE    0003H     0007H     UNIT         ?PR?KEYPAD_IO_INIT?KEYPAD
            CODE    000AH     0001H     UNIT         ?PR?TM0_ISR?MAIN
            CODE    000BH     0003H     ABSOLUTE     
            CODE    000EH     0015H     UNIT         ?PR?_DISPLAY_LINE?LCD_DRIVER_SPLC780D
            CODE    0023H     0003H     ABSOLUTE     
            CODE    0026H     060EH     UNIT         ?C?LIB_CODE
            CODE    0634H     0524H     UNIT         ?PR?_UPDATE_POSITION?BIPOLARMOTOR
            CODE    0B58H     0279H     UNIT         ?PR?KEY_PROCESS?KEYPAD
            CODE    0DD1H     022CH     UNIT         ?PR?MAIN?MAIN
            CODE    0FFDH     01B5H     UNIT         ?PR?_DISPLAY_POS?MAIN
            CODE    11B2H     0194H     UNIT         ?PR?KEY_SCAN?KEYPAD
            CODE    1346H     00DBH     UNIT         ?PR?_ATOI?ATOI
            CODE    1421H     00CFH     UNIT         ?C_INITSEG
            CODE    14F0H     009BH     UNIT         ?PR?UART?MAIN
            CODE    158BH     009AH     UNIT         ?PR?_READ_VCNL4035?VCNL4035
            CODE    1625H     0095H     UNIT         ?PR?_DISPLAY_PROX?MAIN
            CODE    16BAH     008CH     UNIT         ?C_C51STARTUP
            CODE    1746H     0084H     UNIT         ?PR?_DAY_OF_YEAR?PCF85063BTL
            CODE    17CAH     0075H     UNIT         ?PR?_WRITEDATA?LCD_DRIVER_SPLC780D
            CODE    183FH     006FH     UNIT         ?PR?_READ_TIME?PCF85063BTL
            CODE    18AEH     0059H     UNIT         ?PR?_STEP_MOVE?BIPOLARMOTOR
            CODE    1907H     0054H     UNIT         ?PR?LCD_INIT?LCD_DRIVER_SPLC780D
            CODE    195BH     0049H     UNIT         ?PR?_WRITE_VCNL4035X?VCNL4035
            CODE    19A4H     0040H     UNIT         ?PR?_COMMAND?LCD_DRIVER_SPLC780D
            CODE    19E4H     0034H     UNIT         ?PR?_MOVE?BIPOLARMOTOR
            CODE    1A18H     0033H     UNIT         ?PR?_SENDSTRING?UART1
            CODE    1A4BH     002CH     UNIT         ?PR?I2C_RECEIVEBYTE?VCNL4035
            CODE    1A77H     002BH     UNIT         ?PR?_WAIT_MS_I2C?VCNL4035
BL51 BANKED LINKER/LOCATER V6.22                                                      07/29/2018  09:32:50  PAGE 3


            CODE    1AA2H     0024H     UNIT         ?PR?_WAIT_MS?LCD_DRIVER_SPLC780D
            CODE    1AC6H     0024H     UNIT         ?PR?_BCDTODEC1?BIPOLARMOTOR
            CODE    1AEAH     0022H     UNIT         ?PR?_I2C_SENDBYTE?VCNL4035
            CODE    1B0CH     0020H     UNIT         ?PR?_SPI_SENDBYTE?PCF85063BTL
            CODE    1B2CH     0020H     UNIT         ?PR?SPI_RECEIVEBYTE?PCF85063BTL
            CODE    1B4CH     001EH     UNIT         ?PR?_DELAY_MS?KEYPAD
            CODE    1B6AH     001EH     UNIT         ?PR?_WAIT_MS_IIC?VCNL4035
            CODE    1B88H     001DH     UNIT         ?PR?_DISPLAYLCD?LCD_DRIVER_SPLC780D
            CODE    1BA5H     001BH     UNIT         ?PR?I2C_ACK?VCNL4035
            CODE    1BC0H     0018H     UNIT         ?PR?_SPI_WRITETIME?PCF85063BTL
            CODE    1BD8H     0017H     UNIT         ?PR?_ASCIITOBCD?UART1
            CODE    1BEFH     0017H     UNIT         ?PR?I2C_INIT?VCNL4035
            CODE    1C06H     0015H     UNIT         ?PR?I2C_STOP?VCNL4035
            CODE    1C1BH     0014H     UNIT         ?PR?_PCF85063BTL_DELAY?PCF85063BTL
            CODE    1C2FH     0014H     UNIT         ?PR?_ISSPACE?ISSPACE
            CODE    1C43H     0013H     UNIT         ?PR?I2C_START?VCNL4035
            CODE    1C56H     0011H     UNIT         ?PR?_SPI_READTIME?PCF85063BTL
            CODE    1C67H     0011H     UNIT         ?PR?_BCDTODEC?PCF85063BTL
            CODE    1C78H     0011H     UNIT         ?PR?INITUART1?UART1
            CODE    1C89H     000FH     UNIT         ?PR?UC_NACK?VCNL4035
            CODE    1C98H     000FH     UNIT         ?PR?_ISDIGIT?ISDIGIT
            CODE    1CA7H     000DH     UNIT         ?PR?SPI_INIT?PCF85063BTL
            CODE    1CB4H     000CH     UNIT         ?PR?_ABS?ABS
            CODE    1CC0H     000AH     UNIT         ?PR?LCD_RETURN_HOME?LCD_DRIVER_SPLC780D
            CODE    1CCAH     000AH     UNIT         ?PR?LCD_CLEAR?LCD_DRIVER_SPLC780D
            CODE    1CD4H     0009H     UNIT         ?PR?_SENDUART1?MAIN
            CODE    1CDDH     0006H     UNIT         ?PR?_TEN?UART1
            CODE    1CE3H     0006H     UNIT         ?PR?UC_ACK?VCNL4035
            CODE    1CE9H     0006H     UNIT         ?PR?_DISPLAYLCD_VCNL4035?VCNL4035
            CODE    1CEFH     0005H     UNIT         ?PR?_UNIT?UART1
            CODE    1CF4H     0005H     UNIT         ?PR?_ASCII_LETTER?UART1
            CODE    1CF9H     0001H     UNIT         ?PR?_DECTOBCD?UART1
            CODE    1CFAH     0001H     UNIT         ?PR?NOP?VCNL4035



OVERLAY MAP OF MODULE:   .\Obj\GPIO_RTC_Test (MAIN)


SEGMENT                                            BIT_GROUP          XDATA_GROUP
  +--> CALLED SEGMENT                           START    LENGTH     START    LENGTH
-----------------------------------------------------------------------------------
?PR?UART?MAIN                                   -----    -----      -----    -----
  +--> ?PR?_ASCIITOBCD?UART1

?PR?_ASCIITOBCD?UART1                           -----    -----      -----    -----
  +--> ?PR?_ATOI?ATOI

?PR?_ATOI?ATOI                                  0020H.3  0000H.1    0089H    0005H
  +--> ?PR?_ISSPACE?ISSPACE
  +--> ?PR?_ISDIGIT?ISDIGIT

*** NEW ROOT ***************************************************

?C_C51STARTUP                                   -----    -----      -----    -----
  +--> ?PR?MAIN?MAIN
  +--> ?C_INITSEG
BL51 BANKED LINKER/LOCATER V6.22                                                      07/29/2018  09:32:50  PAGE 4



?PR?MAIN?MAIN                                   -----    -----      008EH    0013H
  +--> ?PR?LCD_INIT?LCD_DRIVER_SPLC780D
  +--> ?PR?SPI_INIT?PCF85063BTL
  +--> ?PR?KEYPAD_IO_INIT?KEYPAD
  +--> ?PR?INITUART1?UART1
  +--> ?PR?I2C_INIT?VCNL4035
  +--> ?PR?_SPI_WRITETIME?PCF85063BTL
  +--> ?PR?_DELAY_MS?KEYPAD
  +--> ?PR?_DISPLAY_LINE?LCD_DRIVER_SPLC780D
  +--> ?PR?_WRITEDATA?LCD_DRIVER_SPLC780D
  +--> ?PR?KEY_PROCESS?KEYPAD
  +--> ?PR?_COMMAND?LCD_DRIVER_SPLC780D
  +--> ?PR?_DISPLAY_POS?MAIN
  +--> ?PR?_DISPLAYLCD?LCD_DRIVER_SPLC780D
  +--> ?PR?_STEP_MOVE?BIPOLARMOTOR
  +--> ?PR?LCD_RETURN_HOME?LCD_DRIVER_SPLC780D
  +--> ?PR?_READ_TIME?PCF85063BTL
  +--> ?PR?_UPDATE_POSITION?BIPOLARMOTOR
  +--> ?PR?_SENDUART1?MAIN

?PR?LCD_INIT?LCD_DRIVER_SPLC780D                -----    -----      -----    -----
  +--> ?PR?_WAIT_MS?LCD_DRIVER_SPLC780D
  +--> ?PR?_COMMAND?LCD_DRIVER_SPLC780D

?PR?_COMMAND?LCD_DRIVER_SPLC780D                -----    -----      -----    -----
  +--> ?PR?_WAIT_MS?LCD_DRIVER_SPLC780D

?PR?I2C_INIT?VCNL4035                           -----    -----      -----    -----
  +--> ?PR?_WRITE_VCNL4035X?VCNL4035

?PR?_WRITE_VCNL4035X?VCNL4035                   -----    -----      00A1H    0003H
  +--> ?PR?I2C_START?VCNL4035
  +--> ?PR?_WAIT_MS_I2C?VCNL4035
  +--> ?PR?I2C_ACK?VCNL4035
  +--> ?PR?_I2C_SENDBYTE?VCNL4035
  +--> ?PR?I2C_STOP?VCNL4035

?PR?I2C_START?VCNL4035                          -----    -----      -----    -----
  +--> ?PR?_WAIT_MS_IIC?VCNL4035
  +--> ?PR?_WAIT_MS_I2C?VCNL4035

?PR?I2C_ACK?VCNL4035                            -----    -----      00A4H    0001H
  +--> ?PR?_I2C_SENDBYTE?VCNL4035
  +--> ?PR?_WAIT_MS_I2C?VCNL4035

?PR?_I2C_SENDBYTE?VCNL4035                      -----    -----      -----    -----
  +--> ?PR?_WAIT_MS_I2C?VCNL4035

?PR?I2C_STOP?VCNL4035                           -----    -----      -----    -----
  +--> ?PR?_WAIT_MS_I2C?VCNL4035

?PR?_SPI_WRITETIME?PCF85063BTL                  -----    -----      -----    -----
  +--> ?PR?_SPI_SENDBYTE?PCF85063BTL

?PR?_SPI_SENDBYTE?PCF85063BTL                   -----    -----      -----    -----
  +--> ?PR?_PCF85063BTL_DELAY?PCF85063BTL
BL51 BANKED LINKER/LOCATER V6.22                                                      07/29/2018  09:32:50  PAGE 5



?PR?_DISPLAY_LINE?LCD_DRIVER_SPLC780D           -----    -----      -----    -----
  +--> ?PR?_COMMAND?LCD_DRIVER_SPLC780D

?PR?_WRITEDATA?LCD_DRIVER_SPLC780D              -----    -----      00ABH    0001H
  +--> ?PR?_WAIT_MS?LCD_DRIVER_SPLC780D

?PR?KEY_PROCESS?KEYPAD                          -----    -----      00A1H    0006H
  +--> ?PR?KEY_SCAN?KEYPAD
  +--> ?PR?_SPI_WRITETIME?PCF85063BTL
  +--> ?PR?LCD_CLEAR?LCD_DRIVER_SPLC780D
  +--> ?PR?_COMMAND?LCD_DRIVER_SPLC780D
  +--> ?PR?_WRITEDATA?LCD_DRIVER_SPLC780D

?PR?KEY_SCAN?KEYPAD                             -----    -----      00A7H    0003H
  +--> ?PR?_DELAY_MS?KEYPAD

?PR?LCD_CLEAR?LCD_DRIVER_SPLC780D               -----    -----      -----    -----
  +--> ?PR?_COMMAND?LCD_DRIVER_SPLC780D

?PR?_DISPLAY_POS?MAIN                           -----    -----      00A1H    000AH
  +--> ?PR?_ABS?ABS
  +--> ?PR?_WRITEDATA?LCD_DRIVER_SPLC780D

?PR?_DISPLAYLCD?LCD_DRIVER_SPLC780D             -----    -----      00A1H    0001H
  +--> ?PR?_WRITEDATA?LCD_DRIVER_SPLC780D

?PR?_STEP_MOVE?BIPOLARMOTOR                     0020H.5  0000H.1    00B9H    0004H
  +--> ?PR?_WAIT_MS?LCD_DRIVER_SPLC780D

?PR?LCD_RETURN_HOME?LCD_DRIVER_SPLC780D         -----    -----      -----    -----
  +--> ?PR?_COMMAND?LCD_DRIVER_SPLC780D

?PR?_READ_TIME?PCF85063BTL                      -----    -----      00A1H    000FH
  +--> ?PR?_SPI_READTIME?PCF85063BTL

?PR?_SPI_READTIME?PCF85063BTL                   -----    -----      -----    -----
  +--> ?PR?_SPI_SENDBYTE?PCF85063BTL
  +--> ?PR?SPI_RECEIVEBYTE?PCF85063BTL

?PR?SPI_RECEIVEBYTE?PCF85063BTL                 -----    -----      -----    -----
  +--> ?PR?_PCF85063BTL_DELAY?PCF85063BTL

?PR?_UPDATE_POSITION?BIPOLARMOTOR               -----    -----      00A1H    0014H
  +--> ?PR?_DAY_OF_YEAR?PCF85063BTL
  +--> ?PR?_BCDTODEC1?BIPOLARMOTOR
  +--> ?PR?_MOVE?BIPOLARMOTOR

?PR?_DAY_OF_YEAR?PCF85063BTL                    -----    -----      -----    -----
  +--> ?PR?_BCDTODEC?PCF85063BTL

?PR?_MOVE?BIPOLARMOTOR                          0020H.4  0000H.1    00B5H    0004H
  +--> ?PR?_STEP_MOVE?BIPOLARMOTOR



SYMBOL TABLE OF MODULE:  .\Obj\GPIO_RTC_Test (MAIN)
BL51 BANKED LINKER/LOCATER V6.22                                                      07/29/2018  09:32:50  PAGE 6



  VALUE           TYPE          NAME
  ----------------------------------

  -------         MODULE        MAIN
  C:0000H         SYMBOL        _ICE_DUMMY_
  D:0080H         PUBLIC        P0
  D:0090H         PUBLIC        P1
  D:00A0H         PUBLIC        P2
  D:00B0H         PUBLIC        P3
  D:00C0H         PUBLIC        P4
  D:00C8H         PUBLIC        P5
  X:00C5H         SYMBOL        PressedKey
  B:00A8H.7       PUBLIC        EA
  D:00E8H         PUBLIC        P6
  D:00F8H         PUBLIC        P7
  X:00C9H         PUBLIC        RX_Data_Uart_Cnt
  D:00A8H         PUBLIC        IE
  D:00B8H         PUBLIC        IP
  B:0098H.0       PUBLIC        RI
  B:0098H.1       PUBLIC        TI
  C:14F0H         PUBLIC        Uart
  D:00D8H         PUBLIC        CCON
  C:0DD1H         PUBLIC        main
  D:0099H         PUBLIC        SBUF
  D:0098H         PUBLIC        SCON
  D:0089H         PUBLIC        TMOD
  D:0088H         PUBLIC        TCON
  B:00B0H.3       PUBLIC        P33
  X:00CBH         SYMBOL        KeyCount
  X:00CDH         PUBLIC        Rec_data_hour
  X:00D0H         PUBLIC        Rec_data_min
  D:008EH         PUBLIC        AUXR
  C:000AH         PUBLIC        tm0_isr
  B:0020H.6       PUBLIC        busy
  D:00E0H         PUBLIC        ACC
  B:00A8H.1       PUBLIC        ET0
  D:008CH         PUBLIC        TH0
  X:00D3H         PUBLIC        hour_count
  D:008AH         PUBLIC        TL0
  X:00D4H         PUBLIC        min_count
  B:0088H.4       PUBLIC        TR0
  X:00D5H         SYMBOL        KeyNum
  X:00D6H         SYMBOL        KeyNum_Old
  C:1625H         PUBLIC        _Display_Prox
  C:0FFDH         PUBLIC        _Display_Pos
  X:00D7H         PUBLIC        st_time
  D:00D0H         PUBLIC        PSW
  C:1CD4H         PUBLIC        _SendUART1
  -------         PROC          TM0_ISR
  C:000AH         LINE#         53
  C:000AH         LINE#         56
  -------         ENDPROC       TM0_ISR
  -------         PROC          MAIN
  -------         DO            
  X:008EH         SYMBOL        seconds
  X:008FH         SYMBOL        mins
BL51 BANKED LINKER/LOCATER V6.22                                                      07/29/2018  09:32:50  PAGE 7


  X:0090H         SYMBOL        hours
  X:0091H         SYMBOL        days
  X:0092H         SYMBOL        months
  X:0093H         SYMBOL        prox_data
  X:00BDH         SYMBOL        KeyCount
  X:00BFH         SYMBOL        KeyNum_Old
  X:00C0H         SYMBOL        KeyNum
  X:00C1H         SYMBOL        PressedKey
  X:0095H         SYMBOL        prox_flag
  X:0096H         SYMBOL        count
  X:0098H         SYMBOL        numStr
  X:009DH         SYMBOL        current_position
  -------         ENDDO         
  C:0DD1H         LINE#         58
  C:0DD1H         LINE#         59
  C:0DD1H         LINE#         64
  C:0DD7H         LINE#         66
  C:0DDCH         LINE#         68
  C:0DE6H         LINE#         69
  C:0DE8H         LINE#         70
  C:0DEAH         LINE#         71
  C:0DECH         LINE#         80
  C:0DEFH         LINE#         81
  C:0DF2H         LINE#         82
  C:0DF5H         LINE#         83
  C:0DF8H         LINE#         84
  C:0DFBH         LINE#         86
  C:0DFEH         LINE#         87
  C:0E01H         LINE#         88
  C:0E04H         LINE#         89
  C:0E06H         LINE#         90
  C:0E08H         LINE#         91
  C:0E0AH         LINE#         93
  C:0E0CH         LINE#         94
  C:0E13H         LINE#         95
  C:0E1AH         LINE#         96
  C:0E21H         LINE#         97
  C:0E28H         LINE#         101
  C:0E2FH         LINE#         102
  C:0E34H         LINE#         103
  C:0E39H         LINE#         104
  C:0E3EH         LINE#         105
  C:0E43H         LINE#         106
  C:0E48H         LINE#         109
  C:0E48H         LINE#         110
  C:0E48H         LINE#         111
  C:0E4BH         LINE#         112
  C:0E59H         LINE#         114
  C:0E59H         LINE#         117
  C:0E5EH         LINE#         118
  C:0E63H         LINE#         120
  C:0E68H         LINE#         121
  C:0E6DH         LINE#         122
  C:0E72H         LINE#         123
  C:0E77H         LINE#         125
  C:0E88H         LINE#         127
  C:0E8FH         LINE#         128
BL51 BANKED LINKER/LOCATER V6.22                                                      07/29/2018  09:32:50  PAGE 8


  C:0E97H         LINE#         129
  C:0E9CH         LINE#         130
  C:0EA4H         LINE#         131
  C:0EA9H         LINE#         132
  C:0EB3H         LINE#         134
  C:0EBBH         LINE#         136
  C:0EC3H         LINE#         148
  C:0EC6H         LINE#         149
  C:0EC6H         LINE#         150
  C:0ED1H         LINE#         151
  C:0EE8H         LINE#         152
  C:0EE8H         LINE#         153
  C:0EEAH         LINE#         154
  C:0EECH         LINE#         156
  C:0EECH         LINE#         157
  C:0EF7H         LINE#         158
  C:0EF7H         LINE#         159
  C:0EFCH         LINE#         160
  C:0EFCH         LINE#         161
  C:0EFFH         LINE#         162
  C:0EFFH         LINE#         163
  C:0F01H         LINE#         164
  C:0F0CH         LINE#         165
  C:0F23H         LINE#         166
  C:0F23H         LINE#         167
  C:0F25H         LINE#         168
  C:0F27H         LINE#         170
  C:0F27H         LINE#         171
  C:0F32H         LINE#         172
  C:0F32H         LINE#         173
  C:0F37H         LINE#         174
  C:0F37H         LINE#         182
  C:0F40H         LINE#         183
  C:0F40H         LINE#         184
  C:0F4AH         LINE#         185
  C:0F50H         LINE#         186
  C:0F52H         LINE#         187
  C:0F54H         LINE#         188
  C:0F56H         LINE#         189
  C:0F56H         LINE#         190
  C:0F59H         LINE#         192
  C:0F59H         LINE#         193
  C:0F94H         LINE#         194
  C:0FC2H         LINE#         198
  C:0FCFH         LINE#         199
  C:0FCFH         LINE#         200
  C:0FD9H         LINE#         201
  C:0FE3H         LINE#         202
  C:0FEAH         LINE#         203
  C:0FF2H         LINE#         204
  C:0FFAH         LINE#         205
  -------         ENDPROC       MAIN
  -------         PROC          UART
  C:14F0H         LINE#         218
  C:14FDH         LINE#         220
  C:1500H         LINE#         221
  C:1500H         LINE#         222
BL51 BANKED LINKER/LOCATER V6.22                                                      07/29/2018  09:32:50  PAGE 9


  C:150EH         LINE#         223
  C:1510H         LINE#         224
  C:1522H         LINE#         225
  C:1531H         LINE#         226
  C:153CH         LINE#         227
  C:153CH         LINE#         230
  C:1549H         LINE#         231
  C:154FH         LINE#         232
  C:154FH         LINE#         233
  C:1555H         LINE#         234
  C:1563H         LINE#         235
  C:1571H         LINE#         236
  C:1579H         LINE#         241
  C:1579H         LINE#         242
  C:1579H         LINE#         245
  C:1579H         LINE#         246
  C:157CH         LINE#         247
  C:157CH         LINE#         248
  C:157EH         LINE#         249
  C:1580H         LINE#         250
  C:1580H         LINE#         251
  -------         ENDPROC       UART
  -------         PROC          _SENDUART1
  D:0007H         SYMBOL        dat
  C:1CD4H         LINE#         254
  C:1CD4H         LINE#         255
  C:1CD4H         LINE#         256
  C:1CD7H         LINE#         257
  C:1CD9H         LINE#         258
  C:1CDAH         LINE#         259
  C:1CDCH         LINE#         260
  -------         ENDPROC       _SENDUART1
  -------         PROC          _DISPLAY_PROX
  D:0002H         SYMBOL        dat
  -------         DO            
  X:00EAH         SYMBOL        unit
  X:00EBH         SYMBOL        ten
  X:00ECH         SYMBOL        hundred
  X:00EDH         SYMBOL        thousand
  -------         ENDDO         
  C:1625H         LINE#         263
  C:1629H         LINE#         264
  C:1629H         LINE#         266
  C:1635H         LINE#         267
  C:1645H         LINE#         268
  C:1661H         LINE#         269
  C:1691H         LINE#         270
  C:169BH         LINE#         271
  C:16A5H         LINE#         272
  C:16AFH         LINE#         273
  C:16B9H         LINE#         275
  -------         ENDPROC       _DISPLAY_PROX
  -------         PROC          _DISPLAY_POS
  X:00A1H         SYMBOL        sign_dat
  -------         DO            
  X:00A5H         SYMBOL        unit
  X:00A6H         SYMBOL        ten
BL51 BANKED LINKER/LOCATER V6.22                                                      07/29/2018  09:32:50  PAGE 10


  X:00A7H         SYMBOL        hundred
  D:0003H         SYMBOL        thousand
  X:00A8H         SYMBOL        after_dot
  X:00A9H         SYMBOL        dat
  -------         ENDDO         
  C:0FFDH         LINE#         278
  C:1003H         LINE#         279
  C:1003H         LINE#         283
  C:101FH         LINE#         284
  C:1039H         LINE#         285
  C:105DH         LINE#         287
  C:10A7H         LINE#         289
  C:10BEH         LINE#         290
  C:10CBH         LINE#         291
  C:10EDH         LINE#         292
  C:1122H         LINE#         293
  C:113AH         LINE#         294
  C:113AH         LINE#         296
  C:1144H         LINE#         297
  C:114EH         LINE#         298
  C:1158H         LINE#         299
  C:115DH         LINE#         300
  C:1167H         LINE#         301
  C:116CH         LINE#         302
  C:1171H         LINE#         303
  C:1173H         LINE#         304
  C:1175H         LINE#         306
  C:1175H         LINE#         308
  C:117AH         LINE#         309
  C:1184H         LINE#         310
  C:118EH         LINE#         311
  C:1198H         LINE#         312
  C:119DH         LINE#         313
  C:11A7H         LINE#         314
  C:11ACH         LINE#         315
  C:11B1H         LINE#         317
  C:11B1H         LINE#         319
  -------         ENDPROC       _DISPLAY_POS
  -------         ENDMOD        MAIN

  -------         MODULE        PCF85063BTL
  C:0000H         SYMBOL        _ICE_DUMMY_
  D:0096H         PUBLIC        P2M0
  D:0080H         PUBLIC        P0
  D:0095H         PUBLIC        P2M1
  D:0090H         PUBLIC        P1
  D:00A0H         PUBLIC        P2
  D:00B0H         PUBLIC        P3
  D:00C0H         PUBLIC        P4
  D:00C8H         PUBLIC        P5
  D:00E8H         PUBLIC        P6
  B:00A0H.2       PUBLIC        PCF85063BTL_SDI
  D:00F8H         PUBLIC        P7
  B:00A0H.1       PUBLIC        PCF85063BTL_SCK
  B:00A0H.2       PUBLIC        PCF85063BTL_SDO
  D:00A8H         PUBLIC        IE
  C:183FH         PUBLIC        _Read_time
BL51 BANKED LINKER/LOCATER V6.22                                                      07/29/2018  09:32:50  PAGE 11


  C:1C21H         PUBLIC        _PCF85063BTL_Delay
  D:00B8H         PUBLIC        IP
  D:00D8H         PUBLIC        CCON
  C:1746H         PUBLIC        _Day_Of_Year
  C:1B2CH         PUBLIC        SPI_ReceiveByte
  D:0098H         PUBLIC        SCON
  D:0088H         PUBLIC        TCON
  C:1C67H         PUBLIC        _BCDtoDec
  B:00A0H.0       PUBLIC        PCF85063BTL_CS
  C:1C56H         PUBLIC        _SPI_ReadTime
  C:1CA7H         PUBLIC        SPI_Init
  C:1BC0H         PUBLIC        _SPI_WriteTime
  C:1B0CH         PUBLIC        _SPI_SendByte
  D:00D0H         PUBLIC        PSW
  C:1C1DH         SYMBOL        L?0047
  -------         PROC          L?0046
  -------         ENDPROC       L?0046
  C:1C1DH         SYMBOL        L?0047
  -------         PROC          _PCF85063BTL_DELAY
  D:0006H         SYMBOL        us
  C:1C21H         LINE#         8
  C:1C21H         LINE#         9
  C:1C21H         LINE#         10
  C:1C2BH         LINE#         11
  C:1C2BH         LINE#         12
  C:1C2CH         LINE#         13
  C:1C2EH         LINE#         14
  -------         ENDPROC       _PCF85063BTL_DELAY
  -------         PROC          _SPI_SENDBYTE
  D:0005H         SYMBOL        dat
  -------         DO            
  D:0003H         SYMBOL        i
  -------         ENDDO         
  C:1B0CH         LINE#         17
  C:1B0EH         LINE#         18
  C:1B0EH         LINE#         20
  C:1B10H         LINE#         21
  C:1B10H         LINE#         22
  C:1B12H         LINE#         23
  C:1B16H         LINE#         24
  C:1B16H         LINE#         25
  C:1B18H         LINE#         26
  C:1B1AH         LINE#         28
  C:1B1AH         LINE#         29
  C:1B1CH         LINE#         30
  C:1B1CH         LINE#         31
  C:1B1FH         LINE#         32
  C:1B1FH         LINE#         33
  C:1B22H         LINE#         34
  C:1B26H         LINE#         35
  C:1B2BH         LINE#         36
  -------         ENDPROC       _SPI_SENDBYTE
  -------         PROC          SPI_RECEIVEBYTE
  -------         DO            
  D:0003H         SYMBOL        i
  D:0005H         SYMBOL        dat
  -------         ENDDO         
BL51 BANKED LINKER/LOCATER V6.22                                                      07/29/2018  09:32:50  PAGE 12


  C:1B2CH         LINE#         39
  C:1B2CH         LINE#         40
  C:1B2CH         LINE#         42
  C:1B2EH         LINE#         44
  C:1B30H         LINE#         45
  C:1B31H         LINE#         46
  C:1B31H         LINE#         47
  C:1B35H         LINE#         48
  C:1B37H         LINE#         49
  C:1B3AH         LINE#         51
  C:1B3DH         LINE#         52
  C:1B3DH         LINE#         53
  C:1B41H         LINE#         54
  C:1B41H         LINE#         55
  C:1B41H         LINE#         56
  C:1B44H         LINE#         57
  C:1B49H         LINE#         58
  C:1B4BH         LINE#         59
  -------         ENDPROC       SPI_RECEIVEBYTE
  -------         PROC          _SPI_READTIME
  D:0007H         SYMBOL        addr
  -------         DO            
  D:0006H         SYMBOL        dat
  -------         ENDDO         
  C:1C56H         LINE#         61
  C:1C56H         LINE#         62
  C:1C56H         LINE#         64
  C:1C58H         LINE#         65
  C:1C5AH         LINE#         66
  C:1C61H         LINE#         67
  C:1C64H         LINE#         68
  C:1C66H         LINE#         69
  C:1C66H         LINE#         70
  -------         ENDPROC       _SPI_READTIME
  -------         PROC          _SPI_WRITETIME
  D:0002H         SYMBOL        val
  D:0005H         SYMBOL        addr
  C:1BC0H         LINE#         71
  C:1BC2H         LINE#         72
  C:1BC2H         LINE#         74
  C:1BC4H         LINE#         75
  C:1BCBH         LINE#         76
  C:1BD0H         LINE#         77
  C:1BD5H         LINE#         78
  C:1BD7H         LINE#         79
  -------         ENDPROC       _SPI_WRITETIME
  -------         PROC          SPI_INIT
  C:1CA7H         LINE#         83
  C:1CA7H         LINE#         84
  C:1CA7H         LINE#         89
  C:1CAAH         LINE#         90
  C:1CADH         LINE#         91
  C:1CAFH         LINE#         92
  C:1CB1H         LINE#         93
  C:1CB3H         LINE#         94
  -------         ENDPROC       SPI_INIT
  -------         PROC          _READ_TIME
BL51 BANKED LINKER/LOCATER V6.22                                                      07/29/2018  09:32:50  PAGE 13


  X:00A1H         SYMBOL        months
  X:00A4H         SYMBOL        days
  X:00A7H         SYMBOL        hours
  X:00AAH         SYMBOL        mins
  X:00ADH         SYMBOL        seconds
  C:183FH         LINE#         96
  C:184AH         LINE#         97
  C:184AH         LINE#         99
  C:185EH         LINE#         101
  C:1872H         LINE#         103
  C:1886H         LINE#         108
  C:189AH         LINE#         113
  -------         ENDPROC       _READ_TIME
  -------         PROC          _BCDTODEC
  D:0007H         SYMBOL        bcd
  -------         DO            
  D:0006H         SYMBOL        hi
  D:0007H         SYMBOL        lo
  -------         ENDDO         
  C:1C67H         LINE#         119
  C:1C67H         LINE#         120
  C:1C67H         LINE#         122
  C:1C6CH         LINE#         123
  C:1C70H         LINE#         124
  C:1C77H         LINE#         125
  -------         ENDPROC       _BCDTODEC
  -------         PROC          _DAY_OF_YEAR
  D:0007H         SYMBOL        months_bcd
  D:0005H         SYMBOL        days_bcd
  -------         DO            
  D:0004H         SYMBOL        months
  D:0007H         SYMBOL        days
  -------         ENDDO         
  C:1746H         LINE#         126
  C:1746H         LINE#         127
  C:1746H         LINE#         130
  C:174BH         LINE#         132
  C:1750H         LINE#         134
  C:1789H         LINE#         135
  C:1789H         LINE#         136
  C:1789H         LINE#         137
  C:178CH         LINE#         138
  C:178CH         LINE#         139
  C:178CH         LINE#         140
  C:1791H         LINE#         141
  C:1791H         LINE#         142
  C:1791H         LINE#         143
  C:1796H         LINE#         144
  C:1796H         LINE#         145
  C:1796H         LINE#         146
  C:179BH         LINE#         147
  C:179BH         LINE#         148
  C:179BH         LINE#         149
  C:17A0H         LINE#         150
  C:17A0H         LINE#         151
  C:17A0H         LINE#         152
  C:17A5H         LINE#         153
BL51 BANKED LINKER/LOCATER V6.22                                                      07/29/2018  09:32:50  PAGE 14


  C:17A5H         LINE#         154
  C:17A5H         LINE#         155
  C:17AAH         LINE#         156
  C:17AAH         LINE#         157
  C:17AAH         LINE#         158
  C:17AFH         LINE#         159
  C:17AFH         LINE#         160
  C:17AFH         LINE#         161
  C:17B7H         LINE#         162
  C:17B7H         LINE#         163
  C:17B7H         LINE#         164
  C:17BCH         LINE#         165
  C:17BCH         LINE#         166
  C:17BCH         LINE#         167
  C:17C1H         LINE#         168
  C:17C1H         LINE#         169
  C:17C1H         LINE#         170
  C:17C9H         LINE#         171
  C:17C9H         LINE#         172
  C:17C9H         LINE#         173
  -------         ENDPROC       _DAY_OF_YEAR
  -------         ENDMOD        PCF85063BTL

  -------         MODULE        UART1
  C:0000H         SYMBOL        _ICE_DUMMY_
  D:0080H         PUBLIC        P0
  D:0090H         PUBLIC        P1
  D:00A0H         PUBLIC        P2
  D:00B0H         PUBLIC        P3
  D:00C0H         PUBLIC        P4
  D:00C8H         PUBLIC        P5
  B:00A8H.7       PUBLIC        EA
  D:00E8H         PUBLIC        P6
  D:00F8H         PUBLIC        P7
  C:1A18H         PUBLIC        _SendString
  D:00A8H         PUBLIC        IE
  B:00A8H.4       PUBLIC        ES
  D:00B8H         PUBLIC        IP
  C:1BD8H         PUBLIC        _ASCIItoBCD
  D:00D8H         PUBLIC        CCON
  C:1C78H         PUBLIC        initUART1
  D:0098H         PUBLIC        SCON
  D:0088H         PUBLIC        TCON
  C:1CF9H         PUBLIC        _DectoBCD
  C:1CF4H         PUBLIC        _ASCII_Letter
  D:008EH         PUBLIC        AUXR
  C:1CEFH         PUBLIC        _unit
  C:1CDDH         PUBLIC        _ten
  D:00D6H         PUBLIC        T2H
  D:00D7H         PUBLIC        T2L
  D:00D0H         PUBLIC        PSW
  -------         PROC          INITUART1
  C:1C78H         LINE#         21
  C:1C78H         LINE#         22
  C:1C78H         LINE#         23
  C:1C7BH         LINE#         24
  C:1C7EH         LINE#         25
BL51 BANKED LINKER/LOCATER V6.22                                                      07/29/2018  09:32:50  PAGE 15


  C:1C81H         LINE#         26
  C:1C84H         LINE#         27
  C:1C86H         LINE#         28
  C:1C88H         LINE#         30
  -------         ENDPROC       INITUART1
  -------         PROC          _SENDSTRING
  X:00EEH         SYMBOL        s
  C:1A18H         LINE#         35
  C:1A23H         LINE#         36
  C:1A23H         LINE#         37
  C:1A33H         LINE#         38
  C:1A33H         LINE#         39
  C:1A48H         LINE#         40
  C:1A4AH         LINE#         41
  -------         ENDPROC       _SENDSTRING
  -------         PROC          _TEN
  D:0007H         SYMBOL        BCD
  C:1CDDH         LINE#         43
  C:1CDDH         LINE#         44
  C:1CDDH         LINE#         45
  C:1CE2H         LINE#         46
  -------         ENDPROC       _TEN
  -------         PROC          _UNIT
  D:0007H         SYMBOL        BCD
  C:1CEFH         LINE#         47
  C:1CEFH         LINE#         48
  C:1CEFH         LINE#         52
  C:1CF3H         LINE#         53
  -------         ENDPROC       _UNIT
  -------         PROC          _DECTOBCD
  D:0007H         SYMBOL        dec
  C:1CF9H         LINE#         54
  C:1CF9H         LINE#         55
  C:1CF9H         LINE#         57
  C:1CF9H         LINE#         58
  -------         ENDPROC       _DECTOBCD
  -------         PROC          _ASCII_LETTER
  D:0007H         SYMBOL        dat
  C:1CF4H         LINE#         60
  C:1CF4H         LINE#         61
  C:1CF4H         LINE#         63
  C:1CF8H         LINE#         64
  -------         ENDPROC       _ASCII_LETTER
  -------         PROC          _ASCIITOBCD
  D:0001H         SYMBOL        ascii
  -------         DO            
  D:0007H         SYMBOL        dec_val
  D:0006H         SYMBOL        ten
  D:0007H         SYMBOL        unit
  -------         ENDDO         
  C:1BD8H         LINE#         66
  C:1BD8H         LINE#         67
  C:1BD8H         LINE#         69
  C:1BDBH         LINE#         70
  C:1BE1H         LINE#         71
  C:1BE8H         LINE#         72
  C:1BEEH         LINE#         74
BL51 BANKED LINKER/LOCATER V6.22                                                      07/29/2018  09:32:50  PAGE 16


  -------         ENDPROC       _ASCIITOBCD
  -------         ENDMOD        UART1

  -------         MODULE        LCD_DRIVER_SPLC780D
  C:0000H         SYMBOL        _ICE_DUMMY_
  D:0080H         PUBLIC        P0
  D:0090H         PUBLIC        P1
  D:00A0H         PUBLIC        P2
  D:00B0H         PUBLIC        P3
  D:00C0H         PUBLIC        P4
  D:00C8H         PUBLIC        P5
  D:00E8H         PUBLIC        P6
  D:00F8H         PUBLIC        P7
  C:17CAH         PUBLIC        _WriteData
  D:00A8H         PUBLIC        IE
  D:00B8H         PUBLIC        IP
  D:00D8H         PUBLIC        CCON
  B:0090H.4       PUBLIC        LCD_D4
  B:0090H.5       PUBLIC        LCD_D5
  B:0090H.6       PUBLIC        LCD_D6
  C:1B88H         PUBLIC        _DisplayLCD
  B:0090H.7       PUBLIC        LCD_D7
  D:0098H         PUBLIC        SCON
  D:0088H         PUBLIC        TCON
  C:1CCAH         PUBLIC        LCD_clear
  C:19A4H         PUBLIC        _Command
  C:000EH         PUBLIC        _Display_Line
  C:1907H         PUBLIC        LCD_Init
  C:1AA8H         PUBLIC        _Wait_ms
  B:0090H.1       PUBLIC        LCD_RS
  B:0090H.2       PUBLIC        LCD_RW
  C:1CC0H         PUBLIC        LCD_return_home
  B:0090H.3       PUBLIC        LCD_E
  D:00D0H         PUBLIC        PSW
  -------         PROC          LCD_INIT
  C:1907H         LINE#         9
  C:1907H         LINE#         10
  C:1907H         LINE#         12
  C:190EH         LINE#         13
  C:1913H         LINE#         15
  C:191AH         LINE#         16
  C:191FH         LINE#         18
  C:1922H         LINE#         19
  C:1927H         LINE#         21
  C:192AH         LINE#         22
  C:192FH         LINE#         24
  C:1936H         LINE#         27
  C:193BH         LINE#         28
  C:1940H         LINE#         30
  C:1945H         LINE#         31
  C:194AH         LINE#         33
  C:194FH         LINE#         34
  C:1954H         LINE#         35
  -------         ENDPROC       LCD_INIT
  -------         PROC          _WRITEDATA
  X:00ABH         SYMBOL        dat
  C:17CAH         LINE#         38
BL51 BANKED LINKER/LOCATER V6.22                                                      07/29/2018  09:32:50  PAGE 17


  C:17CFH         LINE#         39
  C:17CFH         LINE#         44
  C:17D1H         LINE#         45
  C:17D3H         LINE#         47
  C:17E1H         LINE#         48
  C:17EDH         LINE#         49
  C:17F9H         LINE#         50
  C:1803H         LINE#         51
  C:1805H         LINE#         52
  C:180CH         LINE#         53
  C:180EH         LINE#         55
  C:181EH         LINE#         56
  C:1829H         LINE#         57
  C:1833H         LINE#         58
  C:1837H         LINE#         60
  C:1837H         LINE#         61
  C:183AH         LINE#         62
  C:183CH         LINE#         63
  C:183EH         LINE#         65
  -------         ENDPROC       _WRITEDATA
  -------         PROC          _COMMAND
  D:0007H         SYMBOL        dat
  C:19A4H         LINE#         67
  C:19A4H         LINE#         68
  C:19A4H         LINE#         69
  C:19A6H         LINE#         70
  C:19A8H         LINE#         72
  C:19B2H         LINE#         73
  C:19B6H         LINE#         75
  C:19B8H         LINE#         76
  C:19C1H         LINE#         77
  C:19C5H         LINE#         79
  C:19C7H         LINE#         80
  C:19CEH         LINE#         81
  C:19D2H         LINE#         83
  C:19D4H         LINE#         84
  C:19D8H         LINE#         85
  C:19DCH         LINE#         87
  C:19DEH         LINE#         88
  C:19DEH         LINE#         89
  C:19E1H         LINE#         90
  C:19E3H         LINE#         91
  -------         ENDPROC       _COMMAND
  C:1AA4H         SYMBOL        L?0028
  -------         PROC          L?0027
  -------         ENDPROC       L?0027
  C:1AA4H         SYMBOL        L?0028
  -------         PROC          _WAIT_MS
  D:0006H         SYMBOL        ms
  -------         DO            
  D:0004H         SYMBOL        De_Cnt
  -------         ENDDO         
  C:1AA8H         LINE#         93
  C:1AA8H         LINE#         94
  C:1AA8H         LINE#         96
  C:1AB2H         LINE#         97
  C:1AB2H         LINE#         98
BL51 BANKED LINKER/LOCATER V6.22                                                      07/29/2018  09:32:50  PAGE 18


  C:1AC5H         LINE#         99
  C:1AC5H         LINE#         100
  -------         ENDPROC       _WAIT_MS
  -------         PROC          _DISPLAYLCD
  D:0007H         SYMBOL        BCD
  -------         DO            
  D:0006H         SYMBOL        first_digit
  X:00A1H         SYMBOL        second_digit
  -------         ENDDO         
  C:1B88H         LINE#         101
  C:1B88H         LINE#         102
  C:1B88H         LINE#         104
  C:1B8FH         LINE#         105
  C:1B98H         LINE#         107
  C:1B9DH         LINE#         109
  -------         ENDPROC       _DISPLAYLCD
  -------         PROC          LCD_RETURN_HOME
  C:1CC0H         LINE#         113
  C:1CC0H         LINE#         114
  C:1CC0H         LINE#         115
  C:1CC5H         LINE#         116
  -------         ENDPROC       LCD_RETURN_HOME
  -------         PROC          LCD_CLEAR
  C:1CCAH         LINE#         119
  C:1CCAH         LINE#         120
  C:1CCAH         LINE#         121
  C:1CCFH         LINE#         122
  -------         ENDPROC       LCD_CLEAR
  -------         PROC          _DISPLAY_LINE
  D:0006H         SYMBOL        line
  C:000EH         LINE#         126
  C:000EH         LINE#         127
  C:000EH         LINE#         128
  C:0014H         LINE#         129
  C:0014H         LINE#         130
  C:0016H         LINE#         131
  C:0016H         LINE#         132
  C:0018H         LINE#         134
  C:0018H         LINE#         135
  C:001DH         LINE#         136
  C:0022H         LINE#         137
  C:0022H         LINE#         138
  -------         ENDPROC       _DISPLAY_LINE
  -------         ENDMOD        LCD_DRIVER_SPLC780D

  -------         MODULE        KEYPAD
  C:0000H         SYMBOL        _ICE_DUMMY_
  D:0093H         PUBLIC        P0M1
  D:0080H         PUBLIC        P0
  D:0090H         PUBLIC        P1
  D:00A0H         PUBLIC        P2
  D:00B0H         PUBLIC        P3
  D:00C0H         PUBLIC        P4
  D:00C8H         PUBLIC        P5
  D:00E8H         PUBLIC        P6
  D:00F8H         PUBLIC        P7
  D:00A8H         PUBLIC        IE
BL51 BANKED LINKER/LOCATER V6.22                                                      07/29/2018  09:32:50  PAGE 19


  C:11B2H         PUBLIC        Key_Scan
  D:00B8H         PUBLIC        IP
  D:00D8H         PUBLIC        CCON
  C:0003H         PUBLIC        KeyPad_IO_Init
  C:1B4CH         PUBLIC        _Delay_ms
  D:0098H         PUBLIC        SCON
  D:0088H         PUBLIC        TCON
  B:0020H.0       PUBLIC        small_move
  B:0020H.1       PUBLIC        move
  B:0020H.2       PUBLIC        direction
  C:0B58H         PUBLIC        Key_Process
  D:00D0H         PUBLIC        PSW
  D:0094H         PUBLIC        P0M0
  -------         PROC          _DELAY_MS
  D:0006H         SYMBOL        ms
  -------         DO            
  D:0004H         SYMBOL        De_Cnt
  -------         ENDDO         
  C:1B4CH         LINE#         16
  C:1B4CH         LINE#         17
  C:1B4CH         LINE#         19
  C:1B56H         LINE#         20
  C:1B56H         LINE#         21
  C:1B69H         LINE#         22
  C:1B69H         LINE#         23
  -------         ENDPROC       _DELAY_MS
  -------         PROC          KEY_SCAN
  -------         DO            
  X:00A7H         SYMBOL        KeyTemp1
  X:00A8H         SYMBOL        KeyTemp2
  X:00A9H         SYMBOL        KeyValue
  -------         ENDDO         
  C:11B2H         LINE#         24
  C:11B2H         LINE#         25
  C:11B2H         LINE#         30
  C:11B5H         LINE#         33
  C:11B8H         LINE#         35
  C:11C0H         LINE#         36
  C:11C7H         LINE#         37
  C:11C7H         LINE#         38
  C:11CEH         LINE#         39
  C:11D3H         LINE#         40
  C:11DAH         LINE#         41
  C:11DAH         LINE#         44
  C:11DDH         LINE#         45
  C:11E0H         LINE#         46
  C:11E5H         LINE#         47
  C:11E9H         LINE#         48
  C:11E9H         LINE#         49
  C:11F1H         LINE#         50
  C:11F1H         LINE#         51
  C:11F4H         LINE#         52
  C:11FCH         LINE#         53
  C:11FEH         LINE#         55
  C:1212H         LINE#         56
  C:1212H         LINE#         57
  C:1212H         LINE#         58
BL51 BANKED LINKER/LOCATER V6.22                                                      07/29/2018  09:32:50  PAGE 20


  C:1212H         LINE#         59
  C:1218H         LINE#         61
  C:121AH         LINE#         62
  C:121AH         LINE#         63
  C:121AH         LINE#         64
  C:1220H         LINE#         66
  C:1222H         LINE#         67
  C:1222H         LINE#         68
  C:1222H         LINE#         69
  C:1228H         LINE#         71
  C:122AH         LINE#         72
  C:122AH         LINE#         73
  C:122AH         LINE#         74
  C:1230H         LINE#         76
  C:1230H         LINE#         77
  C:1230H         LINE#         78
  C:1230H         LINE#         81
  C:1233H         LINE#         82
  C:1236H         LINE#         83
  C:123EH         LINE#         84
  C:1242H         LINE#         85
  C:1242H         LINE#         86
  C:124AH         LINE#         87
  C:124AH         LINE#         88
  C:124DH         LINE#         89
  C:1255H         LINE#         90
  C:1257H         LINE#         91
  C:126BH         LINE#         92
  C:126BH         LINE#         93
  C:126BH         LINE#         94
  C:126BH         LINE#         95
  C:1271H         LINE#         97
  C:1273H         LINE#         98
  C:1273H         LINE#         99
  C:1273H         LINE#         100
  C:1279H         LINE#         102
  C:127BH         LINE#         103
  C:127BH         LINE#         104
  C:127BH         LINE#         105
  C:1281H         LINE#         107
  C:1283H         LINE#         108
  C:1283H         LINE#         109
  C:1283H         LINE#         110
  C:1288H         LINE#         112
  C:1288H         LINE#         113
  C:1288H         LINE#         114
  C:1288H         LINE#         117
  C:128BH         LINE#         118
  C:128EH         LINE#         119
  C:1296H         LINE#         120
  C:129AH         LINE#         121
  C:129AH         LINE#         122
  C:12A2H         LINE#         123
  C:12A2H         LINE#         124
  C:12A5H         LINE#         125
  C:12ADH         LINE#         126
  C:12AFH         LINE#         127
BL51 BANKED LINKER/LOCATER V6.22                                                      07/29/2018  09:32:50  PAGE 21


  C:12C3H         LINE#         128
  C:12C3H         LINE#         129
  C:12C3H         LINE#         130
  C:12C3H         LINE#         131
  C:12C9H         LINE#         133
  C:12CBH         LINE#         134
  C:12CBH         LINE#         135
  C:12CBH         LINE#         136
  C:12D1H         LINE#         138
  C:12D3H         LINE#         139
  C:12D3H         LINE#         140
  C:12D3H         LINE#         141
  C:12D9H         LINE#         143
  C:12DBH         LINE#         144
  C:12DBH         LINE#         145
  C:12DBH         LINE#         146
  C:12E1H         LINE#         148
  C:12E1H         LINE#         149
  C:12E1H         LINE#         150
  C:12E1H         LINE#         154
  C:12E4H         LINE#         155
  C:12E7H         LINE#         156
  C:12EFH         LINE#         157
  C:12F3H         LINE#         158
  C:12F3H         LINE#         159
  C:12FBH         LINE#         160
  C:12FBH         LINE#         161
  C:12FEH         LINE#         162
  C:1306H         LINE#         163
  C:1308H         LINE#         164
  C:131CH         LINE#         165
  C:131CH         LINE#         166
  C:131CH         LINE#         167
  C:131CH         LINE#         168
  C:1322H         LINE#         170
  C:1324H         LINE#         171
  C:1324H         LINE#         172
  C:1324H         LINE#         173
  C:132AH         LINE#         175
  C:132CH         LINE#         176
  C:132CH         LINE#         177
  C:132CH         LINE#         178
  C:1332H         LINE#         180
  C:1334H         LINE#         181
  C:1334H         LINE#         182
  C:1334H         LINE#         183
  C:133AH         LINE#         185
  C:133AH         LINE#         186
  C:133AH         LINE#         187
  C:133AH         LINE#         189
  C:1340H         LINE#         190
  C:1340H         LINE#         192
  C:1340H         LINE#         193
  C:1343H         LINE#         194
  C:1343H         LINE#         195
  C:1343H         LINE#         197
  C:1343H         LINE#         198
BL51 BANKED LINKER/LOCATER V6.22                                                      07/29/2018  09:32:50  PAGE 22


  C:1345H         LINE#         199
  C:1345H         LINE#         200
  -------         ENDPROC       KEY_SCAN
  -------         PROC          KEY_PROCESS
  -------         DO            
  X:00D9H         SYMBOL        KeyCount
  X:00DBH         SYMBOL        KeyNum_Old
  X:00DCH         SYMBOL        KeyNum
  X:00DDH         SYMBOL        PressedKey
  X:00A1H         SYMBOL        d
  D:0004H         SYMBOL        hours
  D:0006H         SYMBOL        mins
  X:00A3H         SYMBOL        months
  X:00A5H         SYMBOL        days
  -------         ENDDO         
  C:0B58H         LINE#         201
  C:0B58H         LINE#         202
  C:0B58H         LINE#         206
  C:0B60H         LINE#         207
  C:0B68H         LINE#         209
  C:0B75H         LINE#         210
  C:0B75H         LINE#         211
  C:0B78H         LINE#         212
  C:0B7BH         LINE#         214
  C:0B7EH         LINE#         216
  C:0B7EH         LINE#         217
  C:0B89H         LINE#         218
  C:0B89H         LINE#         219
  C:0B8CH         LINE#         221
  C:0B8CH         LINE#         222
  C:0B93H         LINE#         223
  C:0B93H         LINE#         224
  C:0B96H         LINE#         226
  C:0B96H         LINE#         228
  C:0B9AH         LINE#         229
  C:0B9AH         LINE#         230
  C:0B9DH         LINE#         232
  C:0B9DH         LINE#         233
  C:0BADH         LINE#         234
  C:0BADH         LINE#         235
  C:0BBFH         LINE#         236
  C:0BCDH         LINE#         237
  C:0BDCH         LINE#         238
  C:0BDCH         LINE#         240
  C:0BE2H         LINE#         244
  C:0BF8H         LINE#         245
  C:0C09H         LINE#         246
  C:0C24H         LINE#         247
  C:0C24H         LINE#         248
  C:0C34H         LINE#         249
  C:0C45H         LINE#         250
  C:0C45H         LINE#         254
  C:0C5EH         LINE#         255
  C:0C75H         LINE#         256
  C:0C95H         LINE#         257
  C:0C95H         LINE#         258
  C:0C9FH         LINE#         259
BL51 BANKED LINKER/LOCATER V6.22                                                      07/29/2018  09:32:50  PAGE 23


  C:0C9FH         LINE#         260
  C:0CA8H         LINE#         261
  C:0CA8H         LINE#         262
  C:0CBCH         LINE#         263
  C:0CBCH         LINE#         264
  C:0CBCH         LINE#         265
  C:0CBCH         LINE#         266
  C:0CBCH         LINE#         267
  C:0CBEH         LINE#         269
  C:0CBEH         LINE#         270
  C:0CCAH         LINE#         271
  C:0CCAH         LINE#         272
  C:0CDBH         LINE#         273
  C:0CDBH         LINE#         274
  C:0CDBH         LINE#         275
  C:0CDBH         LINE#         276
  C:0CDBH         LINE#         278
  C:0CDDH         LINE#         280
  C:0CDDH         LINE#         281
  C:0CEEH         LINE#         282
  C:0CEEH         LINE#         283
  C:0CEEH         LINE#         284
  C:0CEEH         LINE#         285
  C:0CEEH         LINE#         287
  C:0CEEH         LINE#         289
  C:0CEEH         LINE#         290
  C:0CF0H         LINE#         292
  C:0CF0H         LINE#         293
  C:0D03H         LINE#         294
  C:0D03H         LINE#         295
  C:0D14H         LINE#         296
  C:0D14H         LINE#         297
  C:0D14H         LINE#         298
  C:0D14H         LINE#         299
  C:0D14H         LINE#         300
  C:0D16H         LINE#         302
  C:0D16H         LINE#         303
  C:0D27H         LINE#         304
  C:0D27H         LINE#         305
  C:0D38H         LINE#         306
  C:0D49H         LINE#         307
  C:0D49H         LINE#         308
  C:0D49H         LINE#         309
  C:0D49H         LINE#         310
  C:0D49H         LINE#         311
  C:0D4CH         LINE#         312
  C:0D51H         LINE#         313
  C:0D56H         LINE#         314
  C:0D5BH         LINE#         315
  C:0D60H         LINE#         316
  C:0D65H         LINE#         317
  C:0D6AH         LINE#         318
  C:0D6FH         LINE#         319
  C:0D6FH         LINE#         321
  C:0D91H         LINE#         322
  C:0D91H         LINE#         323
  C:0D9BH         LINE#         324
BL51 BANKED LINKER/LOCATER V6.22                                                      07/29/2018  09:32:50  PAGE 24


  C:0D9BH         LINE#         325
  C:0DA0H         LINE#         326
  C:0DA9H         LINE#         327
  C:0DC0H         LINE#         328
  C:0DC0H         LINE#         329
  C:0DD0H         LINE#         331
  C:0DD0H         LINE#         335
  -------         ENDPROC       KEY_PROCESS
  -------         PROC          KEYPAD_IO_INIT
  C:0003H         LINE#         338
  C:0003H         LINE#         339
  C:0003H         LINE#         340
  C:0006H         LINE#         341
  C:0009H         LINE#         342
  -------         ENDPROC       KEYPAD_IO_INIT
  -------         ENDMOD        KEYPAD

  -------         MODULE        VCNL4035
  C:0000H         SYMBOL        _ICE_DUMMY_
  D:0080H         PUBLIC        P0
  B:00B0H.2       PUBLIC        I2C_SCK
  D:00B2H         PUBLIC        P3M0
  D:0090H         PUBLIC        P1
  D:00B1H         PUBLIC        P3M1
  D:00A0H         PUBLIC        P2
  D:00B0H         PUBLIC        P3
  D:00C0H         PUBLIC        P4
  D:00C8H         PUBLIC        P5
  D:00E8H         PUBLIC        P6
  D:00F8H         PUBLIC        P7
  D:00A8H         PUBLIC        IE
  C:1CE9H         PUBLIC        _DisplayLCD_VCNL4035
  D:00B8H         PUBLIC        IP
  D:00D8H         PUBLIC        CCON
  C:1C43H         PUBLIC        I2C_Start
  D:0098H         PUBLIC        SCON
  C:1BEFH         PUBLIC        I2C_Init
  D:0088H         PUBLIC        TCON
  C:1C89H         PUBLIC        uC_NACK
  C:1A84H         PUBLIC        _Wait_ms_i2c
  C:1AEAH         PUBLIC        _I2C_SendByte
  C:1C06H         PUBLIC        I2C_Stop
  C:195BH         PUBLIC        _Write_VCNL4035X
  C:1CFAH         PUBLIC        nop
  C:158BH         PUBLIC        _Read_VCNL4035
  C:1CE3H         PUBLIC        uC_ACK
  C:1BAAH         PUBLIC        I2C_ACK
  C:1B6AH         PUBLIC        _Wait_ms_iic
  B:00B0H.1       PUBLIC        I2C_SDA
  D:00D0H         PUBLIC        PSW
  C:1A51H         PUBLIC        I2C_ReceiveByte
  -------         PROC          _WAIT_MS_IIC
  D:0006H         SYMBOL        ms
  -------         DO            
  D:0004H         SYMBOL        De_Cnt
  -------         ENDDO         
  C:1B6AH         LINE#         5
BL51 BANKED LINKER/LOCATER V6.22                                                      07/29/2018  09:32:50  PAGE 25


  C:1B6AH         LINE#         6
  C:1B6AH         LINE#         8
  C:1B74H         LINE#         9
  C:1B74H         LINE#         10
  C:1B87H         LINE#         11
  C:1B87H         LINE#         12
  -------         ENDPROC       _WAIT_MS_IIC
  C:1A7EH         SYMBOL        L?0048
  C:1A80H         SYMBOL        L?0049
  -------         PROC          L?0047
  -------         ENDPROC       L?0047
  C:1A7EH         SYMBOL        L?0048
  C:1A80H         SYMBOL        L?0049
  -------         PROC          _WAIT_MS_I2C
  D:0006H         SYMBOL        ms
  -------         DO            
  D:0004H         SYMBOL        De_Cnt
  -------         ENDDO         
  C:1A84H         LINE#         14
  C:1A84H         LINE#         15
  C:1A84H         LINE#         17
  C:1A8EH         LINE#         18
  C:1A8EH         LINE#         19
  C:1AA1H         LINE#         20
  C:1AA1H         LINE#         21
  -------         ENDPROC       _WAIT_MS_I2C
  -------         PROC          NOP
  C:1CFAH         LINE#         22
  C:1CFAH         LINE#         23
  C:1CFAH         LINE#         25
  -------         ENDPROC       NOP
  -------         PROC          I2C_START
  C:1C43H         LINE#         26
  C:1C43H         LINE#         27
  C:1C43H         LINE#         29
  C:1C45H         LINE#         30
  C:1C47H         LINE#         31
  C:1C4EH         LINE#         32
  C:1C50H         LINE#         33
  C:1C53H         LINE#         34
  C:1C55H         LINE#         37
  -------         ENDPROC       I2C_START
  -------         PROC          I2C_STOP
  C:1C06H         LINE#         39
  C:1C06H         LINE#         40
  C:1C06H         LINE#         41
  C:1C08H         LINE#         42
  C:1C0AH         LINE#         43
  C:1C0DH         LINE#         44
  C:1C0FH         LINE#         45
  C:1C11H         LINE#         46
  C:1C18H         LINE#         47
  C:1C1AH         LINE#         50
  -------         ENDPROC       I2C_STOP
  -------         PROC          L?0050
  -------         ENDPROC       L?0050
  -------         PROC          I2C_ACK
BL51 BANKED LINKER/LOCATER V6.22                                                      07/29/2018  09:32:50  PAGE 26


  -------         DO            
  X:00A4H         SYMBOL        i
  D:0003H         SYMBOL        dat
  -------         ENDDO         
  C:1BAAH         LINE#         52
  C:1BAAH         LINE#         53
  C:1BAAH         LINE#         55
  C:1BABH         LINE#         60
  C:1BAEH         LINE#         61
  C:1BB0H         LINE#         62
  C:1BB3H         LINE#         64
  C:1BB6H         LINE#         65
  C:1BB6H         LINE#         66
  C:1BBAH         LINE#         67
  C:1BBAH         LINE#         70
  C:1BBAH         LINE#         71
  C:1BBDH         LINE#         72
  C:1BBDH         LINE#         73
  C:1BBFH         LINE#         74
  -------         ENDPROC       I2C_ACK
  -------         PROC          UC_ACK
  -------         DO            
  X:00F1H         SYMBOL        i
  -------         ENDDO         
  C:1CE3H         LINE#         75
  C:1CE3H         LINE#         76
  C:1CE3H         LINE#         78
  C:1CE3H         LINE#         85
  C:1CE3H         LINE#         87
  C:1CE3H         LINE#         89
  C:1CE3H         LINE#         90
  C:1CE3H         LINE#         93
  C:1CE6H         LINE#         94
  C:1CE8H         LINE#         95
  C:1CE8H         LINE#         99
  -------         ENDPROC       UC_ACK
  -------         PROC          UC_NACK
  -------         DO            
  X:00F2H         SYMBOL        i
  -------         ENDDO         
  C:1C89H         LINE#         101
  C:1C89H         LINE#         102
  C:1C89H         LINE#         104
  C:1C89H         LINE#         108
  C:1C8BH         LINE#         111
  C:1C8BH         LINE#         112
  C:1C8DH         LINE#         113
  C:1C8DH         LINE#         115
  C:1C8DH         LINE#         116
  C:1C8DH         LINE#         119
  C:1C90H         LINE#         120
  C:1C92H         LINE#         121
  C:1C95H         LINE#         122
  C:1C97H         LINE#         123
  C:1C97H         LINE#         127
  -------         ENDPROC       UC_NACK
  -------         PROC          I2C_INIT
BL51 BANKED LINKER/LOCATER V6.22                                                      07/29/2018  09:32:50  PAGE 27


  C:1BEFH         LINE#         129
  C:1BEFH         LINE#         130
  C:1BEFH         LINE#         133
  C:1BF2H         LINE#         134
  C:1BF5H         LINE#         139
  C:1BFDH         LINE#         141
  -------         ENDPROC       I2C_INIT
  -------         PROC          _I2C_SENDBYTE
  D:0001H         SYMBOL        dat
  -------         DO            
  D:0003H         SYMBOL        i
  -------         ENDDO         
  C:1AEAH         LINE#         145
  C:1AECH         LINE#         146
  C:1AECH         LINE#         149
  C:1AEEH         LINE#         150
  C:1AEEH         LINE#         151
  C:1AF0H         LINE#         153
  C:1AF4H         LINE#         154
  C:1AF4H         LINE#         155
  C:1AF6H         LINE#         156
  C:1AF8H         LINE#         158
  C:1AF8H         LINE#         159
  C:1AFAH         LINE#         160
  C:1AFAH         LINE#         161
  C:1AFDH         LINE#         162
  C:1AFFH         LINE#         164
  C:1B03H         LINE#         165
  C:1B06H         LINE#         166
  C:1B0BH         LINE#         167
  -------         ENDPROC       _I2C_SENDBYTE
  -------         PROC          L?0051
  -------         ENDPROC       L?0051
  -------         PROC          I2C_RECEIVEBYTE
  -------         DO            
  D:0003H         SYMBOL        i
  D:0001H         SYMBOL        dat
  -------         ENDDO         
  C:1A51H         LINE#         171
  C:1A51H         LINE#         172
  C:1A51H         LINE#         174
  C:1A53H         LINE#         178
  C:1A54H         LINE#         179
  C:1A54H         LINE#         180
  C:1A58H         LINE#         181
  C:1A5AH         LINE#         182
  C:1A5DH         LINE#         184
  C:1A60H         LINE#         185
  C:1A60H         LINE#         186
  C:1A64H         LINE#         187
  C:1A64H         LINE#         188
  C:1A64H         LINE#         189
  C:1A67H         LINE#         190
  C:1A6BH         LINE#         191
  C:1A6BH         LINE#         192
  C:1A6DH         LINE#         193
  C:1A6FH         LINE#         194
BL51 BANKED LINKER/LOCATER V6.22                                                      07/29/2018  09:32:50  PAGE 28


  C:1A6FH         LINE#         196
  C:1A74H         LINE#         197
  C:1A76H         LINE#         198
  -------         ENDPROC       I2C_RECEIVEBYTE
  -------         PROC          _WRITE_VCNL4035X
  X:00A1H         SYMBOL        command_code
  X:00A2H         SYMBOL        dat_h
  X:00A3H         SYMBOL        dat_l
  C:195BH         LINE#         199
  C:1966H         LINE#         200
  C:1966H         LINE#         201
  C:1969H         LINE#         202
  C:1970H         LINE#         203
  C:1970H         LINE#         204
  C:1976H         LINE#         205
  C:1976H         LINE#         206
  C:197EH         LINE#         207
  C:197EH         LINE#         208
  C:1984H         LINE#         209
  C:198CH         LINE#         211
  C:1992H         LINE#         212
  C:199AH         LINE#         214
  C:19A0H         LINE#         215
  C:19A3H         LINE#         216
  -------         ENDPROC       _WRITE_VCNL4035X
  -------         PROC          _READ_VCNL4035
  X:00E2H         SYMBOL        command_code
  -------         DO            
  X:00E4H         SYMBOL        temp_dat
  X:00E6H         SYMBOL        temp_dat_l
  X:00E8H         SYMBOL        temp_dat_h
  -------         ENDDO         
  C:158BH         LINE#         218
  C:1593H         LINE#         219
  C:1593H         LINE#         220
  C:15A0H         LINE#         222
  C:15A3H         LINE#         223
  C:15A6H         LINE#         224
  C:15ABH         LINE#         226
  C:15B1H         LINE#         227
  C:15B1H         LINE#         228
  C:15B1H         LINE#         229
  C:15B1H         LINE#         230
  C:15BCH         LINE#         231
  C:15BFH         LINE#         232
  C:15C2H         LINE#         233
  C:15C2H         LINE#         236
  C:15C5H         LINE#         238
  C:15CCH         LINE#         239
  C:15CCH         LINE#         240
  C:15CCH         LINE#         241
  C:15D7H         LINE#         242
  C:15DAH         LINE#         243
  C:15DDH         LINE#         244
  C:15E0H         LINE#         245
  C:15E3H         LINE#         246
  C:15E6H         LINE#         247
BL51 BANKED LINKER/LOCATER V6.22                                                      07/29/2018  09:32:50  PAGE 29


  C:15E9H         LINE#         248
  C:15ECH         LINE#         249
  C:15EFH         LINE#         250
  C:15EFH         LINE#         251
  C:15F5H         LINE#         252
  C:15F5H         LINE#         253
  C:15FEH         LINE#         255
  C:15FEH         LINE#         256
  C:1604H         LINE#         257
  C:1604H         LINE#         259
  C:1606H         LINE#         260
  C:160CH         LINE#         261
  C:160FH         LINE#         262
  C:1616H         LINE#         263
  C:1616H         LINE#         264
  C:1624H         LINE#         265
  -------         ENDPROC       _READ_VCNL4035
  -------         PROC          _DISPLAYLCD_VCNL4035
  X:00F3H         SYMBOL        dat
  C:1CE9H         LINE#         267
  C:1CEEH         LINE#         268
  C:1CEEH         LINE#         270
  -------         ENDPROC       _DISPLAYLCD_VCNL4035
  -------         ENDMOD        VCNL4035

  -------         MODULE        BIPOLARMOTOR
  C:0000H         SYMBOL        _ICE_DUMMY_
  D:0080H         PUBLIC        P0
  D:0090H         PUBLIC        P1
  D:00A0H         PUBLIC        P2
  D:00B0H         PUBLIC        P3
  D:00C0H         PUBLIC        P4
  D:00C8H         PUBLIC        P5
  D:00E8H         PUBLIC        P6
  D:00F8H         PUBLIC        P7
  D:00A8H         PUBLIC        IE
  X:0000H         PUBLIC        receiver_pos
  X:004CH         PUBLIC        Time_stamp_PM
  C:19E4H         PUBLIC        _Move
  D:00B8H         PUBLIC        IP
  D:00D8H         PUBLIC        CCON
  D:0098H         PUBLIC        SCON
  D:0088H         PUBLIC        TCON
  C:18AEH         PUBLIC        _Step_move
  C:0634H         PUBLIC        _Update_position
  C:1AD9H         PUBLIC        _BCDtoDec1
  X:0085H         PUBLIC        degree
  D:00D0H         PUBLIC        PSW
  C:1AC6H         SYMBOL        L?0050
  -------         PROC          L?0049
  -------         ENDPROC       L?0049
  C:1AC6H         SYMBOL        L?0050
  -------         PROC          _BCDTODEC1
  D:0007H         SYMBOL        bcd
  -------         DO            
  D:0006H         SYMBOL        hi
  D:0007H         SYMBOL        lo
BL51 BANKED LINKER/LOCATER V6.22                                                      07/29/2018  09:32:50  PAGE 30


  -------         ENDDO         
  C:1AD9H         LINE#         11
  C:1AD9H         LINE#         12
  C:1AD9H         LINE#         14
  C:1ADEH         LINE#         15
  C:1AE2H         LINE#         16
  C:1AE9H         LINE#         17
  -------         ENDPROC       _BCDTODEC1
  -------         PROC          _STEP_MOVE
  X:00B9H         SYMBOL        step
  B:0020H.5       SYMBOL        dir
  -------         DO            
  X:00BBH         SYMBOL        i
  -------         ENDDO         
  C:18AEH         LINE#         23
  C:18B6H         LINE#         24
  C:18B6H         LINE#         25
  C:18BBH         LINE#         26
  C:18BEH         LINE#         27
  C:18C3H         LINE#         29
  C:18C6H         LINE#         31
  C:18E2H         LINE#         32
  C:18E2H         LINE#         33
  C:18E5H         LINE#         34
  C:18ECH         LINE#         35
  C:18EFH         LINE#         36
  C:18F6H         LINE#         37
  C:1906H         LINE#         38
  -------         ENDPROC       _STEP_MOVE
  -------         PROC          _MOVE
  X:00B5H         SYMBOL        distance
  B:0020H.4       SYMBOL        direction
  -------         DO            
  D:0006H         SYMBOL        step
  -------         ENDDO         
  C:19E4H         LINE#         40
  C:19EAH         LINE#         41
  C:19EAH         LINE#         43
  C:1A11H         LINE#         44
  -------         ENDPROC       _MOVE
  -------         PROC          _UPDATE_POSITION
  X:00A1H         SYMBOL        mnths
  X:00A2H         SYMBOL        dys
  X:00A3H         SYMBOL        hurs
  X:00A4H         SYMBOL        mns
  X:00A5H         SYMBOL        sconds
  X:00A6H         SYMBOL        currnt_pos
  -------         DO            
  X:00A9H         SYMBOL        date
  X:00ABH         SYMBOL        i
  X:00ADH         SYMBOL        desired_distance
  X:00B1H         SYMBOL        distance
  -------         ENDDO         
  C:0634H         LINE#         50
  C:063FH         LINE#         51
  C:063FH         LINE#         53
  C:0649H         LINE#         57
BL51 BANKED LINKER/LOCATER V6.22                                                      07/29/2018  09:32:50  PAGE 31


  C:065DH         LINE#         58
  C:0670H         LINE#         60
  C:0675H         LINE#         61
  C:0675H         LINE#         62
  C:06F0H         LINE#         63
  C:06F0H         LINE#         64
  C:0713H         LINE#         65
  C:0713H         LINE#         66
  C:0713H         LINE#         67
  C:0725H         LINE#         68
  C:0727H         LINE#         69
  C:0727H         LINE#         70
  C:073DH         LINE#         71
  C:073FH         LINE#         72
  C:073FH         LINE#         73
  C:0755H         LINE#         74
  C:0757H         LINE#         75
  C:0757H         LINE#         76
  C:076DH         LINE#         77
  C:076FH         LINE#         78
  C:076FH         LINE#         79
  C:0799H         LINE#         80
  C:0799H         LINE#         81
  C:0799H         LINE#         82
  C:0799H         LINE#         83
  C:0799H         LINE#         87
  C:07BEH         LINE#         88
  C:07DAH         LINE#         89
  C:07F4H         LINE#         90
  C:07F4H         LINE#         91
  C:07F4H         LINE#         92
  C:07F7H         LINE#         93
  C:0812H         LINE#         94
  C:0812H         LINE#         95
  C:0812H         LINE#         96
  C:0815H         LINE#         98
  C:0815H         LINE#         99
  C:0815H         LINE#         101
  C:0815H         LINE#         102
  C:0815H         LINE#         103
  C:08EEH         LINE#         104
  C:08EEH         LINE#         105
  C:0904H         LINE#         106
  C:0904H         LINE#         107
  C:0904H         LINE#         108
  C:0A9CH         LINE#         112
  C:0A9CH         LINE#         113
  C:0AC1H         LINE#         114
  C:0ADDH         LINE#         115
  C:0AF7H         LINE#         116
  C:0AF7H         LINE#         117
  C:0B07H         LINE#         118
  C:0B09H         LINE#         119
  C:0B21H         LINE#         120
  C:0B21H         LINE#         121
  C:0B37H         LINE#         122
  C:0B37H         LINE#         124
BL51 BANKED LINKER/LOCATER V6.22                                                      07/29/2018  09:32:50  PAGE 32


  C:0B37H         LINE#         125
  C:0B37H         LINE#         127
  C:0B37H         LINE#         129
  C:0B37H         LINE#         131
  C:0B57H         LINE#         132
  -------         ENDPROC       _UPDATE_POSITION
  -------         ENDMOD        BIPOLARMOTOR

  -------         MODULE        ?C_STARTUP
  C:16BAH         SEGMENT       ?C_C51STARTUP
  I:0021H         SEGMENT       ?STACK
  C:0000H         PUBLIC        ?C_STARTUP
  D:00E0H         SYMBOL        ACC
  D:00F0H         SYMBOL        B
  D:0083H         SYMBOL        DPH
  D:0082H         SYMBOL        DPL
  N:0000H         SYMBOL        IBPSTACK
  N:0100H         SYMBOL        IBPSTACKTOP
  N:0080H         SYMBOL        IDATALEN
  C:16BDH         SYMBOL        IDATALOOP
  N:0000H         SYMBOL        PBPSTACK
  N:0100H         SYMBOL        PBPSTACKTOP
  N:0000H         SYMBOL        PDATALEN
  N:0000H         SYMBOL        PDATASTART
  N:0000H         SYMBOL        PPAGE
  N:0000H         SYMBOL        PPAGEENABLE
  D:00A0H         SYMBOL        PPAGE_SFR
  D:0081H         SYMBOL        SP
  C:16BAH         SYMBOL        STARTUP1
  N:0000H         SYMBOL        XBPSTACK
  N:0000H         SYMBOL        XBPSTACKTOP
  N:0000H         SYMBOL        XDATALEN
  N:0000H         SYMBOL        XDATASTART
  C:0000H         LINE#         126
  C:16BAH         LINE#         133
  C:16BCH         LINE#         134
  C:16BDH         LINE#         135
  C:16BEH         LINE#         136
  C:16C0H         LINE#         185
  C:16C3H         LINE#         196
  -------         ENDMOD        ?C_STARTUP

  -------         MODULE        ?C?FPADD
  C:002DH         PUBLIC        ?C?FPADD
  C:0029H         PUBLIC        ?C?FPSUB
  -------         ENDMOD        ?C?FPADD

  -------         MODULE        ?C?FPMUL
  C:011EH         PUBLIC        ?C?FPMUL
  -------         ENDMOD        ?C?FPMUL

  -------         MODULE        ?C?FPDIV
  C:0227H         PUBLIC        ?C?FPDIV
  -------         ENDMOD        ?C?FPDIV

  -------         MODULE        ?C?FPCMP
  C:02C6H         PUBLIC        ?C?FPCMP
BL51 BANKED LINKER/LOCATER V6.22                                                      07/29/2018  09:32:50  PAGE 33


  C:02C4H         PUBLIC        ?C?FPCMP3
  -------         ENDMOD        ?C?FPCMP

  -------         MODULE        ?C?FPNEG
  C:033DH         PUBLIC        ?C?FPNEG
  -------         ENDMOD        ?C?FPNEG

  -------         MODULE        ?C?FCAST
  C:0358H         PUBLIC        ?C?FCASTC
  C:0353H         PUBLIC        ?C?FCASTI
  C:034EH         PUBLIC        ?C?FCASTL
  -------         ENDMOD        ?C?FCAST

  -------         MODULE        ?C?CASTF
  C:038CH         PUBLIC        ?C?CASTF
  -------         ENDMOD        ?C?CASTF

  -------         MODULE        ?C?CLDPTR
  C:040DH         PUBLIC        ?C?CLDPTR
  -------         ENDMOD        ?C?CLDPTR

  -------         MODULE        ?C?CSTPTR
  C:0426H         PUBLIC        ?C?CSTPTR
  -------         ENDMOD        ?C?CSTPTR

  -------         MODULE        ?C?IMUL
  C:0438H         PUBLIC        ?C?IMUL
  -------         ENDMOD        ?C?IMUL

  -------         MODULE        ?C?UIDIV
  C:044AH         PUBLIC        ?C?UIDIV
  -------         ENDMOD        ?C?UIDIV

  -------         MODULE        ?C?SIDIV
  C:049FH         PUBLIC        ?C?SIDIV
  -------         ENDMOD        ?C?SIDIV

  -------         MODULE        ?C?ILDIX
  C:04D5H         PUBLIC        ?C?ILDIX
  -------         ENDMOD        ?C?ILDIX

  -------         MODULE        ?C?LNEG
  C:04EBH         PUBLIC        ?C?LNEG
  -------         ENDMOD        ?C?LNEG

  -------         MODULE        ?C?LLDPTR
  C:04F9H         PUBLIC        ?C?LLDPTR
  -------         ENDMOD        ?C?LLDPTR

  -------         MODULE        ?C?LSTPTR
  C:0519H         PUBLIC        ?C?LSTPTR
  -------         ENDMOD        ?C?LSTPTR

  -------         MODULE        ?C?LLDPTR0
  C:0533H         PUBLIC        ?C?LLDPTR0
  -------         ENDMOD        ?C?LLDPTR0

BL51 BANKED LINKER/LOCATER V6.22                                                      07/29/2018  09:32:50  PAGE 34


  -------         MODULE        ?C?LSTXDATA
  C:0553H         PUBLIC        ?C?LSTXDATA
  -------         ENDMOD        ?C?LSTXDATA

  -------         MODULE        ?C?LSTKXDATA
  C:055FH         PUBLIC        ?C?LSTKXDATA
  -------         ENDMOD        ?C?LSTKXDATA

  -------         MODULE        ?C?OFFXADD
  C:0590H         PUBLIC        ?C?OFFXADD
  -------         ENDMOD        ?C?OFFXADD

  -------         MODULE        ABS
  C:1CB4H         PUBLIC        _ABS
  -------         ENDMOD        ABS

  -------         MODULE        ATOI
  C:1346H         PUBLIC        _atoi
  -------         ENDMOD        ATOI

  -------         MODULE        ?C?IILDX
  C:059CH         PUBLIC        ?C?IILDX
  -------         ENDMOD        ?C?IILDX

  -------         MODULE        ?C?LLDIDATA
  C:05B2H         PUBLIC        ?C?LLDIDATA
  -------         ENDMOD        ?C?LLDIDATA

  -------         MODULE        ?C?LLDXDATA
  C:05BEH         PUBLIC        ?C?LLDXDATA
  -------         ENDMOD        ?C?LLDXDATA

  -------         MODULE        ?C?LLDPDATA
  C:05CAH         PUBLIC        ?C?LLDPDATA
  -------         ENDMOD        ?C?LLDPDATA

  -------         MODULE        ?C?LLDCODE
  C:05D6H         PUBLIC        ?C?LLDCODE
  -------         ENDMOD        ?C?LLDCODE

  -------         MODULE        ?C?LLDIDATA0
  C:05E6H         PUBLIC        ?C?LLDIDATA0
  -------         ENDMOD        ?C?LLDIDATA0

  -------         MODULE        ?C?LLDXDATA0
  C:05F3H         PUBLIC        ?C?LLDXDATA0
  -------         ENDMOD        ?C?LLDXDATA0

  -------         MODULE        ?C?LLDPDATA0
  C:05FFH         PUBLIC        ?C?LLDPDATA0
  -------         ENDMOD        ?C?LLDPDATA0

  -------         MODULE        ?C?LLDCODE0
  C:060CH         PUBLIC        ?C?LLDCODE0
  -------         ENDMOD        ?C?LLDCODE0

  -------         MODULE        ?C?LSTIDATA
BL51 BANKED LINKER/LOCATER V6.22                                                      07/29/2018  09:32:50  PAGE 35


  C:061CH         PUBLIC        ?C?LSTIDATA
  -------         ENDMOD        ?C?LSTIDATA

  -------         MODULE        ?C?LSTPDATA
  C:0628H         PUBLIC        ?C?LSTPDATA
  -------         ENDMOD        ?C?LSTPDATA

  -------         MODULE        ISDIGIT
  C:1C98H         PUBLIC        _isdigit
  -------         ENDMOD        ISDIGIT

  -------         MODULE        ISSPACE
  C:1C2FH         PUBLIC        _isspace
  -------         ENDMOD        ISSPACE

*** WARNING L16: UNCALLED SEGMENT, IGNORED FOR OVERLAY PROCESS
    SEGMENT: ?PR?_DISPLAY_PROX?MAIN

*** WARNING L16: UNCALLED SEGMENT, IGNORED FOR OVERLAY PROCESS
    SEGMENT: ?PR?_SENDSTRING?UART1

*** WARNING L16: UNCALLED SEGMENT, IGNORED FOR OVERLAY PROCESS
    SEGMENT: ?PR?_TEN?UART1

*** WARNING L16: UNCALLED SEGMENT, IGNORED FOR OVERLAY PROCESS
    SEGMENT: ?PR?_UNIT?UART1

*** WARNING L16: UNCALLED SEGMENT, IGNORED FOR OVERLAY PROCESS
    SEGMENT: ?PR?_DECTOBCD?UART1

*** WARNING L16: UNCALLED SEGMENT, IGNORED FOR OVERLAY PROCESS
    SEGMENT: ?PR?_ASCII_LETTER?UART1

*** WARNING L16: UNCALLED SEGMENT, IGNORED FOR OVERLAY PROCESS
    SEGMENT: ?PR?NOP?VCNL4035

*** WARNING L16: UNCALLED SEGMENT, IGNORED FOR OVERLAY PROCESS
    SEGMENT: ?PR?_READ_VCNL4035?VCNL4035

*** WARNING L16: UNCALLED SEGMENT, IGNORED FOR OVERLAY PROCESS
    SEGMENT: ?PR?_DISPLAYLCD_VCNL4035?VCNL4035

Program Size: data=17.7 xdata=244 code=7419
LINK/LOCATE RUN COMPLETE.  9 WARNING(S),  0 ERROR(S)
