BL51 BANKED LINKER/LOCATER V6.22                                                        08/15/2018  10:22:13  PAGE 1


BL51 BANKED LINKER/LOCATER V6.22, INVOKED BY:
C:\KEIL_V5\C51\BIN\BL51.EXE .\Obj\main.obj, .\Obj\PCF85063BTL.obj, .\Obj\UART1.obj, .\Obj\LCd_Driver_SPLC780D.obj, .\Obj
>> \KeyPad.obj, .\Obj\VCNL4035.obj, .\Obj\BipolarMotor.obj, .\Obj\STARTUP.obj TO .\Obj\GPIO_RTC_Test PRINT (.\Lis\GPIO_R
>> TC_Test.m51) RAMSIZE (256)


MEMORY MODEL: LARGE WITH FLOATING POINT ARITHMETIC


INPUT MODULES INCLUDED:
  .\Obj\main.obj (MAIN)
  .\Obj\PCF85063BTL.obj (PCF85063BTL)
  .\Obj\UART1.obj (UART1)
  .\Obj\LCd_Driver_SPLC780D.obj (LCD_DRIVER_SPLC780D)
  .\Obj\KeyPad.obj (KEYPAD)
  .\Obj\VCNL4035.obj (VCNL4035)
  .\Obj\BipolarMotor.obj (BIPOLARMOTOR)
  .\Obj\STARTUP.obj (?C_STARTUP)
  C:\KEIL_V5\C51\LIB\C51FPL.LIB (?C?FPADD)
  C:\KEIL_V5\C51\LIB\C51FPL.LIB (?C?FPMUL)
  C:\KEIL_V5\C51\LIB\C51FPL.LIB (?C?FPDIV)
  C:\KEIL_V5\C51\LIB\C51FPL.LIB (?C?FPCMP)
  C:\KEIL_V5\C51\LIB\C51FPL.LIB (?C?FPNEG)
  C:\KEIL_V5\C51\LIB\C51FPL.LIB (?C?FCAST)
  C:\KEIL_V5\C51\LIB\C51FPL.LIB (?C?CASTF)
  C:\KEIL_V5\C51\LIB\C51FPL.LIB (POW)
  C:\KEIL_V5\C51\LIB\C51FPL.LIB (?C?FPGETOPN)
  C:\KEIL_V5\C51\LIB\C51FPL.LIB (?C?CHKFLOAT)
  C:\KEIL_V5\C51\LIB\C51FPL.LIB (EXP)
  C:\KEIL_V5\C51\LIB\C51FPL.LIB (LOG)
  C:\KEIL_V5\C51\LIB\C51FPL.LIB (?C?FPSERIES)
  C:\KEIL_V5\C51\LIB\C51L.LIB (?C_INIT)
  C:\KEIL_V5\C51\LIB\C51L.LIB (?C?CLDPTR)
  C:\KEIL_V5\C51\LIB\C51L.LIB (?C?CSTPTR)
  C:\KEIL_V5\C51\LIB\C51L.LIB (?C?IMUL)
  C:\KEIL_V5\C51\LIB\C51L.LIB (?C?UIDIV)
  C:\KEIL_V5\C51\LIB\C51L.LIB (?C?SIDIV)
  C:\KEIL_V5\C51\LIB\C51L.LIB (?C?ILDIX)
  C:\KEIL_V5\C51\LIB\C51L.LIB (?C?LNEG)
  C:\KEIL_V5\C51\LIB\C51L.LIB (?C?LLDPTR)
  C:\KEIL_V5\C51\LIB\C51L.LIB (?C?LSTPTR)
  C:\KEIL_V5\C51\LIB\C51L.LIB (?C?LLDCODE)
  C:\KEIL_V5\C51\LIB\C51L.LIB (?C?LLDXDATA0)
  C:\KEIL_V5\C51\LIB\C51L.LIB (?C?LLDCODE0)
  C:\KEIL_V5\C51\LIB\C51L.LIB (?C?LLDPTR0)
  C:\KEIL_V5\C51\LIB\C51L.LIB (?C?LSTXDATA)
  C:\KEIL_V5\C51\LIB\C51L.LIB (?C?LSTKXDATA)
  C:\KEIL_V5\C51\LIB\C51L.LIB (?C?OFFXADD)
  C:\KEIL_V5\C51\LIB\C51L.LIB (ABS)
  C:\KEIL_V5\C51\LIB\C51L.LIB (ATOI)
  C:\KEIL_V5\C51\LIB\C51L.LIB (?C?IILDX)
  C:\KEIL_V5\C51\LIB\C51L.LIB (?C?LLDIDATA)
  C:\KEIL_V5\C51\LIB\C51L.LIB (?C?LLDXDATA)
  C:\KEIL_V5\C51\LIB\C51L.LIB (?C?LLDPDATA)
  C:\KEIL_V5\C51\LIB\C51L.LIB (?C?LLDIDATA0)
  C:\KEIL_V5\C51\LIB\C51L.LIB (?C?LLDPDATA0)
  C:\KEIL_V5\C51\LIB\C51L.LIB (?C?LSTIDATA)
  C:\KEIL_V5\C51\LIB\C51L.LIB (?C?LSTPDATA)
BL51 BANKED LINKER/LOCATER V6.22                                                      08/15/2018  10:22:13  PAGE 2


  C:\KEIL_V5\C51\LIB\C51L.LIB (ISDIGIT)
  C:\KEIL_V5\C51\LIB\C51L.LIB (ISSPACE)


LINK MAP OF MODULE:  .\Obj\GPIO_RTC_Test (MAIN)


            TYPE    BASE      LENGTH    RELOCATION   SEGMENT NAME
            -----------------------------------------------------

            * * * * * * *   D A T A   M E M O R Y   * * * * * * *
            REG     0000H     0008H     ABSOLUTE     "REG BANK 0"
            REG     0008H     0008H     ABSOLUTE     "REG BANK 1"
                    0010H     0010H                  *** GAP ***
            BIT     0020H.0   0000H.4   UNIT         ?BI?KEYPAD
            BIT     0020H.4   0000H.3   UNIT         _BIT_GROUP_
            BIT     0020H.7   0000H.1   UNIT         ?BI?MAIN
            IDATA   0021H     0001H     UNIT         ?STACK

            * * * * * * *  X D A T A   M E M O R Y  * * * * * * *
            XDATA   0000H     007CH     UNIT         ?XD?BIPOLARMOTOR
            XDATA   007CH     004AH     UNIT         _XDATA_GROUP_
            XDATA   00C6H     001CH     UNIT         ?XD?MAIN
            XDATA   00E2H     0009H     UNIT         ?XD?KEYPAD
            XDATA   00EBH     0008H     UNIT         ?XD?_READ_VCNL4035?VCNL4035
            XDATA   00F3H     0004H     UNIT         ?XD?_DISPLAY_PROX?MAIN
            XDATA   00F7H     0003H     UNIT         ?XD?_SENDSTRING?UART1
            XDATA   00FAH     0003H     UNIT         ?XD?_WRITE_VCNL4035X?VCNL4035
            XDATA   00FDH     0001H     UNIT         ?XD?I2C_ACK?VCNL4035
            XDATA   00FEH     0001H     UNIT         ?XD?UC_ACK?VCNL4035
            XDATA   00FFH     0001H     UNIT         ?XD?UC_NACK?VCNL4035
            XDATA   0100H     0001H     UNIT         ?XD?_DISPLAYLCD_VCNL4035?VCNL4035

            * * * * * * *   C O D E   M E M O R Y   * * * * * * *
            CODE    0000H     0003H     ABSOLUTE     
            CODE    0003H     0006H     UNIT         ?PR?_TEN?UART1
            CODE    0009H     0001H     UNIT         ?PR?TM0_ISR?MAIN
            CODE    000AH     0001H     UNIT         ?PR?_DECTOBCD?UART1
            CODE    000BH     0003H     ABSOLUTE     
            CODE    000EH     0015H     UNIT         ?PR?_DISPLAY_LINE?LCD_DRIVER_SPLC780D
            CODE    0023H     0003H     ABSOLUTE     
            CODE    0026H     0675H     UNIT         ?C?LIB_CODE
            CODE    069BH     02A0H     UNIT         ?PR?KEY_PROCESS?KEYPAD
            CODE    093BH     0280H     UNIT         ?PR?MAIN?MAIN
            CODE    0BBBH     022FH     UNIT         ?PR?_UPDATE_POSITION?BIPOLARMOTOR
            CODE    0DEAH     01F5H     UNIT         ?PR?_TREND_LINE_30_31?BIPOLARMOTOR
            CODE    0FDFH     01B5H     UNIT         ?PR?_DISPLAY_POS?MAIN
            CODE    1194H     018DH     UNIT         ?PR?KEY_SCAN?KEYPAD
            CODE    1321H     0166H     UNIT         ?PR?_POW?POW
            CODE    1487H     0129H     UNIT         ?PR?LOG?LOG
            CODE    15B0H     00DBH     UNIT         ?PR?_ATOI?ATOI
            CODE    168BH     00C7H     UNIT         ?C_INITSEG
            CODE    1752H     009BH     UNIT         ?PR?UART?MAIN
            CODE    17EDH     009AH     UNIT         ?PR?_READ_VCNL4035?VCNL4035
            CODE    1887H     009AH     UNIT         ?PR?EXP?EXP
            CODE    1921H     0095H     UNIT         ?PR?_DISPLAY_PROX?MAIN
            CODE    19B6H     008CH     UNIT         ?C_C51STARTUP
BL51 BANKED LINKER/LOCATER V6.22                                                      08/15/2018  10:22:13  PAGE 3


            CODE    1A42H     0084H     UNIT         ?PR?_DAY_OF_YEAR?PCF85063BTL
            CODE    1AC6H     0075H     UNIT         ?PR?_WRITEDATA?LCD_DRIVER_SPLC780D
            CODE    1B3BH     006FH     UNIT         ?PR?_READ_TIME?PCF85063BTL
            CODE    1BAAH     0059H     UNIT         ?PR?LCD_INIT?LCD_DRIVER_SPLC780D
            CODE    1C03H     0059H     UNIT         ?PR?_STEP_MOVE?BIPOLARMOTOR
            CODE    1C5CH     0049H     UNIT         ?PR?_WRITE_VCNL4035X?VCNL4035
            CODE    1CA5H     0040H     UNIT         ?PR?_COMMAND?LCD_DRIVER_SPLC780D
            CODE    1CE5H     0034H     UNIT         ?PR?_MOVE?BIPOLARMOTOR
            CODE    1D19H     0033H     UNIT         ?PR?_SENDSTRING?UART1
            CODE    1D4CH     002CH     UNIT         ?PR?I2C_RECEIVEBYTE?VCNL4035
            CODE    1D78H     002BH     UNIT         ?PR?_WAIT_MS_I2C?VCNL4035
            CODE    1DA3H     0024H     UNIT         ?PR?_WAIT_MS?LCD_DRIVER_SPLC780D
            CODE    1DC7H     0024H     UNIT         ?PR?_BCDTODEC1?BIPOLARMOTOR
            CODE    1DEBH     0022H     UNIT         ?PR?_I2C_SENDBYTE?VCNL4035
            CODE    1E0DH     0020H     UNIT         ?PR?_SPI_SENDBYTE?PCF85063BTL
            CODE    1E2DH     0020H     UNIT         ?PR?SPI_RECEIVEBYTE?PCF85063BTL
            CODE    1E4DH     001EH     UNIT         ?PR?_DELAY_MS?KEYPAD
            CODE    1E6BH     001EH     UNIT         ?PR?_WAIT_MS_IIC?VCNL4035
            CODE    1E89H     001DH     UNIT         ?PR?_DISPLAYLCD?LCD_DRIVER_SPLC780D
            CODE    1EA6H     001BH     UNIT         ?PR?I2C_ACK?VCNL4035
            CODE    1EC1H     0018H     UNIT         ?PR?_SPI_WRITETIME?PCF85063BTL
            CODE    1ED9H     0017H     UNIT         ?PR?_ASCIITOBCD?UART1
            CODE    1EF0H     0017H     UNIT         ?PR?I2C_INIT?VCNL4035
            CODE    1F07H     0015H     UNIT         ?PR?I2C_STOP?VCNL4035
            CODE    1F1CH     0014H     UNIT         ?PR?_PCF85063BTL_DELAY?PCF85063BTL
            CODE    1F30H     0014H     UNIT         ?PR?_ISSPACE?ISSPACE
            CODE    1F44H     0013H     UNIT         ?PR?I2C_START?VCNL4035
            CODE    1F57H     0011H     UNIT         ?PR?_SPI_READTIME?PCF85063BTL
            CODE    1F68H     0011H     UNIT         ?PR?_BCDTODEC?PCF85063BTL
            CODE    1F79H     0011H     UNIT         ?PR?INITUART1?UART1
            CODE    1F8AH     000FH     UNIT         ?PR?UC_NACK?VCNL4035
            CODE    1F99H     000FH     UNIT         ?PR?_ISDIGIT?ISDIGIT
            CODE    1FA8H     000DH     UNIT         ?PR?SPI_INIT?PCF85063BTL
            CODE    1FB5H     000CH     UNIT         ?PR?KEYPAD_IO_INIT?KEYPAD
            CODE    1FC1H     000CH     UNIT         ?PR?_ABS?ABS
            CODE    1FCDH     000AH     UNIT         ?PR?LCD_RETURN_HOME?LCD_DRIVER_SPLC780D
            CODE    1FD7H     000AH     UNIT         ?PR?LCD_CLEAR?LCD_DRIVER_SPLC780D
            CODE    1FE1H     0009H     UNIT         ?PR?_SENDUART1?MAIN
            CODE    1FEAH     0006H     UNIT         ?PR?UC_ACK?VCNL4035
            CODE    1FF0H     0006H     UNIT         ?PR?_DISPLAYLCD_VCNL4035?VCNL4035
            CODE    1FF6H     0005H     UNIT         ?PR?_UNIT?UART1
            CODE    1FFBH     0005H     UNIT         ?PR?_ASCII_LETTER?UART1
            CODE    2000H     0001H     UNIT         ?PR?NOP?VCNL4035



OVERLAY MAP OF MODULE:   .\Obj\GPIO_RTC_Test (MAIN)


SEGMENT                                            BIT_GROUP          XDATA_GROUP
  +--> CALLED SEGMENT                           START    LENGTH     START    LENGTH
-----------------------------------------------------------------------------------
?PR?UART?MAIN                                   -----    -----      -----    -----
  +--> ?PR?_ASCIITOBCD?UART1

?PR?_ASCIITOBCD?UART1                           -----    -----      -----    -----
  +--> ?PR?_ATOI?ATOI
BL51 BANKED LINKER/LOCATER V6.22                                                      08/15/2018  10:22:13  PAGE 4



?PR?_ATOI?ATOI                                  0020H.4  0000H.1    007CH    0005H
  +--> ?PR?_ISSPACE?ISSPACE
  +--> ?PR?_ISDIGIT?ISDIGIT

*** NEW ROOT ***************************************************

?C_C51STARTUP                                   -----    -----      -----    -----
  +--> ?PR?MAIN?MAIN
  +--> ?C_INITSEG

?PR?MAIN?MAIN                                   -----    -----      0081H    0017H
  +--> ?PR?LCD_INIT?LCD_DRIVER_SPLC780D
  +--> ?PR?KEYPAD_IO_INIT?KEYPAD
  +--> ?PR?_DELAY_MS?KEYPAD
  +--> ?PR?_DISPLAY_LINE?LCD_DRIVER_SPLC780D
  +--> ?PR?_WRITEDATA?LCD_DRIVER_SPLC780D
  +--> ?PR?KEY_PROCESS?KEYPAD
  +--> ?PR?_COMMAND?LCD_DRIVER_SPLC780D
  +--> ?PR?_DISPLAY_POS?MAIN
  +--> ?PR?_DISPLAYLCD?LCD_DRIVER_SPLC780D
  +--> ?PR?_STEP_MOVE?BIPOLARMOTOR
  +--> ?PR?LCD_RETURN_HOME?LCD_DRIVER_SPLC780D
  +--> ?PR?_READ_TIME?PCF85063BTL
  +--> ?PR?_UPDATE_POSITION?BIPOLARMOTOR

?PR?LCD_INIT?LCD_DRIVER_SPLC780D                -----    -----      -----    -----
  +--> ?PR?_WAIT_MS?LCD_DRIVER_SPLC780D
  +--> ?PR?_COMMAND?LCD_DRIVER_SPLC780D

?PR?_COMMAND?LCD_DRIVER_SPLC780D                -----    -----      -----    -----
  +--> ?PR?_WAIT_MS?LCD_DRIVER_SPLC780D

?PR?_DISPLAY_LINE?LCD_DRIVER_SPLC780D           -----    -----      -----    -----
  +--> ?PR?_COMMAND?LCD_DRIVER_SPLC780D

?PR?_WRITEDATA?LCD_DRIVER_SPLC780D              -----    -----      00A2H    0001H
  +--> ?PR?_WAIT_MS?LCD_DRIVER_SPLC780D

?PR?KEY_PROCESS?KEYPAD                          -----    -----      0098H    0006H
  +--> ?PR?KEY_SCAN?KEYPAD
  +--> ?PR?_SPI_WRITETIME?PCF85063BTL
  +--> ?PR?LCD_CLEAR?LCD_DRIVER_SPLC780D
  +--> ?PR?_COMMAND?LCD_DRIVER_SPLC780D
  +--> ?PR?_WRITEDATA?LCD_DRIVER_SPLC780D

?PR?KEY_SCAN?KEYPAD                             -----    -----      009EH    0003H

?PR?_SPI_WRITETIME?PCF85063BTL                  -----    -----      -----    -----
  +--> ?PR?_SPI_SENDBYTE?PCF85063BTL

?PR?_SPI_SENDBYTE?PCF85063BTL                   -----    -----      -----    -----
  +--> ?PR?_PCF85063BTL_DELAY?PCF85063BTL

?PR?LCD_CLEAR?LCD_DRIVER_SPLC780D               -----    -----      -----    -----
  +--> ?PR?_COMMAND?LCD_DRIVER_SPLC780D

BL51 BANKED LINKER/LOCATER V6.22                                                      08/15/2018  10:22:13  PAGE 5


?PR?_DISPLAY_POS?MAIN                           -----    -----      0098H    000AH
  +--> ?PR?_ABS?ABS
  +--> ?PR?_WRITEDATA?LCD_DRIVER_SPLC780D

?PR?_DISPLAYLCD?LCD_DRIVER_SPLC780D             -----    -----      0098H    0001H
  +--> ?PR?_WRITEDATA?LCD_DRIVER_SPLC780D

?PR?_STEP_MOVE?BIPOLARMOTOR                     0020H.6  0000H.1    00B4H    0004H
  +--> ?PR?_WAIT_MS?LCD_DRIVER_SPLC780D

?PR?LCD_RETURN_HOME?LCD_DRIVER_SPLC780D         -----    -----      -----    -----
  +--> ?PR?_COMMAND?LCD_DRIVER_SPLC780D

?PR?_READ_TIME?PCF85063BTL                      -----    -----      0098H    000FH
  +--> ?PR?_SPI_READTIME?PCF85063BTL

?PR?_SPI_READTIME?PCF85063BTL                   -----    -----      -----    -----
  +--> ?PR?_SPI_SENDBYTE?PCF85063BTL
  +--> ?PR?SPI_RECEIVEBYTE?PCF85063BTL

?PR?SPI_RECEIVEBYTE?PCF85063BTL                 -----    -----      -----    -----
  +--> ?PR?_PCF85063BTL_DELAY?PCF85063BTL

?PR?_UPDATE_POSITION?BIPOLARMOTOR               -----    -----      0098H    0018H
  +--> ?PR?_DAY_OF_YEAR?PCF85063BTL
  +--> ?PR?_BCDTODEC1?BIPOLARMOTOR
  +--> ?PR?_TREND_LINE_30_31?BIPOLARMOTOR
  +--> ?PR?_MOVE?BIPOLARMOTOR

?PR?_DAY_OF_YEAR?PCF85063BTL                    -----    -----      -----    -----
  +--> ?PR?_BCDTODEC?PCF85063BTL

?PR?_TREND_LINE_30_31?BIPOLARMOTOR              -----    -----      00B0H    0008H
  +--> ?PR?_POW?POW

?PR?_POW?POW                                    -----    -----      00B8H    000AH
  +--> ?PR?LOG?LOG
  +--> ?PR?EXP?EXP

?PR?LOG?LOG                                     0020H.5  0000H.1    00C2H    0004H

?PR?_MOVE?BIPOLARMOTOR                          0020H.5  0000H.1    00B0H    0004H
  +--> ?PR?_STEP_MOVE?BIPOLARMOTOR



UNRESOLVED EXTERNAL SYMBOLS:
   AUTO_MODE



SYMBOL TABLE OF MODULE:  .\Obj\GPIO_RTC_Test (MAIN)

  VALUE           TYPE          NAME
  ----------------------------------

  -------         MODULE        MAIN
BL51 BANKED LINKER/LOCATER V6.22                                                      08/15/2018  10:22:13  PAGE 6


  C:0000H         SYMBOL        _ICE_DUMMY_
  D:0080H         PUBLIC        P0
  D:0090H         PUBLIC        P1
  D:00A0H         PUBLIC        P2
  D:00B0H         PUBLIC        P3
  D:00C0H         PUBLIC        P4
  D:00C8H         PUBLIC        P5
  X:00CEH         SYMBOL        PressedKey
  B:00A8H.7       PUBLIC        EA
  D:00E8H         PUBLIC        P6
  D:00F8H         PUBLIC        P7
  X:00D2H         PUBLIC        RX_Data_Uart_Cnt
  D:00A8H         PUBLIC        IE
  D:00B8H         PUBLIC        IP
  B:0098H.0       PUBLIC        RI
  B:0098H.1       PUBLIC        TI
  C:1752H         PUBLIC        Uart
  D:00D8H         PUBLIC        CCON
  C:093BH         PUBLIC        main
  D:0099H         PUBLIC        SBUF
  D:0098H         PUBLIC        SCON
  D:0089H         PUBLIC        TMOD
  D:0088H         PUBLIC        TCON
  B:00B0H.3       PUBLIC        P33
  X:00D4H         SYMBOL        KeyCount
  X:00D6H         PUBLIC        Rec_data_hour
  X:00D9H         PUBLIC        Rec_data_min
  D:008EH         PUBLIC        AUXR
  C:0009H         PUBLIC        tm0_isr
  B:0020H.7       PUBLIC        busy
  D:00E0H         PUBLIC        ACC
  B:00A8H.1       PUBLIC        ET0
  D:008CH         PUBLIC        TH0
  X:00DCH         PUBLIC        hour_count
  D:008AH         PUBLIC        TL0
  X:00DDH         PUBLIC        min_count
  B:0088H.4       PUBLIC        TR0
  X:00DEH         SYMBOL        KeyNum
  X:00DFH         SYMBOL        KeyNum_Old
  C:1921H         PUBLIC        _Display_Prox
  C:0FDFH         PUBLIC        _Display_Pos
  X:00E0H         PUBLIC        st_time
  D:00D0H         PUBLIC        PSW
  C:1FE1H         PUBLIC        _SendUART1
  -------         PROC          TM0_ISR
  C:0009H         LINE#         53
  C:0009H         LINE#         56
  -------         ENDPROC       TM0_ISR
  -------         PROC          MAIN
  -------         DO            
  X:0081H         SYMBOL        seconds
  X:0082H         SYMBOL        mins
  X:0083H         SYMBOL        hours
  X:0084H         SYMBOL        days
  X:0085H         SYMBOL        months
  X:0086H         SYMBOL        mins1
  X:0087H         SYMBOL        hours1
BL51 BANKED LINKER/LOCATER V6.22                                                      08/15/2018  10:22:13  PAGE 7


  X:0088H         SYMBOL        mins2
  X:0089H         SYMBOL        hours2
  X:008AH         SYMBOL        prox_data
  X:00C6H         SYMBOL        KeyCount
  X:00C8H         SYMBOL        KeyNum_Old
  X:00C9H         SYMBOL        KeyNum
  X:00CAH         SYMBOL        PressedKey
  X:008CH         SYMBOL        prox_flag
  X:008DH         SYMBOL        count
  X:008FH         SYMBOL        numStr
  X:0094H         SYMBOL        current_position
  -------         ENDDO         
  C:093BH         LINE#         58
  C:093BH         LINE#         59
  C:093BH         LINE#         64
  C:0941H         LINE#         66
  C:0946H         LINE#         68
  C:0950H         LINE#         69
  C:0952H         LINE#         70
  C:0954H         LINE#         71
  C:0956H         LINE#         72
  C:095DH         LINE#         81
  C:0960H         LINE#         83
  C:0963H         LINE#         87
  C:0966H         LINE#         88
  C:0969H         LINE#         89
  C:096CH         LINE#         90
  C:096EH         LINE#         91
  C:0970H         LINE#         92
  C:0972H         LINE#         94
  C:0974H         LINE#         96
  C:097BH         LINE#         98
  C:0982H         LINE#         102
  C:0989H         LINE#         103
  C:098EH         LINE#         104
  C:0993H         LINE#         105
  C:0998H         LINE#         106
  C:099DH         LINE#         107
  C:09A2H         LINE#         110
  C:09A2H         LINE#         111
  C:09A2H         LINE#         112
  C:09A5H         LINE#         115
  C:09A5H         LINE#         118
  C:09AAH         LINE#         119
  C:09AFH         LINE#         121
  C:09B4H         LINE#         122
  C:09B9H         LINE#         123
  C:09BEH         LINE#         124
  C:09C3H         LINE#         126
  C:09D4H         LINE#         128
  C:09DBH         LINE#         129
  C:09E3H         LINE#         130
  C:09E8H         LINE#         131
  C:09F0H         LINE#         132
  C:09F5H         LINE#         133
  C:09FFH         LINE#         134
  C:0A04H         LINE#         135
BL51 BANKED LINKER/LOCATER V6.22                                                      08/15/2018  10:22:13  PAGE 8


  C:0A0CH         LINE#         137
  C:0A14H         LINE#         138
  C:0A19H         LINE#         139
  C:0A23H         LINE#         140
  C:0A23H         LINE#         141
  C:0A25H         LINE#         142
  C:0A27H         LINE#         143
  C:0A31H         LINE#         144
  C:0A31H         LINE#         145
  C:0A36H         LINE#         146
  C:0A36H         LINE#         158
  C:0A43H         LINE#         159
  C:0A43H         LINE#         160
  C:0A4DH         LINE#         161
  C:0A64H         LINE#         162
  C:0A64H         LINE#         163
  C:0A66H         LINE#         164
  C:0A68H         LINE#         166
  C:0A68H         LINE#         167
  C:0A73H         LINE#         168
  C:0A73H         LINE#         169
  C:0A78H         LINE#         170
  C:0A78H         LINE#         171
  C:0A85H         LINE#         172
  C:0A85H         LINE#         175
  C:0A8FH         LINE#         176
  C:0AA6H         LINE#         177
  C:0AA6H         LINE#         178
  C:0AA8H         LINE#         179
  C:0AAAH         LINE#         181
  C:0AAAH         LINE#         182
  C:0AB5H         LINE#         183
  C:0AB5H         LINE#         184
  C:0ABAH         LINE#         185
  C:0ABCH         LINE#         186
  C:0ABCH         LINE#         195
  C:0ADEH         LINE#         196
  C:0ADEH         LINE#         197
  C:0AE8H         LINE#         198
  C:0AEEH         LINE#         199
  C:0AF0H         LINE#         200
  C:0AF2H         LINE#         201
  C:0AF4H         LINE#         202
  C:0AF4H         LINE#         203
  C:0AF7H         LINE#         205
  C:0AF7H         LINE#         206
  C:0AFFH         LINE#         207
  C:0B07H         LINE#         208
  C:0B0FH         LINE#         209
  C:0B17H         LINE#         210
  C:0B52H         LINE#         214
  C:0B5FH         LINE#         215
  C:0B5FH         LINE#         216
  C:0B92H         LINE#         217
  C:0BB8H         LINE#         218
  C:0BB8H         LINE#         235
  -------         ENDPROC       MAIN
BL51 BANKED LINKER/LOCATER V6.22                                                      08/15/2018  10:22:13  PAGE 9


  -------         PROC          UART
  C:1752H         LINE#         242
  C:175FH         LINE#         244
  C:1762H         LINE#         245
  C:1762H         LINE#         246
  C:1770H         LINE#         247
  C:1772H         LINE#         248
  C:1784H         LINE#         249
  C:1793H         LINE#         250
  C:179EH         LINE#         251
  C:179EH         LINE#         254
  C:17ABH         LINE#         255
  C:17B1H         LINE#         256
  C:17B1H         LINE#         257
  C:17B7H         LINE#         258
  C:17C5H         LINE#         259
  C:17D3H         LINE#         260
  C:17DBH         LINE#         265
  C:17DBH         LINE#         266
  C:17DBH         LINE#         269
  C:17DBH         LINE#         270
  C:17DEH         LINE#         271
  C:17DEH         LINE#         272
  C:17E0H         LINE#         273
  C:17E2H         LINE#         274
  C:17E2H         LINE#         275
  -------         ENDPROC       UART
  -------         PROC          _SENDUART1
  D:0007H         SYMBOL        dat
  C:1FE1H         LINE#         278
  C:1FE1H         LINE#         279
  C:1FE1H         LINE#         280
  C:1FE4H         LINE#         281
  C:1FE6H         LINE#         282
  C:1FE7H         LINE#         283
  C:1FE9H         LINE#         284
  -------         ENDPROC       _SENDUART1
  -------         PROC          _DISPLAY_PROX
  D:0002H         SYMBOL        dat
  -------         DO            
  X:00F3H         SYMBOL        unit
  X:00F4H         SYMBOL        ten
  X:00F5H         SYMBOL        hundred
  X:00F6H         SYMBOL        thousand
  -------         ENDDO         
  C:1921H         LINE#         287
  C:1925H         LINE#         288
  C:1925H         LINE#         290
  C:1931H         LINE#         291
  C:1941H         LINE#         292
  C:195DH         LINE#         293
  C:198DH         LINE#         294
  C:1997H         LINE#         295
  C:19A1H         LINE#         296
  C:19ABH         LINE#         297
  C:19B5H         LINE#         299
  -------         ENDPROC       _DISPLAY_PROX
BL51 BANKED LINKER/LOCATER V6.22                                                      08/15/2018  10:22:13  PAGE 10


  -------         PROC          _DISPLAY_POS
  X:0098H         SYMBOL        sign_dat
  -------         DO            
  X:009CH         SYMBOL        unit
  X:009DH         SYMBOL        ten
  X:009EH         SYMBOL        hundred
  D:0003H         SYMBOL        thousand
  X:009FH         SYMBOL        after_dot
  X:00A0H         SYMBOL        dat
  -------         ENDDO         
  C:0FDFH         LINE#         302
  C:0FE5H         LINE#         303
  C:0FE5H         LINE#         307
  C:1001H         LINE#         308
  C:101BH         LINE#         309
  C:103FH         LINE#         311
  C:1089H         LINE#         313
  C:10A0H         LINE#         314
  C:10ADH         LINE#         315
  C:10CFH         LINE#         316
  C:1104H         LINE#         317
  C:111CH         LINE#         318
  C:111CH         LINE#         320
  C:1126H         LINE#         321
  C:1130H         LINE#         322
  C:113AH         LINE#         323
  C:113FH         LINE#         324
  C:1149H         LINE#         325
  C:114EH         LINE#         326
  C:1153H         LINE#         327
  C:1155H         LINE#         328
  C:1157H         LINE#         330
  C:1157H         LINE#         332
  C:115CH         LINE#         333
  C:1166H         LINE#         334
  C:1170H         LINE#         335
  C:117AH         LINE#         336
  C:117FH         LINE#         337
  C:1189H         LINE#         338
  C:118EH         LINE#         339
  C:1193H         LINE#         341
  C:1193H         LINE#         343
  -------         ENDPROC       _DISPLAY_POS
  -------         ENDMOD        MAIN

  -------         MODULE        PCF85063BTL
  C:0000H         SYMBOL        _ICE_DUMMY_
  D:0096H         PUBLIC        P2M0
  D:0080H         PUBLIC        P0
  D:0095H         PUBLIC        P2M1
  D:0090H         PUBLIC        P1
  D:00A0H         PUBLIC        P2
  D:00B0H         PUBLIC        P3
  D:00C0H         PUBLIC        P4
  D:00C8H         PUBLIC        P5
  D:00E8H         PUBLIC        P6
  B:00A0H.2       PUBLIC        PCF85063BTL_SDI
BL51 BANKED LINKER/LOCATER V6.22                                                      08/15/2018  10:22:13  PAGE 11


  D:00F8H         PUBLIC        P7
  B:00A0H.1       PUBLIC        PCF85063BTL_SCK
  B:00A0H.2       PUBLIC        PCF85063BTL_SDO
  D:00A8H         PUBLIC        IE
  C:1B3BH         PUBLIC        _Read_time
  C:1F22H         PUBLIC        _PCF85063BTL_Delay
  D:00B8H         PUBLIC        IP
  D:00D8H         PUBLIC        CCON
  C:1A42H         PUBLIC        _Day_Of_Year
  C:1E2DH         PUBLIC        SPI_ReceiveByte
  D:0098H         PUBLIC        SCON
  D:0088H         PUBLIC        TCON
  C:1F68H         PUBLIC        _BCDtoDec
  B:00A0H.0       PUBLIC        PCF85063BTL_CS
  C:1F57H         PUBLIC        _SPI_ReadTime
  C:1FA8H         PUBLIC        SPI_Init
  C:1EC1H         PUBLIC        _SPI_WriteTime
  C:1E0DH         PUBLIC        _SPI_SendByte
  D:00D0H         PUBLIC        PSW
  C:1F1EH         SYMBOL        L?0047
  -------         PROC          L?0046
  -------         ENDPROC       L?0046
  C:1F1EH         SYMBOL        L?0047
  -------         PROC          _PCF85063BTL_DELAY
  D:0006H         SYMBOL        us
  C:1F22H         LINE#         8
  C:1F22H         LINE#         9
  C:1F22H         LINE#         10
  C:1F2CH         LINE#         11
  C:1F2CH         LINE#         12
  C:1F2DH         LINE#         13
  C:1F2FH         LINE#         14
  -------         ENDPROC       _PCF85063BTL_DELAY
  -------         PROC          _SPI_SENDBYTE
  D:0005H         SYMBOL        dat
  -------         DO            
  D:0003H         SYMBOL        i
  -------         ENDDO         
  C:1E0DH         LINE#         17
  C:1E0FH         LINE#         18
  C:1E0FH         LINE#         20
  C:1E11H         LINE#         21
  C:1E11H         LINE#         22
  C:1E13H         LINE#         23
  C:1E17H         LINE#         24
  C:1E17H         LINE#         25
  C:1E19H         LINE#         26
  C:1E1BH         LINE#         28
  C:1E1BH         LINE#         29
  C:1E1DH         LINE#         30
  C:1E1DH         LINE#         31
  C:1E20H         LINE#         32
  C:1E20H         LINE#         33
  C:1E23H         LINE#         34
  C:1E27H         LINE#         35
  C:1E2CH         LINE#         36
  -------         ENDPROC       _SPI_SENDBYTE
BL51 BANKED LINKER/LOCATER V6.22                                                      08/15/2018  10:22:13  PAGE 12


  -------         PROC          SPI_RECEIVEBYTE
  -------         DO            
  D:0003H         SYMBOL        i
  D:0005H         SYMBOL        dat
  -------         ENDDO         
  C:1E2DH         LINE#         39
  C:1E2DH         LINE#         40
  C:1E2DH         LINE#         42
  C:1E2FH         LINE#         44
  C:1E31H         LINE#         45
  C:1E32H         LINE#         46
  C:1E32H         LINE#         47
  C:1E36H         LINE#         48
  C:1E38H         LINE#         49
  C:1E3BH         LINE#         51
  C:1E3EH         LINE#         52
  C:1E3EH         LINE#         53
  C:1E42H         LINE#         54
  C:1E42H         LINE#         55
  C:1E42H         LINE#         56
  C:1E45H         LINE#         57
  C:1E4AH         LINE#         58
  C:1E4CH         LINE#         59
  -------         ENDPROC       SPI_RECEIVEBYTE
  -------         PROC          _SPI_READTIME
  D:0007H         SYMBOL        addr
  -------         DO            
  D:0006H         SYMBOL        dat
  -------         ENDDO         
  C:1F57H         LINE#         61
  C:1F57H         LINE#         62
  C:1F57H         LINE#         64
  C:1F59H         LINE#         65
  C:1F5BH         LINE#         66
  C:1F62H         LINE#         67
  C:1F65H         LINE#         68
  C:1F67H         LINE#         69
  C:1F67H         LINE#         70
  -------         ENDPROC       _SPI_READTIME
  -------         PROC          _SPI_WRITETIME
  D:0002H         SYMBOL        val
  D:0005H         SYMBOL        addr
  C:1EC1H         LINE#         71
  C:1EC3H         LINE#         72
  C:1EC3H         LINE#         74
  C:1EC5H         LINE#         75
  C:1ECCH         LINE#         76
  C:1ED1H         LINE#         77
  C:1ED6H         LINE#         78
  C:1ED8H         LINE#         79
  -------         ENDPROC       _SPI_WRITETIME
  -------         PROC          SPI_INIT
  C:1FA8H         LINE#         83
  C:1FA8H         LINE#         84
  C:1FA8H         LINE#         89
  C:1FABH         LINE#         90
  C:1FAEH         LINE#         91
BL51 BANKED LINKER/LOCATER V6.22                                                      08/15/2018  10:22:13  PAGE 13


  C:1FB0H         LINE#         92
  C:1FB2H         LINE#         93
  C:1FB4H         LINE#         94
  -------         ENDPROC       SPI_INIT
  -------         PROC          _READ_TIME
  X:0098H         SYMBOL        months
  X:009BH         SYMBOL        days
  X:009EH         SYMBOL        hours
  X:00A1H         SYMBOL        mins
  X:00A4H         SYMBOL        seconds
  C:1B3BH         LINE#         96
  C:1B46H         LINE#         97
  C:1B46H         LINE#         99
  C:1B5AH         LINE#         101
  C:1B6EH         LINE#         103
  C:1B82H         LINE#         108
  C:1B96H         LINE#         113
  -------         ENDPROC       _READ_TIME
  -------         PROC          _BCDTODEC
  D:0007H         SYMBOL        bcd
  -------         DO            
  D:0006H         SYMBOL        hi
  D:0007H         SYMBOL        lo
  -------         ENDDO         
  C:1F68H         LINE#         119
  C:1F68H         LINE#         120
  C:1F68H         LINE#         122
  C:1F6DH         LINE#         123
  C:1F71H         LINE#         124
  C:1F78H         LINE#         125
  -------         ENDPROC       _BCDTODEC
  -------         PROC          _DAY_OF_YEAR
  D:0007H         SYMBOL        months_bcd
  D:0005H         SYMBOL        days_bcd
  -------         DO            
  D:0004H         SYMBOL        months
  D:0007H         SYMBOL        days
  -------         ENDDO         
  C:1A42H         LINE#         126
  C:1A42H         LINE#         127
  C:1A42H         LINE#         130
  C:1A47H         LINE#         132
  C:1A4CH         LINE#         134
  C:1A85H         LINE#         135
  C:1A85H         LINE#         136
  C:1A85H         LINE#         137
  C:1A88H         LINE#         138
  C:1A88H         LINE#         139
  C:1A88H         LINE#         140
  C:1A8DH         LINE#         141
  C:1A8DH         LINE#         142
  C:1A8DH         LINE#         143
  C:1A92H         LINE#         144
  C:1A92H         LINE#         145
  C:1A92H         LINE#         146
  C:1A97H         LINE#         147
  C:1A97H         LINE#         148
BL51 BANKED LINKER/LOCATER V6.22                                                      08/15/2018  10:22:13  PAGE 14


  C:1A97H         LINE#         149
  C:1A9CH         LINE#         150
  C:1A9CH         LINE#         151
  C:1A9CH         LINE#         152
  C:1AA1H         LINE#         153
  C:1AA1H         LINE#         154
  C:1AA1H         LINE#         155
  C:1AA6H         LINE#         156
  C:1AA6H         LINE#         157
  C:1AA6H         LINE#         158
  C:1AABH         LINE#         159
  C:1AABH         LINE#         160
  C:1AABH         LINE#         161
  C:1AB3H         LINE#         162
  C:1AB3H         LINE#         163
  C:1AB3H         LINE#         164
  C:1AB8H         LINE#         165
  C:1AB8H         LINE#         166
  C:1AB8H         LINE#         167
  C:1ABDH         LINE#         168
  C:1ABDH         LINE#         169
  C:1ABDH         LINE#         170
  C:1AC5H         LINE#         171
  C:1AC5H         LINE#         172
  C:1AC5H         LINE#         173
  -------         ENDPROC       _DAY_OF_YEAR
  -------         ENDMOD        PCF85063BTL

  -------         MODULE        UART1
  C:0000H         SYMBOL        _ICE_DUMMY_
  D:0080H         PUBLIC        P0
  D:0090H         PUBLIC        P1
  D:00A0H         PUBLIC        P2
  D:00B0H         PUBLIC        P3
  D:00C0H         PUBLIC        P4
  D:00C8H         PUBLIC        P5
  B:00A8H.7       PUBLIC        EA
  D:00E8H         PUBLIC        P6
  D:00F8H         PUBLIC        P7
  C:1D19H         PUBLIC        _SendString
  D:00A8H         PUBLIC        IE
  B:00A8H.4       PUBLIC        ES
  D:00B8H         PUBLIC        IP
  C:1ED9H         PUBLIC        _ASCIItoBCD
  D:00D8H         PUBLIC        CCON
  C:1F79H         PUBLIC        initUART1
  D:0098H         PUBLIC        SCON
  D:0088H         PUBLIC        TCON
  C:000AH         PUBLIC        _DectoBCD
  C:1FFBH         PUBLIC        _ASCII_Letter
  D:008EH         PUBLIC        AUXR
  C:1FF6H         PUBLIC        _unit
  C:0003H         PUBLIC        _ten
  D:00D6H         PUBLIC        T2H
  D:00D7H         PUBLIC        T2L
  D:00D0H         PUBLIC        PSW
  -------         PROC          INITUART1
BL51 BANKED LINKER/LOCATER V6.22                                                      08/15/2018  10:22:13  PAGE 15


  C:1F79H         LINE#         21
  C:1F79H         LINE#         22
  C:1F79H         LINE#         23
  C:1F7CH         LINE#         24
  C:1F7FH         LINE#         25
  C:1F82H         LINE#         26
  C:1F85H         LINE#         27
  C:1F87H         LINE#         28
  C:1F89H         LINE#         30
  -------         ENDPROC       INITUART1
  -------         PROC          _SENDSTRING
  X:00F7H         SYMBOL        s
  C:1D19H         LINE#         35
  C:1D24H         LINE#         36
  C:1D24H         LINE#         37
  C:1D34H         LINE#         38
  C:1D34H         LINE#         39
  C:1D49H         LINE#         40
  C:1D4BH         LINE#         41
  -------         ENDPROC       _SENDSTRING
  -------         PROC          _TEN
  D:0007H         SYMBOL        BCD
  C:0003H         LINE#         43
  C:0003H         LINE#         44
  C:0003H         LINE#         45
  C:0008H         LINE#         46
  -------         ENDPROC       _TEN
  -------         PROC          _UNIT
  D:0007H         SYMBOL        BCD
  C:1FF6H         LINE#         47
  C:1FF6H         LINE#         48
  C:1FF6H         LINE#         52
  C:1FFAH         LINE#         53
  -------         ENDPROC       _UNIT
  -------         PROC          _DECTOBCD
  D:0007H         SYMBOL        dec
  C:000AH         LINE#         54
  C:000AH         LINE#         55
  C:000AH         LINE#         57
  C:000AH         LINE#         58
  -------         ENDPROC       _DECTOBCD
  -------         PROC          _ASCII_LETTER
  D:0007H         SYMBOL        dat
  C:1FFBH         LINE#         60
  C:1FFBH         LINE#         61
  C:1FFBH         LINE#         63
  C:1FFFH         LINE#         64
  -------         ENDPROC       _ASCII_LETTER
  -------         PROC          _ASCIITOBCD
  D:0001H         SYMBOL        ascii
  -------         DO            
  D:0007H         SYMBOL        dec_val
  D:0006H         SYMBOL        ten
  D:0007H         SYMBOL        unit
  -------         ENDDO         
  C:1ED9H         LINE#         66
  C:1ED9H         LINE#         67
BL51 BANKED LINKER/LOCATER V6.22                                                      08/15/2018  10:22:13  PAGE 16


  C:1ED9H         LINE#         69
  C:1EDCH         LINE#         70
  C:1EE2H         LINE#         71
  C:1EE9H         LINE#         72
  C:1EEFH         LINE#         74
  -------         ENDPROC       _ASCIITOBCD
  -------         ENDMOD        UART1

  -------         MODULE        LCD_DRIVER_SPLC780D
  C:0000H         SYMBOL        _ICE_DUMMY_
  D:0092H         PUBLIC        P1M0
  D:0091H         PUBLIC        P1M1
  D:0080H         PUBLIC        P0
  D:0090H         PUBLIC        P1
  D:00A0H         PUBLIC        P2
  D:00B0H         PUBLIC        P3
  D:00C0H         PUBLIC        P4
  D:00C8H         PUBLIC        P5
  D:00E8H         PUBLIC        P6
  D:00F8H         PUBLIC        P7
  C:1AC6H         PUBLIC        _WriteData
  D:00A8H         PUBLIC        IE
  D:00B8H         PUBLIC        IP
  D:00D8H         PUBLIC        CCON
  B:0090H.4       PUBLIC        LCD_D4
  B:0090H.5       PUBLIC        LCD_D5
  B:0090H.6       PUBLIC        LCD_D6
  C:1E89H         PUBLIC        _DisplayLCD
  B:0090H.7       PUBLIC        LCD_D7
  D:0098H         PUBLIC        SCON
  D:0088H         PUBLIC        TCON
  C:1FD7H         PUBLIC        LCD_clear
  C:1CA5H         PUBLIC        _Command
  C:000EH         PUBLIC        _Display_Line
  C:1BAAH         PUBLIC        LCD_Init
  C:1DA9H         PUBLIC        _Wait_ms
  B:0090H.1       PUBLIC        LCD_RS
  B:0090H.2       PUBLIC        LCD_RW
  C:1FCDH         PUBLIC        LCD_return_home
  B:0090H.3       PUBLIC        LCD_E
  D:00D0H         PUBLIC        PSW
  -------         PROC          LCD_INIT
  C:1BAAH         LINE#         9
  C:1BAAH         LINE#         10
  C:1BAAH         LINE#         11
  C:1BADH         LINE#         12
  C:1BB0H         LINE#         14
  C:1BB6H         LINE#         15
  C:1BBBH         LINE#         17
  C:1BC2H         LINE#         18
  C:1BC7H         LINE#         20
  C:1BCAH         LINE#         21
  C:1BCFH         LINE#         23
  C:1BD2H         LINE#         24
  C:1BD7H         LINE#         26
  C:1BDEH         LINE#         29
  C:1BE3H         LINE#         30
BL51 BANKED LINKER/LOCATER V6.22                                                      08/15/2018  10:22:13  PAGE 17


  C:1BE8H         LINE#         32
  C:1BEDH         LINE#         33
  C:1BF2H         LINE#         35
  C:1BF7H         LINE#         36
  C:1BFCH         LINE#         37
  -------         ENDPROC       LCD_INIT
  -------         PROC          _WRITEDATA
  X:00A2H         SYMBOL        dat
  C:1AC6H         LINE#         40
  C:1ACBH         LINE#         41
  C:1ACBH         LINE#         46
  C:1ACDH         LINE#         47
  C:1ACFH         LINE#         49
  C:1ADDH         LINE#         50
  C:1AE9H         LINE#         51
  C:1AF5H         LINE#         52
  C:1AFFH         LINE#         53
  C:1B01H         LINE#         54
  C:1B08H         LINE#         55
  C:1B0AH         LINE#         57
  C:1B1AH         LINE#         58
  C:1B25H         LINE#         59
  C:1B2FH         LINE#         60
  C:1B33H         LINE#         62
  C:1B33H         LINE#         63
  C:1B36H         LINE#         64
  C:1B38H         LINE#         65
  C:1B3AH         LINE#         67
  -------         ENDPROC       _WRITEDATA
  -------         PROC          _COMMAND
  D:0007H         SYMBOL        dat
  C:1CA5H         LINE#         69
  C:1CA5H         LINE#         70
  C:1CA5H         LINE#         71
  C:1CA7H         LINE#         72
  C:1CA9H         LINE#         74
  C:1CB3H         LINE#         75
  C:1CB7H         LINE#         77
  C:1CB9H         LINE#         78
  C:1CC2H         LINE#         79
  C:1CC6H         LINE#         81
  C:1CC8H         LINE#         82
  C:1CCFH         LINE#         83
  C:1CD3H         LINE#         85
  C:1CD5H         LINE#         86
  C:1CD9H         LINE#         87
  C:1CDDH         LINE#         89
  C:1CDFH         LINE#         90
  C:1CDFH         LINE#         91
  C:1CE2H         LINE#         92
  C:1CE4H         LINE#         93
  -------         ENDPROC       _COMMAND
  C:1DA5H         SYMBOL        L?0028
  -------         PROC          L?0027
  -------         ENDPROC       L?0027
  C:1DA5H         SYMBOL        L?0028
  -------         PROC          _WAIT_MS
BL51 BANKED LINKER/LOCATER V6.22                                                      08/15/2018  10:22:13  PAGE 18


  D:0006H         SYMBOL        ms
  -------         DO            
  D:0004H         SYMBOL        De_Cnt
  -------         ENDDO         
  C:1DA9H         LINE#         95
  C:1DA9H         LINE#         96
  C:1DA9H         LINE#         98
  C:1DB3H         LINE#         99
  C:1DB3H         LINE#         100
  C:1DC6H         LINE#         101
  C:1DC6H         LINE#         102
  -------         ENDPROC       _WAIT_MS
  -------         PROC          _DISPLAYLCD
  D:0007H         SYMBOL        BCD
  -------         DO            
  D:0006H         SYMBOL        first_digit
  X:0098H         SYMBOL        second_digit
  -------         ENDDO         
  C:1E89H         LINE#         103
  C:1E89H         LINE#         104
  C:1E89H         LINE#         106
  C:1E90H         LINE#         107
  C:1E99H         LINE#         109
  C:1E9EH         LINE#         111
  -------         ENDPROC       _DISPLAYLCD
  -------         PROC          LCD_RETURN_HOME
  C:1FCDH         LINE#         115
  C:1FCDH         LINE#         116
  C:1FCDH         LINE#         117
  C:1FD2H         LINE#         118
  -------         ENDPROC       LCD_RETURN_HOME
  -------         PROC          LCD_CLEAR
  C:1FD7H         LINE#         121
  C:1FD7H         LINE#         122
  C:1FD7H         LINE#         123
  C:1FDCH         LINE#         124
  -------         ENDPROC       LCD_CLEAR
  -------         PROC          _DISPLAY_LINE
  D:0006H         SYMBOL        line
  C:000EH         LINE#         128
  C:000EH         LINE#         129
  C:000EH         LINE#         130
  C:0014H         LINE#         131
  C:0014H         LINE#         132
  C:0016H         LINE#         133
  C:0016H         LINE#         134
  C:0018H         LINE#         136
  C:0018H         LINE#         137
  C:001DH         LINE#         138
  C:0022H         LINE#         139
  C:0022H         LINE#         140
  -------         ENDPROC       _DISPLAY_LINE
  -------         ENDMOD        LCD_DRIVER_SPLC780D

  -------         MODULE        KEYPAD
  C:0000H         SYMBOL        _ICE_DUMMY_
  D:0093H         PUBLIC        P0M1
BL51 BANKED LINKER/LOCATER V6.22                                                      08/15/2018  10:22:13  PAGE 19


  D:0080H         PUBLIC        P0
  D:0090H         PUBLIC        P1
  D:00A0H         PUBLIC        P2
  D:00B0H         PUBLIC        P3
  D:00C0H         PUBLIC        P4
  D:00C8H         PUBLIC        P5
  D:00E8H         PUBLIC        P6
  D:00F8H         PUBLIC        P7
  D:00A8H         PUBLIC        IE
  C:1194H         PUBLIC        Key_Scan
  D:00B8H         PUBLIC        IP
  D:00D8H         PUBLIC        CCON
  C:1FB5H         PUBLIC        KeyPad_IO_Init
  C:1E4DH         PUBLIC        _Delay_ms
  D:0098H         PUBLIC        SCON
  D:0088H         PUBLIC        TCON
  B:0020H.0       PUBLIC        small_move
  B:0020H.1       PUBLIC        move
  B:0020H.2       PUBLIC        direction
  B:0020H.3       PUBLIC        auto_move
  C:069BH         PUBLIC        Key_Process
  D:00D0H         PUBLIC        PSW
  D:0094H         PUBLIC        P0M0
  -------         PROC          _DELAY_MS
  D:0006H         SYMBOL        ms
  -------         DO            
  D:0004H         SYMBOL        De_Cnt
  -------         ENDDO         
  C:1E4DH         LINE#         19
  C:1E4DH         LINE#         20
  C:1E4DH         LINE#         22
  C:1E57H         LINE#         23
  C:1E57H         LINE#         24
  C:1E6AH         LINE#         25
  C:1E6AH         LINE#         26
  -------         ENDPROC       _DELAY_MS
  -------         PROC          KEY_SCAN
  -------         DO            
  X:009EH         SYMBOL        KeyTemp1
  X:009FH         SYMBOL        KeyTemp2
  X:00A0H         SYMBOL        KeyValue
  -------         ENDDO         
  C:1194H         LINE#         27
  C:1194H         LINE#         28
  C:1194H         LINE#         33
  C:1197H         LINE#         36
  C:119AH         LINE#         38
  C:11A2H         LINE#         39
  C:11A9H         LINE#         40
  C:11A9H         LINE#         42
  C:11AEH         LINE#         43
  C:11B5H         LINE#         44
  C:11B5H         LINE#         47
  C:11B8H         LINE#         48
  C:11BBH         LINE#         49
  C:11C0H         LINE#         50
  C:11C4H         LINE#         51
BL51 BANKED LINKER/LOCATER V6.22                                                      08/15/2018  10:22:13  PAGE 20


  C:11C4H         LINE#         52
  C:11CCH         LINE#         53
  C:11CCH         LINE#         54
  C:11CFH         LINE#         55
  C:11D7H         LINE#         56
  C:11D9H         LINE#         58
  C:11EDH         LINE#         59
  C:11EDH         LINE#         60
  C:11EDH         LINE#         61
  C:11EDH         LINE#         62
  C:11F3H         LINE#         64
  C:11F5H         LINE#         65
  C:11F5H         LINE#         66
  C:11F5H         LINE#         67
  C:11FBH         LINE#         69
  C:11FDH         LINE#         70
  C:11FDH         LINE#         71
  C:11FDH         LINE#         72
  C:1203H         LINE#         74
  C:1205H         LINE#         75
  C:1205H         LINE#         76
  C:1205H         LINE#         77
  C:120BH         LINE#         79
  C:120BH         LINE#         80
  C:120BH         LINE#         81
  C:120BH         LINE#         84
  C:120EH         LINE#         85
  C:1211H         LINE#         86
  C:1219H         LINE#         87
  C:121DH         LINE#         88
  C:121DH         LINE#         89
  C:1225H         LINE#         90
  C:1225H         LINE#         91
  C:1228H         LINE#         92
  C:1230H         LINE#         93
  C:1232H         LINE#         94
  C:1246H         LINE#         95
  C:1246H         LINE#         96
  C:1246H         LINE#         97
  C:1246H         LINE#         98
  C:124CH         LINE#         100
  C:124EH         LINE#         101
  C:124EH         LINE#         102
  C:124EH         LINE#         103
  C:1254H         LINE#         105
  C:1256H         LINE#         106
  C:1256H         LINE#         107
  C:1256H         LINE#         108
  C:125CH         LINE#         110
  C:125EH         LINE#         111
  C:125EH         LINE#         112
  C:125EH         LINE#         113
  C:1263H         LINE#         115
  C:1263H         LINE#         116
  C:1263H         LINE#         117
  C:1263H         LINE#         120
  C:1266H         LINE#         121
BL51 BANKED LINKER/LOCATER V6.22                                                      08/15/2018  10:22:13  PAGE 21


  C:1269H         LINE#         122
  C:1271H         LINE#         123
  C:1275H         LINE#         124
  C:1275H         LINE#         125
  C:127DH         LINE#         126
  C:127DH         LINE#         127
  C:1280H         LINE#         128
  C:1288H         LINE#         129
  C:128AH         LINE#         130
  C:129EH         LINE#         131
  C:129EH         LINE#         132
  C:129EH         LINE#         133
  C:129EH         LINE#         134
  C:12A4H         LINE#         136
  C:12A6H         LINE#         137
  C:12A6H         LINE#         138
  C:12A6H         LINE#         139
  C:12ACH         LINE#         141
  C:12AEH         LINE#         142
  C:12AEH         LINE#         143
  C:12AEH         LINE#         144
  C:12B4H         LINE#         146
  C:12B6H         LINE#         147
  C:12B6H         LINE#         148
  C:12B6H         LINE#         149
  C:12BCH         LINE#         151
  C:12BCH         LINE#         152
  C:12BCH         LINE#         153
  C:12BCH         LINE#         157
  C:12BFH         LINE#         158
  C:12C2H         LINE#         159
  C:12CAH         LINE#         160
  C:12CEH         LINE#         161
  C:12CEH         LINE#         162
  C:12D6H         LINE#         163
  C:12D6H         LINE#         164
  C:12D9H         LINE#         165
  C:12E1H         LINE#         166
  C:12E3H         LINE#         167
  C:12F7H         LINE#         168
  C:12F7H         LINE#         169
  C:12F7H         LINE#         170
  C:12F7H         LINE#         171
  C:12FDH         LINE#         173
  C:12FFH         LINE#         174
  C:12FFH         LINE#         175
  C:12FFH         LINE#         176
  C:1305H         LINE#         178
  C:1307H         LINE#         179
  C:1307H         LINE#         180
  C:1307H         LINE#         181
  C:130DH         LINE#         183
  C:130FH         LINE#         184
  C:130FH         LINE#         185
  C:130FH         LINE#         186
  C:1315H         LINE#         188
  C:1315H         LINE#         189
BL51 BANKED LINKER/LOCATER V6.22                                                      08/15/2018  10:22:13  PAGE 22


  C:1315H         LINE#         190
  C:1315H         LINE#         192
  C:131BH         LINE#         193
  C:131BH         LINE#         195
  C:131BH         LINE#         196
  C:131EH         LINE#         197
  C:131EH         LINE#         198
  C:131EH         LINE#         200
  C:131EH         LINE#         201
  C:1320H         LINE#         202
  C:1320H         LINE#         203
  -------         ENDPROC       KEY_SCAN
  -------         PROC          KEY_PROCESS
  -------         DO            
  X:00E2H         SYMBOL        KeyCount
  X:00E4H         SYMBOL        KeyNum_Old
  X:00E5H         SYMBOL        KeyNum
  X:00E6H         SYMBOL        PressedKey
  X:0098H         SYMBOL        d
  D:0004H         SYMBOL        hours
  D:0006H         SYMBOL        mins
  X:009AH         SYMBOL        months
  X:009CH         SYMBOL        days
  -------         ENDDO         
  C:069BH         LINE#         204
  C:069BH         LINE#         205
  C:069BH         LINE#         209
  C:06A3H         LINE#         210
  C:06ABH         LINE#         212
  C:06AEH         LINE#         213
  C:06AEH         LINE#         214
  C:06B1H         LINE#         216
  C:06B1H         LINE#         217
  C:06BEH         LINE#         218
  C:06BEH         LINE#         219
  C:06C1H         LINE#         220
  C:06C4H         LINE#         222
  C:06C7H         LINE#         224
  C:06C7H         LINE#         225
  C:06D2H         LINE#         226
  C:06D2H         LINE#         227
  C:06D5H         LINE#         229
  C:06D5H         LINE#         230
  C:06DCH         LINE#         231
  C:06DCH         LINE#         232
  C:06DFH         LINE#         234
  C:06DFH         LINE#         235
  C:06E7H         LINE#         236
  C:06E7H         LINE#         237
  C:06F1H         LINE#         238
  C:06F9H         LINE#         240
  C:0702H         LINE#         242
  C:0702H         LINE#         251
  C:0717H         LINE#         252
  C:0717H         LINE#         253
  C:0729H         LINE#         254
  C:0737H         LINE#         255
BL51 BANKED LINKER/LOCATER V6.22                                                      08/15/2018  10:22:13  PAGE 23


  C:0746H         LINE#         256
  C:0746H         LINE#         258
  C:074CH         LINE#         262
  C:0762H         LINE#         263
  C:0773H         LINE#         264
  C:078EH         LINE#         265
  C:078EH         LINE#         266
  C:079EH         LINE#         267
  C:07AFH         LINE#         268
  C:07AFH         LINE#         272
  C:07C8H         LINE#         273
  C:07DFH         LINE#         274
  C:07FFH         LINE#         275
  C:07FFH         LINE#         276
  C:0809H         LINE#         277
  C:0809H         LINE#         278
  C:0812H         LINE#         279
  C:0812H         LINE#         280
  C:0826H         LINE#         281
  C:0826H         LINE#         282
  C:0826H         LINE#         283
  C:0826H         LINE#         284
  C:0826H         LINE#         285
  C:0828H         LINE#         287
  C:0828H         LINE#         288
  C:0834H         LINE#         289
  C:0834H         LINE#         290
  C:0845H         LINE#         291
  C:0845H         LINE#         292
  C:0845H         LINE#         293
  C:0845H         LINE#         294
  C:0845H         LINE#         296
  C:0847H         LINE#         298
  C:0847H         LINE#         299
  C:0858H         LINE#         300
  C:0858H         LINE#         301
  C:0858H         LINE#         302
  C:0858H         LINE#         303
  C:0858H         LINE#         305
  C:0858H         LINE#         307
  C:0858H         LINE#         308
  C:085AH         LINE#         310
  C:085AH         LINE#         311
  C:086DH         LINE#         312
  C:086DH         LINE#         313
  C:087EH         LINE#         314
  C:087EH         LINE#         315
  C:087EH         LINE#         316
  C:087EH         LINE#         317
  C:087EH         LINE#         318
  C:0880H         LINE#         320
  C:0880H         LINE#         321
  C:0891H         LINE#         322
  C:0891H         LINE#         323
  C:08A2H         LINE#         324
  C:08B3H         LINE#         325
  C:08B3H         LINE#         326
BL51 BANKED LINKER/LOCATER V6.22                                                      08/15/2018  10:22:13  PAGE 24


  C:08B3H         LINE#         327
  C:08B3H         LINE#         328
  C:08B3H         LINE#         329
  C:08B6H         LINE#         330
  C:08BBH         LINE#         331
  C:08C0H         LINE#         332
  C:08C5H         LINE#         333
  C:08CAH         LINE#         334
  C:08CFH         LINE#         335
  C:08D4H         LINE#         336
  C:08D9H         LINE#         337
  C:08D9H         LINE#         339
  C:08FBH         LINE#         340
  C:08FBH         LINE#         341
  C:0905H         LINE#         342
  C:0905H         LINE#         343
  C:090AH         LINE#         344
  C:0913H         LINE#         345
  C:092AH         LINE#         346
  C:092AH         LINE#         347
  C:093AH         LINE#         349
  C:093AH         LINE#         353
  -------         ENDPROC       KEY_PROCESS
  -------         PROC          KEYPAD_IO_INIT
  C:1FB5H         LINE#         356
  C:1FB5H         LINE#         357
  C:1FB5H         LINE#         358
  C:1FB8H         LINE#         359
  C:1FBBH         LINE#         360
  C:1FBEH         LINE#         361
  C:1FC0H         LINE#         362
  -------         ENDPROC       KEYPAD_IO_INIT
  -------         ENDMOD        KEYPAD

  -------         MODULE        VCNL4035
  C:0000H         SYMBOL        _ICE_DUMMY_
  D:0080H         PUBLIC        P0
  B:00B0H.2       PUBLIC        I2C_SCK
  D:00B2H         PUBLIC        P3M0
  D:0090H         PUBLIC        P1
  D:00B1H         PUBLIC        P3M1
  D:00A0H         PUBLIC        P2
  D:00B0H         PUBLIC        P3
  D:00C0H         PUBLIC        P4
  D:00C8H         PUBLIC        P5
  D:00E8H         PUBLIC        P6
  D:00F8H         PUBLIC        P7
  D:00A8H         PUBLIC        IE
  C:1FF0H         PUBLIC        _DisplayLCD_VCNL4035
  D:00B8H         PUBLIC        IP
  D:00D8H         PUBLIC        CCON
  C:1F44H         PUBLIC        I2C_Start
  D:0098H         PUBLIC        SCON
  C:1EF0H         PUBLIC        I2C_Init
  D:0088H         PUBLIC        TCON
  C:1F8AH         PUBLIC        uC_NACK
  C:1D85H         PUBLIC        _Wait_ms_i2c
BL51 BANKED LINKER/LOCATER V6.22                                                      08/15/2018  10:22:13  PAGE 25


  C:1DEBH         PUBLIC        _I2C_SendByte
  C:1F07H         PUBLIC        I2C_Stop
  C:1C5CH         PUBLIC        _Write_VCNL4035X
  C:2000H         PUBLIC        nop
  C:17EDH         PUBLIC        _Read_VCNL4035
  C:1FEAH         PUBLIC        uC_ACK
  C:1EABH         PUBLIC        I2C_ACK
  C:1E6BH         PUBLIC        _Wait_ms_iic
  B:00B0H.1       PUBLIC        I2C_SDA
  D:00D0H         PUBLIC        PSW
  C:1D52H         PUBLIC        I2C_ReceiveByte
  -------         PROC          _WAIT_MS_IIC
  D:0006H         SYMBOL        ms
  -------         DO            
  D:0004H         SYMBOL        De_Cnt
  -------         ENDDO         
  C:1E6BH         LINE#         5
  C:1E6BH         LINE#         6
  C:1E6BH         LINE#         8
  C:1E75H         LINE#         9
  C:1E75H         LINE#         10
  C:1E88H         LINE#         11
  C:1E88H         LINE#         12
  -------         ENDPROC       _WAIT_MS_IIC
  C:1D7FH         SYMBOL        L?0048
  C:1D81H         SYMBOL        L?0049
  -------         PROC          L?0047
  -------         ENDPROC       L?0047
  C:1D7FH         SYMBOL        L?0048
  C:1D81H         SYMBOL        L?0049
  -------         PROC          _WAIT_MS_I2C
  D:0006H         SYMBOL        ms
  -------         DO            
  D:0004H         SYMBOL        De_Cnt
  -------         ENDDO         
  C:1D85H         LINE#         14
  C:1D85H         LINE#         15
  C:1D85H         LINE#         17
  C:1D8FH         LINE#         18
  C:1D8FH         LINE#         19
  C:1DA2H         LINE#         20
  C:1DA2H         LINE#         21
  -------         ENDPROC       _WAIT_MS_I2C
  -------         PROC          NOP
  C:2000H         LINE#         22
  C:2000H         LINE#         23
  C:2000H         LINE#         25
  -------         ENDPROC       NOP
  -------         PROC          I2C_START
  C:1F44H         LINE#         26
  C:1F44H         LINE#         27
  C:1F44H         LINE#         29
  C:1F46H         LINE#         30
  C:1F48H         LINE#         31
  C:1F4FH         LINE#         32
  C:1F51H         LINE#         33
  C:1F54H         LINE#         34
BL51 BANKED LINKER/LOCATER V6.22                                                      08/15/2018  10:22:13  PAGE 26


  C:1F56H         LINE#         37
  -------         ENDPROC       I2C_START
  -------         PROC          I2C_STOP
  C:1F07H         LINE#         39
  C:1F07H         LINE#         40
  C:1F07H         LINE#         41
  C:1F09H         LINE#         42
  C:1F0BH         LINE#         43
  C:1F0EH         LINE#         44
  C:1F10H         LINE#         45
  C:1F12H         LINE#         46
  C:1F19H         LINE#         47
  C:1F1BH         LINE#         50
  -------         ENDPROC       I2C_STOP
  -------         PROC          L?0050
  -------         ENDPROC       L?0050
  -------         PROC          I2C_ACK
  -------         DO            
  X:00FDH         SYMBOL        i
  D:0003H         SYMBOL        dat
  -------         ENDDO         
  C:1EABH         LINE#         52
  C:1EABH         LINE#         53
  C:1EABH         LINE#         55
  C:1EACH         LINE#         60
  C:1EAFH         LINE#         61
  C:1EB1H         LINE#         62
  C:1EB4H         LINE#         64
  C:1EB7H         LINE#         65
  C:1EB7H         LINE#         66
  C:1EBBH         LINE#         67
  C:1EBBH         LINE#         70
  C:1EBBH         LINE#         71
  C:1EBEH         LINE#         72
  C:1EBEH         LINE#         73
  C:1EC0H         LINE#         74
  -------         ENDPROC       I2C_ACK
  -------         PROC          UC_ACK
  -------         DO            
  X:00FEH         SYMBOL        i
  -------         ENDDO         
  C:1FEAH         LINE#         75
  C:1FEAH         LINE#         76
  C:1FEAH         LINE#         78
  C:1FEAH         LINE#         85
  C:1FEAH         LINE#         87
  C:1FEAH         LINE#         89
  C:1FEAH         LINE#         90
  C:1FEAH         LINE#         93
  C:1FEDH         LINE#         94
  C:1FEFH         LINE#         95
  C:1FEFH         LINE#         99
  -------         ENDPROC       UC_ACK
  -------         PROC          UC_NACK
  -------         DO            
  X:00FFH         SYMBOL        i
  -------         ENDDO         
BL51 BANKED LINKER/LOCATER V6.22                                                      08/15/2018  10:22:13  PAGE 27


  C:1F8AH         LINE#         101
  C:1F8AH         LINE#         102
  C:1F8AH         LINE#         104
  C:1F8AH         LINE#         108
  C:1F8CH         LINE#         111
  C:1F8CH         LINE#         112
  C:1F8EH         LINE#         113
  C:1F8EH         LINE#         115
  C:1F8EH         LINE#         116
  C:1F8EH         LINE#         119
  C:1F91H         LINE#         120
  C:1F93H         LINE#         121
  C:1F96H         LINE#         122
  C:1F98H         LINE#         123
  C:1F98H         LINE#         127
  -------         ENDPROC       UC_NACK
  -------         PROC          I2C_INIT
  C:1EF0H         LINE#         129
  C:1EF0H         LINE#         130
  C:1EF0H         LINE#         133
  C:1EF3H         LINE#         134
  C:1EF6H         LINE#         139
  C:1EFEH         LINE#         141
  -------         ENDPROC       I2C_INIT
  -------         PROC          _I2C_SENDBYTE
  D:0001H         SYMBOL        dat
  -------         DO            
  D:0003H         SYMBOL        i
  -------         ENDDO         
  C:1DEBH         LINE#         145
  C:1DEDH         LINE#         146
  C:1DEDH         LINE#         149
  C:1DEFH         LINE#         150
  C:1DEFH         LINE#         151
  C:1DF1H         LINE#         153
  C:1DF5H         LINE#         154
  C:1DF5H         LINE#         155
  C:1DF7H         LINE#         156
  C:1DF9H         LINE#         158
  C:1DF9H         LINE#         159
  C:1DFBH         LINE#         160
  C:1DFBH         LINE#         161
  C:1DFEH         LINE#         162
  C:1E00H         LINE#         164
  C:1E04H         LINE#         165
  C:1E07H         LINE#         166
  C:1E0CH         LINE#         167
  -------         ENDPROC       _I2C_SENDBYTE
  -------         PROC          L?0051
  -------         ENDPROC       L?0051
  -------         PROC          I2C_RECEIVEBYTE
  -------         DO            
  D:0003H         SYMBOL        i
  D:0001H         SYMBOL        dat
  -------         ENDDO         
  C:1D52H         LINE#         171
  C:1D52H         LINE#         172
BL51 BANKED LINKER/LOCATER V6.22                                                      08/15/2018  10:22:13  PAGE 28


  C:1D52H         LINE#         174
  C:1D54H         LINE#         178
  C:1D55H         LINE#         179
  C:1D55H         LINE#         180
  C:1D59H         LINE#         181
  C:1D5BH         LINE#         182
  C:1D5EH         LINE#         184
  C:1D61H         LINE#         185
  C:1D61H         LINE#         186
  C:1D65H         LINE#         187
  C:1D65H         LINE#         188
  C:1D65H         LINE#         189
  C:1D68H         LINE#         190
  C:1D6CH         LINE#         191
  C:1D6CH         LINE#         192
  C:1D6EH         LINE#         193
  C:1D70H         LINE#         194
  C:1D70H         LINE#         196
  C:1D75H         LINE#         197
  C:1D77H         LINE#         198
  -------         ENDPROC       I2C_RECEIVEBYTE
  -------         PROC          _WRITE_VCNL4035X
  X:00FAH         SYMBOL        command_code
  X:00FBH         SYMBOL        dat_h
  X:00FCH         SYMBOL        dat_l
  C:1C5CH         LINE#         199
  C:1C67H         LINE#         200
  C:1C67H         LINE#         201
  C:1C6AH         LINE#         202
  C:1C71H         LINE#         203
  C:1C71H         LINE#         204
  C:1C77H         LINE#         205
  C:1C77H         LINE#         206
  C:1C7FH         LINE#         207
  C:1C7FH         LINE#         208
  C:1C85H         LINE#         209
  C:1C8DH         LINE#         211
  C:1C93H         LINE#         212
  C:1C9BH         LINE#         214
  C:1CA1H         LINE#         215
  C:1CA4H         LINE#         216
  -------         ENDPROC       _WRITE_VCNL4035X
  -------         PROC          _READ_VCNL4035
  X:00EBH         SYMBOL        command_code
  -------         DO            
  X:00EDH         SYMBOL        temp_dat
  X:00EFH         SYMBOL        temp_dat_l
  X:00F1H         SYMBOL        temp_dat_h
  -------         ENDDO         
  C:17EDH         LINE#         218
  C:17F5H         LINE#         219
  C:17F5H         LINE#         220
  C:1802H         LINE#         222
  C:1805H         LINE#         223
  C:1808H         LINE#         224
  C:180DH         LINE#         226
  C:1813H         LINE#         227
BL51 BANKED LINKER/LOCATER V6.22                                                      08/15/2018  10:22:13  PAGE 29


  C:1813H         LINE#         228
  C:1813H         LINE#         229
  C:1813H         LINE#         230
  C:181EH         LINE#         231
  C:1821H         LINE#         232
  C:1824H         LINE#         233
  C:1824H         LINE#         236
  C:1827H         LINE#         238
  C:182EH         LINE#         239
  C:182EH         LINE#         240
  C:182EH         LINE#         241
  C:1839H         LINE#         242
  C:183CH         LINE#         243
  C:183FH         LINE#         244
  C:1842H         LINE#         245
  C:1845H         LINE#         246
  C:1848H         LINE#         247
  C:184BH         LINE#         248
  C:184EH         LINE#         249
  C:1851H         LINE#         250
  C:1851H         LINE#         251
  C:1857H         LINE#         252
  C:1857H         LINE#         253
  C:1860H         LINE#         255
  C:1860H         LINE#         256
  C:1866H         LINE#         257
  C:1866H         LINE#         259
  C:1868H         LINE#         260
  C:186EH         LINE#         261
  C:1871H         LINE#         262
  C:1878H         LINE#         263
  C:1878H         LINE#         264
  C:1886H         LINE#         265
  -------         ENDPROC       _READ_VCNL4035
  -------         PROC          _DISPLAYLCD_VCNL4035
  X:0100H         SYMBOL        dat
  C:1FF0H         LINE#         267
  C:1FF5H         LINE#         268
  C:1FF5H         LINE#         270
  -------         ENDPROC       _DISPLAYLCD_VCNL4035
  -------         ENDMOD        VCNL4035

  -------         MODULE        BIPOLARMOTOR
  C:0000H         SYMBOL        _ICE_DUMMY_
  D:0080H         PUBLIC        P0
  D:0090H         PUBLIC        P1
  D:00A0H         PUBLIC        P2
  D:00B0H         PUBLIC        P3
  D:00C0H         PUBLIC        P4
  D:00C8H         PUBLIC        P5
  D:00E8H         PUBLIC        P6
  D:00F8H         PUBLIC        P7
  D:00A8H         PUBLIC        IE
  X:0000H         PUBLIC        receiver_pos
  X:0044H         PUBLIC        Time_stamp_PM
  C:1CE5H         PUBLIC        _Move
  D:00B8H         PUBLIC        IP
BL51 BANKED LINKER/LOCATER V6.22                                                      08/15/2018  10:22:13  PAGE 30


  X:0077H         PUBLIC        num_of_time_stamp
  D:00D8H         PUBLIC        CCON
  C:0DEAH         PUBLIC        _trend_line_30_31
  D:0098H         PUBLIC        SCON
  D:0088H         PUBLIC        TCON
  C:1C03H         PUBLIC        _Step_move
  C:0BBBH         PUBLIC        _Update_position
  C:1DDAH         PUBLIC        _BCDtoDec1
  X:0078H         PUBLIC        degree
  D:00D0H         PUBLIC        PSW
  -------         PROC          L?0024
  -------         ENDPROC       L?0024
  -------         PROC          _BCDTODEC1
  D:0007H         SYMBOL        bcd
  -------         DO            
  D:0006H         SYMBOL        hi
  D:0007H         SYMBOL        lo
  -------         ENDDO         
  C:1DDAH         LINE#         12
  C:1DDAH         LINE#         13
  C:1DDAH         LINE#         15
  C:1DDFH         LINE#         16
  C:1DE3H         LINE#         17
  C:1DEAH         LINE#         18
  -------         ENDPROC       _BCDTODEC1
  -------         PROC          _STEP_MOVE
  X:00B4H         SYMBOL        step
  B:0020H.6       SYMBOL        dir
  -------         DO            
  X:00B6H         SYMBOL        i
  -------         ENDDO         
  C:1C03H         LINE#         24
  C:1C0BH         LINE#         25
  C:1C0BH         LINE#         26
  C:1C10H         LINE#         27
  C:1C13H         LINE#         28
  C:1C18H         LINE#         30
  C:1C1BH         LINE#         32
  C:1C37H         LINE#         33
  C:1C37H         LINE#         34
  C:1C3AH         LINE#         35
  C:1C41H         LINE#         36
  C:1C44H         LINE#         37
  C:1C4BH         LINE#         38
  C:1C5BH         LINE#         39
  -------         ENDPROC       _STEP_MOVE
  -------         PROC          _MOVE
  X:00B0H         SYMBOL        distance
  B:0020H.5       SYMBOL        direction
  -------         DO            
  D:0006H         SYMBOL        step
  -------         ENDDO         
  C:1CE5H         LINE#         41
  C:1CEBH         LINE#         42
  C:1CEBH         LINE#         44
  C:1D12H         LINE#         45
  -------         ENDPROC       _MOVE
BL51 BANKED LINKER/LOCATER V6.22                                                      08/15/2018  10:22:13  PAGE 31


  -------         PROC          _UPDATE_POSITION
  X:0098H         SYMBOL        mnths
  X:0099H         SYMBOL        dys
  X:009AH         SYMBOL        hurs
  X:009BH         SYMBOL        mns
  X:009CH         SYMBOL        sconds
  X:009DH         SYMBOL        currnt_pos
  -------         DO            
  X:00A0H         SYMBOL        date
  X:00A2H         SYMBOL        i
  X:00A4H         SYMBOL        desired_distance
  X:00A8H         SYMBOL        distance
  X:00ACH         SYMBOL        h_float
  D:0004H         SYMBOL        m_float
  -------         ENDDO         
  C:0BBBH         LINE#         51
  C:0BC6H         LINE#         52
  C:0BC6H         LINE#         54
  C:0BD0H         LINE#         59
  C:0BE4H         LINE#         60
  C:0BF7H         LINE#         62
  C:0C16H         LINE#         63
  C:0C16H         LINE#         64
  C:0CEBH         LINE#         65
  C:0CEBH         LINE#         67
  C:0CEBH         LINE#         70
  C:0CF7H         LINE#         71
  C:0CF7H         LINE#         72
  C:0D0BH         LINE#         73
  C:0D19H         LINE#         75
  C:0D3DH         LINE#         76
  C:0D3DH         LINE#         77
  C:0D3DH         LINE#         78
  C:0D62H         LINE#         79
  C:0D7EH         LINE#         80
  C:0D98H         LINE#         81
  C:0D98H         LINE#         82
  C:0DA8H         LINE#         83
  C:0DAAH         LINE#         84
  C:0DC2H         LINE#         85
  C:0DC2H         LINE#         86
  C:0DD8H         LINE#         87
  C:0DD8H         LINE#         89
  C:0DD8H         LINE#         90
  C:0DD8H         LINE#         92
  C:0DD8H         LINE#         94
  C:0DD8H         LINE#         96
  C:0DE9H         LINE#         97
  -------         ENDPROC       _UPDATE_POSITION
  -------         PROC          _TREND_LINE_30_31
  X:00B0H         SYMBOL        time
  -------         DO            
  X:00B4H         SYMBOL        offset
  -------         ENDDO         
  C:0DEAH         LINE#         99
  C:0DF0H         LINE#         100
  C:0DF0H         LINE#         102
BL51 BANKED LINKER/LOCATER V6.22                                                      08/15/2018  10:22:13  PAGE 32


  C:0F47H         LINE#         103
  C:0FDEH         LINE#         106
  -------         ENDPROC       _TREND_LINE_30_31
  -------         ENDMOD        BIPOLARMOTOR

  -------         MODULE        ?C_STARTUP
  C:19B6H         SEGMENT       ?C_C51STARTUP
  I:0021H         SEGMENT       ?STACK
  C:0000H         PUBLIC        ?C_STARTUP
  D:00E0H         SYMBOL        ACC
  D:00F0H         SYMBOL        B
  D:0083H         SYMBOL        DPH
  D:0082H         SYMBOL        DPL
  N:0000H         SYMBOL        IBPSTACK
  N:0100H         SYMBOL        IBPSTACKTOP
  N:0080H         SYMBOL        IDATALEN
  C:19B9H         SYMBOL        IDATALOOP
  N:0000H         SYMBOL        PBPSTACK
  N:0100H         SYMBOL        PBPSTACKTOP
  N:0000H         SYMBOL        PDATALEN
  N:0000H         SYMBOL        PDATASTART
  N:0000H         SYMBOL        PPAGE
  N:0000H         SYMBOL        PPAGEENABLE
  D:00A0H         SYMBOL        PPAGE_SFR
  D:0081H         SYMBOL        SP
  C:19B6H         SYMBOL        STARTUP1
  N:0000H         SYMBOL        XBPSTACK
  N:0000H         SYMBOL        XBPSTACKTOP
  N:0000H         SYMBOL        XDATALEN
  N:0000H         SYMBOL        XDATASTART
  C:0000H         LINE#         126
  C:19B6H         LINE#         133
  C:19B8H         LINE#         134
  C:19B9H         LINE#         135
  C:19BAH         LINE#         136
  C:19BCH         LINE#         185
  C:19BFH         LINE#         196
  -------         ENDMOD        ?C_STARTUP

  -------         MODULE        ?C?FPADD
  C:002DH         PUBLIC        ?C?FPADD
  C:0029H         PUBLIC        ?C?FPSUB
  -------         ENDMOD        ?C?FPADD

  -------         MODULE        ?C?FPMUL
  C:011EH         PUBLIC        ?C?FPMUL
  -------         ENDMOD        ?C?FPMUL

  -------         MODULE        ?C?FPDIV
  C:0227H         PUBLIC        ?C?FPDIV
  -------         ENDMOD        ?C?FPDIV

  -------         MODULE        ?C?FPCMP
  C:02C6H         PUBLIC        ?C?FPCMP
  C:02C4H         PUBLIC        ?C?FPCMP3
  -------         ENDMOD        ?C?FPCMP

BL51 BANKED LINKER/LOCATER V6.22                                                      08/15/2018  10:22:13  PAGE 33


  -------         MODULE        ?C?FPNEG
  C:033DH         PUBLIC        ?C?FPNEG
  -------         ENDMOD        ?C?FPNEG

  -------         MODULE        ?C?FCAST
  C:0358H         PUBLIC        ?C?FCASTC
  C:0353H         PUBLIC        ?C?FCASTI
  C:034EH         PUBLIC        ?C?FCASTL
  -------         ENDMOD        ?C?FCAST

  -------         MODULE        ?C?CASTF
  C:038CH         PUBLIC        ?C?CASTF
  -------         ENDMOD        ?C?CASTF

  -------         MODULE        POW
  X:00B8H         PUBLIC        ?_pow?BYTE
  C:1321H         PUBLIC        _pow
  -------         ENDMOD        POW

  -------         MODULE        ?C?CHKFLOAT
  C:040DH         PUBLIC        ?C?CHKFLOAT
  -------         ENDMOD        ?C?CHKFLOAT

  -------         MODULE        EXP
  C:18BFH         PUBLIC        _EXP
  -------         ENDMOD        EXP

  -------         MODULE        LOG
  C:14BBH         PUBLIC        _LOG
  C:14B7H         PUBLIC        _LOG10
  -------         ENDMOD        LOG

  -------         MODULE        ?C?CLDPTR
  C:0474H         PUBLIC        ?C?CLDPTR
  -------         ENDMOD        ?C?CLDPTR

  -------         MODULE        ?C?CSTPTR
  C:048DH         PUBLIC        ?C?CSTPTR
  -------         ENDMOD        ?C?CSTPTR

  -------         MODULE        ?C?IMUL
  C:049FH         PUBLIC        ?C?IMUL
  -------         ENDMOD        ?C?IMUL

  -------         MODULE        ?C?UIDIV
  C:04B1H         PUBLIC        ?C?UIDIV
  -------         ENDMOD        ?C?UIDIV

  -------         MODULE        ?C?SIDIV
  C:0506H         PUBLIC        ?C?SIDIV
  -------         ENDMOD        ?C?SIDIV

  -------         MODULE        ?C?ILDIX
  C:053CH         PUBLIC        ?C?ILDIX
  -------         ENDMOD        ?C?ILDIX

  -------         MODULE        ?C?LNEG
BL51 BANKED LINKER/LOCATER V6.22                                                      08/15/2018  10:22:13  PAGE 34


  C:0552H         PUBLIC        ?C?LNEG
  -------         ENDMOD        ?C?LNEG

  -------         MODULE        ?C?LLDPTR
  C:0560H         PUBLIC        ?C?LLDPTR
  -------         ENDMOD        ?C?LLDPTR

  -------         MODULE        ?C?LSTPTR
  C:0580H         PUBLIC        ?C?LSTPTR
  -------         ENDMOD        ?C?LSTPTR

  -------         MODULE        ?C?LLDCODE
  C:059AH         PUBLIC        ?C?LLDCODE
  -------         ENDMOD        ?C?LLDCODE

  -------         MODULE        ?C?LLDXDATA0
  C:05AAH         PUBLIC        ?C?LLDXDATA0
  -------         ENDMOD        ?C?LLDXDATA0

  -------         MODULE        ?C?LLDCODE0
  C:05B6H         PUBLIC        ?C?LLDCODE0
  -------         ENDMOD        ?C?LLDCODE0

  -------         MODULE        ?C?LLDPTR0
  C:05C6H         PUBLIC        ?C?LLDPTR0
  -------         ENDMOD        ?C?LLDPTR0

  -------         MODULE        ?C?LSTXDATA
  C:05E6H         PUBLIC        ?C?LSTXDATA
  -------         ENDMOD        ?C?LSTXDATA

  -------         MODULE        ?C?LSTKXDATA
  C:05F2H         PUBLIC        ?C?LSTKXDATA
  -------         ENDMOD        ?C?LSTKXDATA

  -------         MODULE        ?C?OFFXADD
  C:0623H         PUBLIC        ?C?OFFXADD
  -------         ENDMOD        ?C?OFFXADD

  -------         MODULE        ABS
  C:1FC1H         PUBLIC        _ABS
  -------         ENDMOD        ABS

  -------         MODULE        ATOI
  C:15B0H         PUBLIC        _atoi
  -------         ENDMOD        ATOI

  -------         MODULE        ?C?IILDX
  C:062FH         PUBLIC        ?C?IILDX
  -------         ENDMOD        ?C?IILDX

  -------         MODULE        ?C?LLDIDATA
  C:0645H         PUBLIC        ?C?LLDIDATA
  -------         ENDMOD        ?C?LLDIDATA

  -------         MODULE        ?C?LLDXDATA
  C:0651H         PUBLIC        ?C?LLDXDATA
BL51 BANKED LINKER/LOCATER V6.22                                                      08/15/2018  10:22:13  PAGE 35


  -------         ENDMOD        ?C?LLDXDATA

  -------         MODULE        ?C?LLDPDATA
  C:065DH         PUBLIC        ?C?LLDPDATA
  -------         ENDMOD        ?C?LLDPDATA

  -------         MODULE        ?C?LLDIDATA0
  C:0669H         PUBLIC        ?C?LLDIDATA0
  -------         ENDMOD        ?C?LLDIDATA0

  -------         MODULE        ?C?LLDPDATA0
  C:0676H         PUBLIC        ?C?LLDPDATA0
  -------         ENDMOD        ?C?LLDPDATA0

  -------         MODULE        ?C?LSTIDATA
  C:0683H         PUBLIC        ?C?LSTIDATA
  -------         ENDMOD        ?C?LSTIDATA

  -------         MODULE        ?C?LSTPDATA
  C:068FH         PUBLIC        ?C?LSTPDATA
  -------         ENDMOD        ?C?LSTPDATA

  -------         MODULE        ISDIGIT
  C:1F99H         PUBLIC        _isdigit
  -------         ENDMOD        ISDIGIT

  -------         MODULE        ISSPACE
  C:1F30H         PUBLIC        _isspace
  -------         ENDMOD        ISSPACE

*** WARNING L16: UNCALLED SEGMENT, IGNORED FOR OVERLAY PROCESS
    SEGMENT: ?PR?_DISPLAY_PROX?MAIN

*** WARNING L16: UNCALLED SEGMENT, IGNORED FOR OVERLAY PROCESS
    SEGMENT: ?PR?SPI_INIT?PCF85063BTL

*** WARNING L16: UNCALLED SEGMENT, IGNORED FOR OVERLAY PROCESS
    SEGMENT: ?PR?INITUART1?UART1

*** WARNING L16: UNCALLED SEGMENT, IGNORED FOR OVERLAY PROCESS
    SEGMENT: ?PR?_SENDSTRING?UART1

*** WARNING L16: UNCALLED SEGMENT, IGNORED FOR OVERLAY PROCESS
    SEGMENT: ?PR?_TEN?UART1

*** WARNING L16: UNCALLED SEGMENT, IGNORED FOR OVERLAY PROCESS
    SEGMENT: ?PR?_UNIT?UART1

*** WARNING L16: UNCALLED SEGMENT, IGNORED FOR OVERLAY PROCESS
    SEGMENT: ?PR?_DECTOBCD?UART1

*** WARNING L16: UNCALLED SEGMENT, IGNORED FOR OVERLAY PROCESS
    SEGMENT: ?PR?_ASCII_LETTER?UART1

*** WARNING L16: UNCALLED SEGMENT, IGNORED FOR OVERLAY PROCESS
    SEGMENT: ?PR?NOP?VCNL4035

BL51 BANKED LINKER/LOCATER V6.22                                                      08/15/2018  10:22:13  PAGE 36


*** WARNING L16: UNCALLED SEGMENT, IGNORED FOR OVERLAY PROCESS
    SEGMENT: ?PR?I2C_INIT?VCNL4035

*** WARNING L16: UNCALLED SEGMENT, IGNORED FOR OVERLAY PROCESS
    SEGMENT: ?PR?_READ_VCNL4035?VCNL4035

*** WARNING L16: UNCALLED SEGMENT, IGNORED FOR OVERLAY PROCESS
    SEGMENT: ?PR?_DISPLAYLCD_VCNL4035?VCNL4035

*** WARNING L1: UNRESOLVED EXTERNAL SYMBOL
    SYMBOL:  AUTO_MODE
    MODULE:  .\Obj\main.obj (MAIN)

*** WARNING L2: REFERENCE MADE TO UNRESOLVED EXTERNAL
    SYMBOL:  AUTO_MODE
    MODULE:  .\Obj\main.obj (MAIN)
    ADDRESS: 0958H

*** WARNING L2: REFERENCE MADE TO UNRESOLVED EXTERNAL
    SYMBOL:  AUTO_MODE
    MODULE:  .\Obj\main.obj (MAIN)
    ADDRESS: 0A1AH

*** WARNING L2: REFERENCE MADE TO UNRESOLVED EXTERNAL
    SYMBOL:  AUTO_MODE
    MODULE:  .\Obj\main.obj (MAIN)
    ADDRESS: 0A28H

*** WARNING L2: REFERENCE MADE TO UNRESOLVED EXTERNAL
    SYMBOL:  AUTO_MODE
    MODULE:  .\Obj\main.obj (MAIN)
    ADDRESS: 0A3AH

*** WARNING L2: REFERENCE MADE TO UNRESOLVED EXTERNAL
    SYMBOL:  AUTO_MODE
    MODULE:  .\Obj\main.obj (MAIN)
    ADDRESS: 0A7CH

*** WARNING L2: REFERENCE MADE TO UNRESOLVED EXTERNAL
    SYMBOL:  AUTO_MODE
    MODULE:  .\Obj\main.obj (MAIN)
    ADDRESS: 0B53H

*** WARNING L1: UNRESOLVED EXTERNAL SYMBOL
    SYMBOL:  AUTO_MODE
    MODULE:  .\Obj\KeyPad.obj (KEYPAD)

*** WARNING L2: REFERENCE MADE TO UNRESOLVED EXTERNAL
    SYMBOL:  AUTO_MODE
    MODULE:  .\Obj\KeyPad.obj (KEYPAD)
    ADDRESS: 06E8H

*** WARNING L2: REFERENCE MADE TO UNRESOLVED EXTERNAL
    SYMBOL:  AUTO_MODE
    MODULE:  .\Obj\KeyPad.obj (KEYPAD)
    ADDRESS: 06F3H

BL51 BANKED LINKER/LOCATER V6.22                                                      08/15/2018  10:22:13  PAGE 37


*** WARNING L2: REFERENCE MADE TO UNRESOLVED EXTERNAL
    SYMBOL:  AUTO_MODE
    MODULE:  .\Obj\KeyPad.obj (KEYPAD)
    ADDRESS: 06FAH

Program Size: data=18.0 xdata=257 code=8193
LINK/LOCATE RUN COMPLETE.  23 WARNING(S),  0 ERROR(S)
