BL51 BANKED LINKER/LOCATER V6.22                                                        08/09/2018  11:31:06  PAGE 1


BL51 BANKED LINKER/LOCATER V6.22, INVOKED BY:
C:\KEIL\C51\BIN\BL51.EXE .\Obj\main.obj, .\Obj\PCF85063BTL.obj, .\Obj\UART1.obj, .\Obj\LCd_Driver_SPLC780D.obj, .\Obj\Ke
>> yPad.obj, .\Obj\VCNL4035.obj, .\Obj\BipolarMotor.obj, .\Obj\STARTUP.obj TO .\Obj\GPIO_RTC_Test PRINT (.\Lis\GPIO_RTC_
>> Test.m51) RAMSIZE (256)


MEMORY MODEL: LARGE WITH FLOATING POINT ARITHMETIC


INPUT MODULES INCLUDED:
  .\Obj\main.obj (MAIN)
  .\Obj\PCF85063BTL.obj (PCF85063BTL)
  .\Obj\UART1.obj (UART1)
  .\Obj\LCd_Driver_SPLC780D.obj (LCD_DRIVER_SPLC780D)
  .\Obj\KeyPad.obj (KEYPAD)
  .\Obj\VCNL4035.obj (VCNL4035)
  .\Obj\BipolarMotor.obj (BIPOLARMOTOR)
  .\Obj\STARTUP.obj (?C_STARTUP)
  C:\KEIL\C51\LIB\C51FPL.LIB (?C?FPADD)
  C:\KEIL\C51\LIB\C51FPL.LIB (?C?FPMUL)
  C:\KEIL\C51\LIB\C51FPL.LIB (?C?FPDIV)
  C:\KEIL\C51\LIB\C51FPL.LIB (?C?FPCMP)
  C:\KEIL\C51\LIB\C51FPL.LIB (?C?FPNEG)
  C:\KEIL\C51\LIB\C51FPL.LIB (?C?FCAST)
  C:\KEIL\C51\LIB\C51FPL.LIB (?C?CASTF)
  C:\KEIL\C51\LIB\C51FPL.LIB (POW)
  C:\KEIL\C51\LIB\C51FPL.LIB (?C?FPGETOPN)
  C:\KEIL\C51\LIB\C51FPL.LIB (?C?CHKFLOAT)
  C:\KEIL\C51\LIB\C51FPL.LIB (EXP)
  C:\KEIL\C51\LIB\C51FPL.LIB (LOG)
  C:\KEIL\C51\LIB\C51FPL.LIB (?C?FPSERIES)
  C:\KEIL\C51\LIB\C51L.LIB (?C_INIT)
  C:\KEIL\C51\LIB\C51L.LIB (?C?CLDPTR)
  C:\KEIL\C51\LIB\C51L.LIB (?C?CSTPTR)
  C:\KEIL\C51\LIB\C51L.LIB (?C?IMUL)
  C:\KEIL\C51\LIB\C51L.LIB (?C?UIDIV)
  C:\KEIL\C51\LIB\C51L.LIB (?C?SIDIV)
  C:\KEIL\C51\LIB\C51L.LIB (?C?ILDIX)
  C:\KEIL\C51\LIB\C51L.LIB (?C?LNEG)
  C:\KEIL\C51\LIB\C51L.LIB (?C?LLDPTR)
  C:\KEIL\C51\LIB\C51L.LIB (?C?LSTPTR)
  C:\KEIL\C51\LIB\C51L.LIB (?C?LLDCODE)
  C:\KEIL\C51\LIB\C51L.LIB (?C?LLDXDATA0)
  C:\KEIL\C51\LIB\C51L.LIB (?C?LLDCODE0)
  C:\KEIL\C51\LIB\C51L.LIB (?C?LLDPTR0)
  C:\KEIL\C51\LIB\C51L.LIB (?C?LSTXDATA)
  C:\KEIL\C51\LIB\C51L.LIB (?C?LSTKXDATA)
  C:\KEIL\C51\LIB\C51L.LIB (?C?OFFXADD)
  C:\KEIL\C51\LIB\C51L.LIB (ABS)
  C:\KEIL\C51\LIB\C51L.LIB (ATOI)
  C:\KEIL\C51\LIB\C51L.LIB (?C?IILDX)
  C:\KEIL\C51\LIB\C51L.LIB (?C?LLDIDATA)
  C:\KEIL\C51\LIB\C51L.LIB (?C?LLDXDATA)
  C:\KEIL\C51\LIB\C51L.LIB (?C?LLDPDATA)
  C:\KEIL\C51\LIB\C51L.LIB (?C?LLDIDATA0)
  C:\KEIL\C51\LIB\C51L.LIB (?C?LLDPDATA0)
  C:\KEIL\C51\LIB\C51L.LIB (?C?LSTIDATA)
  C:\KEIL\C51\LIB\C51L.LIB (?C?LSTPDATA)
BL51 BANKED LINKER/LOCATER V6.22                                                      08/09/2018  11:31:06  PAGE 2


  C:\KEIL\C51\LIB\C51L.LIB (ISDIGIT)
  C:\KEIL\C51\LIB\C51L.LIB (ISSPACE)


LINK MAP OF MODULE:  .\Obj\GPIO_RTC_Test (MAIN)


            TYPE    BASE      LENGTH    RELOCATION   SEGMENT NAME
            -----------------------------------------------------

            * * * * * * *   D A T A   M E M O R Y   * * * * * * *
            REG     0000H     0008H     ABSOLUTE     "REG BANK 0"
            REG     0008H     0008H     ABSOLUTE     "REG BANK 1"
                    0010H     0010H                  *** GAP ***
            BIT     0020H.0   0000H.3   UNIT         ?BI?KEYPAD
            BIT     0020H.3   0000H.3   UNIT         _BIT_GROUP_
            BIT     0020H.6   0000H.1   UNIT         ?BI?MAIN
                    0020H.7   0000H.1                *** GAP ***
            IDATA   0021H     0001H     UNIT         ?STACK

            * * * * * * *  X D A T A   M E M O R Y  * * * * * * *
            XDATA   0000H     007CH     UNIT         ?XD?BIPOLARMOTOR
            XDATA   007CH     004AH     UNIT         _XDATA_GROUP_
            XDATA   00C6H     001CH     UNIT         ?XD?MAIN
            XDATA   00E2H     0009H     UNIT         ?XD?KEYPAD
            XDATA   00EBH     0008H     UNIT         ?XD?_READ_VCNL4035?VCNL4035
            XDATA   00F3H     0004H     UNIT         ?XD?_DISPLAY_PROX?MAIN
            XDATA   00F7H     0003H     UNIT         ?XD?_SENDSTRING?UART1
            XDATA   00FAH     0001H     UNIT         ?XD?UC_ACK?VCNL4035
            XDATA   00FBH     0001H     UNIT         ?XD?UC_NACK?VCNL4035
            XDATA   00FCH     0001H     UNIT         ?XD?_DISPLAYLCD_VCNL4035?VCNL4035

            * * * * * * *   C O D E   M E M O R Y   * * * * * * *
            CODE    0000H     0003H     ABSOLUTE     
            CODE    0003H     0007H     UNIT         ?PR?KEYPAD_IO_INIT?KEYPAD
            CODE    000AH     0001H     UNIT         ?PR?TM0_ISR?MAIN
            CODE    000BH     0003H     ABSOLUTE     
            CODE    000EH     0015H     UNIT         ?PR?_DISPLAY_LINE?LCD_DRIVER_SPLC780D
            CODE    0023H     0003H     ABSOLUTE     
            CODE    0026H     0675H     UNIT         ?C?LIB_CODE
            CODE    069BH     0284H     UNIT         ?PR?MAIN?MAIN
            CODE    091FH     0279H     UNIT         ?PR?KEY_PROCESS?KEYPAD
            CODE    0B98H     022FH     UNIT         ?PR?_UPDATE_POSITION?BIPOLARMOTOR
            CODE    0DC7H     01F5H     UNIT         ?PR?_TREND_LINE_30_31?BIPOLARMOTOR
            CODE    0FBCH     01B5H     UNIT         ?PR?_DISPLAY_POS?MAIN
            CODE    1171H     0194H     UNIT         ?PR?KEY_SCAN?KEYPAD
            CODE    1305H     0166H     UNIT         ?PR?_POW?POW
            CODE    146BH     0129H     UNIT         ?PR?LOG?LOG
            CODE    1594H     00DBH     UNIT         ?PR?_ATOI?ATOI
            CODE    166FH     00C5H     UNIT         ?C_INITSEG
            CODE    1734H     009BH     UNIT         ?PR?UART?MAIN
            CODE    17CFH     009AH     UNIT         ?PR?_READ_VCNL4035?VCNL4035
            CODE    1869H     009AH     UNIT         ?PR?EXP?EXP
            CODE    1903H     0095H     UNIT         ?PR?_DISPLAY_PROX?MAIN
            CODE    1998H     008CH     UNIT         ?C_C51STARTUP
            CODE    1A24H     0084H     UNIT         ?PR?_DAY_OF_YEAR?PCF85063BTL
            CODE    1AA8H     0075H     UNIT         ?PR?_WRITEDATA?LCD_DRIVER_SPLC780D
BL51 BANKED LINKER/LOCATER V6.22                                                      08/09/2018  11:31:06  PAGE 3


            CODE    1B1DH     006FH     UNIT         ?PR?_READ_TIME?PCF85063BTL
            CODE    1B8CH     0059H     UNIT         ?PR?_STEP_MOVE?BIPOLARMOTOR
            CODE    1BE5H     0054H     UNIT         ?PR?LCD_INIT?LCD_DRIVER_SPLC780D
            CODE    1C39H     0049H     UNIT         ?PR?_WRITE_VCNL4035X?VCNL4035
            CODE    1C82H     0040H     UNIT         ?PR?_COMMAND?LCD_DRIVER_SPLC780D
            CODE    1CC2H     0034H     UNIT         ?PR?_MOVE?BIPOLARMOTOR
            CODE    1CF6H     0033H     UNIT         ?PR?_SENDSTRING?UART1
            CODE    1D29H     002CH     UNIT         ?PR?I2C_RECEIVEBYTE?VCNL4035
            CODE    1D55H     002BH     UNIT         ?PR?_WAIT_MS_I2C?VCNL4035
            CODE    1D80H     0024H     UNIT         ?PR?_WAIT_MS?LCD_DRIVER_SPLC780D
            CODE    1DA4H     0024H     UNIT         ?PR?_BCDTODEC1?BIPOLARMOTOR
            CODE    1DC8H     0022H     UNIT         ?PR?_I2C_SENDBYTE?VCNL4035
            CODE    1DEAH     0020H     UNIT         ?PR?_SPI_SENDBYTE?PCF85063BTL
            CODE    1E0AH     0020H     UNIT         ?PR?SPI_RECEIVEBYTE?PCF85063BTL
            CODE    1E2AH     001EH     UNIT         ?PR?_DELAY_MS?KEYPAD
            CODE    1E48H     001EH     UNIT         ?PR?_WAIT_MS_IIC?VCNL4035
            CODE    1E66H     001DH     UNIT         ?PR?_DISPLAYLCD?LCD_DRIVER_SPLC780D
            CODE    1E83H     001BH     UNIT         ?PR?I2C_ACK?VCNL4035
            CODE    1E9EH     0018H     UNIT         ?PR?_SPI_WRITETIME?PCF85063BTL
            CODE    1EB6H     0017H     UNIT         ?PR?_ASCIITOBCD?UART1
            CODE    1ECDH     0017H     UNIT         ?PR?I2C_INIT?VCNL4035
            CODE    1EE4H     0015H     UNIT         ?PR?I2C_STOP?VCNL4035
            CODE    1EF9H     0014H     UNIT         ?PR?_PCF85063BTL_DELAY?PCF85063BTL
            CODE    1F0DH     0014H     UNIT         ?PR?_ISSPACE?ISSPACE
            CODE    1F21H     0013H     UNIT         ?PR?I2C_START?VCNL4035
            CODE    1F34H     0011H     UNIT         ?PR?_SPI_READTIME?PCF85063BTL
            CODE    1F45H     0011H     UNIT         ?PR?_BCDTODEC?PCF85063BTL
            CODE    1F56H     0011H     UNIT         ?PR?INITUART1?UART1
            CODE    1F67H     000FH     UNIT         ?PR?UC_NACK?VCNL4035
            CODE    1F76H     000FH     UNIT         ?PR?_ISDIGIT?ISDIGIT
            CODE    1F85H     000DH     UNIT         ?PR?SPI_INIT?PCF85063BTL
            CODE    1F92H     000CH     UNIT         ?PR?_ABS?ABS
            CODE    1F9EH     000AH     UNIT         ?PR?LCD_RETURN_HOME?LCD_DRIVER_SPLC780D
            CODE    1FA8H     000AH     UNIT         ?PR?LCD_CLEAR?LCD_DRIVER_SPLC780D
            CODE    1FB2H     0009H     UNIT         ?PR?_SENDUART1?MAIN
            CODE    1FBBH     0006H     UNIT         ?PR?_TEN?UART1
            CODE    1FC1H     0006H     UNIT         ?PR?UC_ACK?VCNL4035
            CODE    1FC7H     0006H     UNIT         ?PR?_DISPLAYLCD_VCNL4035?VCNL4035
            CODE    1FCDH     0005H     UNIT         ?PR?_UNIT?UART1
            CODE    1FD2H     0005H     UNIT         ?PR?_ASCII_LETTER?UART1
            CODE    1FD7H     0001H     UNIT         ?PR?_DECTOBCD?UART1
            CODE    1FD8H     0001H     UNIT         ?PR?NOP?VCNL4035



OVERLAY MAP OF MODULE:   .\Obj\GPIO_RTC_Test (MAIN)


SEGMENT                                            BIT_GROUP          XDATA_GROUP
  +--> CALLED SEGMENT                           START    LENGTH     START    LENGTH
-----------------------------------------------------------------------------------
?PR?UART?MAIN                                   -----    -----      -----    -----
  +--> ?PR?_ASCIITOBCD?UART1

?PR?_ASCIITOBCD?UART1                           -----    -----      -----    -----
  +--> ?PR?_ATOI?ATOI

BL51 BANKED LINKER/LOCATER V6.22                                                      08/09/2018  11:31:06  PAGE 4


?PR?_ATOI?ATOI                                  0020H.3  0000H.1    007CH    0005H
  +--> ?PR?_ISSPACE?ISSPACE
  +--> ?PR?_ISDIGIT?ISDIGIT

*** NEW ROOT ***************************************************

?C_C51STARTUP                                   -----    -----      -----    -----
  +--> ?PR?MAIN?MAIN
  +--> ?C_INITSEG

?PR?MAIN?MAIN                                   -----    -----      0081H    0017H
  +--> ?PR?LCD_INIT?LCD_DRIVER_SPLC780D
  +--> ?PR?SPI_INIT?PCF85063BTL
  +--> ?PR?KEYPAD_IO_INIT?KEYPAD
  +--> ?PR?INITUART1?UART1
  +--> ?PR?I2C_INIT?VCNL4035
  +--> ?PR?_SPI_WRITETIME?PCF85063BTL
  +--> ?PR?_DELAY_MS?KEYPAD
  +--> ?PR?_DISPLAY_LINE?LCD_DRIVER_SPLC780D
  +--> ?PR?_WRITEDATA?LCD_DRIVER_SPLC780D
  +--> ?PR?KEY_PROCESS?KEYPAD
  +--> ?PR?_COMMAND?LCD_DRIVER_SPLC780D
  +--> ?PR?_DISPLAY_POS?MAIN
  +--> ?PR?_DISPLAYLCD?LCD_DRIVER_SPLC780D
  +--> ?PR?_STEP_MOVE?BIPOLARMOTOR
  +--> ?PR?LCD_RETURN_HOME?LCD_DRIVER_SPLC780D
  +--> ?PR?_READ_TIME?PCF85063BTL
  +--> ?PR?_UPDATE_POSITION?BIPOLARMOTOR
  +--> ?PR?_SENDUART1?MAIN

?PR?LCD_INIT?LCD_DRIVER_SPLC780D                -----    -----      -----    -----
  +--> ?PR?_WAIT_MS?LCD_DRIVER_SPLC780D
  +--> ?PR?_COMMAND?LCD_DRIVER_SPLC780D

?PR?_COMMAND?LCD_DRIVER_SPLC780D                -----    -----      -----    -----
  +--> ?PR?_WAIT_MS?LCD_DRIVER_SPLC780D

?PR?I2C_INIT?VCNL4035                           -----    -----      -----    -----
  +--> ?PR?_WRITE_VCNL4035X?VCNL4035

?PR?_WRITE_VCNL4035X?VCNL4035                   -----    -----      0098H    0003H
  +--> ?PR?I2C_START?VCNL4035
  +--> ?PR?_WAIT_MS_I2C?VCNL4035
  +--> ?PR?I2C_ACK?VCNL4035
  +--> ?PR?_I2C_SENDBYTE?VCNL4035
  +--> ?PR?I2C_STOP?VCNL4035

?PR?I2C_START?VCNL4035                          -----    -----      -----    -----
  +--> ?PR?_WAIT_MS_IIC?VCNL4035
  +--> ?PR?_WAIT_MS_I2C?VCNL4035

?PR?I2C_ACK?VCNL4035                            -----    -----      009BH    0001H
  +--> ?PR?_I2C_SENDBYTE?VCNL4035
  +--> ?PR?_WAIT_MS_I2C?VCNL4035

?PR?_I2C_SENDBYTE?VCNL4035                      -----    -----      -----    -----
  +--> ?PR?_WAIT_MS_I2C?VCNL4035
BL51 BANKED LINKER/LOCATER V6.22                                                      08/09/2018  11:31:06  PAGE 5



?PR?I2C_STOP?VCNL4035                           -----    -----      -----    -----
  +--> ?PR?_WAIT_MS_I2C?VCNL4035

?PR?_SPI_WRITETIME?PCF85063BTL                  -----    -----      -----    -----
  +--> ?PR?_SPI_SENDBYTE?PCF85063BTL

?PR?_SPI_SENDBYTE?PCF85063BTL                   -----    -----      -----    -----
  +--> ?PR?_PCF85063BTL_DELAY?PCF85063BTL

?PR?_DISPLAY_LINE?LCD_DRIVER_SPLC780D           -----    -----      -----    -----
  +--> ?PR?_COMMAND?LCD_DRIVER_SPLC780D

?PR?_WRITEDATA?LCD_DRIVER_SPLC780D              -----    -----      00A2H    0001H
  +--> ?PR?_WAIT_MS?LCD_DRIVER_SPLC780D

?PR?KEY_PROCESS?KEYPAD                          -----    -----      0098H    0006H
  +--> ?PR?KEY_SCAN?KEYPAD
  +--> ?PR?_SPI_WRITETIME?PCF85063BTL
  +--> ?PR?LCD_CLEAR?LCD_DRIVER_SPLC780D
  +--> ?PR?_COMMAND?LCD_DRIVER_SPLC780D
  +--> ?PR?_WRITEDATA?LCD_DRIVER_SPLC780D

?PR?KEY_SCAN?KEYPAD                             -----    -----      009EH    0003H
  +--> ?PR?_DELAY_MS?KEYPAD

?PR?LCD_CLEAR?LCD_DRIVER_SPLC780D               -----    -----      -----    -----
  +--> ?PR?_COMMAND?LCD_DRIVER_SPLC780D

?PR?_DISPLAY_POS?MAIN                           -----    -----      0098H    000AH
  +--> ?PR?_ABS?ABS
  +--> ?PR?_WRITEDATA?LCD_DRIVER_SPLC780D

?PR?_DISPLAYLCD?LCD_DRIVER_SPLC780D             -----    -----      0098H    0001H
  +--> ?PR?_WRITEDATA?LCD_DRIVER_SPLC780D

?PR?_STEP_MOVE?BIPOLARMOTOR                     0020H.5  0000H.1    00B4H    0004H
  +--> ?PR?_WAIT_MS?LCD_DRIVER_SPLC780D

?PR?LCD_RETURN_HOME?LCD_DRIVER_SPLC780D         -----    -----      -----    -----
  +--> ?PR?_COMMAND?LCD_DRIVER_SPLC780D

?PR?_READ_TIME?PCF85063BTL                      -----    -----      0098H    000FH
  +--> ?PR?_SPI_READTIME?PCF85063BTL

?PR?_SPI_READTIME?PCF85063BTL                   -----    -----      -----    -----
  +--> ?PR?_SPI_SENDBYTE?PCF85063BTL
  +--> ?PR?SPI_RECEIVEBYTE?PCF85063BTL

?PR?SPI_RECEIVEBYTE?PCF85063BTL                 -----    -----      -----    -----
  +--> ?PR?_PCF85063BTL_DELAY?PCF85063BTL

?PR?_UPDATE_POSITION?BIPOLARMOTOR               -----    -----      0098H    0018H
  +--> ?PR?_DAY_OF_YEAR?PCF85063BTL
  +--> ?PR?_BCDTODEC1?BIPOLARMOTOR
  +--> ?PR?_TREND_LINE_30_31?BIPOLARMOTOR
  +--> ?PR?_MOVE?BIPOLARMOTOR
BL51 BANKED LINKER/LOCATER V6.22                                                      08/09/2018  11:31:06  PAGE 6



?PR?_DAY_OF_YEAR?PCF85063BTL                    -----    -----      -----    -----
  +--> ?PR?_BCDTODEC?PCF85063BTL

?PR?_TREND_LINE_30_31?BIPOLARMOTOR              -----    -----      00B0H    0008H
  +--> ?PR?_POW?POW

?PR?_POW?POW                                    -----    -----      00B8H    000AH
  +--> ?PR?LOG?LOG
  +--> ?PR?EXP?EXP

?PR?LOG?LOG                                     0020H.4  0000H.1    00C2H    0004H

?PR?_MOVE?BIPOLARMOTOR                          0020H.4  0000H.1    00B0H    0004H
  +--> ?PR?_STEP_MOVE?BIPOLARMOTOR



SYMBOL TABLE OF MODULE:  .\Obj\GPIO_RTC_Test (MAIN)

  VALUE           TYPE          NAME
  ----------------------------------

  -------         MODULE        MAIN
  C:0000H         SYMBOL        _ICE_DUMMY_
  D:0080H         PUBLIC        P0
  D:0090H         PUBLIC        P1
  D:00A0H         PUBLIC        P2
  D:00B0H         PUBLIC        P3
  D:00C0H         PUBLIC        P4
  D:00C8H         PUBLIC        P5
  X:00CEH         SYMBOL        PressedKey
  B:00A8H.7       PUBLIC        EA
  D:00E8H         PUBLIC        P6
  D:00F8H         PUBLIC        P7
  X:00D2H         PUBLIC        RX_Data_Uart_Cnt
  D:00A8H         PUBLIC        IE
  D:00B8H         PUBLIC        IP
  B:0098H.0       PUBLIC        RI
  B:0098H.1       PUBLIC        TI
  C:1734H         PUBLIC        Uart
  D:00D8H         PUBLIC        CCON
  C:069BH         PUBLIC        main
  D:0099H         PUBLIC        SBUF
  D:0098H         PUBLIC        SCON
  D:0089H         PUBLIC        TMOD
  D:0088H         PUBLIC        TCON
  B:00B0H.3       PUBLIC        P33
  X:00D4H         SYMBOL        KeyCount
  X:00D6H         PUBLIC        Rec_data_hour
  X:00D9H         PUBLIC        Rec_data_min
  D:008EH         PUBLIC        AUXR
  C:000AH         PUBLIC        tm0_isr
  B:0020H.6       PUBLIC        busy
  D:00E0H         PUBLIC        ACC
  B:00A8H.1       PUBLIC        ET0
  D:008CH         PUBLIC        TH0
BL51 BANKED LINKER/LOCATER V6.22                                                      08/09/2018  11:31:06  PAGE 7


  X:00DCH         PUBLIC        hour_count
  D:008AH         PUBLIC        TL0
  X:00DDH         PUBLIC        min_count
  B:0088H.4       PUBLIC        TR0
  X:00DEH         SYMBOL        KeyNum
  X:00DFH         SYMBOL        KeyNum_Old
  C:1903H         PUBLIC        _Display_Prox
  C:0FBCH         PUBLIC        _Display_Pos
  X:00E0H         PUBLIC        st_time
  D:00D0H         PUBLIC        PSW
  C:1FB2H         PUBLIC        _SendUART1
  -------         PROC          TM0_ISR
  C:000AH         LINE#         53
  C:000AH         LINE#         56
  -------         ENDPROC       TM0_ISR
  -------         PROC          MAIN
  -------         DO            
  X:0081H         SYMBOL        seconds
  X:0082H         SYMBOL        mins
  X:0083H         SYMBOL        hours
  X:0084H         SYMBOL        days
  X:0085H         SYMBOL        months
  X:0086H         SYMBOL        mins1
  X:0087H         SYMBOL        hours1
  X:0088H         SYMBOL        mins2
  X:0089H         SYMBOL        hours2
  X:008AH         SYMBOL        prox_data
  X:00C6H         SYMBOL        KeyCount
  X:00C8H         SYMBOL        KeyNum_Old
  X:00C9H         SYMBOL        KeyNum
  X:00CAH         SYMBOL        PressedKey
  X:008CH         SYMBOL        prox_flag
  X:008DH         SYMBOL        count
  X:008FH         SYMBOL        numStr
  X:0094H         SYMBOL        current_position
  -------         ENDDO         
  C:069BH         LINE#         58
  C:069BH         LINE#         59
  C:069BH         LINE#         64
  C:06A1H         LINE#         66
  C:06A6H         LINE#         68
  C:06B0H         LINE#         69
  C:06B2H         LINE#         70
  C:06B4H         LINE#         71
  C:06B6H         LINE#         80
  C:06B9H         LINE#         81
  C:06BCH         LINE#         82
  C:06BFH         LINE#         83
  C:06C2H         LINE#         84
  C:06C5H         LINE#         86
  C:06C8H         LINE#         87
  C:06CBH         LINE#         88
  C:06CEH         LINE#         89
  C:06D0H         LINE#         90
  C:06D2H         LINE#         91
  C:06D4H         LINE#         93
  C:06D6H         LINE#         94
BL51 BANKED LINKER/LOCATER V6.22                                                      08/09/2018  11:31:06  PAGE 8


  C:06DDH         LINE#         95
  C:06E4H         LINE#         96
  C:06EBH         LINE#         97
  C:06F2H         LINE#         101
  C:06F9H         LINE#         102
  C:06FEH         LINE#         103
  C:0703H         LINE#         104
  C:0708H         LINE#         105
  C:070DH         LINE#         106
  C:0712H         LINE#         109
  C:0712H         LINE#         110
  C:0712H         LINE#         111
  C:0715H         LINE#         112
  C:0723H         LINE#         114
  C:0723H         LINE#         117
  C:0728H         LINE#         118
  C:072DH         LINE#         120
  C:0732H         LINE#         121
  C:0737H         LINE#         122
  C:073CH         LINE#         123
  C:0741H         LINE#         125
  C:0752H         LINE#         127
  C:0759H         LINE#         128
  C:0761H         LINE#         129
  C:0766H         LINE#         130
  C:076EH         LINE#         131
  C:0773H         LINE#         132
  C:077DH         LINE#         134
  C:0785H         LINE#         136
  C:078DH         LINE#         148
  C:0790H         LINE#         149
  C:0790H         LINE#         150
  C:079BH         LINE#         151
  C:07B2H         LINE#         152
  C:07B2H         LINE#         153
  C:07B4H         LINE#         154
  C:07B6H         LINE#         156
  C:07B6H         LINE#         157
  C:07C1H         LINE#         158
  C:07C1H         LINE#         159
  C:07C6H         LINE#         160
  C:07C6H         LINE#         161
  C:07C9H         LINE#         162
  C:07C9H         LINE#         163
  C:07CBH         LINE#         164
  C:07D6H         LINE#         165
  C:07EDH         LINE#         166
  C:07EDH         LINE#         167
  C:07EFH         LINE#         168
  C:07F1H         LINE#         170
  C:07F1H         LINE#         171
  C:07FCH         LINE#         172
  C:07FCH         LINE#         173
  C:0801H         LINE#         174
  C:0801H         LINE#         182
  C:0823H         LINE#         183
  C:0823H         LINE#         184
BL51 BANKED LINKER/LOCATER V6.22                                                      08/09/2018  11:31:06  PAGE 9


  C:082DH         LINE#         185
  C:0833H         LINE#         186
  C:0835H         LINE#         187
  C:0837H         LINE#         188
  C:0839H         LINE#         189
  C:0839H         LINE#         190
  C:083CH         LINE#         192
  C:083CH         LINE#         193
  C:0844H         LINE#         194
  C:084CH         LINE#         195
  C:0854H         LINE#         196
  C:085CH         LINE#         197
  C:0897H         LINE#         201
  C:08BEH         LINE#         202
  C:08E4H         LINE#         206
  C:08F1H         LINE#         207
  C:08F1H         LINE#         208
  C:08FBH         LINE#         209
  C:0905H         LINE#         210
  C:090CH         LINE#         211
  C:0914H         LINE#         212
  C:091CH         LINE#         213
  -------         ENDPROC       MAIN
  -------         PROC          UART
  C:1734H         LINE#         226
  C:1741H         LINE#         228
  C:1744H         LINE#         229
  C:1744H         LINE#         230
  C:1752H         LINE#         231
  C:1754H         LINE#         232
  C:1766H         LINE#         233
  C:1775H         LINE#         234
  C:1780H         LINE#         235
  C:1780H         LINE#         238
  C:178DH         LINE#         239
  C:1793H         LINE#         240
  C:1793H         LINE#         241
  C:1799H         LINE#         242
  C:17A7H         LINE#         243
  C:17B5H         LINE#         244
  C:17BDH         LINE#         249
  C:17BDH         LINE#         250
  C:17BDH         LINE#         253
  C:17BDH         LINE#         254
  C:17C0H         LINE#         255
  C:17C0H         LINE#         256
  C:17C2H         LINE#         257
  C:17C4H         LINE#         258
  C:17C4H         LINE#         259
  -------         ENDPROC       UART
  -------         PROC          _SENDUART1
  D:0007H         SYMBOL        dat
  C:1FB2H         LINE#         262
  C:1FB2H         LINE#         263
  C:1FB2H         LINE#         264
  C:1FB5H         LINE#         265
  C:1FB7H         LINE#         266
BL51 BANKED LINKER/LOCATER V6.22                                                      08/09/2018  11:31:06  PAGE 10


  C:1FB8H         LINE#         267
  C:1FBAH         LINE#         268
  -------         ENDPROC       _SENDUART1
  -------         PROC          _DISPLAY_PROX
  D:0002H         SYMBOL        dat
  -------         DO            
  X:00F3H         SYMBOL        unit
  X:00F4H         SYMBOL        ten
  X:00F5H         SYMBOL        hundred
  X:00F6H         SYMBOL        thousand
  -------         ENDDO         
  C:1903H         LINE#         271
  C:1907H         LINE#         272
  C:1907H         LINE#         274
  C:1913H         LINE#         275
  C:1923H         LINE#         276
  C:193FH         LINE#         277
  C:196FH         LINE#         278
  C:1979H         LINE#         279
  C:1983H         LINE#         280
  C:198DH         LINE#         281
  C:1997H         LINE#         283
  -------         ENDPROC       _DISPLAY_PROX
  -------         PROC          _DISPLAY_POS
  X:0098H         SYMBOL        sign_dat
  -------         DO            
  X:009CH         SYMBOL        unit
  X:009DH         SYMBOL        ten
  X:009EH         SYMBOL        hundred
  D:0003H         SYMBOL        thousand
  X:009FH         SYMBOL        after_dot
  X:00A0H         SYMBOL        dat
  -------         ENDDO         
  C:0FBCH         LINE#         286
  C:0FC2H         LINE#         287
  C:0FC2H         LINE#         291
  C:0FDEH         LINE#         292
  C:0FF8H         LINE#         293
  C:101CH         LINE#         295
  C:1066H         LINE#         297
  C:107DH         LINE#         298
  C:108AH         LINE#         299
  C:10ACH         LINE#         300
  C:10E1H         LINE#         301
  C:10F9H         LINE#         302
  C:10F9H         LINE#         304
  C:1103H         LINE#         305
  C:110DH         LINE#         306
  C:1117H         LINE#         307
  C:111CH         LINE#         308
  C:1126H         LINE#         309
  C:112BH         LINE#         310
  C:1130H         LINE#         311
  C:1132H         LINE#         312
  C:1134H         LINE#         314
  C:1134H         LINE#         316
  C:1139H         LINE#         317
BL51 BANKED LINKER/LOCATER V6.22                                                      08/09/2018  11:31:06  PAGE 11


  C:1143H         LINE#         318
  C:114DH         LINE#         319
  C:1157H         LINE#         320
  C:115CH         LINE#         321
  C:1166H         LINE#         322
  C:116BH         LINE#         323
  C:1170H         LINE#         325
  C:1170H         LINE#         327
  -------         ENDPROC       _DISPLAY_POS
  -------         ENDMOD        MAIN

  -------         MODULE        PCF85063BTL
  C:0000H         SYMBOL        _ICE_DUMMY_
  D:0096H         PUBLIC        P2M0
  D:0080H         PUBLIC        P0
  D:0095H         PUBLIC        P2M1
  D:0090H         PUBLIC        P1
  D:00A0H         PUBLIC        P2
  D:00B0H         PUBLIC        P3
  D:00C0H         PUBLIC        P4
  D:00C8H         PUBLIC        P5
  D:00E8H         PUBLIC        P6
  B:00A0H.2       PUBLIC        PCF85063BTL_SDI
  D:00F8H         PUBLIC        P7
  B:00A0H.1       PUBLIC        PCF85063BTL_SCK
  B:00A0H.2       PUBLIC        PCF85063BTL_SDO
  D:00A8H         PUBLIC        IE
  C:1B1DH         PUBLIC        _Read_time
  C:1EFFH         PUBLIC        _PCF85063BTL_Delay
  D:00B8H         PUBLIC        IP
  D:00D8H         PUBLIC        CCON
  C:1A24H         PUBLIC        _Day_Of_Year
  C:1E0AH         PUBLIC        SPI_ReceiveByte
  D:0098H         PUBLIC        SCON
  D:0088H         PUBLIC        TCON
  C:1F45H         PUBLIC        _BCDtoDec
  B:00A0H.0       PUBLIC        PCF85063BTL_CS
  C:1F34H         PUBLIC        _SPI_ReadTime
  C:1F85H         PUBLIC        SPI_Init
  C:1E9EH         PUBLIC        _SPI_WriteTime
  C:1DEAH         PUBLIC        _SPI_SendByte
  D:00D0H         PUBLIC        PSW
  C:1EFBH         SYMBOL        L?0047
  -------         PROC          L?0046
  -------         ENDPROC       L?0046
  C:1EFBH         SYMBOL        L?0047
  -------         PROC          _PCF85063BTL_DELAY
  D:0006H         SYMBOL        us
  C:1EFFH         LINE#         8
  C:1EFFH         LINE#         9
  C:1EFFH         LINE#         10
  C:1F09H         LINE#         11
  C:1F09H         LINE#         12
  C:1F0AH         LINE#         13
  C:1F0CH         LINE#         14
  -------         ENDPROC       _PCF85063BTL_DELAY
  -------         PROC          _SPI_SENDBYTE
BL51 BANKED LINKER/LOCATER V6.22                                                      08/09/2018  11:31:06  PAGE 12


  D:0005H         SYMBOL        dat
  -------         DO            
  D:0003H         SYMBOL        i
  -------         ENDDO         
  C:1DEAH         LINE#         17
  C:1DECH         LINE#         18
  C:1DECH         LINE#         20
  C:1DEEH         LINE#         21
  C:1DEEH         LINE#         22
  C:1DF0H         LINE#         23
  C:1DF4H         LINE#         24
  C:1DF4H         LINE#         25
  C:1DF6H         LINE#         26
  C:1DF8H         LINE#         28
  C:1DF8H         LINE#         29
  C:1DFAH         LINE#         30
  C:1DFAH         LINE#         31
  C:1DFDH         LINE#         32
  C:1DFDH         LINE#         33
  C:1E00H         LINE#         34
  C:1E04H         LINE#         35
  C:1E09H         LINE#         36
  -------         ENDPROC       _SPI_SENDBYTE
  -------         PROC          SPI_RECEIVEBYTE
  -------         DO            
  D:0003H         SYMBOL        i
  D:0005H         SYMBOL        dat
  -------         ENDDO         
  C:1E0AH         LINE#         39
  C:1E0AH         LINE#         40
  C:1E0AH         LINE#         42
  C:1E0CH         LINE#         44
  C:1E0EH         LINE#         45
  C:1E0FH         LINE#         46
  C:1E0FH         LINE#         47
  C:1E13H         LINE#         48
  C:1E15H         LINE#         49
  C:1E18H         LINE#         51
  C:1E1BH         LINE#         52
  C:1E1BH         LINE#         53
  C:1E1FH         LINE#         54
  C:1E1FH         LINE#         55
  C:1E1FH         LINE#         56
  C:1E22H         LINE#         57
  C:1E27H         LINE#         58
  C:1E29H         LINE#         59
  -------         ENDPROC       SPI_RECEIVEBYTE
  -------         PROC          _SPI_READTIME
  D:0007H         SYMBOL        addr
  -------         DO            
  D:0006H         SYMBOL        dat
  -------         ENDDO         
  C:1F34H         LINE#         61
  C:1F34H         LINE#         62
  C:1F34H         LINE#         64
  C:1F36H         LINE#         65
  C:1F38H         LINE#         66
BL51 BANKED LINKER/LOCATER V6.22                                                      08/09/2018  11:31:06  PAGE 13


  C:1F3FH         LINE#         67
  C:1F42H         LINE#         68
  C:1F44H         LINE#         69
  C:1F44H         LINE#         70
  -------         ENDPROC       _SPI_READTIME
  -------         PROC          _SPI_WRITETIME
  D:0002H         SYMBOL        val
  D:0005H         SYMBOL        addr
  C:1E9EH         LINE#         71
  C:1EA0H         LINE#         72
  C:1EA0H         LINE#         74
  C:1EA2H         LINE#         75
  C:1EA9H         LINE#         76
  C:1EAEH         LINE#         77
  C:1EB3H         LINE#         78
  C:1EB5H         LINE#         79
  -------         ENDPROC       _SPI_WRITETIME
  -------         PROC          SPI_INIT
  C:1F85H         LINE#         83
  C:1F85H         LINE#         84
  C:1F85H         LINE#         89
  C:1F88H         LINE#         90
  C:1F8BH         LINE#         91
  C:1F8DH         LINE#         92
  C:1F8FH         LINE#         93
  C:1F91H         LINE#         94
  -------         ENDPROC       SPI_INIT
  -------         PROC          _READ_TIME
  X:0098H         SYMBOL        months
  X:009BH         SYMBOL        days
  X:009EH         SYMBOL        hours
  X:00A1H         SYMBOL        mins
  X:00A4H         SYMBOL        seconds
  C:1B1DH         LINE#         96
  C:1B28H         LINE#         97
  C:1B28H         LINE#         99
  C:1B3CH         LINE#         101
  C:1B50H         LINE#         103
  C:1B64H         LINE#         108
  C:1B78H         LINE#         113
  -------         ENDPROC       _READ_TIME
  -------         PROC          _BCDTODEC
  D:0007H         SYMBOL        bcd
  -------         DO            
  D:0006H         SYMBOL        hi
  D:0007H         SYMBOL        lo
  -------         ENDDO         
  C:1F45H         LINE#         119
  C:1F45H         LINE#         120
  C:1F45H         LINE#         122
  C:1F4AH         LINE#         123
  C:1F4EH         LINE#         124
  C:1F55H         LINE#         125
  -------         ENDPROC       _BCDTODEC
  -------         PROC          _DAY_OF_YEAR
  D:0007H         SYMBOL        months_bcd
  D:0005H         SYMBOL        days_bcd
BL51 BANKED LINKER/LOCATER V6.22                                                      08/09/2018  11:31:06  PAGE 14


  -------         DO            
  D:0004H         SYMBOL        months
  D:0007H         SYMBOL        days
  -------         ENDDO         
  C:1A24H         LINE#         126
  C:1A24H         LINE#         127
  C:1A24H         LINE#         130
  C:1A29H         LINE#         132
  C:1A2EH         LINE#         134
  C:1A67H         LINE#         135
  C:1A67H         LINE#         136
  C:1A67H         LINE#         137
  C:1A6AH         LINE#         138
  C:1A6AH         LINE#         139
  C:1A6AH         LINE#         140
  C:1A6FH         LINE#         141
  C:1A6FH         LINE#         142
  C:1A6FH         LINE#         143
  C:1A74H         LINE#         144
  C:1A74H         LINE#         145
  C:1A74H         LINE#         146
  C:1A79H         LINE#         147
  C:1A79H         LINE#         148
  C:1A79H         LINE#         149
  C:1A7EH         LINE#         150
  C:1A7EH         LINE#         151
  C:1A7EH         LINE#         152
  C:1A83H         LINE#         153
  C:1A83H         LINE#         154
  C:1A83H         LINE#         155
  C:1A88H         LINE#         156
  C:1A88H         LINE#         157
  C:1A88H         LINE#         158
  C:1A8DH         LINE#         159
  C:1A8DH         LINE#         160
  C:1A8DH         LINE#         161
  C:1A95H         LINE#         162
  C:1A95H         LINE#         163
  C:1A95H         LINE#         164
  C:1A9AH         LINE#         165
  C:1A9AH         LINE#         166
  C:1A9AH         LINE#         167
  C:1A9FH         LINE#         168
  C:1A9FH         LINE#         169
  C:1A9FH         LINE#         170
  C:1AA7H         LINE#         171
  C:1AA7H         LINE#         172
  C:1AA7H         LINE#         173
  -------         ENDPROC       _DAY_OF_YEAR
  -------         ENDMOD        PCF85063BTL

  -------         MODULE        UART1
  C:0000H         SYMBOL        _ICE_DUMMY_
  D:0080H         PUBLIC        P0
  D:0090H         PUBLIC        P1
  D:00A0H         PUBLIC        P2
  D:00B0H         PUBLIC        P3
BL51 BANKED LINKER/LOCATER V6.22                                                      08/09/2018  11:31:06  PAGE 15


  D:00C0H         PUBLIC        P4
  D:00C8H         PUBLIC        P5
  B:00A8H.7       PUBLIC        EA
  D:00E8H         PUBLIC        P6
  D:00F8H         PUBLIC        P7
  C:1CF6H         PUBLIC        _SendString
  D:00A8H         PUBLIC        IE
  B:00A8H.4       PUBLIC        ES
  D:00B8H         PUBLIC        IP
  C:1EB6H         PUBLIC        _ASCIItoBCD
  D:00D8H         PUBLIC        CCON
  C:1F56H         PUBLIC        initUART1
  D:0098H         PUBLIC        SCON
  D:0088H         PUBLIC        TCON
  C:1FD7H         PUBLIC        _DectoBCD
  C:1FD2H         PUBLIC        _ASCII_Letter
  D:008EH         PUBLIC        AUXR
  C:1FCDH         PUBLIC        _unit
  C:1FBBH         PUBLIC        _ten
  D:00D6H         PUBLIC        T2H
  D:00D7H         PUBLIC        T2L
  D:00D0H         PUBLIC        PSW
  -------         PROC          INITUART1
  C:1F56H         LINE#         21
  C:1F56H         LINE#         22
  C:1F56H         LINE#         23
  C:1F59H         LINE#         24
  C:1F5CH         LINE#         25
  C:1F5FH         LINE#         26
  C:1F62H         LINE#         27
  C:1F64H         LINE#         28
  C:1F66H         LINE#         30
  -------         ENDPROC       INITUART1
  -------         PROC          _SENDSTRING
  X:00F7H         SYMBOL        s
  C:1CF6H         LINE#         35
  C:1D01H         LINE#         36
  C:1D01H         LINE#         37
  C:1D11H         LINE#         38
  C:1D11H         LINE#         39
  C:1D26H         LINE#         40
  C:1D28H         LINE#         41
  -------         ENDPROC       _SENDSTRING
  -------         PROC          _TEN
  D:0007H         SYMBOL        BCD
  C:1FBBH         LINE#         43
  C:1FBBH         LINE#         44
  C:1FBBH         LINE#         45
  C:1FC0H         LINE#         46
  -------         ENDPROC       _TEN
  -------         PROC          _UNIT
  D:0007H         SYMBOL        BCD
  C:1FCDH         LINE#         47
  C:1FCDH         LINE#         48
  C:1FCDH         LINE#         52
  C:1FD1H         LINE#         53
  -------         ENDPROC       _UNIT
BL51 BANKED LINKER/LOCATER V6.22                                                      08/09/2018  11:31:06  PAGE 16


  -------         PROC          _DECTOBCD
  D:0007H         SYMBOL        dec
  C:1FD7H         LINE#         54
  C:1FD7H         LINE#         55
  C:1FD7H         LINE#         57
  C:1FD7H         LINE#         58
  -------         ENDPROC       _DECTOBCD
  -------         PROC          _ASCII_LETTER
  D:0007H         SYMBOL        dat
  C:1FD2H         LINE#         60
  C:1FD2H         LINE#         61
  C:1FD2H         LINE#         63
  C:1FD6H         LINE#         64
  -------         ENDPROC       _ASCII_LETTER
  -------         PROC          _ASCIITOBCD
  D:0001H         SYMBOL        ascii
  -------         DO            
  D:0007H         SYMBOL        dec_val
  D:0006H         SYMBOL        ten
  D:0007H         SYMBOL        unit
  -------         ENDDO         
  C:1EB6H         LINE#         66
  C:1EB6H         LINE#         67
  C:1EB6H         LINE#         69
  C:1EB9H         LINE#         70
  C:1EBFH         LINE#         71
  C:1EC6H         LINE#         72
  C:1ECCH         LINE#         74
  -------         ENDPROC       _ASCIITOBCD
  -------         ENDMOD        UART1

  -------         MODULE        LCD_DRIVER_SPLC780D
  C:0000H         SYMBOL        _ICE_DUMMY_
  D:0080H         PUBLIC        P0
  D:0090H         PUBLIC        P1
  D:00A0H         PUBLIC        P2
  D:00B0H         PUBLIC        P3
  D:00C0H         PUBLIC        P4
  D:00C8H         PUBLIC        P5
  D:00E8H         PUBLIC        P6
  D:00F8H         PUBLIC        P7
  C:1AA8H         PUBLIC        _WriteData
  D:00A8H         PUBLIC        IE
  D:00B8H         PUBLIC        IP
  D:00D8H         PUBLIC        CCON
  B:0090H.4       PUBLIC        LCD_D4
  B:0090H.5       PUBLIC        LCD_D5
  B:0090H.6       PUBLIC        LCD_D6
  C:1E66H         PUBLIC        _DisplayLCD
  B:0090H.7       PUBLIC        LCD_D7
  D:0098H         PUBLIC        SCON
  D:0088H         PUBLIC        TCON
  C:1FA8H         PUBLIC        LCD_clear
  C:1C82H         PUBLIC        _Command
  C:000EH         PUBLIC        _Display_Line
  C:1BE5H         PUBLIC        LCD_Init
  C:1D86H         PUBLIC        _Wait_ms
BL51 BANKED LINKER/LOCATER V6.22                                                      08/09/2018  11:31:06  PAGE 17


  B:0090H.1       PUBLIC        LCD_RS
  B:0090H.2       PUBLIC        LCD_RW
  C:1F9EH         PUBLIC        LCD_return_home
  B:0090H.3       PUBLIC        LCD_E
  D:00D0H         PUBLIC        PSW
  -------         PROC          LCD_INIT
  C:1BE5H         LINE#         9
  C:1BE5H         LINE#         10
  C:1BE5H         LINE#         12
  C:1BECH         LINE#         13
  C:1BF1H         LINE#         15
  C:1BF8H         LINE#         16
  C:1BFDH         LINE#         18
  C:1C00H         LINE#         19
  C:1C05H         LINE#         21
  C:1C08H         LINE#         22
  C:1C0DH         LINE#         24
  C:1C14H         LINE#         27
  C:1C19H         LINE#         28
  C:1C1EH         LINE#         30
  C:1C23H         LINE#         31
  C:1C28H         LINE#         33
  C:1C2DH         LINE#         34
  C:1C32H         LINE#         35
  -------         ENDPROC       LCD_INIT
  -------         PROC          _WRITEDATA
  X:00A2H         SYMBOL        dat
  C:1AA8H         LINE#         38
  C:1AADH         LINE#         39
  C:1AADH         LINE#         44
  C:1AAFH         LINE#         45
  C:1AB1H         LINE#         47
  C:1ABFH         LINE#         48
  C:1ACBH         LINE#         49
  C:1AD7H         LINE#         50
  C:1AE1H         LINE#         51
  C:1AE3H         LINE#         52
  C:1AEAH         LINE#         53
  C:1AECH         LINE#         55
  C:1AFCH         LINE#         56
  C:1B07H         LINE#         57
  C:1B11H         LINE#         58
  C:1B15H         LINE#         60
  C:1B15H         LINE#         61
  C:1B18H         LINE#         62
  C:1B1AH         LINE#         63
  C:1B1CH         LINE#         65
  -------         ENDPROC       _WRITEDATA
  -------         PROC          _COMMAND
  D:0007H         SYMBOL        dat
  C:1C82H         LINE#         67
  C:1C82H         LINE#         68
  C:1C82H         LINE#         69
  C:1C84H         LINE#         70
  C:1C86H         LINE#         72
  C:1C90H         LINE#         73
  C:1C94H         LINE#         75
BL51 BANKED LINKER/LOCATER V6.22                                                      08/09/2018  11:31:06  PAGE 18


  C:1C96H         LINE#         76
  C:1C9FH         LINE#         77
  C:1CA3H         LINE#         79
  C:1CA5H         LINE#         80
  C:1CACH         LINE#         81
  C:1CB0H         LINE#         83
  C:1CB2H         LINE#         84
  C:1CB6H         LINE#         85
  C:1CBAH         LINE#         87
  C:1CBCH         LINE#         88
  C:1CBCH         LINE#         89
  C:1CBFH         LINE#         90
  C:1CC1H         LINE#         91
  -------         ENDPROC       _COMMAND
  C:1D82H         SYMBOL        L?0028
  -------         PROC          L?0027
  -------         ENDPROC       L?0027
  C:1D82H         SYMBOL        L?0028
  -------         PROC          _WAIT_MS
  D:0006H         SYMBOL        ms
  -------         DO            
  D:0004H         SYMBOL        De_Cnt
  -------         ENDDO         
  C:1D86H         LINE#         93
  C:1D86H         LINE#         94
  C:1D86H         LINE#         96
  C:1D90H         LINE#         97
  C:1D90H         LINE#         98
  C:1DA3H         LINE#         99
  C:1DA3H         LINE#         100
  -------         ENDPROC       _WAIT_MS
  -------         PROC          _DISPLAYLCD
  D:0007H         SYMBOL        BCD
  -------         DO            
  D:0006H         SYMBOL        first_digit
  X:0098H         SYMBOL        second_digit
  -------         ENDDO         
  C:1E66H         LINE#         101
  C:1E66H         LINE#         102
  C:1E66H         LINE#         104
  C:1E6DH         LINE#         105
  C:1E76H         LINE#         107
  C:1E7BH         LINE#         109
  -------         ENDPROC       _DISPLAYLCD
  -------         PROC          LCD_RETURN_HOME
  C:1F9EH         LINE#         113
  C:1F9EH         LINE#         114
  C:1F9EH         LINE#         115
  C:1FA3H         LINE#         116
  -------         ENDPROC       LCD_RETURN_HOME
  -------         PROC          LCD_CLEAR
  C:1FA8H         LINE#         119
  C:1FA8H         LINE#         120
  C:1FA8H         LINE#         121
  C:1FADH         LINE#         122
  -------         ENDPROC       LCD_CLEAR
  -------         PROC          _DISPLAY_LINE
BL51 BANKED LINKER/LOCATER V6.22                                                      08/09/2018  11:31:06  PAGE 19


  D:0006H         SYMBOL        line
  C:000EH         LINE#         126
  C:000EH         LINE#         127
  C:000EH         LINE#         128
  C:0014H         LINE#         129
  C:0014H         LINE#         130
  C:0016H         LINE#         131
  C:0016H         LINE#         132
  C:0018H         LINE#         134
  C:0018H         LINE#         135
  C:001DH         LINE#         136
  C:0022H         LINE#         137
  C:0022H         LINE#         138
  -------         ENDPROC       _DISPLAY_LINE
  -------         ENDMOD        LCD_DRIVER_SPLC780D

  -------         MODULE        KEYPAD
  C:0000H         SYMBOL        _ICE_DUMMY_
  D:0093H         PUBLIC        P0M1
  D:0080H         PUBLIC        P0
  D:0090H         PUBLIC        P1
  D:00A0H         PUBLIC        P2
  D:00B0H         PUBLIC        P3
  D:00C0H         PUBLIC        P4
  D:00C8H         PUBLIC        P5
  D:00E8H         PUBLIC        P6
  D:00F8H         PUBLIC        P7
  D:00A8H         PUBLIC        IE
  C:1171H         PUBLIC        Key_Scan
  D:00B8H         PUBLIC        IP
  D:00D8H         PUBLIC        CCON
  C:0003H         PUBLIC        KeyPad_IO_Init
  C:1E2AH         PUBLIC        _Delay_ms
  D:0098H         PUBLIC        SCON
  D:0088H         PUBLIC        TCON
  B:0020H.0       PUBLIC        small_move
  B:0020H.1       PUBLIC        move
  B:0020H.2       PUBLIC        direction
  C:091FH         PUBLIC        Key_Process
  D:00D0H         PUBLIC        PSW
  D:0094H         PUBLIC        P0M0
  -------         PROC          _DELAY_MS
  D:0006H         SYMBOL        ms
  -------         DO            
  D:0004H         SYMBOL        De_Cnt
  -------         ENDDO         
  C:1E2AH         LINE#         16
  C:1E2AH         LINE#         17
  C:1E2AH         LINE#         19
  C:1E34H         LINE#         20
  C:1E34H         LINE#         21
  C:1E47H         LINE#         22
  C:1E47H         LINE#         23
  -------         ENDPROC       _DELAY_MS
  -------         PROC          KEY_SCAN
  -------         DO            
  X:009EH         SYMBOL        KeyTemp1
BL51 BANKED LINKER/LOCATER V6.22                                                      08/09/2018  11:31:06  PAGE 20


  X:009FH         SYMBOL        KeyTemp2
  X:00A0H         SYMBOL        KeyValue
  -------         ENDDO         
  C:1171H         LINE#         24
  C:1171H         LINE#         25
  C:1171H         LINE#         30
  C:1174H         LINE#         33
  C:1177H         LINE#         35
  C:117FH         LINE#         36
  C:1186H         LINE#         37
  C:1186H         LINE#         38
  C:118DH         LINE#         39
  C:1192H         LINE#         40
  C:1199H         LINE#         41
  C:1199H         LINE#         44
  C:119CH         LINE#         45
  C:119FH         LINE#         46
  C:11A4H         LINE#         47
  C:11A8H         LINE#         48
  C:11A8H         LINE#         49
  C:11B0H         LINE#         50
  C:11B0H         LINE#         51
  C:11B3H         LINE#         52
  C:11BBH         LINE#         53
  C:11BDH         LINE#         55
  C:11D1H         LINE#         56
  C:11D1H         LINE#         57
  C:11D1H         LINE#         58
  C:11D1H         LINE#         59
  C:11D7H         LINE#         61
  C:11D9H         LINE#         62
  C:11D9H         LINE#         63
  C:11D9H         LINE#         64
  C:11DFH         LINE#         66
  C:11E1H         LINE#         67
  C:11E1H         LINE#         68
  C:11E1H         LINE#         69
  C:11E7H         LINE#         71
  C:11E9H         LINE#         72
  C:11E9H         LINE#         73
  C:11E9H         LINE#         74
  C:11EFH         LINE#         76
  C:11EFH         LINE#         77
  C:11EFH         LINE#         78
  C:11EFH         LINE#         81
  C:11F2H         LINE#         82
  C:11F5H         LINE#         83
  C:11FDH         LINE#         84
  C:1201H         LINE#         85
  C:1201H         LINE#         86
  C:1209H         LINE#         87
  C:1209H         LINE#         88
  C:120CH         LINE#         89
  C:1214H         LINE#         90
  C:1216H         LINE#         91
  C:122AH         LINE#         92
  C:122AH         LINE#         93
BL51 BANKED LINKER/LOCATER V6.22                                                      08/09/2018  11:31:06  PAGE 21


  C:122AH         LINE#         94
  C:122AH         LINE#         95
  C:1230H         LINE#         97
  C:1232H         LINE#         98
  C:1232H         LINE#         99
  C:1232H         LINE#         100
  C:1238H         LINE#         102
  C:123AH         LINE#         103
  C:123AH         LINE#         104
  C:123AH         LINE#         105
  C:1240H         LINE#         107
  C:1242H         LINE#         108
  C:1242H         LINE#         109
  C:1242H         LINE#         110
  C:1247H         LINE#         112
  C:1247H         LINE#         113
  C:1247H         LINE#         114
  C:1247H         LINE#         117
  C:124AH         LINE#         118
  C:124DH         LINE#         119
  C:1255H         LINE#         120
  C:1259H         LINE#         121
  C:1259H         LINE#         122
  C:1261H         LINE#         123
  C:1261H         LINE#         124
  C:1264H         LINE#         125
  C:126CH         LINE#         126
  C:126EH         LINE#         127
  C:1282H         LINE#         128
  C:1282H         LINE#         129
  C:1282H         LINE#         130
  C:1282H         LINE#         131
  C:1288H         LINE#         133
  C:128AH         LINE#         134
  C:128AH         LINE#         135
  C:128AH         LINE#         136
  C:1290H         LINE#         138
  C:1292H         LINE#         139
  C:1292H         LINE#         140
  C:1292H         LINE#         141
  C:1298H         LINE#         143
  C:129AH         LINE#         144
  C:129AH         LINE#         145
  C:129AH         LINE#         146
  C:12A0H         LINE#         148
  C:12A0H         LINE#         149
  C:12A0H         LINE#         150
  C:12A0H         LINE#         154
  C:12A3H         LINE#         155
  C:12A6H         LINE#         156
  C:12AEH         LINE#         157
  C:12B2H         LINE#         158
  C:12B2H         LINE#         159
  C:12BAH         LINE#         160
  C:12BAH         LINE#         161
  C:12BDH         LINE#         162
  C:12C5H         LINE#         163
BL51 BANKED LINKER/LOCATER V6.22                                                      08/09/2018  11:31:06  PAGE 22


  C:12C7H         LINE#         164
  C:12DBH         LINE#         165
  C:12DBH         LINE#         166
  C:12DBH         LINE#         167
  C:12DBH         LINE#         168
  C:12E1H         LINE#         170
  C:12E3H         LINE#         171
  C:12E3H         LINE#         172
  C:12E3H         LINE#         173
  C:12E9H         LINE#         175
  C:12EBH         LINE#         176
  C:12EBH         LINE#         177
  C:12EBH         LINE#         178
  C:12F1H         LINE#         180
  C:12F3H         LINE#         181
  C:12F3H         LINE#         182
  C:12F3H         LINE#         183
  C:12F9H         LINE#         185
  C:12F9H         LINE#         186
  C:12F9H         LINE#         187
  C:12F9H         LINE#         189
  C:12FFH         LINE#         190
  C:12FFH         LINE#         192
  C:12FFH         LINE#         193
  C:1302H         LINE#         194
  C:1302H         LINE#         195
  C:1302H         LINE#         197
  C:1302H         LINE#         198
  C:1304H         LINE#         199
  C:1304H         LINE#         200
  -------         ENDPROC       KEY_SCAN
  -------         PROC          KEY_PROCESS
  -------         DO            
  X:00E2H         SYMBOL        KeyCount
  X:00E4H         SYMBOL        KeyNum_Old
  X:00E5H         SYMBOL        KeyNum
  X:00E6H         SYMBOL        PressedKey
  X:0098H         SYMBOL        d
  D:0004H         SYMBOL        hours
  D:0006H         SYMBOL        mins
  X:009AH         SYMBOL        months
  X:009CH         SYMBOL        days
  -------         ENDDO         
  C:091FH         LINE#         201
  C:091FH         LINE#         202
  C:091FH         LINE#         206
  C:0927H         LINE#         207
  C:092FH         LINE#         209
  C:093CH         LINE#         210
  C:093CH         LINE#         211
  C:093FH         LINE#         212
  C:0942H         LINE#         214
  C:0945H         LINE#         216
  C:0945H         LINE#         217
  C:0950H         LINE#         218
  C:0950H         LINE#         219
  C:0953H         LINE#         221
BL51 BANKED LINKER/LOCATER V6.22                                                      08/09/2018  11:31:06  PAGE 23


  C:0953H         LINE#         222
  C:095AH         LINE#         223
  C:095AH         LINE#         224
  C:095DH         LINE#         226
  C:095DH         LINE#         228
  C:0961H         LINE#         229
  C:0961H         LINE#         230
  C:0964H         LINE#         232
  C:0964H         LINE#         233
  C:0974H         LINE#         234
  C:0974H         LINE#         235
  C:0986H         LINE#         236
  C:0994H         LINE#         237
  C:09A3H         LINE#         238
  C:09A3H         LINE#         240
  C:09A9H         LINE#         244
  C:09BFH         LINE#         245
  C:09D0H         LINE#         246
  C:09EBH         LINE#         247
  C:09EBH         LINE#         248
  C:09FBH         LINE#         249
  C:0A0CH         LINE#         250
  C:0A0CH         LINE#         254
  C:0A25H         LINE#         255
  C:0A3CH         LINE#         256
  C:0A5CH         LINE#         257
  C:0A5CH         LINE#         258
  C:0A66H         LINE#         259
  C:0A66H         LINE#         260
  C:0A6FH         LINE#         261
  C:0A6FH         LINE#         262
  C:0A83H         LINE#         263
  C:0A83H         LINE#         264
  C:0A83H         LINE#         265
  C:0A83H         LINE#         266
  C:0A83H         LINE#         267
  C:0A85H         LINE#         269
  C:0A85H         LINE#         270
  C:0A91H         LINE#         271
  C:0A91H         LINE#         272
  C:0AA2H         LINE#         273
  C:0AA2H         LINE#         274
  C:0AA2H         LINE#         275
  C:0AA2H         LINE#         276
  C:0AA2H         LINE#         278
  C:0AA4H         LINE#         280
  C:0AA4H         LINE#         281
  C:0AB5H         LINE#         282
  C:0AB5H         LINE#         283
  C:0AB5H         LINE#         284
  C:0AB5H         LINE#         285
  C:0AB5H         LINE#         287
  C:0AB5H         LINE#         289
  C:0AB5H         LINE#         290
  C:0AB7H         LINE#         292
  C:0AB7H         LINE#         293
  C:0ACAH         LINE#         294
BL51 BANKED LINKER/LOCATER V6.22                                                      08/09/2018  11:31:06  PAGE 24


  C:0ACAH         LINE#         295
  C:0ADBH         LINE#         296
  C:0ADBH         LINE#         297
  C:0ADBH         LINE#         298
  C:0ADBH         LINE#         299
  C:0ADBH         LINE#         300
  C:0ADDH         LINE#         302
  C:0ADDH         LINE#         303
  C:0AEEH         LINE#         304
  C:0AEEH         LINE#         305
  C:0AFFH         LINE#         306
  C:0B10H         LINE#         307
  C:0B10H         LINE#         308
  C:0B10H         LINE#         309
  C:0B10H         LINE#         310
  C:0B10H         LINE#         311
  C:0B13H         LINE#         312
  C:0B18H         LINE#         313
  C:0B1DH         LINE#         314
  C:0B22H         LINE#         315
  C:0B27H         LINE#         316
  C:0B2CH         LINE#         317
  C:0B31H         LINE#         318
  C:0B36H         LINE#         319
  C:0B36H         LINE#         321
  C:0B58H         LINE#         322
  C:0B58H         LINE#         323
  C:0B62H         LINE#         324
  C:0B62H         LINE#         325
  C:0B67H         LINE#         326
  C:0B70H         LINE#         327
  C:0B87H         LINE#         328
  C:0B87H         LINE#         329
  C:0B97H         LINE#         331
  C:0B97H         LINE#         335
  -------         ENDPROC       KEY_PROCESS
  -------         PROC          KEYPAD_IO_INIT
  C:0003H         LINE#         338
  C:0003H         LINE#         339
  C:0003H         LINE#         340
  C:0006H         LINE#         341
  C:0009H         LINE#         342
  -------         ENDPROC       KEYPAD_IO_INIT
  -------         ENDMOD        KEYPAD

  -------         MODULE        VCNL4035
  C:0000H         SYMBOL        _ICE_DUMMY_
  D:0080H         PUBLIC        P0
  B:00B0H.2       PUBLIC        I2C_SCK
  D:00B2H         PUBLIC        P3M0
  D:0090H         PUBLIC        P1
  D:00B1H         PUBLIC        P3M1
  D:00A0H         PUBLIC        P2
  D:00B0H         PUBLIC        P3
  D:00C0H         PUBLIC        P4
  D:00C8H         PUBLIC        P5
  D:00E8H         PUBLIC        P6
BL51 BANKED LINKER/LOCATER V6.22                                                      08/09/2018  11:31:06  PAGE 25


  D:00F8H         PUBLIC        P7
  D:00A8H         PUBLIC        IE
  C:1FC7H         PUBLIC        _DisplayLCD_VCNL4035
  D:00B8H         PUBLIC        IP
  D:00D8H         PUBLIC        CCON
  C:1F21H         PUBLIC        I2C_Start
  D:0098H         PUBLIC        SCON
  C:1ECDH         PUBLIC        I2C_Init
  D:0088H         PUBLIC        TCON
  C:1F67H         PUBLIC        uC_NACK
  C:1D62H         PUBLIC        _Wait_ms_i2c
  C:1DC8H         PUBLIC        _I2C_SendByte
  C:1EE4H         PUBLIC        I2C_Stop
  C:1C39H         PUBLIC        _Write_VCNL4035X
  C:1FD8H         PUBLIC        nop
  C:17CFH         PUBLIC        _Read_VCNL4035
  C:1FC1H         PUBLIC        uC_ACK
  C:1E88H         PUBLIC        I2C_ACK
  C:1E48H         PUBLIC        _Wait_ms_iic
  B:00B0H.1       PUBLIC        I2C_SDA
  D:00D0H         PUBLIC        PSW
  C:1D2FH         PUBLIC        I2C_ReceiveByte
  -------         PROC          _WAIT_MS_IIC
  D:0006H         SYMBOL        ms
  -------         DO            
  D:0004H         SYMBOL        De_Cnt
  -------         ENDDO         
  C:1E48H         LINE#         5
  C:1E48H         LINE#         6
  C:1E48H         LINE#         8
  C:1E52H         LINE#         9
  C:1E52H         LINE#         10
  C:1E65H         LINE#         11
  C:1E65H         LINE#         12
  -------         ENDPROC       _WAIT_MS_IIC
  C:1D5CH         SYMBOL        L?0048
  C:1D5EH         SYMBOL        L?0049
  -------         PROC          L?0047
  -------         ENDPROC       L?0047
  C:1D5CH         SYMBOL        L?0048
  C:1D5EH         SYMBOL        L?0049
  -------         PROC          _WAIT_MS_I2C
  D:0006H         SYMBOL        ms
  -------         DO            
  D:0004H         SYMBOL        De_Cnt
  -------         ENDDO         
  C:1D62H         LINE#         14
  C:1D62H         LINE#         15
  C:1D62H         LINE#         17
  C:1D6CH         LINE#         18
  C:1D6CH         LINE#         19
  C:1D7FH         LINE#         20
  C:1D7FH         LINE#         21
  -------         ENDPROC       _WAIT_MS_I2C
  -------         PROC          NOP
  C:1FD8H         LINE#         22
  C:1FD8H         LINE#         23
BL51 BANKED LINKER/LOCATER V6.22                                                      08/09/2018  11:31:06  PAGE 26


  C:1FD8H         LINE#         25
  -------         ENDPROC       NOP
  -------         PROC          I2C_START
  C:1F21H         LINE#         26
  C:1F21H         LINE#         27
  C:1F21H         LINE#         29
  C:1F23H         LINE#         30
  C:1F25H         LINE#         31
  C:1F2CH         LINE#         32
  C:1F2EH         LINE#         33
  C:1F31H         LINE#         34
  C:1F33H         LINE#         37
  -------         ENDPROC       I2C_START
  -------         PROC          I2C_STOP
  C:1EE4H         LINE#         39
  C:1EE4H         LINE#         40
  C:1EE4H         LINE#         41
  C:1EE6H         LINE#         42
  C:1EE8H         LINE#         43
  C:1EEBH         LINE#         44
  C:1EEDH         LINE#         45
  C:1EEFH         LINE#         46
  C:1EF6H         LINE#         47
  C:1EF8H         LINE#         50
  -------         ENDPROC       I2C_STOP
  -------         PROC          L?0050
  -------         ENDPROC       L?0050
  -------         PROC          I2C_ACK
  -------         DO            
  X:009BH         SYMBOL        i
  D:0003H         SYMBOL        dat
  -------         ENDDO         
  C:1E88H         LINE#         52
  C:1E88H         LINE#         53
  C:1E88H         LINE#         55
  C:1E89H         LINE#         60
  C:1E8CH         LINE#         61
  C:1E8EH         LINE#         62
  C:1E91H         LINE#         64
  C:1E94H         LINE#         65
  C:1E94H         LINE#         66
  C:1E98H         LINE#         67
  C:1E98H         LINE#         70
  C:1E98H         LINE#         71
  C:1E9BH         LINE#         72
  C:1E9BH         LINE#         73
  C:1E9DH         LINE#         74
  -------         ENDPROC       I2C_ACK
  -------         PROC          UC_ACK
  -------         DO            
  X:00FAH         SYMBOL        i
  -------         ENDDO         
  C:1FC1H         LINE#         75
  C:1FC1H         LINE#         76
  C:1FC1H         LINE#         78
  C:1FC1H         LINE#         85
  C:1FC1H         LINE#         87
BL51 BANKED LINKER/LOCATER V6.22                                                      08/09/2018  11:31:06  PAGE 27


  C:1FC1H         LINE#         89
  C:1FC1H         LINE#         90
  C:1FC1H         LINE#         93
  C:1FC4H         LINE#         94
  C:1FC6H         LINE#         95
  C:1FC6H         LINE#         99
  -------         ENDPROC       UC_ACK
  -------         PROC          UC_NACK
  -------         DO            
  X:00FBH         SYMBOL        i
  -------         ENDDO         
  C:1F67H         LINE#         101
  C:1F67H         LINE#         102
  C:1F67H         LINE#         104
  C:1F67H         LINE#         108
  C:1F69H         LINE#         111
  C:1F69H         LINE#         112
  C:1F6BH         LINE#         113
  C:1F6BH         LINE#         115
  C:1F6BH         LINE#         116
  C:1F6BH         LINE#         119
  C:1F6EH         LINE#         120
  C:1F70H         LINE#         121
  C:1F73H         LINE#         122
  C:1F75H         LINE#         123
  C:1F75H         LINE#         127
  -------         ENDPROC       UC_NACK
  -------         PROC          I2C_INIT
  C:1ECDH         LINE#         129
  C:1ECDH         LINE#         130
  C:1ECDH         LINE#         133
  C:1ED0H         LINE#         134
  C:1ED3H         LINE#         139
  C:1EDBH         LINE#         141
  -------         ENDPROC       I2C_INIT
  -------         PROC          _I2C_SENDBYTE
  D:0001H         SYMBOL        dat
  -------         DO            
  D:0003H         SYMBOL        i
  -------         ENDDO         
  C:1DC8H         LINE#         145
  C:1DCAH         LINE#         146
  C:1DCAH         LINE#         149
  C:1DCCH         LINE#         150
  C:1DCCH         LINE#         151
  C:1DCEH         LINE#         153
  C:1DD2H         LINE#         154
  C:1DD2H         LINE#         155
  C:1DD4H         LINE#         156
  C:1DD6H         LINE#         158
  C:1DD6H         LINE#         159
  C:1DD8H         LINE#         160
  C:1DD8H         LINE#         161
  C:1DDBH         LINE#         162
  C:1DDDH         LINE#         164
  C:1DE1H         LINE#         165
  C:1DE4H         LINE#         166
BL51 BANKED LINKER/LOCATER V6.22                                                      08/09/2018  11:31:06  PAGE 28


  C:1DE9H         LINE#         167
  -------         ENDPROC       _I2C_SENDBYTE
  -------         PROC          L?0051
  -------         ENDPROC       L?0051
  -------         PROC          I2C_RECEIVEBYTE
  -------         DO            
  D:0003H         SYMBOL        i
  D:0001H         SYMBOL        dat
  -------         ENDDO         
  C:1D2FH         LINE#         171
  C:1D2FH         LINE#         172
  C:1D2FH         LINE#         174
  C:1D31H         LINE#         178
  C:1D32H         LINE#         179
  C:1D32H         LINE#         180
  C:1D36H         LINE#         181
  C:1D38H         LINE#         182
  C:1D3BH         LINE#         184
  C:1D3EH         LINE#         185
  C:1D3EH         LINE#         186
  C:1D42H         LINE#         187
  C:1D42H         LINE#         188
  C:1D42H         LINE#         189
  C:1D45H         LINE#         190
  C:1D49H         LINE#         191
  C:1D49H         LINE#         192
  C:1D4BH         LINE#         193
  C:1D4DH         LINE#         194
  C:1D4DH         LINE#         196
  C:1D52H         LINE#         197
  C:1D54H         LINE#         198
  -------         ENDPROC       I2C_RECEIVEBYTE
  -------         PROC          _WRITE_VCNL4035X
  X:0098H         SYMBOL        command_code
  X:0099H         SYMBOL        dat_h
  X:009AH         SYMBOL        dat_l
  C:1C39H         LINE#         199
  C:1C44H         LINE#         200
  C:1C44H         LINE#         201
  C:1C47H         LINE#         202
  C:1C4EH         LINE#         203
  C:1C4EH         LINE#         204
  C:1C54H         LINE#         205
  C:1C54H         LINE#         206
  C:1C5CH         LINE#         207
  C:1C5CH         LINE#         208
  C:1C62H         LINE#         209
  C:1C6AH         LINE#         211
  C:1C70H         LINE#         212
  C:1C78H         LINE#         214
  C:1C7EH         LINE#         215
  C:1C81H         LINE#         216
  -------         ENDPROC       _WRITE_VCNL4035X
  -------         PROC          _READ_VCNL4035
  X:00EBH         SYMBOL        command_code
  -------         DO            
  X:00EDH         SYMBOL        temp_dat
BL51 BANKED LINKER/LOCATER V6.22                                                      08/09/2018  11:31:06  PAGE 29


  X:00EFH         SYMBOL        temp_dat_l
  X:00F1H         SYMBOL        temp_dat_h
  -------         ENDDO         
  C:17CFH         LINE#         218
  C:17D7H         LINE#         219
  C:17D7H         LINE#         220
  C:17E4H         LINE#         222
  C:17E7H         LINE#         223
  C:17EAH         LINE#         224
  C:17EFH         LINE#         226
  C:17F5H         LINE#         227
  C:17F5H         LINE#         228
  C:17F5H         LINE#         229
  C:17F5H         LINE#         230
  C:1800H         LINE#         231
  C:1803H         LINE#         232
  C:1806H         LINE#         233
  C:1806H         LINE#         236
  C:1809H         LINE#         238
  C:1810H         LINE#         239
  C:1810H         LINE#         240
  C:1810H         LINE#         241
  C:181BH         LINE#         242
  C:181EH         LINE#         243
  C:1821H         LINE#         244
  C:1824H         LINE#         245
  C:1827H         LINE#         246
  C:182AH         LINE#         247
  C:182DH         LINE#         248
  C:1830H         LINE#         249
  C:1833H         LINE#         250
  C:1833H         LINE#         251
  C:1839H         LINE#         252
  C:1839H         LINE#         253
  C:1842H         LINE#         255
  C:1842H         LINE#         256
  C:1848H         LINE#         257
  C:1848H         LINE#         259
  C:184AH         LINE#         260
  C:1850H         LINE#         261
  C:1853H         LINE#         262
  C:185AH         LINE#         263
  C:185AH         LINE#         264
  C:1868H         LINE#         265
  -------         ENDPROC       _READ_VCNL4035
  -------         PROC          _DISPLAYLCD_VCNL4035
  X:00FCH         SYMBOL        dat
  C:1FC7H         LINE#         267
  C:1FCCH         LINE#         268
  C:1FCCH         LINE#         270
  -------         ENDPROC       _DISPLAYLCD_VCNL4035
  -------         ENDMOD        VCNL4035

  -------         MODULE        BIPOLARMOTOR
  C:0000H         SYMBOL        _ICE_DUMMY_
  D:0080H         PUBLIC        P0
  D:0090H         PUBLIC        P1
BL51 BANKED LINKER/LOCATER V6.22                                                      08/09/2018  11:31:06  PAGE 30


  D:00A0H         PUBLIC        P2
  D:00B0H         PUBLIC        P3
  D:00C0H         PUBLIC        P4
  D:00C8H         PUBLIC        P5
  D:00E8H         PUBLIC        P6
  D:00F8H         PUBLIC        P7
  D:00A8H         PUBLIC        IE
  X:0000H         PUBLIC        receiver_pos
  X:0044H         PUBLIC        Time_stamp_PM
  C:1CC2H         PUBLIC        _Move
  D:00B8H         PUBLIC        IP
  X:0077H         PUBLIC        num_of_time_stamp
  D:00D8H         PUBLIC        CCON
  C:0DC7H         PUBLIC        _trend_line_30_31
  D:0098H         PUBLIC        SCON
  D:0088H         PUBLIC        TCON
  C:1B8CH         PUBLIC        _Step_move
  C:0B98H         PUBLIC        _Update_position
  C:1DB7H         PUBLIC        _BCDtoDec1
  X:0078H         PUBLIC        degree
  D:00D0H         PUBLIC        PSW
  -------         PROC          L?0024
  -------         ENDPROC       L?0024
  -------         PROC          _BCDTODEC1
  D:0007H         SYMBOL        bcd
  -------         DO            
  D:0006H         SYMBOL        hi
  D:0007H         SYMBOL        lo
  -------         ENDDO         
  C:1DB7H         LINE#         12
  C:1DB7H         LINE#         13
  C:1DB7H         LINE#         15
  C:1DBCH         LINE#         16
  C:1DC0H         LINE#         17
  C:1DC7H         LINE#         18
  -------         ENDPROC       _BCDTODEC1
  -------         PROC          _STEP_MOVE
  X:00B4H         SYMBOL        step
  B:0020H.5       SYMBOL        dir
  -------         DO            
  X:00B6H         SYMBOL        i
  -------         ENDDO         
  C:1B8CH         LINE#         24
  C:1B94H         LINE#         25
  C:1B94H         LINE#         26
  C:1B99H         LINE#         27
  C:1B9CH         LINE#         28
  C:1BA1H         LINE#         30
  C:1BA4H         LINE#         32
  C:1BC0H         LINE#         33
  C:1BC0H         LINE#         34
  C:1BC3H         LINE#         35
  C:1BCAH         LINE#         36
  C:1BCDH         LINE#         37
  C:1BD4H         LINE#         38
  C:1BE4H         LINE#         39
  -------         ENDPROC       _STEP_MOVE
BL51 BANKED LINKER/LOCATER V6.22                                                      08/09/2018  11:31:06  PAGE 31


  -------         PROC          _MOVE
  X:00B0H         SYMBOL        distance
  B:0020H.4       SYMBOL        direction
  -------         DO            
  D:0006H         SYMBOL        step
  -------         ENDDO         
  C:1CC2H         LINE#         41
  C:1CC8H         LINE#         42
  C:1CC8H         LINE#         44
  C:1CEFH         LINE#         45
  -------         ENDPROC       _MOVE
  -------         PROC          _UPDATE_POSITION
  X:0098H         SYMBOL        mnths
  X:0099H         SYMBOL        dys
  X:009AH         SYMBOL        hurs
  X:009BH         SYMBOL        mns
  X:009CH         SYMBOL        sconds
  X:009DH         SYMBOL        currnt_pos
  -------         DO            
  X:00A0H         SYMBOL        date
  X:00A2H         SYMBOL        i
  X:00A4H         SYMBOL        desired_distance
  X:00A8H         SYMBOL        distance
  X:00ACH         SYMBOL        h_float
  D:0004H         SYMBOL        m_float
  -------         ENDDO         
  C:0B98H         LINE#         51
  C:0BA3H         LINE#         52
  C:0BA3H         LINE#         54
  C:0BADH         LINE#         59
  C:0BC1H         LINE#         60
  C:0BD4H         LINE#         62
  C:0BF3H         LINE#         63
  C:0BF3H         LINE#         64
  C:0CC8H         LINE#         65
  C:0CC8H         LINE#         67
  C:0CC8H         LINE#         69
  C:0CD4H         LINE#         71
  C:0CD4H         LINE#         72
  C:0CE8H         LINE#         73
  C:0CF6H         LINE#         75
  C:0D1AH         LINE#         76
  C:0D1AH         LINE#         77
  C:0D1AH         LINE#         78
  C:0D3FH         LINE#         79
  C:0D5BH         LINE#         80
  C:0D75H         LINE#         81
  C:0D75H         LINE#         82
  C:0D85H         LINE#         83
  C:0D87H         LINE#         84
  C:0D9FH         LINE#         85
  C:0D9FH         LINE#         86
  C:0DB5H         LINE#         87
  C:0DB5H         LINE#         89
  C:0DB5H         LINE#         90
  C:0DB5H         LINE#         92
  C:0DB5H         LINE#         94
BL51 BANKED LINKER/LOCATER V6.22                                                      08/09/2018  11:31:06  PAGE 32


  C:0DB5H         LINE#         96
  C:0DC6H         LINE#         97
  -------         ENDPROC       _UPDATE_POSITION
  -------         PROC          _TREND_LINE_30_31
  X:00B0H         SYMBOL        time
  -------         DO            
  X:00B4H         SYMBOL        offset
  -------         ENDDO         
  C:0DC7H         LINE#         99
  C:0DCDH         LINE#         100
  C:0DCDH         LINE#         102
  C:0F24H         LINE#         103
  C:0FBBH         LINE#         106
  -------         ENDPROC       _TREND_LINE_30_31
  -------         ENDMOD        BIPOLARMOTOR

  -------         MODULE        ?C_STARTUP
  C:1998H         SEGMENT       ?C_C51STARTUP
  I:0021H         SEGMENT       ?STACK
  C:0000H         PUBLIC        ?C_STARTUP
  D:00E0H         SYMBOL        ACC
  D:00F0H         SYMBOL        B
  D:0083H         SYMBOL        DPH
  D:0082H         SYMBOL        DPL
  N:0000H         SYMBOL        IBPSTACK
  N:0100H         SYMBOL        IBPSTACKTOP
  N:0080H         SYMBOL        IDATALEN
  C:199BH         SYMBOL        IDATALOOP
  N:0000H         SYMBOL        PBPSTACK
  N:0100H         SYMBOL        PBPSTACKTOP
  N:0000H         SYMBOL        PDATALEN
  N:0000H         SYMBOL        PDATASTART
  N:0000H         SYMBOL        PPAGE
  N:0000H         SYMBOL        PPAGEENABLE
  D:00A0H         SYMBOL        PPAGE_SFR
  D:0081H         SYMBOL        SP
  C:1998H         SYMBOL        STARTUP1
  N:0000H         SYMBOL        XBPSTACK
  N:0000H         SYMBOL        XBPSTACKTOP
  N:0000H         SYMBOL        XDATALEN
  N:0000H         SYMBOL        XDATASTART
  C:0000H         LINE#         126
  C:1998H         LINE#         133
  C:199AH         LINE#         134
  C:199BH         LINE#         135
  C:199CH         LINE#         136
  C:199EH         LINE#         185
  C:19A1H         LINE#         196
  -------         ENDMOD        ?C_STARTUP

  -------         MODULE        ?C?FPADD
  C:002DH         PUBLIC        ?C?FPADD
  C:0029H         PUBLIC        ?C?FPSUB
  -------         ENDMOD        ?C?FPADD

  -------         MODULE        ?C?FPMUL
  C:011EH         PUBLIC        ?C?FPMUL
BL51 BANKED LINKER/LOCATER V6.22                                                      08/09/2018  11:31:06  PAGE 33


  -------         ENDMOD        ?C?FPMUL

  -------         MODULE        ?C?FPDIV
  C:0227H         PUBLIC        ?C?FPDIV
  -------         ENDMOD        ?C?FPDIV

  -------         MODULE        ?C?FPCMP
  C:02C6H         PUBLIC        ?C?FPCMP
  C:02C4H         PUBLIC        ?C?FPCMP3
  -------         ENDMOD        ?C?FPCMP

  -------         MODULE        ?C?FPNEG
  C:033DH         PUBLIC        ?C?FPNEG
  -------         ENDMOD        ?C?FPNEG

  -------         MODULE        ?C?FCAST
  C:0358H         PUBLIC        ?C?FCASTC
  C:0353H         PUBLIC        ?C?FCASTI
  C:034EH         PUBLIC        ?C?FCASTL
  -------         ENDMOD        ?C?FCAST

  -------         MODULE        ?C?CASTF
  C:038CH         PUBLIC        ?C?CASTF
  -------         ENDMOD        ?C?CASTF

  -------         MODULE        POW
  X:00B8H         PUBLIC        ?_pow?BYTE
  C:1305H         PUBLIC        _pow
  -------         ENDMOD        POW

  -------         MODULE        ?C?CHKFLOAT
  C:040DH         PUBLIC        ?C?CHKFLOAT
  -------         ENDMOD        ?C?CHKFLOAT

  -------         MODULE        EXP
  C:18A1H         PUBLIC        _EXP
  -------         ENDMOD        EXP

  -------         MODULE        LOG
  C:149FH         PUBLIC        _LOG
  C:149BH         PUBLIC        _LOG10
  -------         ENDMOD        LOG

  -------         MODULE        ?C?CLDPTR
  C:0474H         PUBLIC        ?C?CLDPTR
  -------         ENDMOD        ?C?CLDPTR

  -------         MODULE        ?C?CSTPTR
  C:048DH         PUBLIC        ?C?CSTPTR
  -------         ENDMOD        ?C?CSTPTR

  -------         MODULE        ?C?IMUL
  C:049FH         PUBLIC        ?C?IMUL
  -------         ENDMOD        ?C?IMUL

  -------         MODULE        ?C?UIDIV
  C:04B1H         PUBLIC        ?C?UIDIV
BL51 BANKED LINKER/LOCATER V6.22                                                      08/09/2018  11:31:06  PAGE 34


  -------         ENDMOD        ?C?UIDIV

  -------         MODULE        ?C?SIDIV
  C:0506H         PUBLIC        ?C?SIDIV
  -------         ENDMOD        ?C?SIDIV

  -------         MODULE        ?C?ILDIX
  C:053CH         PUBLIC        ?C?ILDIX
  -------         ENDMOD        ?C?ILDIX

  -------         MODULE        ?C?LNEG
  C:0552H         PUBLIC        ?C?LNEG
  -------         ENDMOD        ?C?LNEG

  -------         MODULE        ?C?LLDPTR
  C:0560H         PUBLIC        ?C?LLDPTR
  -------         ENDMOD        ?C?LLDPTR

  -------         MODULE        ?C?LSTPTR
  C:0580H         PUBLIC        ?C?LSTPTR
  -------         ENDMOD        ?C?LSTPTR

  -------         MODULE        ?C?LLDCODE
  C:059AH         PUBLIC        ?C?LLDCODE
  -------         ENDMOD        ?C?LLDCODE

  -------         MODULE        ?C?LLDXDATA0
  C:05AAH         PUBLIC        ?C?LLDXDATA0
  -------         ENDMOD        ?C?LLDXDATA0

  -------         MODULE        ?C?LLDCODE0
  C:05B6H         PUBLIC        ?C?LLDCODE0
  -------         ENDMOD        ?C?LLDCODE0

  -------         MODULE        ?C?LLDPTR0
  C:05C6H         PUBLIC        ?C?LLDPTR0
  -------         ENDMOD        ?C?LLDPTR0

  -------         MODULE        ?C?LSTXDATA
  C:05E6H         PUBLIC        ?C?LSTXDATA
  -------         ENDMOD        ?C?LSTXDATA

  -------         MODULE        ?C?LSTKXDATA
  C:05F2H         PUBLIC        ?C?LSTKXDATA
  -------         ENDMOD        ?C?LSTKXDATA

  -------         MODULE        ?C?OFFXADD
  C:0623H         PUBLIC        ?C?OFFXADD
  -------         ENDMOD        ?C?OFFXADD

  -------         MODULE        ABS
  C:1F92H         PUBLIC        _ABS
  -------         ENDMOD        ABS

  -------         MODULE        ATOI
  C:1594H         PUBLIC        _atoi
  -------         ENDMOD        ATOI
BL51 BANKED LINKER/LOCATER V6.22                                                      08/09/2018  11:31:06  PAGE 35



  -------         MODULE        ?C?IILDX
  C:062FH         PUBLIC        ?C?IILDX
  -------         ENDMOD        ?C?IILDX

  -------         MODULE        ?C?LLDIDATA
  C:0645H         PUBLIC        ?C?LLDIDATA
  -------         ENDMOD        ?C?LLDIDATA

  -------         MODULE        ?C?LLDXDATA
  C:0651H         PUBLIC        ?C?LLDXDATA
  -------         ENDMOD        ?C?LLDXDATA

  -------         MODULE        ?C?LLDPDATA
  C:065DH         PUBLIC        ?C?LLDPDATA
  -------         ENDMOD        ?C?LLDPDATA

  -------         MODULE        ?C?LLDIDATA0
  C:0669H         PUBLIC        ?C?LLDIDATA0
  -------         ENDMOD        ?C?LLDIDATA0

  -------         MODULE        ?C?LLDPDATA0
  C:0676H         PUBLIC        ?C?LLDPDATA0
  -------         ENDMOD        ?C?LLDPDATA0

  -------         MODULE        ?C?LSTIDATA
  C:0683H         PUBLIC        ?C?LSTIDATA
  -------         ENDMOD        ?C?LSTIDATA

  -------         MODULE        ?C?LSTPDATA
  C:068FH         PUBLIC        ?C?LSTPDATA
  -------         ENDMOD        ?C?LSTPDATA

  -------         MODULE        ISDIGIT
  C:1F76H         PUBLIC        _isdigit
  -------         ENDMOD        ISDIGIT

  -------         MODULE        ISSPACE
  C:1F0DH         PUBLIC        _isspace
  -------         ENDMOD        ISSPACE

*** WARNING L16: UNCALLED SEGMENT, IGNORED FOR OVERLAY PROCESS
    SEGMENT: ?PR?_DISPLAY_PROX?MAIN

*** WARNING L16: UNCALLED SEGMENT, IGNORED FOR OVERLAY PROCESS
    SEGMENT: ?PR?_SENDSTRING?UART1

*** WARNING L16: UNCALLED SEGMENT, IGNORED FOR OVERLAY PROCESS
    SEGMENT: ?PR?_TEN?UART1

*** WARNING L16: UNCALLED SEGMENT, IGNORED FOR OVERLAY PROCESS
    SEGMENT: ?PR?_UNIT?UART1

*** WARNING L16: UNCALLED SEGMENT, IGNORED FOR OVERLAY PROCESS
    SEGMENT: ?PR?_DECTOBCD?UART1

*** WARNING L16: UNCALLED SEGMENT, IGNORED FOR OVERLAY PROCESS
BL51 BANKED LINKER/LOCATER V6.22                                                      08/09/2018  11:31:06  PAGE 36


    SEGMENT: ?PR?_ASCII_LETTER?UART1

*** WARNING L16: UNCALLED SEGMENT, IGNORED FOR OVERLAY PROCESS
    SEGMENT: ?PR?NOP?VCNL4035

*** WARNING L16: UNCALLED SEGMENT, IGNORED FOR OVERLAY PROCESS
    SEGMENT: ?PR?_READ_VCNL4035?VCNL4035

*** WARNING L16: UNCALLED SEGMENT, IGNORED FOR OVERLAY PROCESS
    SEGMENT: ?PR?_DISPLAYLCD_VCNL4035?VCNL4035

Program Size: data=17.7 xdata=253 code=8153
LINK/LOCATE RUN COMPLETE.  9 WARNING(S),  0 ERROR(S)
