BL51 BANKED LINKER/LOCATER V6.22                                                        05/10/2018  16:55:17  PAGE 1


BL51 BANKED LINKER/LOCATER V6.22, INVOKED BY:
C:\KEIL_V5\C51\BIN\BL51.EXE .\Obj\main.obj, .\Obj\PCF85063BTL.obj, .\Obj\UART1.obj, .\Obj\LCd_Driver_SPLC780D.obj, .\Obj
>> \STARTUP.obj TO .\Obj\GPIO_RTC_Test PRINT (.\Lis\GPIO_RTC_Test.m51) RAMSIZE (256)


MEMORY MODEL: LARGE


INPUT MODULES INCLUDED:
  .\Obj\main.obj (MAIN)
  .\Obj\PCF85063BTL.obj (PCF85063BTL)
  .\Obj\UART1.obj (UART1)
  .\Obj\LCd_Driver_SPLC780D.obj (LCD_DRIVER_SPLC780D)
  .\Obj\STARTUP.obj (?C_STARTUP)
  C:\KEIL_V5\C51\LIB\C51L.LIB (?C_INIT)
  C:\KEIL_V5\C51\LIB\C51L.LIB (?C?CLDPTR)
  C:\KEIL_V5\C51\LIB\C51L.LIB (?C?ILDIX)
  C:\KEIL_V5\C51\LIB\C51L.LIB (ATOI)
  C:\KEIL_V5\C51\LIB\C51L.LIB (?C?IMUL)
  C:\KEIL_V5\C51\LIB\C51L.LIB (?C?IILDX)
  C:\KEIL_V5\C51\LIB\C51L.LIB (ISDIGIT)
  C:\KEIL_V5\C51\LIB\C51L.LIB (ISSPACE)


LINK MAP OF MODULE:  .\Obj\GPIO_RTC_Test (MAIN)


            TYPE    BASE      LENGTH    RELOCATION   SEGMENT NAME
            -----------------------------------------------------

            * * * * * * *   D A T A   M E M O R Y   * * * * * * *
            REG     0000H     0008H     ABSOLUTE     "REG BANK 0"
            REG     0008H     0008H     ABSOLUTE     "REG BANK 1"
                    0010H     0010H                  *** GAP ***
            BIT     0020H.0   0000H.1   UNIT         ?BI?MAIN
            BIT     0020H.1   0000H.1   UNIT         _BIT_GROUP_
                    0020H.2   0000H.6                *** GAP ***
            IDATA   0021H     0001H     UNIT         ?STACK

            * * * * * * *  X D A T A   M E M O R Y  * * * * * * *
            XDATA   0000H     0012H     UNIT         _XDATA_GROUP_
            XDATA   0012H     000CH     UNIT         ?XD?MAIN
            XDATA   001EH     0003H     UNIT         ?XD?_SENDSTRING?UART1
            XDATA   0021H     0001H     UNIT         ?XD?_DISPLAYLCD?LCD_DRIVER_SPLC780D

            * * * * * * *   C O D E   M E M O R Y   * * * * * * *
            CODE    0000H     0003H     ABSOLUTE     
            CODE    0003H     0020H     UNIT         ?PR?_SPI_SENDBYTE?PCF85063BTL
            CODE    0023H     0003H     ABSOLUTE     
            CODE    0026H     00DBH     UNIT         ?PR?_ATOI?ATOI
            CODE    0101H     0099H     UNIT         ?PR?UART?MAIN
            CODE    019AH     008CH     UNIT         ?C_C51STARTUP
            CODE    0226H     0080H     UNIT         ?PR?DISPLAY_TIME?UART1
            CODE    02A6H     007FH     UNIT         ?PR?LCD_INIT?LCD_DRIVER_SPLC780D
            CODE    0325H     006DH     UNIT         ?PR?MAIN?MAIN
            CODE    0392H     0064H     UNIT         ?PR?_WRITEDATA?LCD_DRIVER_SPLC780D
            CODE    03F6H     0057H     UNIT         ?C?LIB_CODE
            CODE    044DH     0033H     UNIT         ?PR?_SENDSTRING?UART1
BL51 BANKED LINKER/LOCATER V6.22                                                      05/10/2018  16:55:17  PAGE 2


            CODE    0480H     0022H     UNIT         ?PR?_DELAY_MS?MAIN
            CODE    04A2H     0022H     UNIT         ?PR?_COMMAND?LCD_DRIVER_SPLC780D
            CODE    04C4H     0022H     UNIT         ?PR?_WAIT_MS?LCD_DRIVER_SPLC780D
            CODE    04E6H     0020H     UNIT         ?PR?SPI_RECEIVEBYTE?PCF85063BTL
            CODE    0506H     001DH     UNIT         ?PR?_DISPLAYLCD?LCD_DRIVER_SPLC780D
            CODE    0523H     0018H     UNIT         ?PR?_SPI_WRITETIME?PCF85063BTL
            CODE    053BH     0017H     UNIT         ?C_INITSEG
            CODE    0552H     0017H     UNIT         ?PR?_ASCIITOBCD?UART1
            CODE    0569H     0014H     UNIT         ?PR?_PCF85063BTL_DELAY?PCF85063BTL
            CODE    057DH     0014H     UNIT         ?PR?_ISSPACE?ISSPACE
            CODE    0591H     0011H     UNIT         ?PR?_SPI_READTIME?PCF85063BTL
            CODE    05A2H     0011H     UNIT         ?PR?INITUART1?UART1
            CODE    05B3H     000FH     UNIT         ?PR?_ISDIGIT?ISDIGIT
            CODE    05C2H     000DH     UNIT         ?PR?SPI_INIT?PCF85063BTL
            CODE    05CFH     0009H     UNIT         ?PR?_SENDUART1?MAIN
            CODE    05D8H     0006H     UNIT         ?PR?_TEN?UART1
            CODE    05DEH     0005H     UNIT         ?PR?_UNIT?UART1
            CODE    05E3H     0005H     UNIT         ?PR?_ASCII_LETTER?UART1
            CODE    05E8H     0001H     UNIT         ?PR?_DECTOBCD?UART1



OVERLAY MAP OF MODULE:   .\Obj\GPIO_RTC_Test (MAIN)


SEGMENT                                        BIT_GROUP          XDATA_GROUP
  +--> CALLED SEGMENT                       START    LENGTH     START    LENGTH
-------------------------------------------------------------------------------
?PR?UART?MAIN                               -----    -----      -----    -----
  +--> ?PR?_ASCIITOBCD?UART1

?PR?_ASCIITOBCD?UART1                       -----    -----      -----    -----
  +--> ?PR?_ATOI?ATOI

?PR?_ATOI?ATOI                              0020H.1  0000H.1    0000H    0005H
  +--> ?PR?_ISSPACE?ISSPACE
  +--> ?PR?_ISDIGIT?ISDIGIT

*** NEW ROOT ***************************************************

?C_C51STARTUP                               -----    -----      -----    -----
  +--> ?PR?MAIN?MAIN
  +--> ?C_INITSEG

?PR?MAIN?MAIN                               -----    -----      0005H    000AH
  +--> ?PR?SPI_INIT?PCF85063BTL
  +--> ?PR?INITUART1?UART1
  +--> ?PR?_SPI_WRITETIME?PCF85063BTL
  +--> ?PR?_DELAY_MS?MAIN
  +--> ?PR?LCD_INIT?LCD_DRIVER_SPLC780D
  +--> ?PR?_WRITEDATA?LCD_DRIVER_SPLC780D
  +--> ?PR?_SENDUART1?MAIN
  +--> ?PR?DISPLAY_TIME?UART1

?PR?_SPI_WRITETIME?PCF85063BTL              -----    -----      -----    -----
  +--> ?PR?_SPI_SENDBYTE?PCF85063BTL

BL51 BANKED LINKER/LOCATER V6.22                                                      05/10/2018  16:55:17  PAGE 3


?PR?_SPI_SENDBYTE?PCF85063BTL               -----    -----      -----    -----
  +--> ?PR?_PCF85063BTL_DELAY?PCF85063BTL

?PR?LCD_INIT?LCD_DRIVER_SPLC780D            -----    -----      -----    -----
  +--> ?PR?_WAIT_MS?LCD_DRIVER_SPLC780D
  +--> ?PR?_COMMAND?LCD_DRIVER_SPLC780D

?PR?_COMMAND?LCD_DRIVER_SPLC780D            -----    -----      000FH    0001H
  +--> ?PR?_WAIT_MS?LCD_DRIVER_SPLC780D

?PR?_WRITEDATA?LCD_DRIVER_SPLC780D          -----    -----      000FH    0001H
  +--> ?PR?_WAIT_MS?LCD_DRIVER_SPLC780D

?PR?DISPLAY_TIME?UART1                      -----    -----      000FH    0003H
  +--> ?PR?_SPI_READTIME?PCF85063BTL
  +--> ?PR?_TEN?UART1
  +--> ?PR?_SENDUART1?MAIN
  +--> ?PR?_UNIT?UART1

?PR?_SPI_READTIME?PCF85063BTL               -----    -----      -----    -----
  +--> ?PR?_SPI_SENDBYTE?PCF85063BTL
  +--> ?PR?SPI_RECEIVEBYTE?PCF85063BTL

?PR?SPI_RECEIVEBYTE?PCF85063BTL             -----    -----      -----    -----
  +--> ?PR?_PCF85063BTL_DELAY?PCF85063BTL



SYMBOL TABLE OF MODULE:  .\Obj\GPIO_RTC_Test (MAIN)

  VALUE           TYPE          NAME
  ----------------------------------

  -------         MODULE        MAIN
  C:0000H         SYMBOL        _ICE_DUMMY_
  D:0080H         PUBLIC        P0
  D:0090H         PUBLIC        P1
  D:00A0H         PUBLIC        P2
  D:00B0H         PUBLIC        P3
  D:00C0H         PUBLIC        P4
  D:00C8H         PUBLIC        P5
  B:00A8H.7       PUBLIC        EA
  D:00E8H         PUBLIC        P6
  D:00F8H         PUBLIC        P7
  X:0012H         PUBLIC        RX_Data_Uart_Cnt
  D:00A8H         PUBLIC        IE
  D:00B8H         PUBLIC        IP
  B:0098H.0       PUBLIC        RI
  B:0098H.1       PUBLIC        TI
  C:0101H         PUBLIC        Uart
  D:00D8H         PUBLIC        CCON
  C:0325H         PUBLIC        main
  D:0099H         PUBLIC        SBUF
  C:0484H         PUBLIC        _Delay_ms
  D:0098H         PUBLIC        SCON
  D:0088H         PUBLIC        TCON
  X:0014H         PUBLIC        Rec_data_hour
BL51 BANKED LINKER/LOCATER V6.22                                                      05/10/2018  16:55:17  PAGE 4


  X:0017H         PUBLIC        Rec_data_min
  B:0020H.0       PUBLIC        busy
  D:00E0H         PUBLIC        ACC
  X:001AH         PUBLIC        hour_count
  X:001BH         PUBLIC        min_count
  X:001CH         PUBLIC        st_time
  D:00D0H         PUBLIC        PSW
  C:05CFH         PUBLIC        _SendUART1
  -------         PROC          MAIN
  -------         DO            
  X:0005H         SYMBOL        seconds
  X:0006H         SYMBOL        mins
  X:0007H         SYMBOL        hours
  X:0008H         SYMBOL        sec_decimal
  X:000AH         SYMBOL        numStr
  -------         ENDDO         
  C:0325H         LINE#         33
  C:0325H         LINE#         34
  C:0325H         LINE#         38
  C:0328H         LINE#         39
  C:032BH         LINE#         40
  C:032DH         LINE#         41
  C:0334H         LINE#         42
  C:0337H         LINE#         43
  C:033EH         LINE#         44
  C:0341H         LINE#         45
  C:0344H         LINE#         46
  C:0347H         LINE#         47
  C:034CH         LINE#         48
  C:034FH         LINE#         50
  C:034FH         LINE#         51
  C:034FH         LINE#         52
  C:0359H         LINE#         53
  C:0359H         LINE#         54
  C:0363H         LINE#         55
  C:036DH         LINE#         56
  C:0374H         LINE#         57
  C:037CH         LINE#         58
  C:0384H         LINE#         59
  C:0386H         LINE#         61
  C:0386H         LINE#         62
  C:0389H         LINE#         63
  C:0390H         LINE#         64
  C:0390H         LINE#         65
  -------         ENDPROC       MAIN
  C:0480H         SYMBOL        L?0027
  -------         PROC          L?0026
  -------         ENDPROC       L?0026
  C:0480H         SYMBOL        L?0027
  -------         PROC          _DELAY_MS
  D:0006H         SYMBOL        ms
  -------         DO            
  D:0004H         SYMBOL        De_Cnt
  -------         ENDDO         
  C:0484H         LINE#         69
  C:0484H         LINE#         70
  C:0484H         LINE#         72
BL51 BANKED LINKER/LOCATER V6.22                                                      05/10/2018  16:55:17  PAGE 5


  C:048EH         LINE#         73
  C:048EH         LINE#         74
  C:04A1H         LINE#         75
  C:04A1H         LINE#         76
  -------         ENDPROC       _DELAY_MS
  -------         PROC          UART
  C:0101H         LINE#         79
  C:010EH         LINE#         81
  C:0111H         LINE#         82
  C:0111H         LINE#         83
  C:011FH         LINE#         84
  C:0121H         LINE#         85
  C:0133H         LINE#         86
  C:0142H         LINE#         87
  C:014DH         LINE#         88
  C:014DH         LINE#         91
  C:015AH         LINE#         92
  C:0160H         LINE#         93
  C:0160H         LINE#         94
  C:0166H         LINE#         95
  C:0174H         LINE#         96
  C:0182H         LINE#         97
  C:0188H         LINE#         102
  C:0188H         LINE#         103
  C:0188H         LINE#         106
  C:0188H         LINE#         107
  C:018BH         LINE#         108
  C:018BH         LINE#         109
  C:018DH         LINE#         110
  C:018FH         LINE#         111
  C:018FH         LINE#         112
  -------         ENDPROC       UART
  -------         PROC          _SENDUART1
  D:0007H         SYMBOL        dat
  C:05CFH         LINE#         115
  C:05CFH         LINE#         116
  C:05CFH         LINE#         117
  C:05D2H         LINE#         118
  C:05D4H         LINE#         119
  C:05D5H         LINE#         120
  C:05D7H         LINE#         121
  -------         ENDPROC       _SENDUART1
  -------         ENDMOD        MAIN

  -------         MODULE        PCF85063BTL
  C:0000H         SYMBOL        _ICE_DUMMY_
  D:0096H         PUBLIC        P2M0
  D:0080H         PUBLIC        P0
  D:0095H         PUBLIC        P2M1
  D:0090H         PUBLIC        P1
  D:00A0H         PUBLIC        P2
  D:00B0H         PUBLIC        P3
  D:00C0H         PUBLIC        P4
  D:00C8H         PUBLIC        P5
  D:00E8H         PUBLIC        P6
  B:00A0H.2       PUBLIC        PCF85063BTL_SDI
  D:00F8H         PUBLIC        P7
BL51 BANKED LINKER/LOCATER V6.22                                                      05/10/2018  16:55:17  PAGE 6


  B:00A0H.1       PUBLIC        PCF85063BTL_SCK
  B:00A0H.2       PUBLIC        PCF85063BTL_SDO
  D:00A8H         PUBLIC        IE
  C:056FH         PUBLIC        _PCF85063BTL_Delay
  D:00B8H         PUBLIC        IP
  D:00D8H         PUBLIC        CCON
  C:04E6H         PUBLIC        SPI_ReceiveByte
  D:0098H         PUBLIC        SCON
  D:0088H         PUBLIC        TCON
  B:00A0H.0       PUBLIC        PCF85063BTL_CS
  C:0591H         PUBLIC        _SPI_ReadTime
  C:05C2H         PUBLIC        SPI_Init
  C:0523H         PUBLIC        _SPI_WriteTime
  C:0003H         PUBLIC        _SPI_SendByte
  D:00D0H         PUBLIC        PSW
  C:056BH         SYMBOL        L?0020
  -------         PROC          L?0019
  -------         ENDPROC       L?0019
  C:056BH         SYMBOL        L?0020
  -------         PROC          _PCF85063BTL_DELAY
  D:0006H         SYMBOL        us
  C:056FH         LINE#         8
  C:056FH         LINE#         9
  C:056FH         LINE#         10
  C:0579H         LINE#         11
  C:0579H         LINE#         12
  C:057AH         LINE#         13
  C:057CH         LINE#         14
  -------         ENDPROC       _PCF85063BTL_DELAY
  -------         PROC          _SPI_SENDBYTE
  D:0005H         SYMBOL        dat
  -------         DO            
  D:0003H         SYMBOL        i
  -------         ENDDO         
  C:0003H         LINE#         17
  C:0005H         LINE#         18
  C:0005H         LINE#         20
  C:0007H         LINE#         21
  C:0007H         LINE#         22
  C:0009H         LINE#         23
  C:000DH         LINE#         24
  C:000DH         LINE#         25
  C:000FH         LINE#         26
  C:0011H         LINE#         28
  C:0011H         LINE#         29
  C:0013H         LINE#         30
  C:0013H         LINE#         31
  C:0016H         LINE#         32
  C:0016H         LINE#         33
  C:0019H         LINE#         34
  C:001DH         LINE#         35
  C:0022H         LINE#         36
  -------         ENDPROC       _SPI_SENDBYTE
  -------         PROC          SPI_RECEIVEBYTE
  -------         DO            
  D:0003H         SYMBOL        i
  D:0005H         SYMBOL        dat
BL51 BANKED LINKER/LOCATER V6.22                                                      05/10/2018  16:55:17  PAGE 7


  -------         ENDDO         
  C:04E6H         LINE#         39
  C:04E6H         LINE#         40
  C:04E6H         LINE#         42
  C:04E8H         LINE#         44
  C:04EAH         LINE#         45
  C:04EBH         LINE#         46
  C:04EBH         LINE#         47
  C:04EFH         LINE#         48
  C:04F1H         LINE#         49
  C:04F4H         LINE#         51
  C:04F7H         LINE#         52
  C:04F7H         LINE#         53
  C:04FBH         LINE#         54
  C:04FBH         LINE#         55
  C:04FBH         LINE#         56
  C:04FEH         LINE#         57
  C:0503H         LINE#         58
  C:0505H         LINE#         59
  -------         ENDPROC       SPI_RECEIVEBYTE
  -------         PROC          _SPI_READTIME
  D:0007H         SYMBOL        addr
  -------         DO            
  D:0006H         SYMBOL        dat
  -------         ENDDO         
  C:0591H         LINE#         61
  C:0591H         LINE#         62
  C:0591H         LINE#         64
  C:0593H         LINE#         65
  C:0595H         LINE#         66
  C:059CH         LINE#         67
  C:059FH         LINE#         68
  C:05A1H         LINE#         69
  C:05A1H         LINE#         70
  -------         ENDPROC       _SPI_READTIME
  -------         PROC          _SPI_WRITETIME
  D:0002H         SYMBOL        val
  D:0005H         SYMBOL        addr
  C:0523H         LINE#         71
  C:0525H         LINE#         72
  C:0525H         LINE#         74
  C:0527H         LINE#         75
  C:052EH         LINE#         76
  C:0533H         LINE#         77
  C:0538H         LINE#         78
  C:053AH         LINE#         79
  -------         ENDPROC       _SPI_WRITETIME
  -------         PROC          SPI_INIT
  C:05C2H         LINE#         83
  C:05C2H         LINE#         84
  C:05C2H         LINE#         89
  C:05C5H         LINE#         90
  C:05C8H         LINE#         91
  C:05CAH         LINE#         92
  C:05CCH         LINE#         93
  C:05CEH         LINE#         94
  -------         ENDPROC       SPI_INIT
BL51 BANKED LINKER/LOCATER V6.22                                                      05/10/2018  16:55:17  PAGE 8


  -------         ENDMOD        PCF85063BTL

  -------         MODULE        UART1
  C:0000H         SYMBOL        _ICE_DUMMY_
  D:0080H         PUBLIC        P0
  D:0090H         PUBLIC        P1
  D:00A0H         PUBLIC        P2
  D:00B0H         PUBLIC        P3
  D:00C0H         PUBLIC        P4
  D:00C8H         PUBLIC        P5
  B:00A8H.7       PUBLIC        EA
  D:00E8H         PUBLIC        P6
  D:00F8H         PUBLIC        P7
  C:044DH         PUBLIC        _SendString
  D:00A8H         PUBLIC        IE
  B:00A8H.4       PUBLIC        ES
  D:00B8H         PUBLIC        IP
  C:0552H         PUBLIC        _ASCIItoBCD
  D:00D8H         PUBLIC        CCON
  C:05A2H         PUBLIC        initUART1
  D:0098H         PUBLIC        SCON
  D:0088H         PUBLIC        TCON
  C:05E8H         PUBLIC        _DectoBCD
  C:05E3H         PUBLIC        _ASCII_Letter
  D:008EH         PUBLIC        AUXR
  C:05DEH         PUBLIC        _unit
  C:05D8H         PUBLIC        _ten
  D:00D6H         PUBLIC        T2H
  D:00D7H         PUBLIC        T2L
  C:0226H         PUBLIC        Display_time
  D:00D0H         PUBLIC        PSW
  -------         PROC          INITUART1
  C:05A2H         LINE#         21
  C:05A2H         LINE#         22
  C:05A2H         LINE#         23
  C:05A5H         LINE#         24
  C:05A8H         LINE#         25
  C:05ABH         LINE#         26
  C:05AEH         LINE#         27
  C:05B0H         LINE#         28
  C:05B2H         LINE#         30
  -------         ENDPROC       INITUART1
  -------         PROC          _SENDSTRING
  X:001EH         SYMBOL        s
  C:044DH         LINE#         35
  C:0458H         LINE#         36
  C:0458H         LINE#         37
  C:0468H         LINE#         38
  C:0468H         LINE#         39
  C:047DH         LINE#         40
  C:047FH         LINE#         41
  -------         ENDPROC       _SENDSTRING
  -------         PROC          _TEN
  D:0007H         SYMBOL        BCD
  C:05D8H         LINE#         43
  C:05D8H         LINE#         44
  C:05D8H         LINE#         45
BL51 BANKED LINKER/LOCATER V6.22                                                      05/10/2018  16:55:17  PAGE 9


  C:05DDH         LINE#         46
  -------         ENDPROC       _TEN
  -------         PROC          _UNIT
  D:0007H         SYMBOL        BCD
  C:05DEH         LINE#         47
  C:05DEH         LINE#         48
  C:05DEH         LINE#         52
  C:05E2H         LINE#         53
  -------         ENDPROC       _UNIT
  -------         PROC          _DECTOBCD
  D:0007H         SYMBOL        dec
  C:05E8H         LINE#         54
  C:05E8H         LINE#         55
  C:05E8H         LINE#         57
  C:05E8H         LINE#         58
  -------         ENDPROC       _DECTOBCD
  -------         PROC          _ASCII_LETTER
  D:0007H         SYMBOL        dat
  C:05E3H         LINE#         60
  C:05E3H         LINE#         61
  C:05E3H         LINE#         63
  C:05E7H         LINE#         64
  -------         ENDPROC       _ASCII_LETTER
  -------         PROC          _ASCIITOBCD
  D:0001H         SYMBOL        ascii
  -------         DO            
  D:0007H         SYMBOL        dec_val
  D:0006H         SYMBOL        ten
  D:0007H         SYMBOL        unit
  -------         ENDDO         
  C:0552H         LINE#         66
  C:0552H         LINE#         67
  C:0552H         LINE#         69
  C:0555H         LINE#         70
  C:055BH         LINE#         71
  C:0562H         LINE#         72
  C:0568H         LINE#         74
  -------         ENDPROC       _ASCIITOBCD
  -------         PROC          DISPLAY_TIME
  -------         DO            
  X:000FH         SYMBOL        seconds
  X:0010H         SYMBOL        mins
  X:0011H         SYMBOL        hours
  -------         ENDDO         
  C:0226H         LINE#         75
  C:0226H         LINE#         76
  C:0226H         LINE#         79
  C:0230H         LINE#         80
  C:023AH         LINE#         81
  C:0249H         LINE#         82
  C:024EH         LINE#         84
  C:0258H         LINE#         85
  C:0262H         LINE#         86
  C:0271H         LINE#         87
  C:0276H         LINE#         89
  C:0280H         LINE#         90
  C:0282H         LINE#         91
BL51 BANKED LINKER/LOCATER V6.22                                                      05/10/2018  16:55:17  PAGE 10


  C:0290H         LINE#         92
  C:02A1H         LINE#         93
  -------         ENDPROC       DISPLAY_TIME
  -------         ENDMOD        UART1

  -------         MODULE        LCD_DRIVER_SPLC780D
  C:0000H         SYMBOL        _ICE_DUMMY_
  D:0080H         PUBLIC        P0
  D:0090H         PUBLIC        P1
  D:00A0H         PUBLIC        P2
  D:00B0H         PUBLIC        P3
  D:00C0H         PUBLIC        P4
  D:00C8H         PUBLIC        P5
  D:00E8H         PUBLIC        P6
  D:00F8H         PUBLIC        P7
  C:0392H         PUBLIC        _WriteData
  D:00A8H         PUBLIC        IE
  D:00B8H         PUBLIC        IP
  D:00D8H         PUBLIC        CCON
  B:0090H.4       PUBLIC        LCD_D4
  B:0090H.5       PUBLIC        LCD_D5
  B:0090H.6       PUBLIC        LCD_D6
  C:0506H         PUBLIC        _DisplayLCD
  B:0090H.7       PUBLIC        LCD_D7
  D:0098H         PUBLIC        SCON
  D:0088H         PUBLIC        TCON
  C:04A2H         PUBLIC        _Command
  C:02A6H         PUBLIC        LCD_Init
  C:04C8H         PUBLIC        _Wait_ms
  B:0090H.1       PUBLIC        LCD_RS
  B:0090H.2       PUBLIC        LCD_RW
  B:0090H.3       PUBLIC        LCD_E
  D:00D0H         PUBLIC        PSW
  -------         PROC          LCD_INIT
  C:02A6H         LINE#         9
  C:02A6H         LINE#         10
  C:02A6H         LINE#         12
  C:02ADH         LINE#         13
  C:02B2H         LINE#         15
  C:02B9H         LINE#         16
  C:02BEH         LINE#         18
  C:02C5H         LINE#         19
  C:02CAH         LINE#         21
  C:02D1H         LINE#         22
  C:02D6H         LINE#         24
  C:02DDH         LINE#         25
  C:02E2H         LINE#         27
  C:02E9H         LINE#         28
  C:02EEH         LINE#         30
  C:02F1H         LINE#         31
  C:02F6H         LINE#         33
  C:02F9H         LINE#         34
  C:02FEH         LINE#         36
  C:0301H         LINE#         37
  C:0306H         LINE#         39
  C:0309H         LINE#         40
  C:030EH         LINE#         42
BL51 BANKED LINKER/LOCATER V6.22                                                      05/10/2018  16:55:17  PAGE 11


  C:0311H         LINE#         44
  C:0316H         LINE#         46
  C:0319H         LINE#         47
  C:031EH         LINE#         48
  -------         ENDPROC       LCD_INIT
  -------         PROC          _WRITEDATA
  X:000FH         SYMBOL        dat
  C:0392H         LINE#         51
  C:0397H         LINE#         52
  C:0397H         LINE#         53
  C:0399H         LINE#         54
  C:039BH         LINE#         55
  C:039DH         LINE#         56
  C:03A4H         LINE#         57
  C:03A6H         LINE#         59
  C:03B7H         LINE#         60
  C:03C3H         LINE#         61
  C:03CFH         LINE#         62
  C:03D9H         LINE#         63
  C:03E0H         LINE#         68
  C:03E2H         LINE#         69
  C:03E4H         LINE#         70
  C:03E6H         LINE#         71
  C:03E8H         LINE#         72
  C:03EAH         LINE#         73
  C:03F1H         LINE#         74
  C:03F3H         LINE#         75
  C:03F5H         LINE#         76
  -------         ENDPROC       _WRITEDATA
  -------         PROC          _COMMAND
  X:000FH         SYMBOL        dat
  C:04A2H         LINE#         78
  C:04A7H         LINE#         79
  C:04A7H         LINE#         80
  C:04A9H         LINE#         81
  C:04ABH         LINE#         82
  C:04ADH         LINE#         83
  C:04B4H         LINE#         84
  C:04B6H         LINE#         86
  C:04BDH         LINE#         87
  C:04BFH         LINE#         88
  C:04C1H         LINE#         89
  C:04C3H         LINE#         93
  -------         ENDPROC       _COMMAND
  C:04C4H         SYMBOL        L?0014
  -------         PROC          L?0013
  -------         ENDPROC       L?0013
  C:04C4H         SYMBOL        L?0014
  -------         PROC          _WAIT_MS
  D:0006H         SYMBOL        ms
  -------         DO            
  D:0004H         SYMBOL        De_Cnt
  -------         ENDDO         
  C:04C8H         LINE#         95
  C:04C8H         LINE#         96
  C:04C8H         LINE#         98
  C:04D2H         LINE#         99
BL51 BANKED LINKER/LOCATER V6.22                                                      05/10/2018  16:55:17  PAGE 12


  C:04D2H         LINE#         100
  C:04E5H         LINE#         101
  C:04E5H         LINE#         102
  -------         ENDPROC       _WAIT_MS
  -------         PROC          _DISPLAYLCD
  D:0007H         SYMBOL        BCD
  -------         DO            
  D:0006H         SYMBOL        first_digit
  X:0021H         SYMBOL        second_digit
  -------         ENDDO         
  C:0506H         LINE#         103
  C:0506H         LINE#         104
  C:0506H         LINE#         106
  C:050DH         LINE#         107
  C:0516H         LINE#         109
  C:051BH         LINE#         111
  -------         ENDPROC       _DISPLAYLCD
  -------         ENDMOD        LCD_DRIVER_SPLC780D

  -------         MODULE        ?C_STARTUP
  C:019AH         SEGMENT       ?C_C51STARTUP
  I:0021H         SEGMENT       ?STACK
  C:0000H         PUBLIC        ?C_STARTUP
  D:00E0H         SYMBOL        ACC
  D:00F0H         SYMBOL        B
  D:0083H         SYMBOL        DPH
  D:0082H         SYMBOL        DPL
  N:0000H         SYMBOL        IBPSTACK
  N:0100H         SYMBOL        IBPSTACKTOP
  N:0080H         SYMBOL        IDATALEN
  C:019DH         SYMBOL        IDATALOOP
  N:0000H         SYMBOL        PBPSTACK
  N:0100H         SYMBOL        PBPSTACKTOP
  N:0000H         SYMBOL        PDATALEN
  N:0000H         SYMBOL        PDATASTART
  N:0000H         SYMBOL        PPAGE
  N:0000H         SYMBOL        PPAGEENABLE
  D:00A0H         SYMBOL        PPAGE_SFR
  D:0081H         SYMBOL        SP
  C:019AH         SYMBOL        STARTUP1
  N:0000H         SYMBOL        XBPSTACK
  N:0000H         SYMBOL        XBPSTACKTOP
  N:0000H         SYMBOL        XDATALEN
  N:0000H         SYMBOL        XDATASTART
  C:0000H         LINE#         126
  C:019AH         LINE#         133
  C:019CH         LINE#         134
  C:019DH         LINE#         135
  C:019EH         LINE#         136
  C:01A0H         LINE#         185
  C:01A3H         LINE#         196
  -------         ENDMOD        ?C_STARTUP

  -------         MODULE        ?C?CLDPTR
  C:03F6H         PUBLIC        ?C?CLDPTR
  -------         ENDMOD        ?C?CLDPTR

BL51 BANKED LINKER/LOCATER V6.22                                                      05/10/2018  16:55:17  PAGE 13


  -------         MODULE        ?C?ILDIX
  C:040FH         PUBLIC        ?C?ILDIX
  -------         ENDMOD        ?C?ILDIX

  -------         MODULE        ATOI
  C:0026H         PUBLIC        _atoi
  -------         ENDMOD        ATOI

  -------         MODULE        ?C?IMUL
  C:0425H         PUBLIC        ?C?IMUL
  -------         ENDMOD        ?C?IMUL

  -------         MODULE        ?C?IILDX
  C:0437H         PUBLIC        ?C?IILDX
  -------         ENDMOD        ?C?IILDX

  -------         MODULE        ISDIGIT
  C:05B3H         PUBLIC        _isdigit
  -------         ENDMOD        ISDIGIT

  -------         MODULE        ISSPACE
  C:057DH         PUBLIC        _isspace
  -------         ENDMOD        ISSPACE

*** WARNING L16: UNCALLED SEGMENT, IGNORED FOR OVERLAY PROCESS
    SEGMENT: ?PR?_SENDSTRING?UART1

*** WARNING L16: UNCALLED SEGMENT, IGNORED FOR OVERLAY PROCESS
    SEGMENT: ?PR?_DECTOBCD?UART1

*** WARNING L16: UNCALLED SEGMENT, IGNORED FOR OVERLAY PROCESS
    SEGMENT: ?PR?_ASCII_LETTER?UART1

*** WARNING L16: UNCALLED SEGMENT, IGNORED FOR OVERLAY PROCESS
    SEGMENT: ?PR?_DISPLAYLCD?LCD_DRIVER_SPLC780D

Program Size: data=17.2 xdata=34 code=1513
LINK/LOCATE RUN COMPLETE.  4 WARNING(S),  0 ERROR(S)
