BL51 BANKED LINKER/LOCATER V6.22                                                        08/14/2018  11:19:33  PAGE 1


BL51 BANKED LINKER/LOCATER V6.22, INVOKED BY:
C:\KEIL_V5\C51\BIN\BL51.EXE .\Obj\main.obj, .\Obj\PCF85063BTL.obj, .\Obj\UART1.obj, .\Obj\LCd_Driver_SPLC780D.obj, .\Obj
>> \KeyPad.obj, .\Obj\VCNL4035.obj, .\Obj\BipolarMotor.obj, .\Obj\STARTUP.obj TO .\Obj\GPIO_RTC_Test PRINT (.\Lis\GPIO_R
>> TC_Test.m51) RAMSIZE (256)


MEMORY MODEL: LARGE WITH FLOATING POINT ARITHMETIC


INPUT MODULES INCLUDED:
  .\Obj\main.obj (MAIN)
  .\Obj\PCF85063BTL.obj (PCF85063BTL)
  .\Obj\UART1.obj (UART1)
  .\Obj\LCd_Driver_SPLC780D.obj (LCD_DRIVER_SPLC780D)
  .\Obj\KeyPad.obj (KEYPAD)
  .\Obj\VCNL4035.obj (VCNL4035)
  .\Obj\BipolarMotor.obj (BIPOLARMOTOR)
  .\Obj\STARTUP.obj (?C_STARTUP)
  C:\KEIL_V5\C51\LIB\C51FPL.LIB (?C?FPADD)
  C:\KEIL_V5\C51\LIB\C51FPL.LIB (?C?FPMUL)
  C:\KEIL_V5\C51\LIB\C51FPL.LIB (?C?FPDIV)
  C:\KEIL_V5\C51\LIB\C51FPL.LIB (?C?FPCMP)
  C:\KEIL_V5\C51\LIB\C51FPL.LIB (?C?FPNEG)
  C:\KEIL_V5\C51\LIB\C51FPL.LIB (?C?FCAST)
  C:\KEIL_V5\C51\LIB\C51FPL.LIB (?C?CASTF)
  C:\KEIL_V5\C51\LIB\C51FPL.LIB (POW)
  C:\KEIL_V5\C51\LIB\C51FPL.LIB (?C?FPGETOPN)
  C:\KEIL_V5\C51\LIB\C51FPL.LIB (?C?CHKFLOAT)
  C:\KEIL_V5\C51\LIB\C51FPL.LIB (EXP)
  C:\KEIL_V5\C51\LIB\C51FPL.LIB (LOG)
  C:\KEIL_V5\C51\LIB\C51FPL.LIB (?C?FPSERIES)
  C:\KEIL_V5\C51\LIB\C51L.LIB (?C_INIT)
  C:\KEIL_V5\C51\LIB\C51L.LIB (?C?CLDPTR)
  C:\KEIL_V5\C51\LIB\C51L.LIB (?C?CSTPTR)
  C:\KEIL_V5\C51\LIB\C51L.LIB (?C?IMUL)
  C:\KEIL_V5\C51\LIB\C51L.LIB (?C?UIDIV)
  C:\KEIL_V5\C51\LIB\C51L.LIB (?C?SIDIV)
  C:\KEIL_V5\C51\LIB\C51L.LIB (?C?ILDIX)
  C:\KEIL_V5\C51\LIB\C51L.LIB (?C?LNEG)
  C:\KEIL_V5\C51\LIB\C51L.LIB (?C?LLDPTR)
  C:\KEIL_V5\C51\LIB\C51L.LIB (?C?LSTPTR)
  C:\KEIL_V5\C51\LIB\C51L.LIB (?C?LLDCODE)
  C:\KEIL_V5\C51\LIB\C51L.LIB (?C?LLDXDATA0)
  C:\KEIL_V5\C51\LIB\C51L.LIB (?C?LLDCODE0)
  C:\KEIL_V5\C51\LIB\C51L.LIB (?C?LLDPTR0)
  C:\KEIL_V5\C51\LIB\C51L.LIB (?C?LSTXDATA)
  C:\KEIL_V5\C51\LIB\C51L.LIB (?C?LSTKXDATA)
  C:\KEIL_V5\C51\LIB\C51L.LIB (?C?OFFXADD)
  C:\KEIL_V5\C51\LIB\C51L.LIB (ABS)
  C:\KEIL_V5\C51\LIB\C51L.LIB (ATOI)
  C:\KEIL_V5\C51\LIB\C51L.LIB (?C?IILDX)
  C:\KEIL_V5\C51\LIB\C51L.LIB (?C?LLDIDATA)
  C:\KEIL_V5\C51\LIB\C51L.LIB (?C?LLDXDATA)
  C:\KEIL_V5\C51\LIB\C51L.LIB (?C?LLDPDATA)
  C:\KEIL_V5\C51\LIB\C51L.LIB (?C?LLDIDATA0)
  C:\KEIL_V5\C51\LIB\C51L.LIB (?C?LLDPDATA0)
  C:\KEIL_V5\C51\LIB\C51L.LIB (?C?LSTIDATA)
  C:\KEIL_V5\C51\LIB\C51L.LIB (?C?LSTPDATA)
BL51 BANKED LINKER/LOCATER V6.22                                                      08/14/2018  11:19:33  PAGE 2


  C:\KEIL_V5\C51\LIB\C51L.LIB (ISDIGIT)
  C:\KEIL_V5\C51\LIB\C51L.LIB (ISSPACE)


LINK MAP OF MODULE:  .\Obj\GPIO_RTC_Test (MAIN)


            TYPE    BASE      LENGTH    RELOCATION   SEGMENT NAME
            -----------------------------------------------------

            * * * * * * *   D A T A   M E M O R Y   * * * * * * *
            REG     0000H     0008H     ABSOLUTE     "REG BANK 0"
            REG     0008H     0008H     ABSOLUTE     "REG BANK 1"
                    0010H     0010H                  *** GAP ***
            BIT     0020H.0   0000H.3   UNIT         ?BI?KEYPAD
            BIT     0020H.3   0000H.3   UNIT         _BIT_GROUP_
            BIT     0020H.6   0000H.1   UNIT         ?BI?MAIN
                    0020H.7   0000H.1                *** GAP ***
            IDATA   0021H     0001H     UNIT         ?STACK

            * * * * * * *  X D A T A   M E M O R Y  * * * * * * *
            XDATA   0000H     007CH     UNIT         ?XD?BIPOLARMOTOR
            XDATA   007CH     004AH     UNIT         _XDATA_GROUP_
            XDATA   00C6H     001CH     UNIT         ?XD?MAIN
            XDATA   00E2H     0009H     UNIT         ?XD?KEYPAD
            XDATA   00EBH     0008H     UNIT         ?XD?_READ_VCNL4035?VCNL4035
            XDATA   00F3H     0004H     UNIT         ?XD?_DISPLAY_PROX?MAIN
            XDATA   00F7H     0003H     UNIT         ?XD?_SENDSTRING?UART1
            XDATA   00FAH     0001H     UNIT         ?XD?UC_ACK?VCNL4035
            XDATA   00FBH     0001H     UNIT         ?XD?UC_NACK?VCNL4035
            XDATA   00FCH     0001H     UNIT         ?XD?_DISPLAYLCD_VCNL4035?VCNL4035

            * * * * * * *   C O D E   M E M O R Y   * * * * * * *
            CODE    0000H     0003H     ABSOLUTE     
            CODE    0003H     0007H     UNIT         ?PR?KEYPAD_IO_INIT?KEYPAD
            CODE    000AH     0001H     UNIT         ?PR?TM0_ISR?MAIN
            CODE    000BH     0003H     ABSOLUTE     
            CODE    000EH     0015H     UNIT         ?PR?_DISPLAY_LINE?LCD_DRIVER_SPLC780D
            CODE    0023H     0003H     ABSOLUTE     
            CODE    0026H     0675H     UNIT         ?C?LIB_CODE
            CODE    069BH     0293H     UNIT         ?PR?MAIN?MAIN
            CODE    092EH     028DH     UNIT         ?PR?KEY_PROCESS?KEYPAD
            CODE    0BBBH     022FH     UNIT         ?PR?_UPDATE_POSITION?BIPOLARMOTOR
            CODE    0DEAH     01F5H     UNIT         ?PR?_TREND_LINE_30_31?BIPOLARMOTOR
            CODE    0FDFH     01B5H     UNIT         ?PR?_DISPLAY_POS?MAIN
            CODE    1194H     0194H     UNIT         ?PR?KEY_SCAN?KEYPAD
            CODE    1328H     0166H     UNIT         ?PR?_POW?POW
            CODE    148EH     0129H     UNIT         ?PR?LOG?LOG
            CODE    15B7H     00DBH     UNIT         ?PR?_ATOI?ATOI
            CODE    1692H     00C5H     UNIT         ?C_INITSEG
            CODE    1757H     009BH     UNIT         ?PR?UART?MAIN
            CODE    17F2H     009AH     UNIT         ?PR?_READ_VCNL4035?VCNL4035
            CODE    188CH     009AH     UNIT         ?PR?EXP?EXP
            CODE    1926H     0095H     UNIT         ?PR?_DISPLAY_PROX?MAIN
            CODE    19BBH     008CH     UNIT         ?C_C51STARTUP
            CODE    1A47H     0084H     UNIT         ?PR?_DAY_OF_YEAR?PCF85063BTL
            CODE    1ACBH     0075H     UNIT         ?PR?_WRITEDATA?LCD_DRIVER_SPLC780D
BL51 BANKED LINKER/LOCATER V6.22                                                      08/14/2018  11:19:33  PAGE 3


            CODE    1B40H     006FH     UNIT         ?PR?_READ_TIME?PCF85063BTL
            CODE    1BAFH     0059H     UNIT         ?PR?_STEP_MOVE?BIPOLARMOTOR
            CODE    1C08H     0054H     UNIT         ?PR?LCD_INIT?LCD_DRIVER_SPLC780D
            CODE    1C5CH     0049H     UNIT         ?PR?_WRITE_VCNL4035X?VCNL4035
            CODE    1CA5H     0040H     UNIT         ?PR?_COMMAND?LCD_DRIVER_SPLC780D
            CODE    1CE5H     0034H     UNIT         ?PR?_MOVE?BIPOLARMOTOR
            CODE    1D19H     0033H     UNIT         ?PR?_SENDSTRING?UART1
            CODE    1D4CH     002CH     UNIT         ?PR?I2C_RECEIVEBYTE?VCNL4035
            CODE    1D78H     002BH     UNIT         ?PR?_WAIT_MS_I2C?VCNL4035
            CODE    1DA3H     0024H     UNIT         ?PR?_WAIT_MS?LCD_DRIVER_SPLC780D
            CODE    1DC7H     0024H     UNIT         ?PR?_BCDTODEC1?BIPOLARMOTOR
            CODE    1DEBH     0022H     UNIT         ?PR?_I2C_SENDBYTE?VCNL4035
            CODE    1E0DH     0020H     UNIT         ?PR?_SPI_SENDBYTE?PCF85063BTL
            CODE    1E2DH     0020H     UNIT         ?PR?SPI_RECEIVEBYTE?PCF85063BTL
            CODE    1E4DH     001EH     UNIT         ?PR?_DELAY_MS?KEYPAD
            CODE    1E6BH     001EH     UNIT         ?PR?_WAIT_MS_IIC?VCNL4035
            CODE    1E89H     001DH     UNIT         ?PR?_DISPLAYLCD?LCD_DRIVER_SPLC780D
            CODE    1EA6H     001BH     UNIT         ?PR?I2C_ACK?VCNL4035
            CODE    1EC1H     0018H     UNIT         ?PR?_SPI_WRITETIME?PCF85063BTL
            CODE    1ED9H     0017H     UNIT         ?PR?_ASCIITOBCD?UART1
            CODE    1EF0H     0017H     UNIT         ?PR?I2C_INIT?VCNL4035
            CODE    1F07H     0015H     UNIT         ?PR?I2C_STOP?VCNL4035
            CODE    1F1CH     0014H     UNIT         ?PR?_PCF85063BTL_DELAY?PCF85063BTL
            CODE    1F30H     0014H     UNIT         ?PR?_ISSPACE?ISSPACE
            CODE    1F44H     0013H     UNIT         ?PR?I2C_START?VCNL4035
            CODE    1F57H     0011H     UNIT         ?PR?_SPI_READTIME?PCF85063BTL
            CODE    1F68H     0011H     UNIT         ?PR?_BCDTODEC?PCF85063BTL
            CODE    1F79H     0011H     UNIT         ?PR?INITUART1?UART1
            CODE    1F8AH     000FH     UNIT         ?PR?UC_NACK?VCNL4035
            CODE    1F99H     000FH     UNIT         ?PR?_ISDIGIT?ISDIGIT
            CODE    1FA8H     000DH     UNIT         ?PR?SPI_INIT?PCF85063BTL
            CODE    1FB5H     000CH     UNIT         ?PR?_ABS?ABS
            CODE    1FC1H     000AH     UNIT         ?PR?LCD_RETURN_HOME?LCD_DRIVER_SPLC780D
            CODE    1FCBH     000AH     UNIT         ?PR?LCD_CLEAR?LCD_DRIVER_SPLC780D
            CODE    1FD5H     0009H     UNIT         ?PR?_SENDUART1?MAIN
            CODE    1FDEH     0006H     UNIT         ?PR?_TEN?UART1
            CODE    1FE4H     0006H     UNIT         ?PR?UC_ACK?VCNL4035
            CODE    1FEAH     0006H     UNIT         ?PR?_DISPLAYLCD_VCNL4035?VCNL4035
            CODE    1FF0H     0005H     UNIT         ?PR?_UNIT?UART1
            CODE    1FF5H     0005H     UNIT         ?PR?_ASCII_LETTER?UART1
            CODE    1FFAH     0001H     UNIT         ?PR?_DECTOBCD?UART1
            CODE    1FFBH     0001H     UNIT         ?PR?NOP?VCNL4035



OVERLAY MAP OF MODULE:   .\Obj\GPIO_RTC_Test (MAIN)


SEGMENT                                            BIT_GROUP          XDATA_GROUP
  +--> CALLED SEGMENT                           START    LENGTH     START    LENGTH
-----------------------------------------------------------------------------------
?PR?UART?MAIN                                   -----    -----      -----    -----
  +--> ?PR?_ASCIITOBCD?UART1

?PR?_ASCIITOBCD?UART1                           -----    -----      -----    -----
  +--> ?PR?_ATOI?ATOI

BL51 BANKED LINKER/LOCATER V6.22                                                      08/14/2018  11:19:33  PAGE 4


?PR?_ATOI?ATOI                                  0020H.3  0000H.1    007CH    0005H
  +--> ?PR?_ISSPACE?ISSPACE
  +--> ?PR?_ISDIGIT?ISDIGIT

*** NEW ROOT ***************************************************

?C_C51STARTUP                                   -----    -----      -----    -----
  +--> ?PR?MAIN?MAIN
  +--> ?C_INITSEG

?PR?MAIN?MAIN                                   -----    -----      0081H    0017H
  +--> ?PR?LCD_INIT?LCD_DRIVER_SPLC780D
  +--> ?PR?SPI_INIT?PCF85063BTL
  +--> ?PR?KEYPAD_IO_INIT?KEYPAD
  +--> ?PR?INITUART1?UART1
  +--> ?PR?I2C_INIT?VCNL4035
  +--> ?PR?_SPI_WRITETIME?PCF85063BTL
  +--> ?PR?_DELAY_MS?KEYPAD
  +--> ?PR?_DISPLAY_LINE?LCD_DRIVER_SPLC780D
  +--> ?PR?_WRITEDATA?LCD_DRIVER_SPLC780D
  +--> ?PR?KEY_PROCESS?KEYPAD
  +--> ?PR?_COMMAND?LCD_DRIVER_SPLC780D
  +--> ?PR?_DISPLAY_POS?MAIN
  +--> ?PR?_DISPLAYLCD?LCD_DRIVER_SPLC780D
  +--> ?PR?_STEP_MOVE?BIPOLARMOTOR
  +--> ?PR?LCD_RETURN_HOME?LCD_DRIVER_SPLC780D
  +--> ?PR?_READ_TIME?PCF85063BTL
  +--> ?PR?_UPDATE_POSITION?BIPOLARMOTOR
  +--> ?PR?_SENDUART1?MAIN

?PR?LCD_INIT?LCD_DRIVER_SPLC780D                -----    -----      -----    -----
  +--> ?PR?_WAIT_MS?LCD_DRIVER_SPLC780D
  +--> ?PR?_COMMAND?LCD_DRIVER_SPLC780D

?PR?_COMMAND?LCD_DRIVER_SPLC780D                -----    -----      -----    -----
  +--> ?PR?_WAIT_MS?LCD_DRIVER_SPLC780D

?PR?I2C_INIT?VCNL4035                           -----    -----      -----    -----
  +--> ?PR?_WRITE_VCNL4035X?VCNL4035

?PR?_WRITE_VCNL4035X?VCNL4035                   -----    -----      0098H    0003H
  +--> ?PR?I2C_START?VCNL4035
  +--> ?PR?_WAIT_MS_I2C?VCNL4035
  +--> ?PR?I2C_ACK?VCNL4035
  +--> ?PR?_I2C_SENDBYTE?VCNL4035
  +--> ?PR?I2C_STOP?VCNL4035

?PR?I2C_START?VCNL4035                          -----    -----      -----    -----
  +--> ?PR?_WAIT_MS_IIC?VCNL4035
  +--> ?PR?_WAIT_MS_I2C?VCNL4035

?PR?I2C_ACK?VCNL4035                            -----    -----      009BH    0001H
  +--> ?PR?_I2C_SENDBYTE?VCNL4035
  +--> ?PR?_WAIT_MS_I2C?VCNL4035

?PR?_I2C_SENDBYTE?VCNL4035                      -----    -----      -----    -----
  +--> ?PR?_WAIT_MS_I2C?VCNL4035
BL51 BANKED LINKER/LOCATER V6.22                                                      08/14/2018  11:19:33  PAGE 5



?PR?I2C_STOP?VCNL4035                           -----    -----      -----    -----
  +--> ?PR?_WAIT_MS_I2C?VCNL4035

?PR?_SPI_WRITETIME?PCF85063BTL                  -----    -----      -----    -----
  +--> ?PR?_SPI_SENDBYTE?PCF85063BTL

?PR?_SPI_SENDBYTE?PCF85063BTL                   -----    -----      -----    -----
  +--> ?PR?_PCF85063BTL_DELAY?PCF85063BTL

?PR?_DISPLAY_LINE?LCD_DRIVER_SPLC780D           -----    -----      -----    -----
  +--> ?PR?_COMMAND?LCD_DRIVER_SPLC780D

?PR?_WRITEDATA?LCD_DRIVER_SPLC780D              -----    -----      00A2H    0001H
  +--> ?PR?_WAIT_MS?LCD_DRIVER_SPLC780D

?PR?KEY_PROCESS?KEYPAD                          -----    -----      0098H    0006H
  +--> ?PR?KEY_SCAN?KEYPAD
  +--> ?PR?_SPI_WRITETIME?PCF85063BTL
  +--> ?PR?LCD_CLEAR?LCD_DRIVER_SPLC780D
  +--> ?PR?_COMMAND?LCD_DRIVER_SPLC780D
  +--> ?PR?_WRITEDATA?LCD_DRIVER_SPLC780D

?PR?KEY_SCAN?KEYPAD                             -----    -----      009EH    0003H
  +--> ?PR?_DELAY_MS?KEYPAD

?PR?LCD_CLEAR?LCD_DRIVER_SPLC780D               -----    -----      -----    -----
  +--> ?PR?_COMMAND?LCD_DRIVER_SPLC780D

?PR?_DISPLAY_POS?MAIN                           -----    -----      0098H    000AH
  +--> ?PR?_ABS?ABS
  +--> ?PR?_WRITEDATA?LCD_DRIVER_SPLC780D

?PR?_DISPLAYLCD?LCD_DRIVER_SPLC780D             -----    -----      0098H    0001H
  +--> ?PR?_WRITEDATA?LCD_DRIVER_SPLC780D

?PR?_STEP_MOVE?BIPOLARMOTOR                     0020H.5  0000H.1    00B4H    0004H
  +--> ?PR?_WAIT_MS?LCD_DRIVER_SPLC780D

?PR?LCD_RETURN_HOME?LCD_DRIVER_SPLC780D         -----    -----      -----    -----
  +--> ?PR?_COMMAND?LCD_DRIVER_SPLC780D

?PR?_READ_TIME?PCF85063BTL                      -----    -----      0098H    000FH
  +--> ?PR?_SPI_READTIME?PCF85063BTL

?PR?_SPI_READTIME?PCF85063BTL                   -----    -----      -----    -----
  +--> ?PR?_SPI_SENDBYTE?PCF85063BTL
  +--> ?PR?SPI_RECEIVEBYTE?PCF85063BTL

?PR?SPI_RECEIVEBYTE?PCF85063BTL                 -----    -----      -----    -----
  +--> ?PR?_PCF85063BTL_DELAY?PCF85063BTL

?PR?_UPDATE_POSITION?BIPOLARMOTOR               -----    -----      0098H    0018H
  +--> ?PR?_DAY_OF_YEAR?PCF85063BTL
  +--> ?PR?_BCDTODEC1?BIPOLARMOTOR
  +--> ?PR?_TREND_LINE_30_31?BIPOLARMOTOR
  +--> ?PR?_MOVE?BIPOLARMOTOR
BL51 BANKED LINKER/LOCATER V6.22                                                      08/14/2018  11:19:33  PAGE 6



?PR?_DAY_OF_YEAR?PCF85063BTL                    -----    -----      -----    -----
  +--> ?PR?_BCDTODEC?PCF85063BTL

?PR?_TREND_LINE_30_31?BIPOLARMOTOR              -----    -----      00B0H    0008H
  +--> ?PR?_POW?POW

?PR?_POW?POW                                    -----    -----      00B8H    000AH
  +--> ?PR?LOG?LOG
  +--> ?PR?EXP?EXP

?PR?LOG?LOG                                     0020H.4  0000H.1    00C2H    0004H

?PR?_MOVE?BIPOLARMOTOR                          0020H.4  0000H.1    00B0H    0004H
  +--> ?PR?_STEP_MOVE?BIPOLARMOTOR



UNRESOLVED EXTERNAL SYMBOLS:
   AUTO_MODE



SYMBOL TABLE OF MODULE:  .\Obj\GPIO_RTC_Test (MAIN)

  VALUE           TYPE          NAME
  ----------------------------------

  -------         MODULE        MAIN
  C:0000H         SYMBOL        _ICE_DUMMY_
  D:0080H         PUBLIC        P0
  D:0090H         PUBLIC        P1
  D:00A0H         PUBLIC        P2
  D:00B0H         PUBLIC        P3
  D:00C0H         PUBLIC        P4
  D:00C8H         PUBLIC        P5
  X:00CEH         SYMBOL        PressedKey
  B:00A8H.7       PUBLIC        EA
  D:00E8H         PUBLIC        P6
  D:00F8H         PUBLIC        P7
  X:00D2H         PUBLIC        RX_Data_Uart_Cnt
  D:00A8H         PUBLIC        IE
  D:00B8H         PUBLIC        IP
  B:0098H.0       PUBLIC        RI
  B:0098H.1       PUBLIC        TI
  C:1757H         PUBLIC        Uart
  D:00D8H         PUBLIC        CCON
  C:069BH         PUBLIC        main
  D:0099H         PUBLIC        SBUF
  D:0098H         PUBLIC        SCON
  D:0089H         PUBLIC        TMOD
  D:0088H         PUBLIC        TCON
  B:00B0H.3       PUBLIC        P33
  X:00D4H         SYMBOL        KeyCount
  X:00D6H         PUBLIC        Rec_data_hour
  X:00D9H         PUBLIC        Rec_data_min
  D:008EH         PUBLIC        AUXR
BL51 BANKED LINKER/LOCATER V6.22                                                      08/14/2018  11:19:33  PAGE 7


  C:000AH         PUBLIC        tm0_isr
  B:0020H.6       PUBLIC        busy
  D:00E0H         PUBLIC        ACC
  B:00A8H.1       PUBLIC        ET0
  D:008CH         PUBLIC        TH0
  X:00DCH         PUBLIC        hour_count
  D:008AH         PUBLIC        TL0
  X:00DDH         PUBLIC        min_count
  B:0088H.4       PUBLIC        TR0
  X:00DEH         SYMBOL        KeyNum
  X:00DFH         SYMBOL        KeyNum_Old
  C:1926H         PUBLIC        _Display_Prox
  C:0FDFH         PUBLIC        _Display_Pos
  X:00E0H         PUBLIC        st_time
  D:00D0H         PUBLIC        PSW
  C:1FD5H         PUBLIC        _SendUART1
  -------         PROC          TM0_ISR
  C:000AH         LINE#         53
  C:000AH         LINE#         56
  -------         ENDPROC       TM0_ISR
  -------         PROC          MAIN
  -------         DO            
  X:0081H         SYMBOL        seconds
  X:0082H         SYMBOL        mins
  X:0083H         SYMBOL        hours
  X:0084H         SYMBOL        days
  X:0085H         SYMBOL        months
  X:0086H         SYMBOL        mins1
  X:0087H         SYMBOL        hours1
  X:0088H         SYMBOL        mins2
  X:0089H         SYMBOL        hours2
  X:008AH         SYMBOL        prox_data
  X:00C6H         SYMBOL        KeyCount
  X:00C8H         SYMBOL        KeyNum_Old
  X:00C9H         SYMBOL        KeyNum
  X:00CAH         SYMBOL        PressedKey
  X:008CH         SYMBOL        prox_flag
  X:008DH         SYMBOL        count
  X:008FH         SYMBOL        numStr
  X:0094H         SYMBOL        current_position
  -------         ENDDO         
  C:069BH         LINE#         58
  C:069BH         LINE#         59
  C:069BH         LINE#         64
  C:06A1H         LINE#         66
  C:06A6H         LINE#         68
  C:06B0H         LINE#         69
  C:06B2H         LINE#         70
  C:06B4H         LINE#         71
  C:06B6H         LINE#         72
  C:06B8H         LINE#         81
  C:06BBH         LINE#         82
  C:06BEH         LINE#         83
  C:06C1H         LINE#         84
  C:06C4H         LINE#         85
  C:06C7H         LINE#         87
  C:06CAH         LINE#         88
BL51 BANKED LINKER/LOCATER V6.22                                                      08/14/2018  11:19:33  PAGE 8


  C:06CDH         LINE#         89
  C:06D0H         LINE#         90
  C:06D2H         LINE#         91
  C:06D4H         LINE#         92
  C:06D6H         LINE#         94
  C:06D8H         LINE#         95
  C:06DFH         LINE#         96
  C:06E6H         LINE#         97
  C:06EDH         LINE#         98
  C:06F4H         LINE#         102
  C:06FBH         LINE#         103
  C:0700H         LINE#         104
  C:0705H         LINE#         105
  C:070AH         LINE#         106
  C:070FH         LINE#         107
  C:0714H         LINE#         110
  C:0714H         LINE#         111
  C:0714H         LINE#         112
  C:0717H         LINE#         113
  C:0725H         LINE#         115
  C:0725H         LINE#         118
  C:072AH         LINE#         119
  C:072FH         LINE#         121
  C:0734H         LINE#         122
  C:0739H         LINE#         123
  C:073EH         LINE#         124
  C:0743H         LINE#         126
  C:0754H         LINE#         128
  C:075BH         LINE#         129
  C:0763H         LINE#         130
  C:0768H         LINE#         131
  C:0770H         LINE#         132
  C:0775H         LINE#         133
  C:077FH         LINE#         134
  C:0784H         LINE#         135
  C:078CH         LINE#         137
  C:0794H         LINE#         138
  C:0794H         LINE#         139
  C:0794H         LINE#         140
  C:0794H         LINE#         141
  C:0794H         LINE#         143
  C:0794H         LINE#         144
  C:0799H         LINE#         145
  C:0799H         LINE#         157
  C:079CH         LINE#         158
  C:079CH         LINE#         159
  C:07A7H         LINE#         160
  C:07BEH         LINE#         161
  C:07BEH         LINE#         162
  C:07C0H         LINE#         163
  C:07C2H         LINE#         165
  C:07C2H         LINE#         166
  C:07CDH         LINE#         167
  C:07CDH         LINE#         168
  C:07D2H         LINE#         169
  C:07D2H         LINE#         170
  C:07D5H         LINE#         171
BL51 BANKED LINKER/LOCATER V6.22                                                      08/14/2018  11:19:33  PAGE 9


  C:07D5H         LINE#         172
  C:07D7H         LINE#         173
  C:07E2H         LINE#         174
  C:07F9H         LINE#         175
  C:07F9H         LINE#         176
  C:07FBH         LINE#         177
  C:07FDH         LINE#         179
  C:07FDH         LINE#         180
  C:0808H         LINE#         181
  C:0808H         LINE#         182
  C:080DH         LINE#         183
  C:080DH         LINE#         191
  C:082FH         LINE#         192
  C:082FH         LINE#         193
  C:0839H         LINE#         194
  C:083FH         LINE#         195
  C:0841H         LINE#         196
  C:0843H         LINE#         197
  C:0845H         LINE#         198
  C:0845H         LINE#         199
  C:0848H         LINE#         201
  C:0848H         LINE#         202
  C:0850H         LINE#         203
  C:0858H         LINE#         204
  C:0860H         LINE#         205
  C:0868H         LINE#         206
  C:08A3H         LINE#         210
  C:08A6H         LINE#         211
  C:08A6H         LINE#         212
  C:08CDH         LINE#         213
  C:08F3H         LINE#         214
  C:08F3H         LINE#         218
  C:0900H         LINE#         219
  C:0900H         LINE#         220
  C:090AH         LINE#         221
  C:0914H         LINE#         222
  C:091BH         LINE#         223
  C:0923H         LINE#         224
  C:092BH         LINE#         225
  -------         ENDPROC       MAIN
  -------         PROC          UART
  C:1757H         LINE#         238
  C:1764H         LINE#         240
  C:1767H         LINE#         241
  C:1767H         LINE#         242
  C:1775H         LINE#         243
  C:1777H         LINE#         244
  C:1789H         LINE#         245
  C:1798H         LINE#         246
  C:17A3H         LINE#         247
  C:17A3H         LINE#         250
  C:17B0H         LINE#         251
  C:17B6H         LINE#         252
  C:17B6H         LINE#         253
  C:17BCH         LINE#         254
  C:17CAH         LINE#         255
  C:17D8H         LINE#         256
BL51 BANKED LINKER/LOCATER V6.22                                                      08/14/2018  11:19:33  PAGE 10


  C:17E0H         LINE#         261
  C:17E0H         LINE#         262
  C:17E0H         LINE#         265
  C:17E0H         LINE#         266
  C:17E3H         LINE#         267
  C:17E3H         LINE#         268
  C:17E5H         LINE#         269
  C:17E7H         LINE#         270
  C:17E7H         LINE#         271
  -------         ENDPROC       UART
  -------         PROC          _SENDUART1
  D:0007H         SYMBOL        dat
  C:1FD5H         LINE#         274
  C:1FD5H         LINE#         275
  C:1FD5H         LINE#         276
  C:1FD8H         LINE#         277
  C:1FDAH         LINE#         278
  C:1FDBH         LINE#         279
  C:1FDDH         LINE#         280
  -------         ENDPROC       _SENDUART1
  -------         PROC          _DISPLAY_PROX
  D:0002H         SYMBOL        dat
  -------         DO            
  X:00F3H         SYMBOL        unit
  X:00F4H         SYMBOL        ten
  X:00F5H         SYMBOL        hundred
  X:00F6H         SYMBOL        thousand
  -------         ENDDO         
  C:1926H         LINE#         283
  C:192AH         LINE#         284
  C:192AH         LINE#         286
  C:1936H         LINE#         287
  C:1946H         LINE#         288
  C:1962H         LINE#         289
  C:1992H         LINE#         290
  C:199CH         LINE#         291
  C:19A6H         LINE#         292
  C:19B0H         LINE#         293
  C:19BAH         LINE#         295
  -------         ENDPROC       _DISPLAY_PROX
  -------         PROC          _DISPLAY_POS
  X:0098H         SYMBOL        sign_dat
  -------         DO            
  X:009CH         SYMBOL        unit
  X:009DH         SYMBOL        ten
  X:009EH         SYMBOL        hundred
  D:0003H         SYMBOL        thousand
  X:009FH         SYMBOL        after_dot
  X:00A0H         SYMBOL        dat
  -------         ENDDO         
  C:0FDFH         LINE#         298
  C:0FE5H         LINE#         299
  C:0FE5H         LINE#         303
  C:1001H         LINE#         304
  C:101BH         LINE#         305
  C:103FH         LINE#         307
  C:1089H         LINE#         309
BL51 BANKED LINKER/LOCATER V6.22                                                      08/14/2018  11:19:33  PAGE 11


  C:10A0H         LINE#         310
  C:10ADH         LINE#         311
  C:10CFH         LINE#         312
  C:1104H         LINE#         313
  C:111CH         LINE#         314
  C:111CH         LINE#         316
  C:1126H         LINE#         317
  C:1130H         LINE#         318
  C:113AH         LINE#         319
  C:113FH         LINE#         320
  C:1149H         LINE#         321
  C:114EH         LINE#         322
  C:1153H         LINE#         323
  C:1155H         LINE#         324
  C:1157H         LINE#         326
  C:1157H         LINE#         328
  C:115CH         LINE#         329
  C:1166H         LINE#         330
  C:1170H         LINE#         331
  C:117AH         LINE#         332
  C:117FH         LINE#         333
  C:1189H         LINE#         334
  C:118EH         LINE#         335
  C:1193H         LINE#         337
  C:1193H         LINE#         339
  -------         ENDPROC       _DISPLAY_POS
  -------         ENDMOD        MAIN

  -------         MODULE        PCF85063BTL
  C:0000H         SYMBOL        _ICE_DUMMY_
  D:0096H         PUBLIC        P2M0
  D:0080H         PUBLIC        P0
  D:0095H         PUBLIC        P2M1
  D:0090H         PUBLIC        P1
  D:00A0H         PUBLIC        P2
  D:00B0H         PUBLIC        P3
  D:00C0H         PUBLIC        P4
  D:00C8H         PUBLIC        P5
  D:00E8H         PUBLIC        P6
  B:00A0H.2       PUBLIC        PCF85063BTL_SDI
  D:00F8H         PUBLIC        P7
  B:00A0H.1       PUBLIC        PCF85063BTL_SCK
  B:00A0H.2       PUBLIC        PCF85063BTL_SDO
  D:00A8H         PUBLIC        IE
  C:1B40H         PUBLIC        _Read_time
  C:1F22H         PUBLIC        _PCF85063BTL_Delay
  D:00B8H         PUBLIC        IP
  D:00D8H         PUBLIC        CCON
  C:1A47H         PUBLIC        _Day_Of_Year
  C:1E2DH         PUBLIC        SPI_ReceiveByte
  D:0098H         PUBLIC        SCON
  D:0088H         PUBLIC        TCON
  C:1F68H         PUBLIC        _BCDtoDec
  B:00A0H.0       PUBLIC        PCF85063BTL_CS
  C:1F57H         PUBLIC        _SPI_ReadTime
  C:1FA8H         PUBLIC        SPI_Init
  C:1EC1H         PUBLIC        _SPI_WriteTime
BL51 BANKED LINKER/LOCATER V6.22                                                      08/14/2018  11:19:33  PAGE 12


  C:1E0DH         PUBLIC        _SPI_SendByte
  D:00D0H         PUBLIC        PSW
  C:1F1EH         SYMBOL        L?0047
  -------         PROC          L?0046
  -------         ENDPROC       L?0046
  C:1F1EH         SYMBOL        L?0047
  -------         PROC          _PCF85063BTL_DELAY
  D:0006H         SYMBOL        us
  C:1F22H         LINE#         8
  C:1F22H         LINE#         9
  C:1F22H         LINE#         10
  C:1F2CH         LINE#         11
  C:1F2CH         LINE#         12
  C:1F2DH         LINE#         13
  C:1F2FH         LINE#         14
  -------         ENDPROC       _PCF85063BTL_DELAY
  -------         PROC          _SPI_SENDBYTE
  D:0005H         SYMBOL        dat
  -------         DO            
  D:0003H         SYMBOL        i
  -------         ENDDO         
  C:1E0DH         LINE#         17
  C:1E0FH         LINE#         18
  C:1E0FH         LINE#         20
  C:1E11H         LINE#         21
  C:1E11H         LINE#         22
  C:1E13H         LINE#         23
  C:1E17H         LINE#         24
  C:1E17H         LINE#         25
  C:1E19H         LINE#         26
  C:1E1BH         LINE#         28
  C:1E1BH         LINE#         29
  C:1E1DH         LINE#         30
  C:1E1DH         LINE#         31
  C:1E20H         LINE#         32
  C:1E20H         LINE#         33
  C:1E23H         LINE#         34
  C:1E27H         LINE#         35
  C:1E2CH         LINE#         36
  -------         ENDPROC       _SPI_SENDBYTE
  -------         PROC          SPI_RECEIVEBYTE
  -------         DO            
  D:0003H         SYMBOL        i
  D:0005H         SYMBOL        dat
  -------         ENDDO         
  C:1E2DH         LINE#         39
  C:1E2DH         LINE#         40
  C:1E2DH         LINE#         42
  C:1E2FH         LINE#         44
  C:1E31H         LINE#         45
  C:1E32H         LINE#         46
  C:1E32H         LINE#         47
  C:1E36H         LINE#         48
  C:1E38H         LINE#         49
  C:1E3BH         LINE#         51
  C:1E3EH         LINE#         52
  C:1E3EH         LINE#         53
BL51 BANKED LINKER/LOCATER V6.22                                                      08/14/2018  11:19:33  PAGE 13


  C:1E42H         LINE#         54
  C:1E42H         LINE#         55
  C:1E42H         LINE#         56
  C:1E45H         LINE#         57
  C:1E4AH         LINE#         58
  C:1E4CH         LINE#         59
  -------         ENDPROC       SPI_RECEIVEBYTE
  -------         PROC          _SPI_READTIME
  D:0007H         SYMBOL        addr
  -------         DO            
  D:0006H         SYMBOL        dat
  -------         ENDDO         
  C:1F57H         LINE#         61
  C:1F57H         LINE#         62
  C:1F57H         LINE#         64
  C:1F59H         LINE#         65
  C:1F5BH         LINE#         66
  C:1F62H         LINE#         67
  C:1F65H         LINE#         68
  C:1F67H         LINE#         69
  C:1F67H         LINE#         70
  -------         ENDPROC       _SPI_READTIME
  -------         PROC          _SPI_WRITETIME
  D:0002H         SYMBOL        val
  D:0005H         SYMBOL        addr
  C:1EC1H         LINE#         71
  C:1EC3H         LINE#         72
  C:1EC3H         LINE#         74
  C:1EC5H         LINE#         75
  C:1ECCH         LINE#         76
  C:1ED1H         LINE#         77
  C:1ED6H         LINE#         78
  C:1ED8H         LINE#         79
  -------         ENDPROC       _SPI_WRITETIME
  -------         PROC          SPI_INIT
  C:1FA8H         LINE#         83
  C:1FA8H         LINE#         84
  C:1FA8H         LINE#         89
  C:1FABH         LINE#         90
  C:1FAEH         LINE#         91
  C:1FB0H         LINE#         92
  C:1FB2H         LINE#         93
  C:1FB4H         LINE#         94
  -------         ENDPROC       SPI_INIT
  -------         PROC          _READ_TIME
  X:0098H         SYMBOL        months
  X:009BH         SYMBOL        days
  X:009EH         SYMBOL        hours
  X:00A1H         SYMBOL        mins
  X:00A4H         SYMBOL        seconds
  C:1B40H         LINE#         96
  C:1B4BH         LINE#         97
  C:1B4BH         LINE#         99
  C:1B5FH         LINE#         101
  C:1B73H         LINE#         103
  C:1B87H         LINE#         108
  C:1B9BH         LINE#         113
BL51 BANKED LINKER/LOCATER V6.22                                                      08/14/2018  11:19:33  PAGE 14


  -------         ENDPROC       _READ_TIME
  -------         PROC          _BCDTODEC
  D:0007H         SYMBOL        bcd
  -------         DO            
  D:0006H         SYMBOL        hi
  D:0007H         SYMBOL        lo
  -------         ENDDO         
  C:1F68H         LINE#         119
  C:1F68H         LINE#         120
  C:1F68H         LINE#         122
  C:1F6DH         LINE#         123
  C:1F71H         LINE#         124
  C:1F78H         LINE#         125
  -------         ENDPROC       _BCDTODEC
  -------         PROC          _DAY_OF_YEAR
  D:0007H         SYMBOL        months_bcd
  D:0005H         SYMBOL        days_bcd
  -------         DO            
  D:0004H         SYMBOL        months
  D:0007H         SYMBOL        days
  -------         ENDDO         
  C:1A47H         LINE#         126
  C:1A47H         LINE#         127
  C:1A47H         LINE#         130
  C:1A4CH         LINE#         132
  C:1A51H         LINE#         134
  C:1A8AH         LINE#         135
  C:1A8AH         LINE#         136
  C:1A8AH         LINE#         137
  C:1A8DH         LINE#         138
  C:1A8DH         LINE#         139
  C:1A8DH         LINE#         140
  C:1A92H         LINE#         141
  C:1A92H         LINE#         142
  C:1A92H         LINE#         143
  C:1A97H         LINE#         144
  C:1A97H         LINE#         145
  C:1A97H         LINE#         146
  C:1A9CH         LINE#         147
  C:1A9CH         LINE#         148
  C:1A9CH         LINE#         149
  C:1AA1H         LINE#         150
  C:1AA1H         LINE#         151
  C:1AA1H         LINE#         152
  C:1AA6H         LINE#         153
  C:1AA6H         LINE#         154
  C:1AA6H         LINE#         155
  C:1AABH         LINE#         156
  C:1AABH         LINE#         157
  C:1AABH         LINE#         158
  C:1AB0H         LINE#         159
  C:1AB0H         LINE#         160
  C:1AB0H         LINE#         161
  C:1AB8H         LINE#         162
  C:1AB8H         LINE#         163
  C:1AB8H         LINE#         164
  C:1ABDH         LINE#         165
BL51 BANKED LINKER/LOCATER V6.22                                                      08/14/2018  11:19:33  PAGE 15


  C:1ABDH         LINE#         166
  C:1ABDH         LINE#         167
  C:1AC2H         LINE#         168
  C:1AC2H         LINE#         169
  C:1AC2H         LINE#         170
  C:1ACAH         LINE#         171
  C:1ACAH         LINE#         172
  C:1ACAH         LINE#         173
  -------         ENDPROC       _DAY_OF_YEAR
  -------         ENDMOD        PCF85063BTL

  -------         MODULE        UART1
  C:0000H         SYMBOL        _ICE_DUMMY_
  D:0080H         PUBLIC        P0
  D:0090H         PUBLIC        P1
  D:00A0H         PUBLIC        P2
  D:00B0H         PUBLIC        P3
  D:00C0H         PUBLIC        P4
  D:00C8H         PUBLIC        P5
  B:00A8H.7       PUBLIC        EA
  D:00E8H         PUBLIC        P6
  D:00F8H         PUBLIC        P7
  C:1D19H         PUBLIC        _SendString
  D:00A8H         PUBLIC        IE
  B:00A8H.4       PUBLIC        ES
  D:00B8H         PUBLIC        IP
  C:1ED9H         PUBLIC        _ASCIItoBCD
  D:00D8H         PUBLIC        CCON
  C:1F79H         PUBLIC        initUART1
  D:0098H         PUBLIC        SCON
  D:0088H         PUBLIC        TCON
  C:1FFAH         PUBLIC        _DectoBCD
  C:1FF5H         PUBLIC        _ASCII_Letter
  D:008EH         PUBLIC        AUXR
  C:1FF0H         PUBLIC        _unit
  C:1FDEH         PUBLIC        _ten
  D:00D6H         PUBLIC        T2H
  D:00D7H         PUBLIC        T2L
  D:00D0H         PUBLIC        PSW
  -------         PROC          INITUART1
  C:1F79H         LINE#         21
  C:1F79H         LINE#         22
  C:1F79H         LINE#         23
  C:1F7CH         LINE#         24
  C:1F7FH         LINE#         25
  C:1F82H         LINE#         26
  C:1F85H         LINE#         27
  C:1F87H         LINE#         28
  C:1F89H         LINE#         30
  -------         ENDPROC       INITUART1
  -------         PROC          _SENDSTRING
  X:00F7H         SYMBOL        s
  C:1D19H         LINE#         35
  C:1D24H         LINE#         36
  C:1D24H         LINE#         37
  C:1D34H         LINE#         38
  C:1D34H         LINE#         39
BL51 BANKED LINKER/LOCATER V6.22                                                      08/14/2018  11:19:33  PAGE 16


  C:1D49H         LINE#         40
  C:1D4BH         LINE#         41
  -------         ENDPROC       _SENDSTRING
  -------         PROC          _TEN
  D:0007H         SYMBOL        BCD
  C:1FDEH         LINE#         43
  C:1FDEH         LINE#         44
  C:1FDEH         LINE#         45
  C:1FE3H         LINE#         46
  -------         ENDPROC       _TEN
  -------         PROC          _UNIT
  D:0007H         SYMBOL        BCD
  C:1FF0H         LINE#         47
  C:1FF0H         LINE#         48
  C:1FF0H         LINE#         52
  C:1FF4H         LINE#         53
  -------         ENDPROC       _UNIT
  -------         PROC          _DECTOBCD
  D:0007H         SYMBOL        dec
  C:1FFAH         LINE#         54
  C:1FFAH         LINE#         55
  C:1FFAH         LINE#         57
  C:1FFAH         LINE#         58
  -------         ENDPROC       _DECTOBCD
  -------         PROC          _ASCII_LETTER
  D:0007H         SYMBOL        dat
  C:1FF5H         LINE#         60
  C:1FF5H         LINE#         61
  C:1FF5H         LINE#         63
  C:1FF9H         LINE#         64
  -------         ENDPROC       _ASCII_LETTER
  -------         PROC          _ASCIITOBCD
  D:0001H         SYMBOL        ascii
  -------         DO            
  D:0007H         SYMBOL        dec_val
  D:0006H         SYMBOL        ten
  D:0007H         SYMBOL        unit
  -------         ENDDO         
  C:1ED9H         LINE#         66
  C:1ED9H         LINE#         67
  C:1ED9H         LINE#         69
  C:1EDCH         LINE#         70
  C:1EE2H         LINE#         71
  C:1EE9H         LINE#         72
  C:1EEFH         LINE#         74
  -------         ENDPROC       _ASCIITOBCD
  -------         ENDMOD        UART1

  -------         MODULE        LCD_DRIVER_SPLC780D
  C:0000H         SYMBOL        _ICE_DUMMY_
  D:0080H         PUBLIC        P0
  D:0090H         PUBLIC        P1
  D:00A0H         PUBLIC        P2
  D:00B0H         PUBLIC        P3
  D:00C0H         PUBLIC        P4
  D:00C8H         PUBLIC        P5
  D:00E8H         PUBLIC        P6
BL51 BANKED LINKER/LOCATER V6.22                                                      08/14/2018  11:19:33  PAGE 17


  D:00F8H         PUBLIC        P7
  C:1ACBH         PUBLIC        _WriteData
  D:00A8H         PUBLIC        IE
  D:00B8H         PUBLIC        IP
  D:00D8H         PUBLIC        CCON
  B:0090H.4       PUBLIC        LCD_D4
  B:0090H.5       PUBLIC        LCD_D5
  B:0090H.6       PUBLIC        LCD_D6
  C:1E89H         PUBLIC        _DisplayLCD
  B:0090H.7       PUBLIC        LCD_D7
  D:0098H         PUBLIC        SCON
  D:0088H         PUBLIC        TCON
  C:1FCBH         PUBLIC        LCD_clear
  C:1CA5H         PUBLIC        _Command
  C:000EH         PUBLIC        _Display_Line
  C:1C08H         PUBLIC        LCD_Init
  C:1DA9H         PUBLIC        _Wait_ms
  B:0090H.1       PUBLIC        LCD_RS
  B:0090H.2       PUBLIC        LCD_RW
  C:1FC1H         PUBLIC        LCD_return_home
  B:0090H.3       PUBLIC        LCD_E
  D:00D0H         PUBLIC        PSW
  -------         PROC          LCD_INIT
  C:1C08H         LINE#         9
  C:1C08H         LINE#         10
  C:1C08H         LINE#         12
  C:1C0FH         LINE#         13
  C:1C14H         LINE#         15
  C:1C1BH         LINE#         16
  C:1C20H         LINE#         18
  C:1C23H         LINE#         19
  C:1C28H         LINE#         21
  C:1C2BH         LINE#         22
  C:1C30H         LINE#         24
  C:1C37H         LINE#         27
  C:1C3CH         LINE#         28
  C:1C41H         LINE#         30
  C:1C46H         LINE#         31
  C:1C4BH         LINE#         33
  C:1C50H         LINE#         34
  C:1C55H         LINE#         35
  -------         ENDPROC       LCD_INIT
  -------         PROC          _WRITEDATA
  X:00A2H         SYMBOL        dat
  C:1ACBH         LINE#         38
  C:1AD0H         LINE#         39
  C:1AD0H         LINE#         44
  C:1AD2H         LINE#         45
  C:1AD4H         LINE#         47
  C:1AE2H         LINE#         48
  C:1AEEH         LINE#         49
  C:1AFAH         LINE#         50
  C:1B04H         LINE#         51
  C:1B06H         LINE#         52
  C:1B0DH         LINE#         53
  C:1B0FH         LINE#         55
  C:1B1FH         LINE#         56
BL51 BANKED LINKER/LOCATER V6.22                                                      08/14/2018  11:19:33  PAGE 18


  C:1B2AH         LINE#         57
  C:1B34H         LINE#         58
  C:1B38H         LINE#         60
  C:1B38H         LINE#         61
  C:1B3BH         LINE#         62
  C:1B3DH         LINE#         63
  C:1B3FH         LINE#         65
  -------         ENDPROC       _WRITEDATA
  -------         PROC          _COMMAND
  D:0007H         SYMBOL        dat
  C:1CA5H         LINE#         67
  C:1CA5H         LINE#         68
  C:1CA5H         LINE#         69
  C:1CA7H         LINE#         70
  C:1CA9H         LINE#         72
  C:1CB3H         LINE#         73
  C:1CB7H         LINE#         75
  C:1CB9H         LINE#         76
  C:1CC2H         LINE#         77
  C:1CC6H         LINE#         79
  C:1CC8H         LINE#         80
  C:1CCFH         LINE#         81
  C:1CD3H         LINE#         83
  C:1CD5H         LINE#         84
  C:1CD9H         LINE#         85
  C:1CDDH         LINE#         87
  C:1CDFH         LINE#         88
  C:1CDFH         LINE#         89
  C:1CE2H         LINE#         90
  C:1CE4H         LINE#         91
  -------         ENDPROC       _COMMAND
  C:1DA5H         SYMBOL        L?0028
  -------         PROC          L?0027
  -------         ENDPROC       L?0027
  C:1DA5H         SYMBOL        L?0028
  -------         PROC          _WAIT_MS
  D:0006H         SYMBOL        ms
  -------         DO            
  D:0004H         SYMBOL        De_Cnt
  -------         ENDDO         
  C:1DA9H         LINE#         93
  C:1DA9H         LINE#         94
  C:1DA9H         LINE#         96
  C:1DB3H         LINE#         97
  C:1DB3H         LINE#         98
  C:1DC6H         LINE#         99
  C:1DC6H         LINE#         100
  -------         ENDPROC       _WAIT_MS
  -------         PROC          _DISPLAYLCD
  D:0007H         SYMBOL        BCD
  -------         DO            
  D:0006H         SYMBOL        first_digit
  X:0098H         SYMBOL        second_digit
  -------         ENDDO         
  C:1E89H         LINE#         101
  C:1E89H         LINE#         102
  C:1E89H         LINE#         104
BL51 BANKED LINKER/LOCATER V6.22                                                      08/14/2018  11:19:33  PAGE 19


  C:1E90H         LINE#         105
  C:1E99H         LINE#         107
  C:1E9EH         LINE#         109
  -------         ENDPROC       _DISPLAYLCD
  -------         PROC          LCD_RETURN_HOME
  C:1FC1H         LINE#         113
  C:1FC1H         LINE#         114
  C:1FC1H         LINE#         115
  C:1FC6H         LINE#         116
  -------         ENDPROC       LCD_RETURN_HOME
  -------         PROC          LCD_CLEAR
  C:1FCBH         LINE#         119
  C:1FCBH         LINE#         120
  C:1FCBH         LINE#         121
  C:1FD0H         LINE#         122
  -------         ENDPROC       LCD_CLEAR
  -------         PROC          _DISPLAY_LINE
  D:0006H         SYMBOL        line
  C:000EH         LINE#         126
  C:000EH         LINE#         127
  C:000EH         LINE#         128
  C:0014H         LINE#         129
  C:0014H         LINE#         130
  C:0016H         LINE#         131
  C:0016H         LINE#         132
  C:0018H         LINE#         134
  C:0018H         LINE#         135
  C:001DH         LINE#         136
  C:0022H         LINE#         137
  C:0022H         LINE#         138
  -------         ENDPROC       _DISPLAY_LINE
  -------         ENDMOD        LCD_DRIVER_SPLC780D

  -------         MODULE        KEYPAD
  C:0000H         SYMBOL        _ICE_DUMMY_
  D:0093H         PUBLIC        P0M1
  D:0080H         PUBLIC        P0
  D:0090H         PUBLIC        P1
  D:00A0H         PUBLIC        P2
  D:00B0H         PUBLIC        P3
  D:00C0H         PUBLIC        P4
  D:00C8H         PUBLIC        P5
  D:00E8H         PUBLIC        P6
  D:00F8H         PUBLIC        P7
  D:00A8H         PUBLIC        IE
  C:1194H         PUBLIC        Key_Scan
  D:00B8H         PUBLIC        IP
  D:00D8H         PUBLIC        CCON
  C:0003H         PUBLIC        KeyPad_IO_Init
  C:1E4DH         PUBLIC        _Delay_ms
  D:0098H         PUBLIC        SCON
  D:0088H         PUBLIC        TCON
  B:0020H.0       PUBLIC        small_move
  B:0020H.1       PUBLIC        move
  B:0020H.2       PUBLIC        direction
  C:092EH         PUBLIC        Key_Process
  D:00D0H         PUBLIC        PSW
BL51 BANKED LINKER/LOCATER V6.22                                                      08/14/2018  11:19:33  PAGE 20


  D:0094H         PUBLIC        P0M0
  -------         PROC          _DELAY_MS
  D:0006H         SYMBOL        ms
  -------         DO            
  D:0004H         SYMBOL        De_Cnt
  -------         ENDDO         
  C:1E4DH         LINE#         16
  C:1E4DH         LINE#         17
  C:1E4DH         LINE#         19
  C:1E57H         LINE#         20
  C:1E57H         LINE#         21
  C:1E6AH         LINE#         22
  C:1E6AH         LINE#         23
  -------         ENDPROC       _DELAY_MS
  -------         PROC          KEY_SCAN
  -------         DO            
  X:009EH         SYMBOL        KeyTemp1
  X:009FH         SYMBOL        KeyTemp2
  X:00A0H         SYMBOL        KeyValue
  -------         ENDDO         
  C:1194H         LINE#         24
  C:1194H         LINE#         25
  C:1194H         LINE#         30
  C:1197H         LINE#         33
  C:119AH         LINE#         35
  C:11A2H         LINE#         36
  C:11A9H         LINE#         37
  C:11A9H         LINE#         38
  C:11B0H         LINE#         39
  C:11B5H         LINE#         40
  C:11BCH         LINE#         41
  C:11BCH         LINE#         44
  C:11BFH         LINE#         45
  C:11C2H         LINE#         46
  C:11C7H         LINE#         47
  C:11CBH         LINE#         48
  C:11CBH         LINE#         49
  C:11D3H         LINE#         50
  C:11D3H         LINE#         51
  C:11D6H         LINE#         52
  C:11DEH         LINE#         53
  C:11E0H         LINE#         55
  C:11F4H         LINE#         56
  C:11F4H         LINE#         57
  C:11F4H         LINE#         58
  C:11F4H         LINE#         59
  C:11FAH         LINE#         61
  C:11FCH         LINE#         62
  C:11FCH         LINE#         63
  C:11FCH         LINE#         64
  C:1202H         LINE#         66
  C:1204H         LINE#         67
  C:1204H         LINE#         68
  C:1204H         LINE#         69
  C:120AH         LINE#         71
  C:120CH         LINE#         72
  C:120CH         LINE#         73
BL51 BANKED LINKER/LOCATER V6.22                                                      08/14/2018  11:19:33  PAGE 21


  C:120CH         LINE#         74
  C:1212H         LINE#         76
  C:1212H         LINE#         77
  C:1212H         LINE#         78
  C:1212H         LINE#         81
  C:1215H         LINE#         82
  C:1218H         LINE#         83
  C:1220H         LINE#         84
  C:1224H         LINE#         85
  C:1224H         LINE#         86
  C:122CH         LINE#         87
  C:122CH         LINE#         88
  C:122FH         LINE#         89
  C:1237H         LINE#         90
  C:1239H         LINE#         91
  C:124DH         LINE#         92
  C:124DH         LINE#         93
  C:124DH         LINE#         94
  C:124DH         LINE#         95
  C:1253H         LINE#         97
  C:1255H         LINE#         98
  C:1255H         LINE#         99
  C:1255H         LINE#         100
  C:125BH         LINE#         102
  C:125DH         LINE#         103
  C:125DH         LINE#         104
  C:125DH         LINE#         105
  C:1263H         LINE#         107
  C:1265H         LINE#         108
  C:1265H         LINE#         109
  C:1265H         LINE#         110
  C:126AH         LINE#         112
  C:126AH         LINE#         113
  C:126AH         LINE#         114
  C:126AH         LINE#         117
  C:126DH         LINE#         118
  C:1270H         LINE#         119
  C:1278H         LINE#         120
  C:127CH         LINE#         121
  C:127CH         LINE#         122
  C:1284H         LINE#         123
  C:1284H         LINE#         124
  C:1287H         LINE#         125
  C:128FH         LINE#         126
  C:1291H         LINE#         127
  C:12A5H         LINE#         128
  C:12A5H         LINE#         129
  C:12A5H         LINE#         130
  C:12A5H         LINE#         131
  C:12ABH         LINE#         133
  C:12ADH         LINE#         134
  C:12ADH         LINE#         135
  C:12ADH         LINE#         136
  C:12B3H         LINE#         138
  C:12B5H         LINE#         139
  C:12B5H         LINE#         140
  C:12B5H         LINE#         141
BL51 BANKED LINKER/LOCATER V6.22                                                      08/14/2018  11:19:33  PAGE 22


  C:12BBH         LINE#         143
  C:12BDH         LINE#         144
  C:12BDH         LINE#         145
  C:12BDH         LINE#         146
  C:12C3H         LINE#         148
  C:12C3H         LINE#         149
  C:12C3H         LINE#         150
  C:12C3H         LINE#         154
  C:12C6H         LINE#         155
  C:12C9H         LINE#         156
  C:12D1H         LINE#         157
  C:12D5H         LINE#         158
  C:12D5H         LINE#         159
  C:12DDH         LINE#         160
  C:12DDH         LINE#         161
  C:12E0H         LINE#         162
  C:12E8H         LINE#         163
  C:12EAH         LINE#         164
  C:12FEH         LINE#         165
  C:12FEH         LINE#         166
  C:12FEH         LINE#         167
  C:12FEH         LINE#         168
  C:1304H         LINE#         170
  C:1306H         LINE#         171
  C:1306H         LINE#         172
  C:1306H         LINE#         173
  C:130CH         LINE#         175
  C:130EH         LINE#         176
  C:130EH         LINE#         177
  C:130EH         LINE#         178
  C:1314H         LINE#         180
  C:1316H         LINE#         181
  C:1316H         LINE#         182
  C:1316H         LINE#         183
  C:131CH         LINE#         185
  C:131CH         LINE#         186
  C:131CH         LINE#         187
  C:131CH         LINE#         189
  C:1322H         LINE#         190
  C:1322H         LINE#         192
  C:1322H         LINE#         193
  C:1325H         LINE#         194
  C:1325H         LINE#         195
  C:1325H         LINE#         197
  C:1325H         LINE#         198
  C:1327H         LINE#         199
  C:1327H         LINE#         200
  -------         ENDPROC       KEY_SCAN
  -------         PROC          KEY_PROCESS
  -------         DO            
  X:00E2H         SYMBOL        KeyCount
  X:00E4H         SYMBOL        KeyNum_Old
  X:00E5H         SYMBOL        KeyNum
  X:00E6H         SYMBOL        PressedKey
  X:0098H         SYMBOL        d
  D:0004H         SYMBOL        hours
  D:0006H         SYMBOL        mins
BL51 BANKED LINKER/LOCATER V6.22                                                      08/14/2018  11:19:33  PAGE 23


  X:009AH         SYMBOL        months
  X:009CH         SYMBOL        days
  -------         ENDDO         
  C:092EH         LINE#         201
  C:092EH         LINE#         202
  C:092EH         LINE#         206
  C:0936H         LINE#         207
  C:093EH         LINE#         209
  C:094BH         LINE#         210
  C:094BH         LINE#         211
  C:094EH         LINE#         212
  C:0951H         LINE#         214
  C:0954H         LINE#         216
  C:0954H         LINE#         217
  C:095FH         LINE#         218
  C:095FH         LINE#         219
  C:0962H         LINE#         221
  C:0962H         LINE#         222
  C:0969H         LINE#         223
  C:0969H         LINE#         224
  C:096CH         LINE#         226
  C:096CH         LINE#         227
  C:0973H         LINE#         228
  C:0973H         LINE#         229
  C:0976H         LINE#         231
  C:0976H         LINE#         232
  C:097DH         LINE#         233
  C:097DH         LINE#         234
  C:0980H         LINE#         236
  C:0980H         LINE#         238
  C:0984H         LINE#         239
  C:0984H         LINE#         240
  C:0987H         LINE#         242
  C:0987H         LINE#         244
  C:0997H         LINE#         245
  C:0997H         LINE#         246
  C:09A9H         LINE#         247
  C:09B7H         LINE#         248
  C:09C6H         LINE#         249
  C:09C6H         LINE#         251
  C:09CCH         LINE#         255
  C:09E2H         LINE#         256
  C:09F3H         LINE#         257
  C:0A0EH         LINE#         258
  C:0A0EH         LINE#         259
  C:0A1EH         LINE#         260
  C:0A2FH         LINE#         261
  C:0A2FH         LINE#         265
  C:0A48H         LINE#         266
  C:0A5FH         LINE#         267
  C:0A7FH         LINE#         268
  C:0A7FH         LINE#         269
  C:0A89H         LINE#         270
  C:0A89H         LINE#         271
  C:0A92H         LINE#         272
  C:0A92H         LINE#         273
  C:0AA6H         LINE#         274
BL51 BANKED LINKER/LOCATER V6.22                                                      08/14/2018  11:19:33  PAGE 24


  C:0AA6H         LINE#         275
  C:0AA6H         LINE#         276
  C:0AA6H         LINE#         277
  C:0AA6H         LINE#         278
  C:0AA8H         LINE#         280
  C:0AA8H         LINE#         281
  C:0AB4H         LINE#         282
  C:0AB4H         LINE#         283
  C:0AC5H         LINE#         284
  C:0AC5H         LINE#         285
  C:0AC5H         LINE#         286
  C:0AC5H         LINE#         287
  C:0AC5H         LINE#         289
  C:0AC7H         LINE#         291
  C:0AC7H         LINE#         292
  C:0AD8H         LINE#         293
  C:0AD8H         LINE#         294
  C:0AD8H         LINE#         295
  C:0AD8H         LINE#         296
  C:0AD8H         LINE#         298
  C:0AD8H         LINE#         300
  C:0AD8H         LINE#         301
  C:0ADAH         LINE#         303
  C:0ADAH         LINE#         304
  C:0AEDH         LINE#         305
  C:0AEDH         LINE#         306
  C:0AFEH         LINE#         307
  C:0AFEH         LINE#         308
  C:0AFEH         LINE#         309
  C:0AFEH         LINE#         310
  C:0AFEH         LINE#         311
  C:0B00H         LINE#         313
  C:0B00H         LINE#         314
  C:0B11H         LINE#         315
  C:0B11H         LINE#         316
  C:0B22H         LINE#         317
  C:0B33H         LINE#         318
  C:0B33H         LINE#         319
  C:0B33H         LINE#         320
  C:0B33H         LINE#         321
  C:0B33H         LINE#         322
  C:0B36H         LINE#         323
  C:0B3BH         LINE#         324
  C:0B40H         LINE#         325
  C:0B45H         LINE#         326
  C:0B4AH         LINE#         327
  C:0B4FH         LINE#         328
  C:0B54H         LINE#         329
  C:0B59H         LINE#         330
  C:0B59H         LINE#         332
  C:0B7BH         LINE#         333
  C:0B7BH         LINE#         334
  C:0B85H         LINE#         335
  C:0B85H         LINE#         336
  C:0B8AH         LINE#         337
  C:0B93H         LINE#         338
  C:0BAAH         LINE#         339
BL51 BANKED LINKER/LOCATER V6.22                                                      08/14/2018  11:19:33  PAGE 25


  C:0BAAH         LINE#         340
  C:0BBAH         LINE#         342
  C:0BBAH         LINE#         346
  -------         ENDPROC       KEY_PROCESS
  -------         PROC          KEYPAD_IO_INIT
  C:0003H         LINE#         349
  C:0003H         LINE#         350
  C:0003H         LINE#         351
  C:0006H         LINE#         352
  C:0009H         LINE#         353
  -------         ENDPROC       KEYPAD_IO_INIT
  -------         ENDMOD        KEYPAD

  -------         MODULE        VCNL4035
  C:0000H         SYMBOL        _ICE_DUMMY_
  D:0080H         PUBLIC        P0
  B:00B0H.2       PUBLIC        I2C_SCK
  D:00B2H         PUBLIC        P3M0
  D:0090H         PUBLIC        P1
  D:00B1H         PUBLIC        P3M1
  D:00A0H         PUBLIC        P2
  D:00B0H         PUBLIC        P3
  D:00C0H         PUBLIC        P4
  D:00C8H         PUBLIC        P5
  D:00E8H         PUBLIC        P6
  D:00F8H         PUBLIC        P7
  D:00A8H         PUBLIC        IE
  C:1FEAH         PUBLIC        _DisplayLCD_VCNL4035
  D:00B8H         PUBLIC        IP
  D:00D8H         PUBLIC        CCON
  C:1F44H         PUBLIC        I2C_Start
  D:0098H         PUBLIC        SCON
  C:1EF0H         PUBLIC        I2C_Init
  D:0088H         PUBLIC        TCON
  C:1F8AH         PUBLIC        uC_NACK
  C:1D85H         PUBLIC        _Wait_ms_i2c
  C:1DEBH         PUBLIC        _I2C_SendByte
  C:1F07H         PUBLIC        I2C_Stop
  C:1C5CH         PUBLIC        _Write_VCNL4035X
  C:1FFBH         PUBLIC        nop
  C:17F2H         PUBLIC        _Read_VCNL4035
  C:1FE4H         PUBLIC        uC_ACK
  C:1EABH         PUBLIC        I2C_ACK
  C:1E6BH         PUBLIC        _Wait_ms_iic
  B:00B0H.1       PUBLIC        I2C_SDA
  D:00D0H         PUBLIC        PSW
  C:1D52H         PUBLIC        I2C_ReceiveByte
  -------         PROC          _WAIT_MS_IIC
  D:0006H         SYMBOL        ms
  -------         DO            
  D:0004H         SYMBOL        De_Cnt
  -------         ENDDO         
  C:1E6BH         LINE#         5
  C:1E6BH         LINE#         6
  C:1E6BH         LINE#         8
  C:1E75H         LINE#         9
  C:1E75H         LINE#         10
BL51 BANKED LINKER/LOCATER V6.22                                                      08/14/2018  11:19:33  PAGE 26


  C:1E88H         LINE#         11
  C:1E88H         LINE#         12
  -------         ENDPROC       _WAIT_MS_IIC
  C:1D7FH         SYMBOL        L?0048
  C:1D81H         SYMBOL        L?0049
  -------         PROC          L?0047
  -------         ENDPROC       L?0047
  C:1D7FH         SYMBOL        L?0048
  C:1D81H         SYMBOL        L?0049
  -------         PROC          _WAIT_MS_I2C
  D:0006H         SYMBOL        ms
  -------         DO            
  D:0004H         SYMBOL        De_Cnt
  -------         ENDDO         
  C:1D85H         LINE#         14
  C:1D85H         LINE#         15
  C:1D85H         LINE#         17
  C:1D8FH         LINE#         18
  C:1D8FH         LINE#         19
  C:1DA2H         LINE#         20
  C:1DA2H         LINE#         21
  -------         ENDPROC       _WAIT_MS_I2C
  -------         PROC          NOP
  C:1FFBH         LINE#         22
  C:1FFBH         LINE#         23
  C:1FFBH         LINE#         25
  -------         ENDPROC       NOP
  -------         PROC          I2C_START
  C:1F44H         LINE#         26
  C:1F44H         LINE#         27
  C:1F44H         LINE#         29
  C:1F46H         LINE#         30
  C:1F48H         LINE#         31
  C:1F4FH         LINE#         32
  C:1F51H         LINE#         33
  C:1F54H         LINE#         34
  C:1F56H         LINE#         37
  -------         ENDPROC       I2C_START
  -------         PROC          I2C_STOP
  C:1F07H         LINE#         39
  C:1F07H         LINE#         40
  C:1F07H         LINE#         41
  C:1F09H         LINE#         42
  C:1F0BH         LINE#         43
  C:1F0EH         LINE#         44
  C:1F10H         LINE#         45
  C:1F12H         LINE#         46
  C:1F19H         LINE#         47
  C:1F1BH         LINE#         50
  -------         ENDPROC       I2C_STOP
  -------         PROC          L?0050
  -------         ENDPROC       L?0050
  -------         PROC          I2C_ACK
  -------         DO            
  X:009BH         SYMBOL        i
  D:0003H         SYMBOL        dat
  -------         ENDDO         
BL51 BANKED LINKER/LOCATER V6.22                                                      08/14/2018  11:19:33  PAGE 27


  C:1EABH         LINE#         52
  C:1EABH         LINE#         53
  C:1EABH         LINE#         55
  C:1EACH         LINE#         60
  C:1EAFH         LINE#         61
  C:1EB1H         LINE#         62
  C:1EB4H         LINE#         64
  C:1EB7H         LINE#         65
  C:1EB7H         LINE#         66
  C:1EBBH         LINE#         67
  C:1EBBH         LINE#         70
  C:1EBBH         LINE#         71
  C:1EBEH         LINE#         72
  C:1EBEH         LINE#         73
  C:1EC0H         LINE#         74
  -------         ENDPROC       I2C_ACK
  -------         PROC          UC_ACK
  -------         DO            
  X:00FAH         SYMBOL        i
  -------         ENDDO         
  C:1FE4H         LINE#         75
  C:1FE4H         LINE#         76
  C:1FE4H         LINE#         78
  C:1FE4H         LINE#         85
  C:1FE4H         LINE#         87
  C:1FE4H         LINE#         89
  C:1FE4H         LINE#         90
  C:1FE4H         LINE#         93
  C:1FE7H         LINE#         94
  C:1FE9H         LINE#         95
  C:1FE9H         LINE#         99
  -------         ENDPROC       UC_ACK
  -------         PROC          UC_NACK
  -------         DO            
  X:00FBH         SYMBOL        i
  -------         ENDDO         
  C:1F8AH         LINE#         101
  C:1F8AH         LINE#         102
  C:1F8AH         LINE#         104
  C:1F8AH         LINE#         108
  C:1F8CH         LINE#         111
  C:1F8CH         LINE#         112
  C:1F8EH         LINE#         113
  C:1F8EH         LINE#         115
  C:1F8EH         LINE#         116
  C:1F8EH         LINE#         119
  C:1F91H         LINE#         120
  C:1F93H         LINE#         121
  C:1F96H         LINE#         122
  C:1F98H         LINE#         123
  C:1F98H         LINE#         127
  -------         ENDPROC       UC_NACK
  -------         PROC          I2C_INIT
  C:1EF0H         LINE#         129
  C:1EF0H         LINE#         130
  C:1EF0H         LINE#         133
  C:1EF3H         LINE#         134
BL51 BANKED LINKER/LOCATER V6.22                                                      08/14/2018  11:19:33  PAGE 28


  C:1EF6H         LINE#         139
  C:1EFEH         LINE#         141
  -------         ENDPROC       I2C_INIT
  -------         PROC          _I2C_SENDBYTE
  D:0001H         SYMBOL        dat
  -------         DO            
  D:0003H         SYMBOL        i
  -------         ENDDO         
  C:1DEBH         LINE#         145
  C:1DEDH         LINE#         146
  C:1DEDH         LINE#         149
  C:1DEFH         LINE#         150
  C:1DEFH         LINE#         151
  C:1DF1H         LINE#         153
  C:1DF5H         LINE#         154
  C:1DF5H         LINE#         155
  C:1DF7H         LINE#         156
  C:1DF9H         LINE#         158
  C:1DF9H         LINE#         159
  C:1DFBH         LINE#         160
  C:1DFBH         LINE#         161
  C:1DFEH         LINE#         162
  C:1E00H         LINE#         164
  C:1E04H         LINE#         165
  C:1E07H         LINE#         166
  C:1E0CH         LINE#         167
  -------         ENDPROC       _I2C_SENDBYTE
  -------         PROC          L?0051
  -------         ENDPROC       L?0051
  -------         PROC          I2C_RECEIVEBYTE
  -------         DO            
  D:0003H         SYMBOL        i
  D:0001H         SYMBOL        dat
  -------         ENDDO         
  C:1D52H         LINE#         171
  C:1D52H         LINE#         172
  C:1D52H         LINE#         174
  C:1D54H         LINE#         178
  C:1D55H         LINE#         179
  C:1D55H         LINE#         180
  C:1D59H         LINE#         181
  C:1D5BH         LINE#         182
  C:1D5EH         LINE#         184
  C:1D61H         LINE#         185
  C:1D61H         LINE#         186
  C:1D65H         LINE#         187
  C:1D65H         LINE#         188
  C:1D65H         LINE#         189
  C:1D68H         LINE#         190
  C:1D6CH         LINE#         191
  C:1D6CH         LINE#         192
  C:1D6EH         LINE#         193
  C:1D70H         LINE#         194
  C:1D70H         LINE#         196
  C:1D75H         LINE#         197
  C:1D77H         LINE#         198
  -------         ENDPROC       I2C_RECEIVEBYTE
BL51 BANKED LINKER/LOCATER V6.22                                                      08/14/2018  11:19:33  PAGE 29


  -------         PROC          _WRITE_VCNL4035X
  X:0098H         SYMBOL        command_code
  X:0099H         SYMBOL        dat_h
  X:009AH         SYMBOL        dat_l
  C:1C5CH         LINE#         199
  C:1C67H         LINE#         200
  C:1C67H         LINE#         201
  C:1C6AH         LINE#         202
  C:1C71H         LINE#         203
  C:1C71H         LINE#         204
  C:1C77H         LINE#         205
  C:1C77H         LINE#         206
  C:1C7FH         LINE#         207
  C:1C7FH         LINE#         208
  C:1C85H         LINE#         209
  C:1C8DH         LINE#         211
  C:1C93H         LINE#         212
  C:1C9BH         LINE#         214
  C:1CA1H         LINE#         215
  C:1CA4H         LINE#         216
  -------         ENDPROC       _WRITE_VCNL4035X
  -------         PROC          _READ_VCNL4035
  X:00EBH         SYMBOL        command_code
  -------         DO            
  X:00EDH         SYMBOL        temp_dat
  X:00EFH         SYMBOL        temp_dat_l
  X:00F1H         SYMBOL        temp_dat_h
  -------         ENDDO         
  C:17F2H         LINE#         218
  C:17FAH         LINE#         219
  C:17FAH         LINE#         220
  C:1807H         LINE#         222
  C:180AH         LINE#         223
  C:180DH         LINE#         224
  C:1812H         LINE#         226
  C:1818H         LINE#         227
  C:1818H         LINE#         228
  C:1818H         LINE#         229
  C:1818H         LINE#         230
  C:1823H         LINE#         231
  C:1826H         LINE#         232
  C:1829H         LINE#         233
  C:1829H         LINE#         236
  C:182CH         LINE#         238
  C:1833H         LINE#         239
  C:1833H         LINE#         240
  C:1833H         LINE#         241
  C:183EH         LINE#         242
  C:1841H         LINE#         243
  C:1844H         LINE#         244
  C:1847H         LINE#         245
  C:184AH         LINE#         246
  C:184DH         LINE#         247
  C:1850H         LINE#         248
  C:1853H         LINE#         249
  C:1856H         LINE#         250
  C:1856H         LINE#         251
BL51 BANKED LINKER/LOCATER V6.22                                                      08/14/2018  11:19:33  PAGE 30


  C:185CH         LINE#         252
  C:185CH         LINE#         253
  C:1865H         LINE#         255
  C:1865H         LINE#         256
  C:186BH         LINE#         257
  C:186BH         LINE#         259
  C:186DH         LINE#         260
  C:1873H         LINE#         261
  C:1876H         LINE#         262
  C:187DH         LINE#         263
  C:187DH         LINE#         264
  C:188BH         LINE#         265
  -------         ENDPROC       _READ_VCNL4035
  -------         PROC          _DISPLAYLCD_VCNL4035
  X:00FCH         SYMBOL        dat
  C:1FEAH         LINE#         267
  C:1FEFH         LINE#         268
  C:1FEFH         LINE#         270
  -------         ENDPROC       _DISPLAYLCD_VCNL4035
  -------         ENDMOD        VCNL4035

  -------         MODULE        BIPOLARMOTOR
  C:0000H         SYMBOL        _ICE_DUMMY_
  D:0080H         PUBLIC        P0
  D:0090H         PUBLIC        P1
  D:00A0H         PUBLIC        P2
  D:00B0H         PUBLIC        P3
  D:00C0H         PUBLIC        P4
  D:00C8H         PUBLIC        P5
  D:00E8H         PUBLIC        P6
  D:00F8H         PUBLIC        P7
  D:00A8H         PUBLIC        IE
  X:0000H         PUBLIC        receiver_pos
  X:0044H         PUBLIC        Time_stamp_PM
  C:1CE5H         PUBLIC        _Move
  D:00B8H         PUBLIC        IP
  X:0077H         PUBLIC        num_of_time_stamp
  D:00D8H         PUBLIC        CCON
  C:0DEAH         PUBLIC        _trend_line_30_31
  D:0098H         PUBLIC        SCON
  D:0088H         PUBLIC        TCON
  C:1BAFH         PUBLIC        _Step_move
  C:0BBBH         PUBLIC        _Update_position
  C:1DDAH         PUBLIC        _BCDtoDec1
  X:0078H         PUBLIC        degree
  D:00D0H         PUBLIC        PSW
  -------         PROC          L?0024
  -------         ENDPROC       L?0024
  -------         PROC          _BCDTODEC1
  D:0007H         SYMBOL        bcd
  -------         DO            
  D:0006H         SYMBOL        hi
  D:0007H         SYMBOL        lo
  -------         ENDDO         
  C:1DDAH         LINE#         12
  C:1DDAH         LINE#         13
  C:1DDAH         LINE#         15
BL51 BANKED LINKER/LOCATER V6.22                                                      08/14/2018  11:19:33  PAGE 31


  C:1DDFH         LINE#         16
  C:1DE3H         LINE#         17
  C:1DEAH         LINE#         18
  -------         ENDPROC       _BCDTODEC1
  -------         PROC          _STEP_MOVE
  X:00B4H         SYMBOL        step
  B:0020H.5       SYMBOL        dir
  -------         DO            
  X:00B6H         SYMBOL        i
  -------         ENDDO         
  C:1BAFH         LINE#         24
  C:1BB7H         LINE#         25
  C:1BB7H         LINE#         26
  C:1BBCH         LINE#         27
  C:1BBFH         LINE#         28
  C:1BC4H         LINE#         30
  C:1BC7H         LINE#         32
  C:1BE3H         LINE#         33
  C:1BE3H         LINE#         34
  C:1BE6H         LINE#         35
  C:1BEDH         LINE#         36
  C:1BF0H         LINE#         37
  C:1BF7H         LINE#         38
  C:1C07H         LINE#         39
  -------         ENDPROC       _STEP_MOVE
  -------         PROC          _MOVE
  X:00B0H         SYMBOL        distance
  B:0020H.4       SYMBOL        direction
  -------         DO            
  D:0006H         SYMBOL        step
  -------         ENDDO         
  C:1CE5H         LINE#         41
  C:1CEBH         LINE#         42
  C:1CEBH         LINE#         44
  C:1D12H         LINE#         45
  -------         ENDPROC       _MOVE
  -------         PROC          _UPDATE_POSITION
  X:0098H         SYMBOL        mnths
  X:0099H         SYMBOL        dys
  X:009AH         SYMBOL        hurs
  X:009BH         SYMBOL        mns
  X:009CH         SYMBOL        sconds
  X:009DH         SYMBOL        currnt_pos
  -------         DO            
  X:00A0H         SYMBOL        date
  X:00A2H         SYMBOL        i
  X:00A4H         SYMBOL        desired_distance
  X:00A8H         SYMBOL        distance
  X:00ACH         SYMBOL        h_float
  D:0004H         SYMBOL        m_float
  -------         ENDDO         
  C:0BBBH         LINE#         51
  C:0BC6H         LINE#         52
  C:0BC6H         LINE#         54
  C:0BD0H         LINE#         59
  C:0BE4H         LINE#         60
  C:0BF7H         LINE#         62
BL51 BANKED LINKER/LOCATER V6.22                                                      08/14/2018  11:19:33  PAGE 32


  C:0C16H         LINE#         63
  C:0C16H         LINE#         64
  C:0CEBH         LINE#         65
  C:0CEBH         LINE#         67
  C:0CEBH         LINE#         70
  C:0CF7H         LINE#         71
  C:0CF7H         LINE#         72
  C:0D0BH         LINE#         73
  C:0D19H         LINE#         75
  C:0D3DH         LINE#         76
  C:0D3DH         LINE#         77
  C:0D3DH         LINE#         78
  C:0D62H         LINE#         79
  C:0D7EH         LINE#         80
  C:0D98H         LINE#         81
  C:0D98H         LINE#         82
  C:0DA8H         LINE#         83
  C:0DAAH         LINE#         84
  C:0DC2H         LINE#         85
  C:0DC2H         LINE#         86
  C:0DD8H         LINE#         87
  C:0DD8H         LINE#         89
  C:0DD8H         LINE#         90
  C:0DD8H         LINE#         92
  C:0DD8H         LINE#         94
  C:0DD8H         LINE#         96
  C:0DE9H         LINE#         97
  -------         ENDPROC       _UPDATE_POSITION
  -------         PROC          _TREND_LINE_30_31
  X:00B0H         SYMBOL        time
  -------         DO            
  X:00B4H         SYMBOL        offset
  -------         ENDDO         
  C:0DEAH         LINE#         99
  C:0DF0H         LINE#         100
  C:0DF0H         LINE#         102
  C:0F47H         LINE#         103
  C:0FDEH         LINE#         106
  -------         ENDPROC       _TREND_LINE_30_31
  -------         ENDMOD        BIPOLARMOTOR

  -------         MODULE        ?C_STARTUP
  C:19BBH         SEGMENT       ?C_C51STARTUP
  I:0021H         SEGMENT       ?STACK
  C:0000H         PUBLIC        ?C_STARTUP
  D:00E0H         SYMBOL        ACC
  D:00F0H         SYMBOL        B
  D:0083H         SYMBOL        DPH
  D:0082H         SYMBOL        DPL
  N:0000H         SYMBOL        IBPSTACK
  N:0100H         SYMBOL        IBPSTACKTOP
  N:0080H         SYMBOL        IDATALEN
  C:19BEH         SYMBOL        IDATALOOP
  N:0000H         SYMBOL        PBPSTACK
  N:0100H         SYMBOL        PBPSTACKTOP
  N:0000H         SYMBOL        PDATALEN
  N:0000H         SYMBOL        PDATASTART
BL51 BANKED LINKER/LOCATER V6.22                                                      08/14/2018  11:19:33  PAGE 33


  N:0000H         SYMBOL        PPAGE
  N:0000H         SYMBOL        PPAGEENABLE
  D:00A0H         SYMBOL        PPAGE_SFR
  D:0081H         SYMBOL        SP
  C:19BBH         SYMBOL        STARTUP1
  N:0000H         SYMBOL        XBPSTACK
  N:0000H         SYMBOL        XBPSTACKTOP
  N:0000H         SYMBOL        XDATALEN
  N:0000H         SYMBOL        XDATASTART
  C:0000H         LINE#         126
  C:19BBH         LINE#         133
  C:19BDH         LINE#         134
  C:19BEH         LINE#         135
  C:19BFH         LINE#         136
  C:19C1H         LINE#         185
  C:19C4H         LINE#         196
  -------         ENDMOD        ?C_STARTUP

  -------         MODULE        ?C?FPADD
  C:002DH         PUBLIC        ?C?FPADD
  C:0029H         PUBLIC        ?C?FPSUB
  -------         ENDMOD        ?C?FPADD

  -------         MODULE        ?C?FPMUL
  C:011EH         PUBLIC        ?C?FPMUL
  -------         ENDMOD        ?C?FPMUL

  -------         MODULE        ?C?FPDIV
  C:0227H         PUBLIC        ?C?FPDIV
  -------         ENDMOD        ?C?FPDIV

  -------         MODULE        ?C?FPCMP
  C:02C6H         PUBLIC        ?C?FPCMP
  C:02C4H         PUBLIC        ?C?FPCMP3
  -------         ENDMOD        ?C?FPCMP

  -------         MODULE        ?C?FPNEG
  C:033DH         PUBLIC        ?C?FPNEG
  -------         ENDMOD        ?C?FPNEG

  -------         MODULE        ?C?FCAST
  C:0358H         PUBLIC        ?C?FCASTC
  C:0353H         PUBLIC        ?C?FCASTI
  C:034EH         PUBLIC        ?C?FCASTL
  -------         ENDMOD        ?C?FCAST

  -------         MODULE        ?C?CASTF
  C:038CH         PUBLIC        ?C?CASTF
  -------         ENDMOD        ?C?CASTF

  -------         MODULE        POW
  X:00B8H         PUBLIC        ?_pow?BYTE
  C:1328H         PUBLIC        _pow
  -------         ENDMOD        POW

  -------         MODULE        ?C?CHKFLOAT
  C:040DH         PUBLIC        ?C?CHKFLOAT
BL51 BANKED LINKER/LOCATER V6.22                                                      08/14/2018  11:19:33  PAGE 34


  -------         ENDMOD        ?C?CHKFLOAT

  -------         MODULE        EXP
  C:18C4H         PUBLIC        _EXP
  -------         ENDMOD        EXP

  -------         MODULE        LOG
  C:14C2H         PUBLIC        _LOG
  C:14BEH         PUBLIC        _LOG10
  -------         ENDMOD        LOG

  -------         MODULE        ?C?CLDPTR
  C:0474H         PUBLIC        ?C?CLDPTR
  -------         ENDMOD        ?C?CLDPTR

  -------         MODULE        ?C?CSTPTR
  C:048DH         PUBLIC        ?C?CSTPTR
  -------         ENDMOD        ?C?CSTPTR

  -------         MODULE        ?C?IMUL
  C:049FH         PUBLIC        ?C?IMUL
  -------         ENDMOD        ?C?IMUL

  -------         MODULE        ?C?UIDIV
  C:04B1H         PUBLIC        ?C?UIDIV
  -------         ENDMOD        ?C?UIDIV

  -------         MODULE        ?C?SIDIV
  C:0506H         PUBLIC        ?C?SIDIV
  -------         ENDMOD        ?C?SIDIV

  -------         MODULE        ?C?ILDIX
  C:053CH         PUBLIC        ?C?ILDIX
  -------         ENDMOD        ?C?ILDIX

  -------         MODULE        ?C?LNEG
  C:0552H         PUBLIC        ?C?LNEG
  -------         ENDMOD        ?C?LNEG

  -------         MODULE        ?C?LLDPTR
  C:0560H         PUBLIC        ?C?LLDPTR
  -------         ENDMOD        ?C?LLDPTR

  -------         MODULE        ?C?LSTPTR
  C:0580H         PUBLIC        ?C?LSTPTR
  -------         ENDMOD        ?C?LSTPTR

  -------         MODULE        ?C?LLDCODE
  C:059AH         PUBLIC        ?C?LLDCODE
  -------         ENDMOD        ?C?LLDCODE

  -------         MODULE        ?C?LLDXDATA0
  C:05AAH         PUBLIC        ?C?LLDXDATA0
  -------         ENDMOD        ?C?LLDXDATA0

  -------         MODULE        ?C?LLDCODE0
  C:05B6H         PUBLIC        ?C?LLDCODE0
BL51 BANKED LINKER/LOCATER V6.22                                                      08/14/2018  11:19:33  PAGE 35


  -------         ENDMOD        ?C?LLDCODE0

  -------         MODULE        ?C?LLDPTR0
  C:05C6H         PUBLIC        ?C?LLDPTR0
  -------         ENDMOD        ?C?LLDPTR0

  -------         MODULE        ?C?LSTXDATA
  C:05E6H         PUBLIC        ?C?LSTXDATA
  -------         ENDMOD        ?C?LSTXDATA

  -------         MODULE        ?C?LSTKXDATA
  C:05F2H         PUBLIC        ?C?LSTKXDATA
  -------         ENDMOD        ?C?LSTKXDATA

  -------         MODULE        ?C?OFFXADD
  C:0623H         PUBLIC        ?C?OFFXADD
  -------         ENDMOD        ?C?OFFXADD

  -------         MODULE        ABS
  C:1FB5H         PUBLIC        _ABS
  -------         ENDMOD        ABS

  -------         MODULE        ATOI
  C:15B7H         PUBLIC        _atoi
  -------         ENDMOD        ATOI

  -------         MODULE        ?C?IILDX
  C:062FH         PUBLIC        ?C?IILDX
  -------         ENDMOD        ?C?IILDX

  -------         MODULE        ?C?LLDIDATA
  C:0645H         PUBLIC        ?C?LLDIDATA
  -------         ENDMOD        ?C?LLDIDATA

  -------         MODULE        ?C?LLDXDATA
  C:0651H         PUBLIC        ?C?LLDXDATA
  -------         ENDMOD        ?C?LLDXDATA

  -------         MODULE        ?C?LLDPDATA
  C:065DH         PUBLIC        ?C?LLDPDATA
  -------         ENDMOD        ?C?LLDPDATA

  -------         MODULE        ?C?LLDIDATA0
  C:0669H         PUBLIC        ?C?LLDIDATA0
  -------         ENDMOD        ?C?LLDIDATA0

  -------         MODULE        ?C?LLDPDATA0
  C:0676H         PUBLIC        ?C?LLDPDATA0
  -------         ENDMOD        ?C?LLDPDATA0

  -------         MODULE        ?C?LSTIDATA
  C:0683H         PUBLIC        ?C?LSTIDATA
  -------         ENDMOD        ?C?LSTIDATA

  -------         MODULE        ?C?LSTPDATA
  C:068FH         PUBLIC        ?C?LSTPDATA
  -------         ENDMOD        ?C?LSTPDATA
BL51 BANKED LINKER/LOCATER V6.22                                                      08/14/2018  11:19:33  PAGE 36



  -------         MODULE        ISDIGIT
  C:1F99H         PUBLIC        _isdigit
  -------         ENDMOD        ISDIGIT

  -------         MODULE        ISSPACE
  C:1F30H         PUBLIC        _isspace
  -------         ENDMOD        ISSPACE

*** WARNING L16: UNCALLED SEGMENT, IGNORED FOR OVERLAY PROCESS
    SEGMENT: ?PR?_DISPLAY_PROX?MAIN

*** WARNING L16: UNCALLED SEGMENT, IGNORED FOR OVERLAY PROCESS
    SEGMENT: ?PR?_SENDSTRING?UART1

*** WARNING L16: UNCALLED SEGMENT, IGNORED FOR OVERLAY PROCESS
    SEGMENT: ?PR?_TEN?UART1

*** WARNING L16: UNCALLED SEGMENT, IGNORED FOR OVERLAY PROCESS
    SEGMENT: ?PR?_UNIT?UART1

*** WARNING L16: UNCALLED SEGMENT, IGNORED FOR OVERLAY PROCESS
    SEGMENT: ?PR?_DECTOBCD?UART1

*** WARNING L16: UNCALLED SEGMENT, IGNORED FOR OVERLAY PROCESS
    SEGMENT: ?PR?_ASCII_LETTER?UART1

*** WARNING L16: UNCALLED SEGMENT, IGNORED FOR OVERLAY PROCESS
    SEGMENT: ?PR?NOP?VCNL4035

*** WARNING L16: UNCALLED SEGMENT, IGNORED FOR OVERLAY PROCESS
    SEGMENT: ?PR?_READ_VCNL4035?VCNL4035

*** WARNING L16: UNCALLED SEGMENT, IGNORED FOR OVERLAY PROCESS
    SEGMENT: ?PR?_DISPLAYLCD_VCNL4035?VCNL4035

*** WARNING L1: UNRESOLVED EXTERNAL SYMBOL
    SYMBOL:  AUTO_MODE
    MODULE:  .\Obj\main.obj (MAIN)

*** WARNING L2: REFERENCE MADE TO UNRESOLVED EXTERNAL
    SYMBOL:  AUTO_MODE
    MODULE:  .\Obj\main.obj (MAIN)
    ADDRESS: 06B7H

*** WARNING L2: REFERENCE MADE TO UNRESOLVED EXTERNAL
    SYMBOL:  AUTO_MODE
    MODULE:  .\Obj\main.obj (MAIN)
    ADDRESS: 08A4H

*** WARNING L1: UNRESOLVED EXTERNAL SYMBOL
    SYMBOL:  AUTO_MODE
    MODULE:  .\Obj\KeyPad.obj (KEYPAD)

*** WARNING L2: REFERENCE MADE TO UNRESOLVED EXTERNAL
    SYMBOL:  AUTO_MODE
    MODULE:  .\Obj\KeyPad.obj (KEYPAD)
BL51 BANKED LINKER/LOCATER V6.22                                                      08/14/2018  11:19:33  PAGE 37


    ADDRESS: 0971H

*** WARNING L2: REFERENCE MADE TO UNRESOLVED EXTERNAL
    SYMBOL:  AUTO_MODE
    MODULE:  .\Obj\KeyPad.obj (KEYPAD)
    ADDRESS: 0974H

*** WARNING L2: REFERENCE MADE TO UNRESOLVED EXTERNAL
    SYMBOL:  AUTO_MODE
    MODULE:  .\Obj\KeyPad.obj (KEYPAD)
    ADDRESS: 097BH

*** WARNING L2: REFERENCE MADE TO UNRESOLVED EXTERNAL
    SYMBOL:  AUTO_MODE
    MODULE:  .\Obj\KeyPad.obj (KEYPAD)
    ADDRESS: 097EH

Program Size: data=17.7 xdata=253 code=8188
LINK/LOCATE RUN COMPLETE.  17 WARNING(S),  0 ERROR(S)
